

Microchip MPLAB XC8 Assembler V2.41 build 20230208172133 
                                                                                               Fri Nov 24 22:08:42 2023

Microchip MPLAB XC8 C Compiler v2.41 (Free license) build 20230208172133 Og1 
     1                           	processor	18F4620
     2                           	fnconf	rparam,??,?,0
     3                           	pagewidth 120
     4                           	opt	flic
     5                           	psect	idataCOMRAM,global,class=CODE,delta=1,noexec
     6                           	psect	idataBANK0,global,class=CODE,delta=1,noexec
     7                           	psect	idataBANK1,global,class=CODE,delta=1,noexec
     8                           	psect	smallconst,global,reloc=2,class=SMALLCONST,delta=1,noexec
     9                           	psect	cinit,global,reloc=2,class=CODE,delta=1
    10                           	psect	bssCOMRAM,global,class=COMRAM,space=1,delta=1,lowdata,noexec
    11                           	psect	dataCOMRAM,global,class=COMRAM,space=1,delta=1,lowdata,noexec
    12                           	psect	bssBANK0,global,class=BANK0,space=1,delta=1,lowdata,noexec
    13                           	psect	dataBANK0,global,class=BANK0,space=1,delta=1,lowdata,noexec
    14                           	psect	bssBANK1,global,class=BANK1,space=1,delta=1,lowdata,noexec
    15                           	psect	dataBANK1,global,class=BANK1,space=1,delta=1,lowdata,noexec
    16                           	psect	cstackBANK0,global,class=BANK0,space=1,delta=1,lowdata,noexec
    17                           	psect	cstackCOMRAM,global,class=COMRAM,space=1,delta=1,lowdata,noexec
    18                           	psect	text0,global,reloc=2,class=CODE,delta=1
    19                           	psect	text1,global,reloc=2,class=CODE,delta=1
    20                           	psect	text2,global,reloc=2,class=CODE,delta=1
    21                           	psect	text3,global,reloc=2,class=CODE,delta=1
    22                           	psect	text4,global,reloc=2,class=CODE,delta=1
    23                           	psect	text5,global,reloc=2,class=CODE,delta=1
    24                           	psect	text6,global,reloc=2,class=CODE,delta=1
    25                           	psect	text7,global,reloc=2,class=CODE,delta=1,group=3
    26                           	psect	text8,global,reloc=2,class=CODE,delta=1
    27                           	psect	text9,global,reloc=2,class=CODE,delta=1
    28                           	psect	text10,global,reloc=2,class=CODE,delta=1
    29                           	psect	text11,global,reloc=2,class=CODE,delta=1
    30                           	psect	text12,global,reloc=2,class=CODE,delta=1
    31                           	psect	text13,global,reloc=2,class=CODE,delta=1,group=3
    32                           	psect	text14,global,reloc=2,class=CODE,delta=1,group=1
    33                           	psect	text15,global,reloc=2,class=CODE,delta=1,group=1
    34                           	psect	text16,global,reloc=2,class=CODE,delta=1,group=1
    35                           	psect	text17,global,reloc=2,class=CODE,delta=1,group=1
    36                           	psect	text18,global,reloc=2,class=CODE,delta=1,group=3
    37                           	psect	text19,global,reloc=2,class=CODE,delta=1,group=3
    38                           	psect	text20,global,reloc=2,class=CODE,delta=1,group=3
    39                           	psect	text21,global,reloc=2,class=CODE,delta=1,group=3
    40                           	psect	text22,global,reloc=2,class=CODE,delta=1,group=2
    41                           	psect	text23,global,reloc=2,class=CODE,delta=1,group=2
    42                           	psect	text24,global,reloc=2,class=CODE,delta=1,group=3
    43                           	psect	text25,global,reloc=2,class=CODE,delta=1,group=2
    44                           	psect	text26,global,reloc=2,class=CODE,delta=1,group=2
    45                           	psect	text27,global,reloc=2,class=CODE,delta=1
    46                           	psect	text28,global,reloc=2,class=CODE,delta=1
    47                           	psect	text29,global,reloc=2,class=CODE,delta=1
    48                           	psect	text30,global,reloc=2,class=CODE,delta=1
    49                           	psect	text31,global,reloc=2,class=CODE,delta=1
    50                           	psect	text32,global,reloc=2,class=CODE,delta=1
    51                           	psect	text33,global,reloc=2,class=CODE,delta=1
    52                           	psect	text34,global,reloc=2,class=CODE,delta=1
    53                           	psect	text35,global,reloc=2,class=CODE,delta=1
    54                           	psect	text36,global,reloc=2,class=CODE,delta=1
    55                           	psect	intcode,global,reloc=2,class=CODE,delta=1
    56                           	psect	intcode_body,global,reloc=2,class=CODE,delta=1
    57                           	psect	text38,global,reloc=2,class=CODE,delta=1
    58                           	psect	text39,global,reloc=2,class=CODE,delta=1
    59                           	psect	text40,global,reloc=2,class=CODE,delta=1
    60                           	psect	text41,global,reloc=2,class=CODE,delta=1
    61                           	psect	text42,global,reloc=2,class=CODE,delta=1
    62                           	psect	text43,global,reloc=2,class=CODE,delta=1
    63                           	psect	text44,global,reloc=2,class=CODE,delta=1
    64                           	psect	text45,global,reloc=2,class=CODE,delta=1
    65                           	psect	text46,global,reloc=2,class=CODE,delta=1
    66                           	psect	text47,global,reloc=2,class=CODE,delta=1
    67                           	psect	text48,global,reloc=2,class=CODE,delta=1
    68                           	psect	text49,global,reloc=2,class=CODE,delta=1
    69                           	psect	text50,global,reloc=2,class=CODE,delta=1
    70                           	psect	text51,global,reloc=2,class=CODE,delta=1
    71                           	psect	text52,global,reloc=2,class=CODE,delta=1
    72                           	psect	text53,global,reloc=2,class=CODE,delta=1
    73                           	psect	text54,global,reloc=2,class=CODE,delta=1
    74                           	psect	text55,global,reloc=2,class=CODE,delta=1
    75                           	psect	text56,global,reloc=2,class=CODE,delta=1
    76                           	psect	intsave_regs,global,class=BIGRAM,space=1,delta=1,noexec
    77                           	psect	rparam,global,class=COMRAM,space=1,delta=1,noexec
    78                           	psect	temp,global,ovrld,common,class=COMRAM,space=1,delta=1
    79                           	psect	idloc,global,abs,ovrld,class=IDLOC,space=5,delta=1,noexec
    80                           	psect	config,global,abs,ovrld,class=CONFIG,space=4,delta=1,noexec
    81   000000                     
    82                           ; Generated 23/03/2023 GMT
    83                           ; 
    84                           ; Copyright © 2023, Microchip Technology Inc. and its subsidiaries ("Microchip")
    85                           ; All rights reserved.
    86                           ; 
    87                           ; This software is developed by Microchip Technology Inc. and its subsidiaries ("Microch
      +                          ip").
    88                           ; 
    89                           ; Redistribution and use in source and binary forms, with or without modification, are
    90                           ; permitted provided that the following conditions are met:
    91                           ; 
    92                           ;     1. Redistributions of source code must retain the above copyright notice, this lis
      +                          t of
    93                           ;        conditions and the following disclaimer.
    94                           ; 
    95                           ;     2. Redistributions in binary form must reproduce the above copyright notice, this 
      +                          list
    96                           ;        of conditions and the following disclaimer in the documentation and/or other
    97                           ;        materials provided with the distribution. Publication is not required when
    98                           ;        this file is used in an embedded application.
    99                           ; 
   100                           ;     3. Microchip's name may not be used to endorse or promote products derived from th
      +                          is
   101                           ;        software without specific prior written permission.
   102                           ; 
   103                           ; THIS SOFTWARE IS PROVIDED BY MICROCHIP "AS IS" AND ANY EXPRESS OR IMPLIED WARRANTIES,
   104                           ; INCLUDING, BUT NOT LIMITED TO, THE IMPLIED WARRANTIES OF MERCHANTABILITY AND FITNESS F
      +                          OR
   105                           ; PURPOSE ARE DISCLAIMED.  IN NO EVENT SHALL MICROCHIP BE LIABLE FOR ANY DIRECT, INDIREC
      +                          T,
   106                           ; INCIDENTAL, SPECIAL, EXEMPLARY, OR CONSEQUENTIAL DAMAGES (INCLUDING BUT NOT LIMITED TO
   107                           ; PROCUREMENT OF SUBSTITUTE GOODS OR SERVICES; LOSS OF USE, DATA OR PROFITS; OR BUSINESS
   108                           ; INTERRUPTION) HOWSOEVER CAUSED AND ON ANY THEORY OF LIABILITY, WHETHER IN CONTRACT, ST
      +                          RICT
   109                           ; LIABILITY, OR TORT (INCLUDING NEGLIGENCE OR OTHERWISE) ARISING IN ANY WAY OUT OF THE U
      +                          SE OF
   110                           ; THIS SOFTWARE, EVEN IF ADVISED OF THE POSSIBILITY OF SUCH DAMAGE.
   111                           ; 
   112                           ; 
   113                           ; Code-generator required, PIC18F4620 Definitions
   114                           ; 
   115                           ; SFR Addresses
   116   000000                     
   117                           	psect	idataCOMRAM
   118   002DDC                     __pidataCOMRAM:
   119                           	callstack 0
   120                           
   121                           ;initializer for MSSP_SPI_Slave_Mode_GPIO_PIN_Configurations@F3611
   122   002DDC  68                 	db	104
   123                           
   124                           ;initializer for MSSP_SPI_Slave_Mode_GPIO_PIN_Configurations@F3609
   125   002DDD  5A                 	db	90
   126                           
   127                           ;initializer for MSSP_SPI_Slave_Mode_GPIO_PIN_Configurations@F3607
   128   002DDE  62                 	db	98
   129                           
   130                           ;initializer for MSSP_SPI_Slave_Mode_GPIO_PIN_Configurations@F3605
   131   002DDF  2A                 	db	42
   132                           
   133                           ;initializer for MSSP_SPI_Msster_Mode_GPIO_PIN_Configurations@F3600
   134   002DE0  1A                 	db	26
   135                           
   136                           ;initializer for MSSP_SPI_Msster_Mode_GPIO_PIN_Configurations@F3598
   137   002DE1  62                 	db	98
   138                           
   139                           ;initializer for MSSP_SPI_Msster_Mode_GPIO_PIN_Configurations@F3596
   140   002DE2  2A                 	db	42
   141                           
   142                           ;initializer for _RB7_Flag
   143   002DE3  01                 	db	1
   144                           
   145                           ;initializer for _RB6_Flag
   146   002DE4  01                 	db	1
   147                           
   148                           ;initializer for _RB5_Flag
   149   002DE5  01                 	db	1
   150                           
   151                           ;initializer for _RB4_Flag
   152   002DE6  01                 	db	1
   153                           
   154                           	psect	idataBANK0
   155   002C8A                     __pidataBANK0:
   156                           	callstack 0
   157                           
   158                           ;initializer for _port_registers
   159   002C8A  80                 	db	128
   160   002C8B  0F                 	db	15
   161   002C8C  81                 	db	129
   162   002C8D  0F                 	db	15
   163   002C8E  82                 	db	130
   164   002C8F  0F                 	db	15
   165   002C90  83                 	db	131
   166   002C91  0F                 	db	15
   167   002C92  84                 	db	132
   168   002C93  0F                 	db	15
   169                           
   170                           ;initializer for _lat_registers
   171   002C94  89                 	db	137
   172   002C95  0F                 	db	15
   173   002C96  8A                 	db	138
   174   002C97  0F                 	db	15
   175   002C98  8B                 	db	139
   176   002C99  0F                 	db	15
   177   002C9A  8C                 	db	140
   178   002C9B  0F                 	db	15
   179   002C9C  8D                 	db	141
   180   002C9D  0F                 	db	15
   181                           
   182                           ;initializer for _tris_registers
   183   002C9E  92                 	db	146
   184   002C9F  0F                 	db	15
   185   002CA0  93                 	db	147
   186   002CA1  0F                 	db	15
   187   002CA2  94                 	db	148
   188   002CA3  0F                 	db	15
   189   002CA4  95                 	db	149
   190   002CA5  0F                 	db	15
   191   002CA6  96                 	db	150
   192   002CA7  0F                 	db	15
   193                           
   194                           ;initializer for _keypad1
   195   002CA8  32                 	db	50
   196   002CA9  3A                 	db	58
   197   002CAA  03                 	db	3
   198   002CAB  0B                 	db	11
   199   002CAC  53                 	db	83
   200   002CAD  5B                 	db	91
   201   002CAE  63                 	db	99
   202   002CAF  6B                 	db	107
   203                           
   204                           ;initializer for _lcd_1
   205   002CB0  02                 	db	2
   206   002CB1  0A                 	db	10
   207   002CB2  12                 	db	18
   208   002CB3  1A                 	db	26
   209   002CB4  22                 	db	34
   210   002CB5  2A                 	db	42
   211                           
   212                           	psect	idataBANK1
   213   002DE7                     __pidataBANK1:
   214                           	callstack 0
   215                           
   216                           ;initializer for _lcd_2
   217   002DE7  32                 	db	50
   218   002DE8  3A                 	db	58
   219   002DE9  03                 	db	3
   220   002DEA  0B                 	db	11
   221   002DEB  13                 	db	19
   222   002DEC  1B                 	db	27
   223   002DED  23                 	db	35
   224   002DEE  2B                 	db	43
   225   002DEF  33                 	db	51
   226   002DF0  3B                 	db	59
   227                           
   228                           	psect	smallconst
   229   001000                     __psmallconst:
   230                           	callstack 0
   231   001000  00                 	db	0
   232   001001                     _btn_values:
   233                           	callstack 0
   234   001001  37                 	db	55
   235   001002  38                 	db	56
   236   001003  39                 	db	57
   237   001004  2F                 	db	47
   238   001005  34                 	db	52
   239   001006  35                 	db	53
   240   001007  36                 	db	54
   241   001008  2A                 	db	42
   242   001009  31                 	db	49
   243   00100A  32                 	db	50
   244   00100B  33                 	db	51
   245   00100C  2D                 	db	45
   246   00100D  23                 	db	35
   247   00100E  30                 	db	48
   248   00100F  3D                 	db	61
   249   001010  2B                 	db	43
   250   001011                     __end_of_btn_values:
   251                           	callstack 0
   252   000000                     _SPBRGH	set	4016
   253   000000                     _SPBRG	set	4015
   254   000000                     _TXREG	set	4013
   255   000000                     _TXSTAbits	set	4012
   256   000000                     _RCREG	set	4014
   257   000000                     _RCSTAbits	set	4011
   258   000000                     _TMR3L	set	4018
   259   000000                     _TMR3H	set	4019
   260   000000                     _TMR1L	set	4046
   261   000000                     _TMR1H	set	4047
   262   000000                     _TMR0L	set	4054
   263   000000                     _TMR0H	set	4055
   264   000000                     _INTCON2bits	set	4081
   265   000000                     _SSPSTATbits	set	4039
   266   000000                     _SSPADD	set	4040
   267   000000                     _SSPCON2bits	set	4037
   268   000000                     _SSPCON1bits	set	4038
   269   000000                     _EECON2	set	4007
   270   000000                     _CCPR1H	set	4031
   271   000000                     _CCPR1L	set	4030
   272   000000                     _ADCON1bits	set	4033
   273   000000                     _ADRESL	set	4035
   274   000000                     _ADRESH	set	4036
   275   000000                     _INTCONbits	set	4082
   276   000000                     _TRISD	set	3989
   277   000000                     _TRISC	set	3988
   278   000000                     _TRISB	set	3987
   279   000000                     _TRISE	set	3990
   280   000000                     _PORTBbits	set	3969
   281   000000                     _TRISCbits	set	3988
   282   000000                     _PIE1bits	set	3997
   283   000000                     _ADCON2bits	set	4032
   284   000000                     _ADCON0bits	set	4034
   285   000000                     _PORTE	set	3972
   286   000000                     _PORTD	set	3971
   287   000000                     _PORTC	set	3970
   288   000000                     _PORTB	set	3969
   289   000000                     _PORTA	set	3968
   290   000000                     _LATA	set	3977
   291   000000                     _TRISA	set	3986
   292   000000                     _PIE2bits	set	4000
   293   000000                     _CCP2CONbits	set	4026
   294   000000                     _CCP1CONbits	set	4029
   295   000000                     _PIR1bits	set	3998
   296   000000                     _EECON1bits	set	4006
   297   000000                     _EEDATA	set	4008
   298   000000                     _EEADR	set	4009
   299   000000                     _EEADRH	set	4010
   300   000000                     _T3CONbits	set	4017
   301   000000                     _PIR2bits	set	4001
   302   000000                     _LATE	set	3981
   303   000000                     _LATD	set	3980
   304   000000                     _LATC	set	3979
   305   000000                     _LATB	set	3978
   306   000000                     _TMR2	set	4044
   307   000000                     _T2CONbits	set	4042
   308   000000                     _T1CONbits	set	4045
   309   000000                     _T0CONbits	set	4053
   310   000000                     _INTCON3bits	set	4080
   311   000000                     _SSPBUF	set	4041
   312   000000                     _BAUDCONbits	set	4024
   313   001011                     STR_8:
   314   001011  43                 	db	67	;'C'
   315   001012  41                 	db	65	;'A'
   316   001013  4E                 	db	78	;'N'
   317   001014  60                 	db	96	;'`'
   318   001015  54                 	db	84	;'T'
   319   001016  20                 	db	32
   320   001017  44                 	db	68	;'D'
   321   001018  49                 	db	73	;'I'
   322   001019  56                 	db	86	;'V'
   323   00101A  49                 	db	73	;'I'
   324   00101B  44                 	db	68	;'D'
   325   00101C  45                 	db	69	;'E'
   326   00101D  20                 	db	32
   327   00101E  42                 	db	66	;'B'
   328   00101F  59                 	db	89	;'Y'
   329   001020  20                 	db	32
   330   001021  5A                 	db	90	;'Z'
   331   001022  45                 	db	69	;'E'
   332   001023  52                 	db	82	;'R'
   333   001024  4F                 	db	79	;'O'
   334   001025  00                 	db	0
   335   001026                     STR_6:
   336   001026  20                 	db	32
   337   001027  20                 	db	32
   338   001028  20                 	db	32
   339   001029  20                 	db	32
   340   00102A  20                 	db	32
   341   00102B  20                 	db	32
   342   00102C  20                 	db	32
   343   00102D  20                 	db	32
   344   00102E  20                 	db	32
   345   00102F  00                 	db	0
   346   001030                     STR_4:
   347   001030  57                 	db	87	;'W'
   348   001031  45                 	db	69	;'E'
   349   001032  4C                 	db	76	;'L'
   350   001033  43                 	db	67	;'C'
   351   001034  4F                 	db	79	;'O'
   352   001035  4D                 	db	77	;'M'
   353   001036  45                 	db	69	;'E'
   354   001037  00                 	db	0
   355   001038                     STR_5:
   356   001038  4C                 	db	76	;'L'
   357   001039  6F                 	db	111	;'o'
   358   00103A  61                 	db	97	;'a'
   359   00103B  64                 	db	100	;'d'
   360   00103C  69                 	db	105	;'i'
   361   00103D  6E                 	db	110	;'n'
   362   00103E  67                 	db	103	;'g'
   363   00103F  00                 	db	0
   364   001040                     STR_1:
   365   001040  25                 	db	37
   366   001041  69                 	db	105	;'i'
   367   001042  00                 	db	0
   368   001043  00                 	db	0	; dummy byte at the end
   369   000000                     
   370                           ; #config settings
   371                           
   372                           	psect	cinit
   373   0026A2                     __pcinit:
   374                           	callstack 0
   375   0026A2                     start_initialization:
   376                           	callstack 0
   377   0026A2                     __initialization:
   378                           	callstack 0
   379                           
   380                           ; Initialize objects allocated to BANK1 (10 bytes)
   381                           ; load TBLPTR registers with __pidataBANK1
   382   0026A2  0EE7               	movlw	low __pidataBANK1
   383   0026A4  6EF6               	movwf	tblptrl,c
   384   0026A6  0E2D               	movlw	high __pidataBANK1
   385   0026A8  6EF7               	movwf	tblptrh,c
   386   0026AA  0E00               	movlw	low (__pidataBANK1 shr (0+16))
   387   0026AC  6EF8               	movwf	tblptru,c
   388   0026AE  EE01  F020         	lfsr	0,__pdataBANK1
   389   0026B2  EE10 F00A          	lfsr	1,10
   390   0026B6                     copy_data0:
   391   0026B6  0009               	tblrd		*+
   392   0026B8  CFF5 FFEE          	movff	tablat,postinc0
   393   0026BC  50E5               	movf	postdec1,w,c
   394   0026BE  50E1               	movf	fsr1l,w,c
   395   0026C0  E1FA               	bnz	copy_data0
   396                           
   397                           ; Initialize objects allocated to BANK0 (44 bytes)
   398                           ; load TBLPTR registers with __pidataBANK0
   399   0026C2  0E8A               	movlw	low __pidataBANK0
   400   0026C4  6EF6               	movwf	tblptrl,c
   401   0026C6  0E2C               	movlw	high __pidataBANK0
   402   0026C8  6EF7               	movwf	tblptrh,c
   403   0026CA  0E00               	movlw	low (__pidataBANK0 shr (0+16))
   404   0026CC  6EF8               	movwf	tblptru,c
   405   0026CE  EE00  F0D1         	lfsr	0,__pdataBANK0
   406   0026D2  EE10 F02C          	lfsr	1,44
   407   0026D6                     copy_data1:
   408   0026D6  0009               	tblrd		*+
   409   0026D8  CFF5 FFEE          	movff	tablat,postinc0
   410   0026DC  50E5               	movf	postdec1,w,c
   411   0026DE  50E1               	movf	fsr1l,w,c
   412   0026E0  E1FA               	bnz	copy_data1
   413                           
   414                           ; Initialize objects allocated to COMRAM (11 bytes)
   415                           ; load TBLPTR registers with __pidataCOMRAM
   416   0026E2  0EDC               	movlw	low __pidataCOMRAM
   417   0026E4  6EF6               	movwf	tblptrl,c
   418   0026E6  0E2D               	movlw	high __pidataCOMRAM
   419   0026E8  6EF7               	movwf	tblptrh,c
   420   0026EA  0E00               	movlw	low (__pidataCOMRAM shr (0+16))
   421   0026EC  6EF8               	movwf	tblptru,c
   422   0026EE  EE00  F071         	lfsr	0,__pdataCOMRAM
   423   0026F2  EE10 F00B          	lfsr	1,11
   424   0026F6                     copy_data2:
   425   0026F6  0009               	tblrd		*+
   426   0026F8  CFF5 FFEE          	movff	tablat,postinc0
   427   0026FC  50E5               	movf	postdec1,w,c
   428   0026FE  50E1               	movf	fsr1l,w,c
   429   002700  E1FA               	bnz	copy_data2
   430                           
   431                           ; Clear objects allocated to BANK1 (32 bytes)
   432   002702  EE01  F000         	lfsr	0,__pbssBANK1
   433   002706  0E20               	movlw	32
   434   002708                     clear_0:
   435   002708  6AEE               	clrf	postinc0,c
   436   00270A  06E8               	decf	wreg,f,c
   437   00270C  E1FD               	bnz	clear_0
   438                           
   439                           ; Clear objects allocated to BANK0 (81 bytes)
   440   00270E  EE00  F080         	lfsr	0,__pbssBANK0
   441   002712  0E51               	movlw	81
   442   002714                     clear_1:
   443   002714  6AEE               	clrf	postinc0,c
   444   002716  06E8               	decf	wreg,f,c
   445   002718  E1FD               	bnz	clear_1
   446                           
   447                           ; Clear objects allocated to COMRAM (17 bytes)
   448   00271A  EE00  F060         	lfsr	0,__pbssCOMRAM
   449   00271E  0E11               	movlw	17
   450   002720                     clear_2:
   451   002720  6AEE               	clrf	postinc0,c
   452   002722  06E8               	decf	wreg,f,c
   453   002724  E1FD               	bnz	clear_2
   454   002726                     end_of_initialization:
   455                           	callstack 0
   456   002726                     __end_of__initialization:
   457                           	callstack 0
   458   002726  907C               	bcf	int$flags,0,c	;clear compiler interrupt flag (level 1)
   459   002728  927C               	bcf	int$flags,1,c	;clear compiler interrupt flag (level 2)
   460   00272A  0100               	movlb	0
   461   00272C  EF46  F00A         	goto	_main	;jump to C main() function
   462                           
   463                           	psect	bssCOMRAM
   464   000060                     __pbssCOMRAM:
   465                           	callstack 0
   466   000060                     _num2:
   467                           	callstack 0
   468   000060                     	ds	4
   469   000064                     _num1:
   470                           	callstack 0
   471   000064                     	ds	4
   472   000068                     _timer1_preload:
   473                           	callstack 0
   474   000068                     	ds	2
   475   00006A                     _timer0_preload:
   476                           	callstack 0
   477   00006A                     	ds	2
   478   00006C                     _flags:
   479                           	callstack 0
   480   00006C                     	ds	1
   481   00006D                     _num2_flag:
   482                           	callstack 0
   483   00006D                     	ds	1
   484   00006E                     _operator:
   485                           	callstack 0
   486   00006E                     	ds	1
   487   00006F                     _timer2_preload:
   488                           	callstack 0
   489   00006F                     	ds	1
   490   000070                     _keypad_value:
   491                           	callstack 0
   492   000070                     	ds	1
   493                           
   494                           	psect	dataCOMRAM
   495   000071                     __pdataCOMRAM:
   496                           	callstack 0
   497   000071                     MSSP_SPI_Slave_Mode_GPIO_PIN_Configurations@F3611:
   498                           	callstack 0
   499   000071                     	ds	1
   500   000072                     MSSP_SPI_Slave_Mode_GPIO_PIN_Configurations@F3609:
   501                           	callstack 0
   502   000072                     	ds	1
   503   000073                     MSSP_SPI_Slave_Mode_GPIO_PIN_Configurations@F3607:
   504                           	callstack 0
   505   000073                     	ds	1
   506   000074                     MSSP_SPI_Slave_Mode_GPIO_PIN_Configurations@F3605:
   507                           	callstack 0
   508   000074                     	ds	1
   509   000075                     MSSP_SPI_Msster_Mode_GPIO_PIN_Configurations@F3600:
   510                           	callstack 0
   511   000075                     	ds	1
   512   000076                     MSSP_SPI_Msster_Mode_GPIO_PIN_Configurations@F3598:
   513                           	callstack 0
   514   000076                     	ds	1
   515   000077                     MSSP_SPI_Msster_Mode_GPIO_PIN_Configurations@F3596:
   516                           	callstack 0
   517   000077                     	ds	1
   518   000078                     _RB7_Flag:
   519                           	callstack 0
   520   000078                     	ds	1
   521   000079                     _RB6_Flag:
   522                           	callstack 0
   523   000079                     	ds	1
   524   00007A                     _RB5_Flag:
   525                           	callstack 0
   526   00007A                     	ds	1
   527   00007B                     _RB4_Flag:
   528                           	callstack 0
   529   00007B                     	ds	1
   530                           
   531                           	psect	bssBANK0
   532   000080                     __pbssBANK0:
   533                           	callstack 0
   534   000080                     	ds	6
   535   000086                     _result:
   536                           	callstack 0
   537   000086                     	ds	4
   538   00008A                     _width:
   539                           	callstack 0
   540   00008A                     	ds	2
   541   00008C                     _prec:
   542                           	callstack 0
   543   00008C                     	ds	2
   544   00008E                     _EUSART_OverrunErrorHandler:
   545                           	callstack 0
   546   00008E                     	ds	2
   547   000090                     _EUSART_FramingErrorHandler:
   548                           	callstack 0
   549   000090                     	ds	2
   550   000092                     _EUSART_RxInterruptHandler:
   551                           	callstack 0
   552   000092                     	ds	2
   553   000094                     _EUSART_TxInterruptHandler:
   554                           	callstack 0
   555   000094                     	ds	2
   556   000096                     _timer3_preload:
   557                           	callstack 0
   558   000096                     	ds	2
   559   000098                     _TMR3_InterruptHandler:
   560                           	callstack 0
   561   000098                     	ds	2
   562   00009A                     _TMR2_InterruptHandler:
   563                           	callstack 0
   564   00009A                     	ds	2
   565   00009C                     _TMR1_InterruptHandler:
   566                           	callstack 0
   567   00009C                     	ds	2
   568   00009E                     _TMR0_InterruptHandler:
   569                           	callstack 0
   570   00009E                     	ds	2
   571   0000A0                     _SPI_InterruptHandler:
   572                           	callstack 0
   573   0000A0                     	ds	2
   574   0000A2                     _RB7_InterruptHandler_LOW:
   575                           	callstack 0
   576   0000A2                     	ds	2
   577   0000A4                     _RB7_InterruptHandler_HIGH:
   578                           	callstack 0
   579   0000A4                     	ds	2
   580   0000A6                     _RB6_InterruptHandler_LOW:
   581                           	callstack 0
   582   0000A6                     	ds	2
   583   0000A8                     _RB6_InterruptHandler_HIGH:
   584                           	callstack 0
   585   0000A8                     	ds	2
   586   0000AA                     _RB5_InterruptHandler_LOW:
   587                           	callstack 0
   588   0000AA                     	ds	2
   589   0000AC                     _RB5_InterruptHandler_HIGH:
   590                           	callstack 0
   591   0000AC                     	ds	2
   592   0000AE                     _RB4_InterruptHandler_LOW:
   593                           	callstack 0
   594   0000AE                     	ds	2
   595   0000B0                     _RB4_InterruptHandler_HIGH:
   596                           	callstack 0
   597   0000B0                     	ds	2
   598   0000B2                     _INT2_InterruptHandler:
   599                           	callstack 0
   600   0000B2                     	ds	2
   601   0000B4                     _INT1_InterruptHandler:
   602                           	callstack 0
   603   0000B4                     	ds	2
   604   0000B6                     _INT0_InterruptHandler:
   605                           	callstack 0
   606   0000B6                     	ds	2
   607   0000B8                     _I2C_Report_Receive_Overflow_InterruptHandle:
   608                           	callstack 0
   609   0000B8                     	ds	2
   610   0000BA                     _I2C_DefaultInterruptHandle:
   611                           	callstack 0
   612   0000BA                     	ds	2
   613   0000BC                     _I2C_Report_Write_Collision_InterruptHandler:
   614                           	callstack 0
   615   0000BC                     	ds	2
   616   0000BE                     CCP1_Capture_Mode_Read_Value@F3598:
   617                           	callstack 0
   618   0000BE                     	ds	2
   619   0000C0                     _CCP2_InterruptHandler:
   620                           	callstack 0
   621   0000C0                     	ds	2
   622   0000C2                     _CCP1_InterruptHandler:
   623                           	callstack 0
   624   0000C2                     	ds	2
   625   0000C4                     _ADC_InterruptHandler:
   626                           	callstack 0
   627   0000C4                     	ds	2
   628   0000C6                     _result_txt:
   629                           	callstack 0
   630   0000C6                     	ds	11
   631                           
   632                           	psect	dataBANK0
   633   0000D1                     __pdataBANK0:
   634                           	callstack 0
   635   0000D1                     _port_registers:
   636                           	callstack 0
   637   0000D1                     	ds	10
   638   0000DB                     _lat_registers:
   639                           	callstack 0
   640   0000DB                     	ds	10
   641   0000E5                     _tris_registers:
   642                           	callstack 0
   643   0000E5                     	ds	10
   644   0000EF                     _keypad1:
   645                           	callstack 0
   646   0000EF                     	ds	8
   647   0000F7                     _lcd_1:
   648                           	callstack 0
   649   0000F7                     	ds	6
   650                           
   651                           	psect	bssBANK1
   652   000100                     __pbssBANK1:
   653                           	callstack 0
   654   000100                     _dbuf:
   655                           	callstack 0
   656   000100                     	ds	32
   657                           
   658                           	psect	dataBANK1
   659   000120                     __pdataBANK1:
   660                           	callstack 0
   661   000120                     _lcd_2:
   662                           	callstack 0
   663   000120                     	ds	10
   664                           
   665                           	psect	cstackBANK0
   666   0000FD                     __pcstackBANK0:
   667                           	callstack 0
   668   0000FD                     ??_main:
   669                           
   670                           ; 1 bytes @ 0x0
   671   0000FD                     	ds	2
   672                           
   673                           	psect	cstackCOMRAM
   674   000001                     __pcstackCOMRAM:
   675                           	callstack 0
   676   000001                     RB4_ISR@RB4_Source:
   677                           	callstack 0
   678   000001                     RB5_ISR@RB5_Source:
   679                           	callstack 0
   680   000001                     RB6_ISR@RB6_Source:
   681                           	callstack 0
   682   000001                     RB7_ISR@RB7_Source:
   683                           	callstack 0
   684   000001                     
   685                           ; 1 bytes @ 0x0
   686   000001                     	ds	1
   687   000002                     ??_InterruptManager:
   688                           
   689                           ; 1 bytes @ 0x1
   690   000002                     	ds	1
   691   000003                     ?_isdigit:
   692                           	callstack 0
   693   000003                     ?___awdiv:
   694                           	callstack 0
   695   000003                     ?___awmod:
   696                           	callstack 0
   697   000003                     ?___lmul:
   698                           	callstack 0
   699   000003                     ?___lldiv:
   700                           	callstack 0
   701   000003                     gpio_pin_direction_intialize@_pin_config:
   702                           	callstack 0
   703   000003                     gpio_pin_write_logic@_pin_config:
   704                           	callstack 0
   705   000003                     gpio_pin_read_logic@_pin_config:
   706                           	callstack 0
   707   000003                     ___awdiv@dividend:
   708                           	callstack 0
   709   000003                     ___awmod@dividend:
   710                           	callstack 0
   711   000003                     isdigit@c:
   712                           	callstack 0
   713   000003                     memset@dest:
   714                           	callstack 0
   715   000003                     fputc@c:
   716                           	callstack 0
   717   000003                     ___lmul@multiplier:
   718                           	callstack 0
   719   000003                     ___lldiv@dividend:
   720                           	callstack 0
   721                           
   722                           ; 4 bytes @ 0x2
   723   000003                     	ds	2
   724   000005                     ??_gpio_pin_direction_intialize:
   725   000005                     ??_isdigit:
   726   000005                     gpio_pin_write_logic@logic:
   727                           	callstack 0
   728   000005                     gpio_pin_read_logic@logic:
   729                           	callstack 0
   730   000005                     ___awdiv@divisor:
   731                           	callstack 0
   732   000005                     ___awmod@divisor:
   733                           	callstack 0
   734   000005                     memset@c:
   735                           	callstack 0
   736   000005                     fputc@fp:
   737                           	callstack 0
   738                           
   739                           ; 2 bytes @ 0x4
   740   000005                     	ds	1
   741   000006                     ??_gpio_pin_write_logic:
   742                           
   743                           ; 1 bytes @ 0x5
   744   000006                     	ds	1
   745   000007                     ??_gpio_pin_read_logic:
   746   000007                     ??_fputc:
   747   000007                     ___awdiv@counter:
   748                           	callstack 0
   749   000007                     ___awmod@counter:
   750                           	callstack 0
   751   000007                     memset@n:
   752                           	callstack 0
   753   000007                     ___lmul@multiplicand:
   754                           	callstack 0
   755   000007                     ___lldiv@divisor:
   756                           	callstack 0
   757                           
   758                           ; 4 bytes @ 0x6
   759   000007                     	ds	1
   760   000008                     ___awdiv@sign:
   761                           	callstack 0
   762   000008                     ___awmod@sign:
   763                           	callstack 0
   764                           
   765                           ; 1 bytes @ 0x7
   766   000008                     	ds	1
   767   000009                     ??_memset:
   768   000009                     ?_abs:
   769                           	callstack 0
   770   000009                     ___awdiv@quotient:
   771                           	callstack 0
   772   000009                     abs@a:
   773                           	callstack 0
   774                           
   775                           ; 2 bytes @ 0x8
   776   000009                     	ds	2
   777   00000B                     ??_abs:
   778   00000B                     gpio_pin_direction_intialize@ret:
   779                           	callstack 0
   780   00000B                     memset@k:
   781                           	callstack 0
   782   00000B                     ___lmul@product:
   783                           	callstack 0
   784   00000B                     ___lldiv@quotient:
   785                           	callstack 0
   786                           
   787                           ; 4 bytes @ 0xA
   788   00000B                     	ds	1
   789   00000C                     gpio_pin_write_logic@ret:
   790                           	callstack 0
   791   00000C                     gpio_pin_read_logic@ret:
   792                           	callstack 0
   793   00000C                     fputs@s:
   794                           	callstack 0
   795                           
   796                           ; 2 bytes @ 0xB
   797   00000C                     	ds	1
   798   00000D                     lcd_send_4bits@lcd:
   799                           	callstack 0
   800   00000D                     lcd_4bit_send_enable_signal@lcd:
   801                           	callstack 0
   802   00000D                     keypad_get_value@_keypad_obj:
   803                           	callstack 0
   804   00000D                     gpio_pin_intialize@_pin_config:
   805                           	callstack 0
   806   00000D                     memset@s:
   807                           	callstack 0
   808                           
   809                           ; 2 bytes @ 0xC
   810   00000D                     	ds	1
   811   00000E                     fputs@fp:
   812                           	callstack 0
   813                           
   814                           ; 2 bytes @ 0xD
   815   00000E                     	ds	1
   816   00000F                     ??_gpio_pin_intialize:
   817   00000F                     lcd_send_4bits@_data_command:
   818                           	callstack 0
   819   00000F                     lcd_4bit_send_enable_signal@ret:
   820                           	callstack 0
   821   00000F                     ___lldiv@counter:
   822                           	callstack 0
   823   00000F                     keypad_get_value@value:
   824                           	callstack 0
   825                           
   826                           ; 2 bytes @ 0xE
   827   00000F                     	ds	1
   828   000010                     lcd_send_4bits@ret:
   829                           	callstack 0
   830   000010                     gpio_pin_intialize@ret:
   831                           	callstack 0
   832   000010                     fputs@c:
   833                           	callstack 0
   834                           
   835                           ; 1 bytes @ 0xF
   836   000010                     	ds	1
   837   000011                     ??_keypad_get_value:
   838   000011                     lcd_4bit_send_command@lcd:
   839                           	callstack 0
   840   000011                     lcd_4bit_send_char_data@lcd:
   841                           	callstack 0
   842   000011                     keypad_initialize@_keypad_obj:
   843                           	callstack 0
   844   000011                     fputs@i:
   845                           	callstack 0
   846                           
   847                           ; 2 bytes @ 0x10
   848   000011                     	ds	2
   849   000013                     ??_keypad_initialize:
   850   000013                     lcd_4bit_send_command@command:
   851                           	callstack 0
   852   000013                     lcd_4bit_send_char_data@data:
   853                           	callstack 0
   854   000013                     keypad_get_value@ret:
   855                           	callstack 0
   856   000013                     pad@fp:
   857                           	callstack 0
   858                           
   859                           ; 2 bytes @ 0x12
   860   000013                     	ds	1
   861   000014                     lcd_4bit_send_command@ret:
   862                           	callstack 0
   863   000014                     lcd_4bit_send_char_data@ret:
   864                           	callstack 0
   865   000014                     keypad_get_value@column_logic:
   866                           	callstack 0
   867                           
   868                           ; 1 bytes @ 0x13
   869   000014                     	ds	1
   870   000015                     ??_lcd_write:
   871   000015                     keypad_initialize@ret:
   872                           	callstack 0
   873   000015                     keypad_get_value@l_counter:
   874                           	callstack 0
   875   000015                     lcd_4bit_intialize@lcd:
   876                           	callstack 0
   877   000015                     lcd_4bit_clear@lcd:
   878                           	callstack 0
   879   000015                     lcd_4bit_set_cursor@lcd:
   880                           	callstack 0
   881   000015                     pad@buf:
   882                           	callstack 0
   883                           
   884                           ; 2 bytes @ 0x14
   885   000015                     	ds	1
   886   000016                     keypad_initialize@rows_counter:
   887                           	callstack 0
   888   000016                     keypad_get_value@l_rows_counter:
   889                           	callstack 0
   890                           
   891                           ; 1 bytes @ 0x15
   892   000016                     	ds	1
   893   000017                     ??_lcd_4bit_intialize:
   894   000017                     lcd_4bit_clear@ret:
   895                           	callstack 0
   896   000017                     lcd_4bit_set_cursor@row:
   897                           	callstack 0
   898   000017                     keypad_initialize@columns_counter:
   899                           	callstack 0
   900   000017                     keypad_get_value@l_columns_counter:
   901                           	callstack 0
   902   000017                     lcd_write@not_pressed:
   903                           	callstack 0
   904   000017                     pad@p:
   905                           	callstack 0
   906                           
   907                           ; 2 bytes @ 0x16
   908   000017                     	ds	1
   909   000018                     lcd_4bit_set_cursor@coulmn:
   910                           	callstack 0
   911                           
   912                           ; 1 bytes @ 0x17
   913   000018                     	ds	1
   914   000019                     ??_lcd_4bit_set_cursor:
   915   000019                     ??_pad:
   916   000019                     lcd_4bit_intialize@l_data_pins_counter:
   917                           	callstack 0
   918                           
   919                           ; 1 bytes @ 0x18
   920   000019                     	ds	1
   921   00001A                     lcd_4bit_intialize@ret:
   922                           	callstack 0
   923   00001A                     pad@i:
   924                           	callstack 0
   925                           
   926                           ; 2 bytes @ 0x19
   927   00001A                     	ds	1
   928   00001B                     lcd_4bit_set_cursor@ret:
   929                           	callstack 0
   930                           
   931                           ; 1 bytes @ 0x1A
   932   00001B                     	ds	1
   933   00001C                     lcd_4bit_send_char_data_pos@lcd:
   934                           	callstack 0
   935   00001C                     lcd_4bit_send_string_pos@lcd:
   936                           	callstack 0
   937   00001C                     pad@w:
   938                           	callstack 0
   939                           
   940                           ; 2 bytes @ 0x1B
   941   00001C                     	ds	2
   942   00001E                     lcd_4bit_send_char_data_pos@row:
   943                           	callstack 0
   944   00001E                     lcd_4bit_send_string_pos@row:
   945                           	callstack 0
   946   00001E                     dtoa@fp:
   947                           	callstack 0
   948                           
   949                           ; 2 bytes @ 0x1D
   950   00001E                     	ds	1
   951   00001F                     lcd_4bit_send_char_data_pos@column:
   952                           	callstack 0
   953   00001F                     lcd_4bit_send_string_pos@column:
   954                           	callstack 0
   955                           
   956                           ; 1 bytes @ 0x1E
   957   00001F                     	ds	1
   958   000020                     lcd_4bit_send_char_data_pos@data:
   959                           	callstack 0
   960   000020                     lcd_4bit_send_string_pos@str:
   961                           	callstack 0
   962   000020                     dtoa@d:
   963                           	callstack 0
   964                           
   965                           ; 2 bytes @ 0x1F
   966   000020                     	ds	1
   967   000021                     lcd_4bit_send_char_data_pos@ret:
   968                           	callstack 0
   969                           
   970                           ; 1 bytes @ 0x20
   971   000021                     	ds	1
   972   000022                     lcd_4bit_send_string_pos@ret:
   973                           	callstack 0
   974   000022                     _dtoa$4951:
   975                           	callstack 0
   976                           
   977                           ; 2 bytes @ 0x21
   978   000022                     	ds	1
   979   000023                     ??_loading_screen:
   980                           
   981                           ; 1 bytes @ 0x22
   982   000023                     	ds	1
   983   000024                     dtoa@p:
   984                           	callstack 0
   985                           
   986                           ; 2 bytes @ 0x23
   987   000024                     	ds	1
   988   000025                     loading_screen@counter:
   989                           	callstack 0
   990                           
   991                           ; 1 bytes @ 0x24
   992   000025                     	ds	1
   993   000026                     loading_screen@l_lcd1_counter:
   994                           	callstack 0
   995   000026                     dtoa@w:
   996                           	callstack 0
   997                           
   998                           ; 2 bytes @ 0x25
   999   000026                     	ds	2
  1000   000028                     dtoa@i:
  1001                           	callstack 0
  1002                           
  1003                           ; 2 bytes @ 0x27
  1004   000028                     	ds	2
  1005   00002A                     dtoa@s:
  1006                           	callstack 0
  1007                           
  1008                           ; 1 bytes @ 0x29
  1009   00002A                     	ds	1
  1010   00002B                     vfpfcnvrt@fp:
  1011                           	callstack 0
  1012                           
  1013                           ; 2 bytes @ 0x2A
  1014   00002B                     	ds	2
  1015   00002D                     vfpfcnvrt@fmt:
  1016                           	callstack 0
  1017                           
  1018                           ; 2 bytes @ 0x2C
  1019   00002D                     	ds	2
  1020   00002F                     vfpfcnvrt@ap:
  1021                           	callstack 0
  1022                           
  1023                           ; 2 bytes @ 0x2E
  1024   00002F                     	ds	2
  1025   000031                     ??_vfpfcnvrt:
  1026                           
  1027                           ; 1 bytes @ 0x30
  1028   000031                     	ds	2
  1029   000033                     vfpfcnvrt@convarg:
  1030                           	callstack 0
  1031                           
  1032                           ; 4 bytes @ 0x32
  1033   000033                     	ds	4
  1034   000037                     vfpfcnvrt@cp:
  1035                           	callstack 0
  1036                           
  1037                           ; 2 bytes @ 0x36
  1038   000037                     	ds	2
  1039   000039                     ?_vfprintf:
  1040                           	callstack 0
  1041   000039                     vfprintf@fp:
  1042                           	callstack 0
  1043                           
  1044                           ; 2 bytes @ 0x38
  1045   000039                     	ds	2
  1046   00003B                     vfprintf@fmt:
  1047                           	callstack 0
  1048                           
  1049                           ; 2 bytes @ 0x3A
  1050   00003B                     	ds	2
  1051   00003D                     vfprintf@ap:
  1052                           	callstack 0
  1053                           
  1054                           ; 2 bytes @ 0x3C
  1055   00003D                     	ds	2
  1056   00003F                     vfprintf@cfmt:
  1057                           	callstack 0
  1058                           
  1059                           ; 2 bytes @ 0x3E
  1060   00003F                     	ds	2
  1061   000041                     ?_sprintf:
  1062                           	callstack 0
  1063   000041                     sprintf@s:
  1064                           	callstack 0
  1065                           
  1066                           ; 2 bytes @ 0x40
  1067   000041                     	ds	2
  1068   000043                     sprintf@fmt:
  1069                           	callstack 0
  1070                           
  1071                           ; 2 bytes @ 0x42
  1072   000043                     	ds	6
  1073   000049                     sprintf@ap:
  1074                           	callstack 0
  1075                           
  1076                           ; 2 bytes @ 0x48
  1077   000049                     	ds	2
  1078   00004B                     sprintf@f:
  1079                           	callstack 0
  1080                           
  1081                           ; 12 bytes @ 0x4A
  1082   00004B                     	ds	12
  1083   000057                     convert_uint32_to_string@value:
  1084                           	callstack 0
  1085                           
  1086                           ; 4 bytes @ 0x56
  1087   000057                     	ds	4
  1088   00005B                     convert_uint32_to_string@str:
  1089                           	callstack 0
  1090                           
  1091                           ; 2 bytes @ 0x5A
  1092   00005B                     	ds	2
  1093   00005D                     convert_uint32_to_string@ret:
  1094                           	callstack 0
  1095                           
  1096                           ; 1 bytes @ 0x5C
  1097   00005D                     	ds	1
  1098   00005E                     ??_calculate:
  1099                           
  1100                           ; 1 bytes @ 0x5D
  1101   00005E                     	ds	2
  1102                           
  1103 ;;
  1104 ;;Main: autosize = 0, tempsize = 2, incstack = 0, save=0
  1105 ;;
  1106 ;; *************** function _main *****************
  1107 ;; Defined at:
  1108 ;;		line 22 in file "application.c"
  1109 ;; Parameters:    Size  Location     Type
  1110 ;;		None
  1111 ;; Auto vars:     Size  Location     Type
  1112 ;;  ret             1    0        unsigned char 
  1113 ;; Return value:  Size  Location     Type
  1114 ;;                  2  1750[None  ] int 
  1115 ;; Registers used:
  1116 ;;		wreg, fsr0l, fsr0h, fsr1l, fsr1h, fsr2l, fsr2h, status,2, status,0, tblptrl, tblptrh, tblptru, prodl, prodh, cstack
  1117 ;; Tracked objects:
  1118 ;;		On entry : 0/0
  1119 ;;		On exit  : 0/0
  1120 ;;		Unchanged: 0/0
  1121 ;; Data sizes:     COMRAM   BANK0   BANK1   BANK2   BANK3   BANK4   BANK5   BANK6   BANK7   BANK8   BANK9  BANK10  BANK1
      +1  BANK12  BANK13  BANK14  BANK15
  1122 ;;      Params:         0       0       0       0       0       0       0       0       0       0       0       0       
      +0       0       0       0       0
  1123 ;;      Locals:         0       0       0       0       0       0       0       0       0       0       0       0       
      +0       0       0       0       0
  1124 ;;      Temps:          0       2       0       0       0       0       0       0       0       0       0       0       
      +0       0       0       0       0
  1125 ;;      Totals:         0       2       0       0       0       0       0       0       0       0       0       0       
      +0       0       0       0       0
  1126 ;;Total ram usage:        2 bytes
  1127 ;; Hardware stack levels required when called: 12
  1128 ;; This function calls:
  1129 ;;		___lmul
  1130 ;;		_application_initialize
  1131 ;;		_calculate
  1132 ;;		_isdigit
  1133 ;;		_keypad_get_value
  1134 ;;		_lcd_4bit_clear
  1135 ;;		_lcd_4bit_send_string_pos
  1136 ;;		_lcd_write
  1137 ;;		_loading_screen
  1138 ;; This function is called by:
  1139 ;;		Startup code after reset
  1140 ;; This function uses a non-reentrant model
  1141 ;;
  1142                           
  1143                           	psect	text0
  1144   00148C                     __ptext0:
  1145                           	callstack 0
  1146   00148C                     _main:
  1147                           	callstack 19
  1148   00148C                     
  1149                           ;application.c: 24:     application_initialize();
  1150   00148C  ECFD  F016         	call	_application_initialize	;wreg free
  1151   001490                     
  1152                           ;application.c: 25:     lcd_4bit_send_string_pos(&lcd_1, 2, 6, "WELCOME");
  1153   001490  0EF7               	movlw	low _lcd_1
  1154   001492  6E1C               	movwf	lcd_4bit_send_string_pos@lcd^0,c
  1155   001494  0E00               	movlw	high _lcd_1
  1156   001496  6E1D               	movwf	(lcd_4bit_send_string_pos@lcd+1)^0,c
  1157   001498  0E02               	movlw	2
  1158   00149A  6E1E               	movwf	lcd_4bit_send_string_pos@row^0,c
  1159   00149C  0E06               	movlw	6
  1160   00149E  6E1F               	movwf	lcd_4bit_send_string_pos@column^0,c
  1161   0014A0  0E30               	movlw	low STR_4
  1162   0014A2  6E20               	movwf	lcd_4bit_send_string_pos@str^0,c
  1163   0014A4  0E10               	movlw	high STR_4
  1164   0014A6  6E21               	movwf	(lcd_4bit_send_string_pos@str+1)^0,c
  1165   0014A8  EC01  F013         	call	_lcd_4bit_send_string_pos	;wreg free
  1166   0014AC                     
  1167                           ;application.c: 26:     _delay((unsigned long)((2000)*(8000000UL/4000.0)));
  1168   0014AC  0E15               	movlw	21
  1169   0014AE  0100               	movlb	0	; () banked
  1170   0014B0  6FFE               	movwf	(??_main+1)& (0+255),b
  1171   0014B2  0E4B               	movlw	75
  1172   0014B4  6FFD               	movwf	??_main& (0+255),b
  1173   0014B6  0EBE               	movlw	190
  1174   0014B8                     u7087:
  1175   0014B8  2EE8               	decfsz	wreg,f,c
  1176   0014BA  D7FE               	bra	u7087
  1177   0014BC  2FFD               	decfsz	??_main& (0+255),f,b
  1178   0014BE  D7FC               	bra	u7087
  1179   0014C0  2FFE               	decfsz	(??_main+1)& (0+255),f,b
  1180   0014C2  D7FA               	bra	u7087
  1181   0014C4  F000               	nop	
  1182   0014C6  0EF7               	movlw	low _lcd_1
  1183   0014C8  6E15               	movwf	lcd_4bit_clear@lcd^0,c
  1184   0014CA  0E00               	movlw	high _lcd_1
  1185   0014CC  6E16               	movwf	(lcd_4bit_clear@lcd+1)^0,c
  1186   0014CE  EC87  F016         	call	_lcd_4bit_clear	;wreg free
  1187   0014D2                     
  1188                           ;application.c: 28:     loading_screen();
  1189   0014D2  EC4A  F011         	call	_loading_screen	;wreg free
  1190   0014D6  0EF7               	movlw	low _lcd_1
  1191   0014D8  6E15               	movwf	lcd_4bit_clear@lcd^0,c
  1192   0014DA  0E00               	movlw	high _lcd_1
  1193   0014DC  6E16               	movwf	(lcd_4bit_clear@lcd+1)^0,c
  1194   0014DE  EC87  F016         	call	_lcd_4bit_clear	;wreg free
  1195   0014E2                     l8072:
  1196   0014E2  0EEF               	movlw	low _keypad1
  1197   0014E4  6E0D               	movwf	keypad_get_value@_keypad_obj^0,c
  1198   0014E6  0E00               	movlw	high _keypad1
  1199   0014E8  6E0E               	movwf	(keypad_get_value@_keypad_obj+1)^0,c
  1200   0014EA  0E70               	movlw	low _keypad_value
  1201   0014EC  6E0F               	movwf	keypad_get_value@value^0,c
  1202   0014EE  0E00               	movlw	high _keypad_value
  1203   0014F0  6E10               	movwf	(keypad_get_value@value+1)^0,c
  1204   0014F2  ECF3  F00F         	call	_keypad_get_value	;wreg free
  1205   0014F6  0ED0               	movlw	208
  1206   0014F8  2470               	addwf	_keypad_value^0,w,c
  1207   0014FA  0100               	movlb	0	; () banked
  1208   0014FC  6FFD               	movwf	??_main& (0+255),b
  1209   0014FE  6BFE               	clrf	(??_main+1)& (0+255),b
  1210   001500  0EFF               	movlw	255
  1211   001502  23FE               	addwfc	(??_main+1)& (0+255),f,b
  1212   001504  51FE               	movf	(??_main+1)& (0+255),w,b
  1213   001506  E107               	bnz	u6981
  1214   001508  0E0A               	movlw	10
  1215   00150A  5DFD               	subwf	??_main& (0+255),w,b
  1216   00150C  B0D8               	btfsc	status,0,c
  1217   00150E  EF8B  F00A         	goto	u6981
  1218   001512  EF8D  F00A         	goto	u6980
  1219   001516                     u6981:
  1220   001516  EFBE  F00A         	goto	l8084
  1221   00151A                     u6980:
  1222   00151A                     
  1223                           ; BSR set to: 0
  1224   00151A  506D               	movf	_num2_flag^0,w,c
  1225   00151C  A4D8               	btfss	status,2,c
  1226   00151E  EF93  F00A         	goto	u6991
  1227   001522  EF95  F00A         	goto	u6990
  1228   001526                     u6991:
  1229   001526  EFBE  F00A         	goto	l8084
  1230   00152A                     u6990:
  1231   00152A                     
  1232                           ; BSR set to: 0
  1233                           ;application.c: 34:             num1 = (num1*10)+(keypad_value-'0');
  1234   00152A  0ED0               	movlw	208
  1235   00152C  2470               	addwf	_keypad_value^0,w,c
  1236   00152E  6FFD               	movwf	??_main& (0+255),b
  1237   001530  6BFE               	clrf	(??_main+1)& (0+255),b
  1238   001532  0EFF               	movlw	255
  1239   001534  23FE               	addwfc	(??_main+1)& (0+255),f,b
  1240   001536  C064  F003         	movff	_num1,___lmul@multiplier
  1241   00153A  C065  F004         	movff	_num1+1,___lmul@multiplier+1
  1242   00153E  C066  F005         	movff	_num1+2,___lmul@multiplier+2
  1243   001542  C067  F006         	movff	_num1+3,___lmul@multiplier+3
  1244   001546  0E0A               	movlw	10
  1245   001548  6E07               	movwf	___lmul@multiplicand^0,c
  1246   00154A  0E00               	movlw	0
  1247   00154C  6E08               	movwf	(___lmul@multiplicand+1)^0,c
  1248   00154E  0E00               	movlw	0
  1249   001550  6E09               	movwf	(___lmul@multiplicand+2)^0,c
  1250   001552  0E00               	movlw	0
  1251   001554  6E0A               	movwf	(___lmul@multiplicand+3)^0,c
  1252   001556  ECBD  F014         	call	___lmul	;wreg free
  1253   00155A  0100               	movlb	0	; () banked
  1254   00155C  51FD               	movf	??_main& (0+255),w,b
  1255   00155E  2403               	addwf	?___lmul^0,w,c
  1256   001560  6E64               	movwf	_num1^0,c
  1257   001562  51FE               	movf	(??_main+1)& (0+255),w,b
  1258   001564  2004               	addwfc	(?___lmul+1)^0,w,c
  1259   001566  6E65               	movwf	(_num1+1)^0,c
  1260   001568  0E00               	movlw	0
  1261   00156A  2005               	addwfc	(?___lmul+2)^0,w,c
  1262   00156C  6E66               	movwf	(_num1+2)^0,c
  1263   00156E  0E00               	movlw	0
  1264   001570  2006               	addwfc	(?___lmul+3)^0,w,c
  1265   001572  6E67               	movwf	(_num1+3)^0,c
  1266   001574                     l8082:
  1267                           
  1268                           ; BSR set to: 0
  1269                           ;application.c: 35:             lcd_write();
  1270   001574  ECEA  F015         	call	_lcd_write	;wreg free
  1271                           
  1272                           ;application.c: 36:         }
  1273   001578  EF71  F00A         	goto	l8072
  1274   00157C                     l8084:
  1275                           
  1276                           ; BSR set to: 0
  1277   00157C  0E2B               	movlw	43
  1278   00157E  1870               	xorwf	_keypad_value^0,w,c
  1279   001580  B4D8               	btfsc	status,2,c
  1280   001582  EFC5  F00A         	goto	u7001
  1281   001586  EFC7  F00A         	goto	u7000
  1282   00158A                     u7001:
  1283   00158A  EFE2  F00A         	goto	l1758
  1284   00158E                     u7000:
  1285   00158E                     
  1286                           ; BSR set to: 0
  1287   00158E  0E2D               	movlw	45
  1288   001590  1870               	xorwf	_keypad_value^0,w,c
  1289   001592  B4D8               	btfsc	status,2,c
  1290   001594  EFCE  F00A         	goto	u7011
  1291   001598  EFD0  F00A         	goto	u7010
  1292   00159C                     u7011:
  1293   00159C  EFE2  F00A         	goto	l1758
  1294   0015A0                     u7010:
  1295   0015A0                     
  1296                           ; BSR set to: 0
  1297   0015A0  0E2A               	movlw	42
  1298   0015A2  1870               	xorwf	_keypad_value^0,w,c
  1299   0015A4  B4D8               	btfsc	status,2,c
  1300   0015A6  EFD7  F00A         	goto	u7021
  1301   0015AA  EFD9  F00A         	goto	u7020
  1302   0015AE                     u7021:
  1303   0015AE  EFE2  F00A         	goto	l1758
  1304   0015B2                     u7020:
  1305   0015B2                     
  1306                           ; BSR set to: 0
  1307   0015B2  0E2F               	movlw	47
  1308   0015B4  1870               	xorwf	_keypad_value^0,w,c
  1309   0015B6  A4D8               	btfss	status,2,c
  1310   0015B8  EFE0  F00A         	goto	u7031
  1311   0015BC  EFE2  F00A         	goto	u7030
  1312   0015C0                     u7031:
  1313   0015C0  EFE8  F00A         	goto	l8098
  1314   0015C4                     u7030:
  1315   0015C4                     l1758:
  1316                           
  1317                           ; BSR set to: 0
  1318                           ;application.c: 38:            operator = keypad_value;
  1319   0015C4  C070  F06E         	movff	_keypad_value,_operator
  1320   0015C8                     
  1321                           ; BSR set to: 0
  1322                           ;application.c: 39:            num2_flag =1;
  1323   0015C8  0E01               	movlw	1
  1324   0015CA  6E6D               	movwf	_num2_flag^0,c
  1325   0015CC  EFBA  F00A         	goto	l8082
  1326   0015D0                     l8098:
  1327                           
  1328                           ; BSR set to: 0
  1329   0015D0  0ED0               	movlw	208
  1330   0015D2  2470               	addwf	_keypad_value^0,w,c
  1331   0015D4  6FFD               	movwf	??_main& (0+255),b
  1332   0015D6  6BFE               	clrf	(??_main+1)& (0+255),b
  1333   0015D8  0EFF               	movlw	255
  1334   0015DA  23FE               	addwfc	(??_main+1)& (0+255),f,b
  1335   0015DC  51FE               	movf	(??_main+1)& (0+255),w,b
  1336   0015DE  E107               	bnz	u7041
  1337   0015E0  0E0A               	movlw	10
  1338   0015E2  5DFD               	subwf	??_main& (0+255),w,b
  1339   0015E4  B0D8               	btfsc	status,0,c
  1340   0015E6  EFF7  F00A         	goto	u7041
  1341   0015EA  EFF9  F00A         	goto	u7040
  1342   0015EE                     u7041:
  1343   0015EE  EF28  F00B         	goto	l8106
  1344   0015F2                     u7040:
  1345   0015F2                     
  1346                           ; BSR set to: 0
  1347   0015F2  506D               	movf	_num2_flag^0,w,c
  1348   0015F4  B4D8               	btfsc	status,2,c
  1349   0015F6  EFFF  F00A         	goto	u7051
  1350   0015FA  EF01  F00B         	goto	u7050
  1351   0015FE                     u7051:
  1352   0015FE  EF28  F00B         	goto	l8106
  1353   001602                     u7050:
  1354   001602                     
  1355                           ; BSR set to: 0
  1356                           ;application.c: 43:                num2 = (num2*10)+(keypad_value-'0');
  1357   001602  0ED0               	movlw	208
  1358   001604  2470               	addwf	_keypad_value^0,w,c
  1359   001606  6FFD               	movwf	??_main& (0+255),b
  1360   001608  6BFE               	clrf	(??_main+1)& (0+255),b
  1361   00160A  0EFF               	movlw	255
  1362   00160C  23FE               	addwfc	(??_main+1)& (0+255),f,b
  1363   00160E  C060  F003         	movff	_num2,___lmul@multiplier
  1364   001612  C061  F004         	movff	_num2+1,___lmul@multiplier+1
  1365   001616  C062  F005         	movff	_num2+2,___lmul@multiplier+2
  1366   00161A  C063  F006         	movff	_num2+3,___lmul@multiplier+3
  1367   00161E  0E0A               	movlw	10
  1368   001620  6E07               	movwf	___lmul@multiplicand^0,c
  1369   001622  0E00               	movlw	0
  1370   001624  6E08               	movwf	(___lmul@multiplicand+1)^0,c
  1371   001626  0E00               	movlw	0
  1372   001628  6E09               	movwf	(___lmul@multiplicand+2)^0,c
  1373   00162A  0E00               	movlw	0
  1374   00162C  6E0A               	movwf	(___lmul@multiplicand+3)^0,c
  1375   00162E  ECBD  F014         	call	___lmul	;wreg free
  1376   001632  0100               	movlb	0	; () banked
  1377   001634  51FD               	movf	??_main& (0+255),w,b
  1378   001636  2403               	addwf	?___lmul^0,w,c
  1379   001638  6E60               	movwf	_num2^0,c
  1380   00163A  51FE               	movf	(??_main+1)& (0+255),w,b
  1381   00163C  2004               	addwfc	(?___lmul+1)^0,w,c
  1382   00163E  6E61               	movwf	(_num2+1)^0,c
  1383   001640  0E00               	movlw	0
  1384   001642  2005               	addwfc	(?___lmul+2)^0,w,c
  1385   001644  6E62               	movwf	(_num2+2)^0,c
  1386   001646  0E00               	movlw	0
  1387   001648  2006               	addwfc	(?___lmul+3)^0,w,c
  1388   00164A  6E63               	movwf	(_num2+3)^0,c
  1389   00164C  EFBA  F00A         	goto	l8082
  1390   001650                     l8106:
  1391                           
  1392                           ; BSR set to: 0
  1393   001650  0E3D               	movlw	61
  1394   001652  1870               	xorwf	_keypad_value^0,w,c
  1395   001654  A4D8               	btfss	status,2,c
  1396   001656  EF2F  F00B         	goto	u7061
  1397   00165A  EF31  F00B         	goto	u7060
  1398   00165E                     u7061:
  1399   00165E  EF37  F00B         	goto	l8112
  1400   001662                     u7060:
  1401   001662                     
  1402                           ; BSR set to: 0
  1403                           ;application.c: 47:            lcd_write();
  1404   001662  ECEA  F015         	call	_lcd_write	;wreg free
  1405   001666                     
  1406                           ;application.c: 48:            calculate();
  1407   001666  ECE4  F00C         	call	_calculate	;wreg free
  1408                           
  1409                           ;application.c: 49:         }
  1410   00166A  EF71  F00A         	goto	l8072
  1411   00166E                     l8112:
  1412                           
  1413                           ; BSR set to: 0
  1414   00166E  0E23               	movlw	35
  1415   001670  1870               	xorwf	_keypad_value^0,w,c
  1416   001672  A4D8               	btfss	status,2,c
  1417   001674  EF3E  F00B         	goto	u7071
  1418   001678  EF40  F00B         	goto	u7070
  1419   00167C                     u7071:
  1420   00167C  EF5A  F00B         	goto	l1763
  1421   001680                     u7070:
  1422   001680                     
  1423                           ; BSR set to: 0
  1424   001680  0EF7               	movlw	low _lcd_1
  1425   001682  6E15               	movwf	lcd_4bit_clear@lcd^0,c
  1426   001684  0E00               	movlw	high _lcd_1
  1427   001686  6E16               	movwf	(lcd_4bit_clear@lcd+1)^0,c
  1428   001688  EC87  F016         	call	_lcd_4bit_clear	;wreg free
  1429   00168C                     
  1430                           ;application.c: 52:            num2_flag = num1 = num2 = 0;
  1431   00168C  0E00               	movlw	0
  1432   00168E  6E60               	movwf	_num2^0,c
  1433   001690  0E00               	movlw	0
  1434   001692  6E61               	movwf	(_num2+1)^0,c
  1435   001694  0E00               	movlw	0
  1436   001696  6E62               	movwf	(_num2+2)^0,c
  1437   001698  0E00               	movlw	0
  1438   00169A  6E63               	movwf	(_num2+3)^0,c
  1439   00169C  C060  F064         	movff	_num2,_num1
  1440   0016A0  C061  F065         	movff	_num2+1,_num1+1
  1441   0016A4  C062  F066         	movff	_num2+2,_num1+2
  1442   0016A8  C063  F067         	movff	_num2+3,_num1+3
  1443   0016AC  C064  F06D         	movff	_num1,_num2_flag
  1444                           
  1445                           ;application.c: 54:          }else{ }
  1446   0016B0  EF71  F00A         	goto	l8072
  1447   0016B4                     l1763:
  1448                           
  1449                           ; BSR set to: 0
  1450   0016B4  EF71  F00A         	goto	l8072
  1451   0016B8  EF07  F000         	goto	start
  1452   0016BC                     __end_of_main:
  1453                           	callstack 0
  1454                           
  1455 ;; *************** function _loading_screen *****************
  1456 ;; Defined at:
  1457 ;;		line 66 in file "application.c"
  1458 ;; Parameters:    Size  Location     Type
  1459 ;;		None
  1460 ;; Auto vars:     Size  Location     Type
  1461 ;;  l_lcd1_count    1   37[COMRAM] unsigned char 
  1462 ;;  counter         1   36[COMRAM] unsigned char 
  1463 ;; Return value:  Size  Location     Type
  1464 ;;                  1    wreg      void 
  1465 ;; Registers used:
  1466 ;;		wreg, fsr0l, fsr0h, fsr2l, fsr2h, status,2, status,0, tblptrl, tblptrh, tblptru, prodl, prodh, cstack
  1467 ;; Tracked objects:
  1468 ;;		On entry : 0/0
  1469 ;;		On exit  : 0/0
  1470 ;;		Unchanged: 0/0
  1471 ;; Data sizes:     COMRAM   BANK0   BANK1   BANK2   BANK3   BANK4   BANK5   BANK6   BANK7   BANK8   BANK9  BANK10  BANK1
      +1  BANK12  BANK13  BANK14  BANK15
  1472 ;;      Params:         0       0       0       0       0       0       0       0       0       0       0       0       
      +0       0       0       0       0
  1473 ;;      Locals:         2       0       0       0       0       0       0       0       0       0       0       0       
      +0       0       0       0       0
  1474 ;;      Temps:          2       0       0       0       0       0       0       0       0       0       0       0       
      +0       0       0       0       0
  1475 ;;      Totals:         4       0       0       0       0       0       0       0       0       0       0       0       
      +0       0       0       0       0
  1476 ;;Total ram usage:        4 bytes
  1477 ;; Hardware stack levels used: 1
  1478 ;; Hardware stack levels required when called: 7
  1479 ;; This function calls:
  1480 ;;		_lcd_4bit_send_char_data_pos
  1481 ;;		_lcd_4bit_send_string_pos
  1482 ;; This function is called by:
  1483 ;;		_main
  1484 ;; This function uses a non-reentrant model
  1485 ;;
  1486                           
  1487                           	psect	text1
  1488   002294                     __ptext1:
  1489                           	callstack 0
  1490   002294                     _loading_screen:
  1491                           	callstack 23
  1492   002294                     
  1493                           ;application.c: 67:     lcd_4bit_send_string_pos(&lcd_1, 1, 1, "Loading");
  1494   002294  0EF7               	movlw	low _lcd_1
  1495   002296  6E1C               	movwf	lcd_4bit_send_string_pos@lcd^0,c
  1496   002298  0E00               	movlw	high _lcd_1
  1497   00229A  6E1D               	movwf	(lcd_4bit_send_string_pos@lcd+1)^0,c
  1498   00229C  0E01               	movlw	1
  1499   00229E  6E1E               	movwf	lcd_4bit_send_string_pos@row^0,c
  1500   0022A0  0E01               	movlw	1
  1501   0022A2  6E1F               	movwf	lcd_4bit_send_string_pos@column^0,c
  1502   0022A4  0E38               	movlw	low STR_5
  1503   0022A6  6E20               	movwf	lcd_4bit_send_string_pos@str^0,c
  1504   0022A8  0E10               	movlw	high STR_5
  1505   0022AA  6E21               	movwf	(lcd_4bit_send_string_pos@str+1)^0,c
  1506   0022AC  EC01  F013         	call	_lcd_4bit_send_string_pos	;wreg free
  1507   0022B0                     
  1508                           ;application.c: 69:     uint8 l_lcd1_counter = 0;
  1509   0022B0  0E00               	movlw	0
  1510   0022B2  6E26               	movwf	loading_screen@l_lcd1_counter^0,c
  1511   0022B4                     
  1512                           ;application.c: 70:     for(counter=8; counter<=15*2; ++counter){
  1513   0022B4  0E08               	movlw	8
  1514   0022B6  6E25               	movwf	loading_screen@counter^0,c
  1515   0022B8                     l6624:
  1516                           
  1517                           ;application.c: 71:         l_lcd1_counter++;
  1518   0022B8  2A26               	incf	loading_screen@l_lcd1_counter^0,f,c
  1519   0022BA                     
  1520                           ;application.c: 72:         lcd_4bit_send_char_data_pos(&lcd_1, 1, 8+l_lcd1_counter, '.'
      +                          );
  1521   0022BA  0EF7               	movlw	low _lcd_1
  1522   0022BC  6E1C               	movwf	lcd_4bit_send_char_data_pos@lcd^0,c
  1523   0022BE  0E00               	movlw	high _lcd_1
  1524   0022C0  6E1D               	movwf	(lcd_4bit_send_char_data_pos@lcd+1)^0,c
  1525   0022C2  0E01               	movlw	1
  1526   0022C4  6E1E               	movwf	lcd_4bit_send_char_data_pos@row^0,c
  1527   0022C6  5026               	movf	loading_screen@l_lcd1_counter^0,w,c
  1528   0022C8  0F08               	addlw	8
  1529   0022CA  6E1F               	movwf	lcd_4bit_send_char_data_pos@column^0,c
  1530   0022CC  0E2E               	movlw	46
  1531   0022CE  6E20               	movwf	lcd_4bit_send_char_data_pos@data^0,c
  1532   0022D0  ECA5  F015         	call	_lcd_4bit_send_char_data_pos	;wreg free
  1533   0022D4                     
  1534                           ;application.c: 73:         _delay((unsigned long)((100)*(8000000UL/4000.0)));
  1535   0022D4  0E02               	movlw	2
  1536   0022D6  6E24               	movwf	(??_loading_screen+1)^0,c
  1537   0022D8  0E04               	movlw	4
  1538   0022DA  6E23               	movwf	??_loading_screen^0,c
  1539   0022DC  0EBA               	movlw	186
  1540   0022DE                     u7097:
  1541   0022DE  2EE8               	decfsz	wreg,f,c
  1542   0022E0  D7FE               	bra	u7097
  1543   0022E2  2E23               	decfsz	??_loading_screen^0,f,c
  1544   0022E4  D7FC               	bra	u7097
  1545   0022E6  2E24               	decfsz	(??_loading_screen+1)^0,f,c
  1546   0022E8  D7FA               	bra	u7097
  1547   0022EA  D000               	nop2	
  1548   0022EC                     
  1549                           ;application.c: 74:         if(7 == l_lcd1_counter ){
  1550   0022EC  0E07               	movlw	7
  1551   0022EE  1826               	xorwf	loading_screen@l_lcd1_counter^0,w,c
  1552   0022F0  A4D8               	btfss	status,2,c
  1553   0022F2  EF7D  F011         	goto	u4981
  1554   0022F6  EF7F  F011         	goto	u4980
  1555   0022FA                     u4981:
  1556   0022FA  EF8F  F011         	goto	l6636
  1557   0022FE                     u4980:
  1558   0022FE                     
  1559                           ;application.c: 75:             lcd_4bit_send_string_pos(&lcd_1, 1, 8, "         ");
  1560   0022FE  0EF7               	movlw	low _lcd_1
  1561   002300  6E1C               	movwf	lcd_4bit_send_string_pos@lcd^0,c
  1562   002302  0E00               	movlw	high _lcd_1
  1563   002304  6E1D               	movwf	(lcd_4bit_send_string_pos@lcd+1)^0,c
  1564   002306  0E01               	movlw	1
  1565   002308  6E1E               	movwf	lcd_4bit_send_string_pos@row^0,c
  1566   00230A  0E08               	movlw	8
  1567   00230C  6E1F               	movwf	lcd_4bit_send_string_pos@column^0,c
  1568   00230E  0E26               	movlw	low STR_6
  1569   002310  6E20               	movwf	lcd_4bit_send_string_pos@str^0,c
  1570   002312  0E10               	movlw	high STR_6
  1571   002314  6E21               	movwf	(lcd_4bit_send_string_pos@str+1)^0,c
  1572   002316  EC01  F013         	call	_lcd_4bit_send_string_pos	;wreg free
  1573   00231A                     
  1574                           ;application.c: 76:             l_lcd1_counter =0;
  1575   00231A  0E00               	movlw	0
  1576   00231C  6E26               	movwf	loading_screen@l_lcd1_counter^0,c
  1577   00231E                     l6636:
  1578                           
  1579                           ;application.c: 78:     }
  1580   00231E  2A25               	incf	loading_screen@counter^0,f,c
  1581   002320  0E1E               	movlw	30
  1582   002322  6425               	cpfsgt	loading_screen@counter^0,c
  1583   002324  EF96  F011         	goto	u4991
  1584   002328  EF98  F011         	goto	u4990
  1585   00232C                     u4991:
  1586   00232C  EF5C  F011         	goto	l6624
  1587   002330                     u4990:
  1588   002330                     
  1589                           ;application.c: 79:     lcd_4bit_send_string_pos(&lcd_1, 1, 8, "         ");
  1590   002330  0EF7               	movlw	low _lcd_1
  1591   002332  6E1C               	movwf	lcd_4bit_send_string_pos@lcd^0,c
  1592   002334  0E00               	movlw	high _lcd_1
  1593   002336  6E1D               	movwf	(lcd_4bit_send_string_pos@lcd+1)^0,c
  1594   002338  0E01               	movlw	1
  1595   00233A  6E1E               	movwf	lcd_4bit_send_string_pos@row^0,c
  1596   00233C  0E08               	movlw	8
  1597   00233E  6E1F               	movwf	lcd_4bit_send_string_pos@column^0,c
  1598   002340  0E26               	movlw	low STR_6
  1599   002342  6E20               	movwf	lcd_4bit_send_string_pos@str^0,c
  1600   002344  0E10               	movlw	high STR_6
  1601   002346  6E21               	movwf	(lcd_4bit_send_string_pos@str+1)^0,c
  1602   002348  EC01  F013         	call	_lcd_4bit_send_string_pos	;wreg free
  1603   00234C  0012               	return		;funcret
  1604   00234E                     __end_of_loading_screen:
  1605                           	callstack 0
  1606                           
  1607 ;; *************** function _lcd_4bit_send_char_data_pos *****************
  1608 ;; Defined at:
  1609 ;;		line 120 in file "ECU_Layer/Chr_LCD/ecu_chr_lcd.c"
  1610 ;; Parameters:    Size  Location     Type
  1611 ;;  lcd             2   27[COMRAM] PTR const struct .
  1612 ;;		 -> lcd_1(6), 
  1613 ;;  row             1   29[COMRAM] unsigned char 
  1614 ;;  column          1   30[COMRAM] unsigned char 
  1615 ;;  data            1   31[COMRAM] unsigned char 
  1616 ;; Auto vars:     Size  Location     Type
  1617 ;;  ret             1   32[COMRAM] unsigned char 
  1618 ;; Return value:  Size  Location     Type
  1619 ;;                  1    wreg      unsigned char 
  1620 ;; Registers used:
  1621 ;;		wreg, fsr2l, fsr2h, status,2, status,0, prodl, prodh, cstack
  1622 ;; Tracked objects:
  1623 ;;		On entry : 0/0
  1624 ;;		On exit  : 0/0
  1625 ;;		Unchanged: 0/0
  1626 ;; Data sizes:     COMRAM   BANK0   BANK1   BANK2   BANK3   BANK4   BANK5   BANK6   BANK7   BANK8   BANK9  BANK10  BANK1
      +1  BANK12  BANK13  BANK14  BANK15
  1627 ;;      Params:         5       0       0       0       0       0       0       0       0       0       0       0       
      +0       0       0       0       0
  1628 ;;      Locals:         1       0       0       0       0       0       0       0       0       0       0       0       
      +0       0       0       0       0
  1629 ;;      Temps:          0       0       0       0       0       0       0       0       0       0       0       0       
      +0       0       0       0       0
  1630 ;;      Totals:         6       0       0       0       0       0       0       0       0       0       0       0       
      +0       0       0       0       0
  1631 ;;Total ram usage:        6 bytes
  1632 ;; Hardware stack levels used: 1
  1633 ;; Hardware stack levels required when called: 6
  1634 ;; This function calls:
  1635 ;;		_lcd_4bit_send_char_data
  1636 ;;		_lcd_4bit_set_cursor
  1637 ;; This function is called by:
  1638 ;;		_loading_screen
  1639 ;;		_lcd_4bit_send_custom_char
  1640 ;; This function uses a non-reentrant model
  1641 ;;
  1642                           
  1643                           	psect	text2
  1644   002B4A                     __ptext2:
  1645                           	callstack 0
  1646   002B4A                     _lcd_4bit_send_char_data_pos:
  1647                           	callstack 23
  1648   002B4A                     
  1649                           ;ECU_Layer/Chr_LCD/ecu_chr_lcd.c: 122:     if(((void*)0) == lcd){
  1650   002B4A  501C               	movf	lcd_4bit_send_char_data_pos@lcd^0,w,c
  1651   002B4C  101D               	iorwf	(lcd_4bit_send_char_data_pos@lcd+1)^0,w,c
  1652   002B4E  A4D8               	btfss	status,2,c
  1653   002B50  EFAC  F015         	goto	u4621
  1654   002B54  EFAE  F015         	goto	u4620
  1655   002B58                     u4621:
  1656   002B58  EFB2  F015         	goto	l6168
  1657   002B5C                     u4620:
  1658   002B5C                     
  1659                           ;ECU_Layer/Chr_LCD/ecu_chr_lcd.c: 123:         ret = (Std_ReturnType)0x00;
  1660   002B5C  0E00               	movlw	0
  1661   002B5E  6E21               	movwf	lcd_4bit_send_char_data_pos@ret^0,c
  1662                           
  1663                           ;ECU_Layer/Chr_LCD/ecu_chr_lcd.c: 124:     }
  1664   002B60  EFC6  F015         	goto	l6170
  1665   002B64                     l6168:
  1666                           
  1667                           ;ECU_Layer/Chr_LCD/ecu_chr_lcd.c: 126:         ret = lcd_4bit_set_cursor(lcd, row, colum
      +                          n);
  1668   002B64  C01C  F015         	movff	lcd_4bit_send_char_data_pos@lcd,lcd_4bit_set_cursor@lcd
  1669   002B68  C01D  F016         	movff	lcd_4bit_send_char_data_pos@lcd+1,lcd_4bit_set_cursor@lcd+1
  1670   002B6C  C01E  F017         	movff	lcd_4bit_send_char_data_pos@row,lcd_4bit_set_cursor@row
  1671   002B70  C01F  F018         	movff	lcd_4bit_send_char_data_pos@column,lcd_4bit_set_cursor@coulmn
  1672   002B74  EC5B  F012         	call	_lcd_4bit_set_cursor	;wreg free
  1673   002B78  6E21               	movwf	lcd_4bit_send_char_data_pos@ret^0,c
  1674                           
  1675                           ;ECU_Layer/Chr_LCD/ecu_chr_lcd.c: 127:         ret = lcd_4bit_send_char_data(lcd, data);
  1676   002B7A  C01C  F011         	movff	lcd_4bit_send_char_data_pos@lcd,lcd_4bit_send_char_data@lcd
  1677   002B7E  C01D  F012         	movff	lcd_4bit_send_char_data_pos@lcd+1,lcd_4bit_send_char_data@lcd+1
  1678   002B82  C020  F013         	movff	lcd_4bit_send_char_data_pos@data,lcd_4bit_send_char_data@data
  1679   002B86  EC15  F014         	call	_lcd_4bit_send_char_data	;wreg free
  1680   002B8A  6E21               	movwf	lcd_4bit_send_char_data_pos@ret^0,c
  1681   002B8C                     l6170:
  1682                           
  1683                           ;ECU_Layer/Chr_LCD/ecu_chr_lcd.c: 129:     return ret;
  1684   002B8C  5021               	movf	lcd_4bit_send_char_data_pos@ret^0,w,c
  1685   002B8E  0012               	return		;funcret
  1686   002B90                     __end_of_lcd_4bit_send_char_data_pos:
  1687                           	callstack 0
  1688                           
  1689 ;; *************** function _lcd_write *****************
  1690 ;; Defined at:
  1691 ;;		line 82 in file "application.c"
  1692 ;; Parameters:    Size  Location     Type
  1693 ;;		None
  1694 ;; Auto vars:     Size  Location     Type
  1695 ;;  not_pressed     1   22[COMRAM] unsigned char 
  1696 ;;  ret             1    0        unsigned char 
  1697 ;; Return value:  Size  Location     Type
  1698 ;;                  1    wreg      void 
  1699 ;; Registers used:
  1700 ;;		wreg, fsr2l, fsr2h, status,2, status,0, prodl, prodh, cstack
  1701 ;; Tracked objects:
  1702 ;;		On entry : 0/0
  1703 ;;		On exit  : 0/0
  1704 ;;		Unchanged: 0/0
  1705 ;; Data sizes:     COMRAM   BANK0   BANK1   BANK2   BANK3   BANK4   BANK5   BANK6   BANK7   BANK8   BANK9  BANK10  BANK1
      +1  BANK12  BANK13  BANK14  BANK15
  1706 ;;      Params:         0       0       0       0       0       0       0       0       0       0       0       0       
      +0       0       0       0       0
  1707 ;;      Locals:         1       0       0       0       0       0       0       0       0       0       0       0       
      +0       0       0       0       0
  1708 ;;      Temps:          2       0       0       0       0       0       0       0       0       0       0       0       
      +0       0       0       0       0
  1709 ;;      Totals:         3       0       0       0       0       0       0       0       0       0       0       0       
      +0       0       0       0       0
  1710 ;;Total ram usage:        3 bytes
  1711 ;; Hardware stack levels used: 1
  1712 ;; Hardware stack levels required when called: 5
  1713 ;; This function calls:
  1714 ;;		_lcd_4bit_send_char_data
  1715 ;; This function is called by:
  1716 ;;		_main
  1717 ;; This function uses a non-reentrant model
  1718 ;;
  1719                           
  1720                           	psect	text3
  1721   002BD4                     __ptext3:
  1722                           	callstack 0
  1723   002BD4                     _lcd_write:
  1724                           	callstack 25
  1725   002BD4                     
  1726                           ;application.c: 84:     uint8 not_pressed = '\0';
  1727   002BD4  0E00               	movlw	0
  1728   002BD6  6E17               	movwf	lcd_write@not_pressed^0,c
  1729   002BD8                     
  1730                           ;application.c: 85:     if(not_pressed != keypad_value){
  1731   002BD8  5070               	movf	_keypad_value^0,w,c
  1732   002BDA  B4D8               	btfsc	status,2,c
  1733   002BDC  EFF2  F015         	goto	u5021
  1734   002BE0  EFF4  F015         	goto	u5020
  1735   002BE4                     u5021:
  1736   002BE4  EF09  F016         	goto	l1785
  1737   002BE8                     u5020:
  1738   002BE8  0EF7               	movlw	low _lcd_1
  1739   002BEA  6E11               	movwf	lcd_4bit_send_char_data@lcd^0,c
  1740   002BEC  0E00               	movlw	high _lcd_1
  1741   002BEE  6E12               	movwf	(lcd_4bit_send_char_data@lcd+1)^0,c
  1742   002BF0  C070  F013         	movff	_keypad_value,lcd_4bit_send_char_data@data
  1743   002BF4  EC15  F014         	call	_lcd_4bit_send_char_data	;wreg free
  1744   002BF8                     
  1745                           ;application.c: 87:         keypad_value = not_pressed;
  1746   002BF8  0E00               	movlw	0
  1747   002BFA  6E70               	movwf	_keypad_value^0,c
  1748   002BFC                     
  1749                           ;application.c: 88:         _delay((unsigned long)((500)*(8000000UL/4000.0)));
  1750   002BFC  0E06               	movlw	6
  1751   002BFE  6E16               	movwf	(??_lcd_write+1)^0,c
  1752   002C00  0E13               	movlw	19
  1753   002C02  6E15               	movwf	??_lcd_write^0,c
  1754   002C04  0EAE               	movlw	174
  1755   002C06                     u7107:
  1756   002C06  2EE8               	decfsz	wreg,f,c
  1757   002C08  D7FE               	bra	u7107
  1758   002C0A  2E15               	decfsz	??_lcd_write^0,f,c
  1759   002C0C  D7FC               	bra	u7107
  1760   002C0E  2E16               	decfsz	(??_lcd_write+1)^0,f,c
  1761   002C10  D7FA               	bra	u7107
  1762   002C12                     l1785:
  1763   002C12  0012               	return		;funcret
  1764   002C14                     __end_of_lcd_write:
  1765                           	callstack 0
  1766                           
  1767 ;; *************** function _lcd_4bit_clear *****************
  1768 ;; Defined at:
  1769 ;;		line 391 in file "ECU_Layer/Chr_LCD/ecu_chr_lcd.c"
  1770 ;; Parameters:    Size  Location     Type
  1771 ;;  lcd             2   20[COMRAM] PTR const struct .
  1772 ;;		 -> lcd_1(6), 
  1773 ;; Auto vars:     Size  Location     Type
  1774 ;;  ret             1   22[COMRAM] unsigned char 
  1775 ;; Return value:  Size  Location     Type
  1776 ;;                  1    wreg      unsigned char 
  1777 ;; Registers used:
  1778 ;;		wreg, fsr2l, fsr2h, status,2, status,0, prodl, prodh, cstack
  1779 ;; Tracked objects:
  1780 ;;		On entry : 0/0
  1781 ;;		On exit  : 0/0
  1782 ;;		Unchanged: 0/0
  1783 ;; Data sizes:     COMRAM   BANK0   BANK1   BANK2   BANK3   BANK4   BANK5   BANK6   BANK7   BANK8   BANK9  BANK10  BANK1
      +1  BANK12  BANK13  BANK14  BANK15
  1784 ;;      Params:         2       0       0       0       0       0       0       0       0       0       0       0       
      +0       0       0       0       0
  1785 ;;      Locals:         1       0       0       0       0       0       0       0       0       0       0       0       
      +0       0       0       0       0
  1786 ;;      Temps:          0       0       0       0       0       0       0       0       0       0       0       0       
      +0       0       0       0       0
  1787 ;;      Totals:         3       0       0       0       0       0       0       0       0       0       0       0       
      +0       0       0       0       0
  1788 ;;Total ram usage:        3 bytes
  1789 ;; Hardware stack levels used: 1
  1790 ;; Hardware stack levels required when called: 5
  1791 ;; This function calls:
  1792 ;;		_lcd_4bit_send_command
  1793 ;; This function is called by:
  1794 ;;		_main
  1795 ;; This function uses a non-reentrant model
  1796 ;;
  1797                           
  1798                           	psect	text4
  1799   002D0E                     __ptext4:
  1800                           	callstack 0
  1801   002D0E                     _lcd_4bit_clear:
  1802                           	callstack 25
  1803   002D0E  C015  F011         	movff	lcd_4bit_clear@lcd,lcd_4bit_send_command@lcd
  1804   002D12  C016  F012         	movff	lcd_4bit_clear@lcd+1,lcd_4bit_send_command@lcd+1
  1805   002D16  0E01               	movlw	1
  1806   002D18  6E13               	movwf	lcd_4bit_send_command@command^0,c
  1807   002D1A  EC4E  F014         	call	_lcd_4bit_send_command	;wreg free
  1808   002D1E                     
  1809                           ;ECU_Layer/Chr_LCD/ecu_chr_lcd.c: 394:     ret = lcd_4bit_send_command(lcd, 0x02);
  1810   002D1E  C015  F011         	movff	lcd_4bit_clear@lcd,lcd_4bit_send_command@lcd
  1811   002D22  C016  F012         	movff	lcd_4bit_clear@lcd+1,lcd_4bit_send_command@lcd+1
  1812   002D26  0E02               	movlw	2
  1813   002D28  6E13               	movwf	lcd_4bit_send_command@command^0,c
  1814   002D2A  EC4E  F014         	call	_lcd_4bit_send_command	;wreg free
  1815   002D2E  6E17               	movwf	lcd_4bit_clear@ret^0,c
  1816                           
  1817                           ;ECU_Layer/Chr_LCD/ecu_chr_lcd.c: 395:     return ret;
  1818   002D30  5017               	movf	lcd_4bit_clear@ret^0,w,c
  1819   002D32  0012               	return		;funcret
  1820   002D34                     __end_of_lcd_4bit_clear:
  1821                           	callstack 0
  1822                           
  1823 ;; *************** function _keypad_get_value *****************
  1824 ;; Defined at:
  1825 ;;		line 49 in file "ECU_Layer/KeyPad/ecu_keypad.c"
  1826 ;; Parameters:    Size  Location     Type
  1827 ;;  _keypad_obj     2   12[COMRAM] PTR const struct .
  1828 ;;		 -> keypad1(8), 
  1829 ;;  value           2   14[COMRAM] PTR unsigned char 
  1830 ;;		 -> keypad_value(1), 
  1831 ;; Auto vars:     Size  Location     Type
  1832 ;;  l_columns_co    1   22[COMRAM] unsigned char 
  1833 ;;  l_rows_count    1   21[COMRAM] unsigned char 
  1834 ;;  l_counter       1   20[COMRAM] unsigned char 
  1835 ;;  column_logic    1   19[COMRAM] unsigned char 
  1836 ;;  ret             1   18[COMRAM] unsigned char 
  1837 ;; Return value:  Size  Location     Type
  1838 ;;                  1    wreg      unsigned char 
  1839 ;; Registers used:
  1840 ;;		wreg, fsr2l, fsr2h, status,2, status,0, tblptrl, tblptrh, tblptru, prodl, prodh, cstack
  1841 ;; Tracked objects:
  1842 ;;		On entry : 0/0
  1843 ;;		On exit  : 0/0
  1844 ;;		Unchanged: 0/0
  1845 ;; Data sizes:     COMRAM   BANK0   BANK1   BANK2   BANK3   BANK4   BANK5   BANK6   BANK7   BANK8   BANK9  BANK10  BANK1
      +1  BANK12  BANK13  BANK14  BANK15
  1846 ;;      Params:         4       0       0       0       0       0       0       0       0       0       0       0       
      +0       0       0       0       0
  1847 ;;      Locals:         5       0       0       0       0       0       0       0       0       0       0       0       
      +0       0       0       0       0
  1848 ;;      Temps:          2       0       0       0       0       0       0       0       0       0       0       0       
      +0       0       0       0       0
  1849 ;;      Totals:        11       0       0       0       0       0       0       0       0       0       0       0       
      +0       0       0       0       0
  1850 ;;Total ram usage:       11 bytes
  1851 ;; Hardware stack levels used: 1
  1852 ;; Hardware stack levels required when called: 3
  1853 ;; This function calls:
  1854 ;;		_gpio_pin_read_logic
  1855 ;;		_gpio_pin_write_logic
  1856 ;; This function is called by:
  1857 ;;		_main
  1858 ;; This function uses a non-reentrant model
  1859 ;;
  1860                           
  1861                           	psect	text5
  1862   001FE6                     __ptext5:
  1863                           	callstack 0
  1864   001FE6                     _keypad_get_value:
  1865                           	callstack 27
  1866   001FE6                     
  1867                           ;ECU_Layer/KeyPad/ecu_keypad.c: 51:     uint8 l_rows_counter = 0, l_columns_counter = 0,
      +                           l_counter = 0;
  1868   001FE6  0E00               	movlw	0
  1869   001FE8  6E16               	movwf	keypad_get_value@l_rows_counter^0,c
  1870   001FEA  0E00               	movlw	0
  1871   001FEC  6E17               	movwf	keypad_get_value@l_columns_counter^0,c
  1872   001FEE  0E00               	movlw	0
  1873   001FF0  6E15               	movwf	keypad_get_value@l_counter^0,c
  1874                           
  1875                           ;ECU_Layer/KeyPad/ecu_keypad.c: 52:     uint8 column_logic = 0;
  1876   001FF2  0E00               	movlw	0
  1877   001FF4  6E14               	movwf	keypad_get_value@column_logic^0,c
  1878   001FF6                     
  1879                           ;ECU_Layer/KeyPad/ecu_keypad.c: 53:     if((((void*)0) == _keypad_obj) || (((void*)0) ==
      +                           value)){
  1880   001FF6  500D               	movf	keypad_get_value@_keypad_obj^0,w,c
  1881   001FF8  100E               	iorwf	(keypad_get_value@_keypad_obj+1)^0,w,c
  1882   001FFA  B4D8               	btfsc	status,2,c
  1883   001FFC  EF02  F010         	goto	u4821
  1884   002000  EF04  F010         	goto	u4820
  1885   002004                     u4821:
  1886   002004  EF0D  F010         	goto	l6350
  1887   002008                     u4820:
  1888   002008  500F               	movf	keypad_get_value@value^0,w,c
  1889   00200A  1010               	iorwf	(keypad_get_value@value+1)^0,w,c
  1890   00200C  A4D8               	btfss	status,2,c
  1891   00200E  EF0B  F010         	goto	u4831
  1892   002012  EF0D  F010         	goto	u4830
  1893   002016                     u4831:
  1894   002016  EF11  F010         	goto	l6352
  1895   00201A                     u4830:
  1896   00201A                     l6350:
  1897                           
  1898                           ;ECU_Layer/KeyPad/ecu_keypad.c: 54:         ret = (Std_ReturnType)0x00;
  1899   00201A  0E00               	movlw	0
  1900   00201C  6E13               	movwf	keypad_get_value@ret^0,c
  1901                           
  1902                           ;ECU_Layer/KeyPad/ecu_keypad.c: 55:     }
  1903   00201E  EF81  F010         	goto	l6394
  1904   002022                     l6352:
  1905                           
  1906                           ;ECU_Layer/KeyPad/ecu_keypad.c: 57:         for(l_rows_counter=0; l_rows_counter<4; l_ro
      +                          ws_counter++){
  1907   002022  0E00               	movlw	0
  1908   002024  6E16               	movwf	keypad_get_value@l_rows_counter^0,c
  1909   002026                     l6358:
  1910                           
  1911                           ;ECU_Layer/KeyPad/ecu_keypad.c: 58:             for(l_counter=0; l_counter<4; l_counter+
      +                          +){
  1912   002026  0E00               	movlw	0
  1913   002028  6E15               	movwf	keypad_get_value@l_counter^0,c
  1914   00202A                     l6364:
  1915   00202A  5015               	movf	keypad_get_value@l_counter^0,w,c
  1916   00202C  240D               	addwf	keypad_get_value@_keypad_obj^0,w,c
  1917   00202E  6E03               	movwf	gpio_pin_write_logic@_pin_config^0,c
  1918   002030  0E00               	movlw	0
  1919   002032  200E               	addwfc	(keypad_get_value@_keypad_obj+1)^0,w,c
  1920   002034  6E04               	movwf	(gpio_pin_write_logic@_pin_config+1)^0,c
  1921   002036  0E00               	movlw	0
  1922   002038  6E05               	movwf	gpio_pin_write_logic@logic^0,c
  1923   00203A  ECC9  F00E         	call	_gpio_pin_write_logic	;wreg free
  1924   00203E                     
  1925                           ;ECU_Layer/KeyPad/ecu_keypad.c: 60:             }
  1926   00203E  2A15               	incf	keypad_get_value@l_counter^0,f,c
  1927   002040  0E03               	movlw	3
  1928   002042  6415               	cpfsgt	keypad_get_value@l_counter^0,c
  1929   002044  EF26  F010         	goto	u4841
  1930   002048  EF28  F010         	goto	u4840
  1931   00204C                     u4841:
  1932   00204C  EF15  F010         	goto	l6364
  1933   002050                     u4840:
  1934   002050                     
  1935                           ;ECU_Layer/KeyPad/ecu_keypad.c: 61:             gpio_pin_write_logic(&(_keypad_obj->keyp
      +                          ad_row_pins[l_rows_counter]), GPIO_HIGH);
  1936   002050  5016               	movf	keypad_get_value@l_rows_counter^0,w,c
  1937   002052  240D               	addwf	keypad_get_value@_keypad_obj^0,w,c
  1938   002054  6E03               	movwf	gpio_pin_write_logic@_pin_config^0,c
  1939   002056  0E00               	movlw	0
  1940   002058  200E               	addwfc	(keypad_get_value@_keypad_obj+1)^0,w,c
  1941   00205A  6E04               	movwf	(gpio_pin_write_logic@_pin_config+1)^0,c
  1942   00205C  0E01               	movlw	1
  1943   00205E  6E05               	movwf	gpio_pin_write_logic@logic^0,c
  1944   002060  ECC9  F00E         	call	_gpio_pin_write_logic	;wreg free
  1945   002064                     
  1946                           ;ECU_Layer/KeyPad/ecu_keypad.c: 62:             _delay((unsigned long)((10)*(8000000UL/4
      +                          000.0)));
  1947   002064  0E1A               	movlw	26
  1948   002066  6E11               	movwf	??_keypad_get_value^0,c
  1949   002068  0EF8               	movlw	248
  1950   00206A                     u7117:
  1951   00206A  2EE8               	decfsz	wreg,f,c
  1952   00206C  D7FE               	bra	u7117
  1953   00206E  2E11               	decfsz	??_keypad_get_value^0,f,c
  1954   002070  D7FC               	bra	u7117
  1955   002072  D000               	nop2	
  1956   002074                     
  1957                           ;ECU_Layer/KeyPad/ecu_keypad.c: 63:             for(l_columns_counter=0; l_columns_count
      +                          er<4; l_columns_counter++){
  1958   002074  0E00               	movlw	0
  1959   002076  6E17               	movwf	keypad_get_value@l_columns_counter^0,c
  1960   002078                     l6380:
  1961                           
  1962                           ;ECU_Layer/KeyPad/ecu_keypad.c: 64:                 ret = gpio_pin_read_logic(&(_keypad_
      +                          obj->keypad_columns_pins[l_columns_counter]), &column_logic);
  1963   002078  5017               	movf	keypad_get_value@l_columns_counter^0,w,c
  1964   00207A  240D               	addwf	keypad_get_value@_keypad_obj^0,w,c
  1965   00207C  6E11               	movwf	??_keypad_get_value^0,c
  1966   00207E  0E00               	movlw	0
  1967   002080  200E               	addwfc	(keypad_get_value@_keypad_obj+1)^0,w,c
  1968   002082  6E12               	movwf	(??_keypad_get_value+1)^0,c
  1969   002084  0E04               	movlw	4
  1970   002086  2411               	addwf	??_keypad_get_value^0,w,c
  1971   002088  6E03               	movwf	gpio_pin_read_logic@_pin_config^0,c
  1972   00208A  0E00               	movlw	0
  1973   00208C  2012               	addwfc	(??_keypad_get_value+1)^0,w,c
  1974   00208E  6E04               	movwf	(gpio_pin_read_logic@_pin_config+1)^0,c
  1975   002090  0E14               	movlw	low keypad_get_value@column_logic
  1976   002092  6E05               	movwf	gpio_pin_read_logic@logic^0,c
  1977   002094  0E00               	movlw	high keypad_get_value@column_logic
  1978   002096  6E06               	movwf	(gpio_pin_read_logic@logic+1)^0,c
  1979   002098  ECA7  F011         	call	_gpio_pin_read_logic	;wreg free
  1980   00209C  6E13               	movwf	keypad_get_value@ret^0,c
  1981   00209E                     
  1982                           ;ECU_Layer/KeyPad/ecu_keypad.c: 65:                 if(GPIO_HIGH == column_logic){
  1983   00209E  0414               	decf	keypad_get_value@column_logic^0,w,c
  1984   0020A0  A4D8               	btfss	status,2,c
  1985   0020A2  EF55  F010         	goto	u4851
  1986   0020A6  EF57  F010         	goto	u4850
  1987   0020AA                     u4851:
  1988   0020AA  EF6F  F010         	goto	l6386
  1989   0020AE                     u4850:
  1990   0020AE                     
  1991                           ;ECU_Layer/KeyPad/ecu_keypad.c: 66:                     *value = btn_values[l_rows_count
      +                          er][l_columns_counter];
  1992   0020AE  5016               	movf	keypad_get_value@l_rows_counter^0,w,c
  1993   0020B0  0D04               	mullw	4
  1994   0020B2  0E01               	movlw	low _btn_values
  1995   0020B4  24F3               	addwf	243,w,c
  1996   0020B6  6E11               	movwf	??_keypad_get_value^0,c
  1997   0020B8  0E10               	movlw	high _btn_values
  1998   0020BA  20F4               	addwfc	prodh,w,c
  1999   0020BC  6E12               	movwf	(??_keypad_get_value+1)^0,c
  2000   0020BE  5017               	movf	keypad_get_value@l_columns_counter^0,w,c
  2001   0020C0  2611               	addwf	??_keypad_get_value^0,f,c
  2002   0020C2  0E00               	movlw	0
  2003   0020C4  2212               	addwfc	(??_keypad_get_value+1)^0,f,c
  2004   0020C6  C011  FFF6         	movff	??_keypad_get_value,tblptrl
  2005   0020CA  C012  FFF7         	movff	??_keypad_get_value+1,tblptrh
  2006   0020CE                     	if	1	;Program memory is < 0x10000, tblptru is always zero
  2007   0020CE  6AF8               	clrf	tblptru,c
  2008   0020D0                     	endif
  2009   0020D0                     	if	0	;tblptru may be non-zero
  2010   0020D0                     	endif
  2011   0020D0  C00F  FFD9         	movff	keypad_get_value@value,fsr2l
  2012   0020D4  C010  FFDA         	movff	keypad_get_value@value+1,fsr2h
  2013   0020D8  0008               	tblrd		*
  2014   0020DA  CFF5 FFDF          	movff	tablat,indf2
  2015   0020DE                     l6386:
  2016                           
  2017                           ;ECU_Layer/KeyPad/ecu_keypad.c: 68:             }
  2018   0020DE  2A17               	incf	keypad_get_value@l_columns_counter^0,f,c
  2019   0020E0  0E03               	movlw	3
  2020   0020E2  6417               	cpfsgt	keypad_get_value@l_columns_counter^0,c
  2021   0020E4  EF76  F010         	goto	u4861
  2022   0020E8  EF78  F010         	goto	u4860
  2023   0020EC                     u4861:
  2024   0020EC  EF3C  F010         	goto	l6380
  2025   0020F0                     u4860:
  2026   0020F0                     
  2027                           ;ECU_Layer/KeyPad/ecu_keypad.c: 69:         }
  2028   0020F0  2A16               	incf	keypad_get_value@l_rows_counter^0,f,c
  2029   0020F2  0E03               	movlw	3
  2030   0020F4  6416               	cpfsgt	keypad_get_value@l_rows_counter^0,c
  2031   0020F6  EF7F  F010         	goto	u4871
  2032   0020FA  EF81  F010         	goto	u4870
  2033   0020FE                     u4871:
  2034   0020FE  EF13  F010         	goto	l6358
  2035   002102                     u4870:
  2036   002102                     l6394:
  2037                           
  2038                           ;ECU_Layer/KeyPad/ecu_keypad.c: 71:     return ret;
  2039   002102  5013               	movf	keypad_get_value@ret^0,w,c
  2040   002104  0012               	return		;funcret
  2041   002106                     __end_of_keypad_get_value:
  2042                           	callstack 0
  2043                           
  2044 ;; *************** function _gpio_pin_read_logic *****************
  2045 ;; Defined at:
  2046 ;;		line 104 in file "MCAL_Layer/GPIO/hal_gpio.c"
  2047 ;; Parameters:    Size  Location     Type
  2048 ;;  _pin_config     2    2[COMRAM] PTR const struct .
  2049 ;;		 -> keypad1.keypad_columns_pins(4), keypad1(8), 
  2050 ;;  logic           2    4[COMRAM] PTR enum E3462
  2051 ;;		 -> Ultrasonic_Calculate_Distance@EchoPinLogic(1), keypad_get_value@column_logic(1), button_read_state@Pin_Logic_Sta
      +tus(1), 
  2052 ;; Auto vars:     Size  Location     Type
  2053 ;;  ret             1   11[COMRAM] unsigned char 
  2054 ;; Return value:  Size  Location     Type
  2055 ;;                  1    wreg      unsigned char 
  2056 ;; Registers used:
  2057 ;;		wreg, fsr2l, fsr2h, status,2, status,0, prodl, prodh
  2058 ;; Tracked objects:
  2059 ;;		On entry : 0/0
  2060 ;;		On exit  : 0/0
  2061 ;;		Unchanged: 0/0
  2062 ;; Data sizes:     COMRAM   BANK0   BANK1   BANK2   BANK3   BANK4   BANK5   BANK6   BANK7   BANK8   BANK9  BANK10  BANK1
      +1  BANK12  BANK13  BANK14  BANK15
  2063 ;;      Params:         4       0       0       0       0       0       0       0       0       0       0       0       
      +0       0       0       0       0
  2064 ;;      Locals:         1       0       0       0       0       0       0       0       0       0       0       0       
      +0       0       0       0       0
  2065 ;;      Temps:          5       0       0       0       0       0       0       0       0       0       0       0       
      +0       0       0       0       0
  2066 ;;      Totals:        10       0       0       0       0       0       0       0       0       0       0       0       
      +0       0       0       0       0
  2067 ;;Total ram usage:       10 bytes
  2068 ;; Hardware stack levels used: 1
  2069 ;; Hardware stack levels required when called: 2
  2070 ;; This function calls:
  2071 ;;		Nothing
  2072 ;; This function is called by:
  2073 ;;		_keypad_get_value
  2074 ;;		_button_read_state
  2075 ;;		_Ultrasonic_Calculate_Distance
  2076 ;; This function uses a non-reentrant model
  2077 ;;
  2078                           
  2079                           	psect	text6
  2080   00234E                     __ptext6:
  2081                           	callstack 0
  2082   00234E                     _gpio_pin_read_logic:
  2083                           	callstack 27
  2084   00234E                     
  2085                           ;MCAL_Layer/GPIO/hal_gpio.c: 105:     Std_ReturnType ret = (Std_ReturnType)0x01;
  2086   00234E  0E01               	movlw	1
  2087   002350  6E0C               	movwf	gpio_pin_read_logic@ret^0,c
  2088   002352                     
  2089                           ;MCAL_Layer/GPIO/hal_gpio.c: 106:     if(((void*)0) == _pin_config || ((void*)0) == logi
      +                          c || _pin_config->pin > 8 -1){
  2090   002352  5003               	movf	gpio_pin_read_logic@_pin_config^0,w,c
  2091   002354  1004               	iorwf	(gpio_pin_read_logic@_pin_config+1)^0,w,c
  2092   002356  B4D8               	btfsc	status,2,c
  2093   002358  EFB0  F011         	goto	u4581
  2094   00235C  EFB2  F011         	goto	u4580
  2095   002360                     u4581:
  2096   002360  EFCC  F011         	goto	l6154
  2097   002364                     u4580:
  2098   002364  5005               	movf	gpio_pin_read_logic@logic^0,w,c
  2099   002366  1006               	iorwf	(gpio_pin_read_logic@logic+1)^0,w,c
  2100   002368  B4D8               	btfsc	status,2,c
  2101   00236A  EFB9  F011         	goto	u4591
  2102   00236E  EFBB  F011         	goto	u4590
  2103   002372                     u4591:
  2104   002372  EFCC  F011         	goto	l6154
  2105   002376                     u4590:
  2106   002376  C003  FFD9         	movff	gpio_pin_read_logic@_pin_config,fsr2l
  2107   00237A  C004  FFDA         	movff	gpio_pin_read_logic@_pin_config+1,fsr2h
  2108   00237E  30DF               	rrcf	223,w,c
  2109   002380  32E8               	rrcf	wreg,f,c
  2110   002382  32E8               	rrcf	wreg,f,c
  2111   002384  0B07               	andlw	7
  2112   002386  6E07               	movwf	??_gpio_pin_read_logic^0,c
  2113   002388  0E07               	movlw	7
  2114   00238A  6407               	cpfsgt	??_gpio_pin_read_logic^0,c
  2115   00238C  EFCA  F011         	goto	u4601
  2116   002390  EFCC  F011         	goto	u4600
  2117   002394                     u4601:
  2118   002394  EFD0  F011         	goto	l6156
  2119   002398                     u4600:
  2120   002398                     l6154:
  2121                           
  2122                           ;MCAL_Layer/GPIO/hal_gpio.c: 107:         ret = (Std_ReturnType)0x00;
  2123   002398  0E00               	movlw	0
  2124   00239A  6E0C               	movwf	gpio_pin_read_logic@ret^0,c
  2125                           
  2126                           ;MCAL_Layer/GPIO/hal_gpio.c: 108:     }
  2127   00239C  EF01  F012         	goto	l6158
  2128   0023A0                     l6156:
  2129                           
  2130                           ;MCAL_Layer/GPIO/hal_gpio.c: 110:         *logic = ((*port_registers[_pin_config->port] 
      +                          >> _pin_config->pin) & (uint8)1);
  2131   0023A0  C003  FFD9         	movff	gpio_pin_read_logic@_pin_config,fsr2l
  2132   0023A4  C004  FFDA         	movff	gpio_pin_read_logic@_pin_config+1,fsr2h
  2133   0023A8  30DF               	rrcf	223,w,c
  2134   0023AA  32E8               	rrcf	wreg,f,c
  2135   0023AC  32E8               	rrcf	wreg,f,c
  2136   0023AE  0B07               	andlw	7
  2137   0023B0  6E07               	movwf	??_gpio_pin_read_logic^0,c
  2138   0023B2  C003  FFD9         	movff	gpio_pin_read_logic@_pin_config,fsr2l
  2139   0023B6  C004  FFDA         	movff	gpio_pin_read_logic@_pin_config+1,fsr2h
  2140   0023BA  50DF               	movf	223,w,c
  2141   0023BC  0B07               	andlw	7
  2142   0023BE  6E08               	movwf	(??_gpio_pin_read_logic+1)^0,c
  2143   0023C0  5008               	movf	(??_gpio_pin_read_logic+1)^0,w,c
  2144   0023C2  0D02               	mullw	2
  2145   0023C4  0ED1               	movlw	low _port_registers
  2146   0023C6  24F3               	addwf	243,w,c
  2147   0023C8  6ED9               	movwf	fsr2l,c
  2148   0023CA  0E00               	movlw	high _port_registers
  2149   0023CC  20F4               	addwfc	prodh,w,c
  2150   0023CE  6EDA               	movwf	fsr2h,c
  2151   0023D0  CFDE F009          	movff	postinc2,??_gpio_pin_read_logic+2
  2152   0023D4  CFDD F00A          	movff	postdec2,??_gpio_pin_read_logic+3
  2153   0023D8  C009  FFD9         	movff	??_gpio_pin_read_logic+2,fsr2l
  2154   0023DC  C00A  FFDA         	movff	??_gpio_pin_read_logic+3,fsr2h
  2155   0023E0  50DF               	movf	indf2,w,c
  2156   0023E2  6E0B               	movwf	(??_gpio_pin_read_logic+4)^0,c
  2157   0023E4  2A07               	incf	??_gpio_pin_read_logic^0,f,c
  2158   0023E6  EFF7  F011         	goto	u4614
  2159   0023EA                     u4615:
  2160   0023EA  90D8               	bcf	status,0,c
  2161   0023EC  320B               	rrcf	(??_gpio_pin_read_logic+4)^0,f,c
  2162   0023EE                     u4614:
  2163   0023EE  2E07               	decfsz	??_gpio_pin_read_logic^0,f,c
  2164   0023F0  EFF5  F011         	goto	u4615
  2165   0023F4  500B               	movf	(??_gpio_pin_read_logic+4)^0,w,c
  2166   0023F6  0B01               	andlw	1
  2167   0023F8  C005  FFD9         	movff	gpio_pin_read_logic@logic,fsr2l
  2168   0023FC  C006  FFDA         	movff	gpio_pin_read_logic@logic+1,fsr2h
  2169   002400  6EDF               	movwf	indf2,c
  2170   002402                     l6158:
  2171                           
  2172                           ;MCAL_Layer/GPIO/hal_gpio.c: 112:     return ret;
  2173   002402  500C               	movf	gpio_pin_read_logic@ret^0,w,c
  2174   002404  0012               	return		;funcret
  2175   002406                     __end_of_gpio_pin_read_logic:
  2176                           	callstack 0
  2177                           
  2178 ;; *************** function _isdigit *****************
  2179 ;; Defined at:
  2180 ;;		line 5 in file "C:\Program Files\Microchip\xc8\v2.41\pic\sources\c99\common\isdigit.c"
  2181 ;; Parameters:    Size  Location     Type
  2182 ;;  c               2    2[COMRAM] int 
  2183 ;; Auto vars:     Size  Location     Type
  2184 ;;		None
  2185 ;; Return value:  Size  Location     Type
  2186 ;;                  2    2[COMRAM] int 
  2187 ;; Registers used:
  2188 ;;		wreg, status,2, status,0
  2189 ;; Tracked objects:
  2190 ;;		On entry : 0/0
  2191 ;;		On exit  : 0/0
  2192 ;;		Unchanged: 0/0
  2193 ;; Data sizes:     COMRAM   BANK0   BANK1   BANK2   BANK3   BANK4   BANK5   BANK6   BANK7   BANK8   BANK9  BANK10  BANK1
      +1  BANK12  BANK13  BANK14  BANK15
  2194 ;;      Params:         2       0       0       0       0       0       0       0       0       0       0       0       
      +0       0       0       0       0
  2195 ;;      Locals:         0       0       0       0       0       0       0       0       0       0       0       0       
      +0       0       0       0       0
  2196 ;;      Temps:          2       0       0       0       0       0       0       0       0       0       0       0       
      +0       0       0       0       0
  2197 ;;      Totals:         4       0       0       0       0       0       0       0       0       0       0       0       
      +0       0       0       0       0
  2198 ;;Total ram usage:        4 bytes
  2199 ;; Hardware stack levels used: 1
  2200 ;; Hardware stack levels required when called: 2
  2201 ;; This function calls:
  2202 ;;		Nothing
  2203 ;; This function is called by:
  2204 ;;		_main
  2205 ;; This function uses a non-reentrant model
  2206 ;;
  2207                           
  2208                           	psect	text7
  2209   002CB6                     __ptext7:
  2210                           	callstack 0
  2211   002CB6                     _isdigit:
  2212                           	callstack 28
  2213   002CB6  0ED0               	movlw	208
  2214   002CB8  2403               	addwf	isdigit@c^0,w,c
  2215   002CBA  6E05               	movwf	??_isdigit^0,c
  2216   002CBC  0EFF               	movlw	255
  2217   002CBE  2004               	addwfc	(isdigit@c+1)^0,w,c
  2218   002CC0  6E06               	movwf	(??_isdigit+1)^0,c
  2219   002CC2  5006               	movf	(??_isdigit+1)^0,w,c
  2220   002CC4  E10A               	bnz	u5000
  2221   002CC6  0E0A               	movlw	10
  2222   002CC8  5C05               	subwf	??_isdigit^0,w,c
  2223   002CCA  A0D8               	btfss	status,0,c
  2224   002CCC  EF6A  F016         	goto	u5001
  2225   002CD0  EF6D  F016         	goto	u5000
  2226   002CD4                     u5001:
  2227   002CD4  0E01               	movlw	1
  2228   002CD6  EF6E  F016         	goto	u5010
  2229   002CDA                     u5000:
  2230   002CDA  0E00               	movlw	0
  2231   002CDC                     u5010:
  2232   002CDC  6E03               	movwf	?_isdigit^0,c
  2233   002CDE  6A04               	clrf	(?_isdigit+1)^0,c
  2234   002CE0  0012               	return		;funcret
  2235   002CE2                     __end_of_isdigit:
  2236                           	callstack 0
  2237                           
  2238 ;; *************** function _calculate *****************
  2239 ;; Defined at:
  2240 ;;		line 92 in file "application.c"
  2241 ;; Parameters:    Size  Location     Type
  2242 ;;		None
  2243 ;; Auto vars:     Size  Location     Type
  2244 ;;  ret             1    0        unsigned char 
  2245 ;; Return value:  Size  Location     Type
  2246 ;;                  1    wreg      void 
  2247 ;; Registers used:
  2248 ;;		wreg, fsr0l, fsr0h, fsr1l, fsr1h, fsr2l, fsr2h, status,2, status,0, tblptrl, tblptrh, tblptru, prodl, prodh, cstack
  2249 ;; Tracked objects:
  2250 ;;		On entry : 0/0
  2251 ;;		On exit  : 0/0
  2252 ;;		Unchanged: 0/0
  2253 ;; Data sizes:     COMRAM   BANK0   BANK1   BANK2   BANK3   BANK4   BANK5   BANK6   BANK7   BANK8   BANK9  BANK10  BANK1
      +1  BANK12  BANK13  BANK14  BANK15
  2254 ;;      Params:         0       0       0       0       0       0       0       0       0       0       0       0       
      +0       0       0       0       0
  2255 ;;      Locals:         0       0       0       0       0       0       0       0       0       0       0       0       
      +0       0       0       0       0
  2256 ;;      Temps:          2       0       0       0       0       0       0       0       0       0       0       0       
      +0       0       0       0       0
  2257 ;;      Totals:         2       0       0       0       0       0       0       0       0       0       0       0       
      +0       0       0       0       0
  2258 ;;Total ram usage:        2 bytes
  2259 ;; Hardware stack levels used: 1
  2260 ;; Hardware stack levels required when called: 11
  2261 ;; This function calls:
  2262 ;;		___lldiv
  2263 ;;		___lmul
  2264 ;;		_convert_uint32_to_string
  2265 ;;		_lcd_4bit_send_string_pos
  2266 ;; This function is called by:
  2267 ;;		_main
  2268 ;; This function uses a non-reentrant model
  2269 ;;
  2270                           
  2271                           	psect	text8
  2272   0019C8                     __ptext8:
  2273                           	callstack 0
  2274   0019C8                     _calculate:
  2275                           	callstack 19
  2276   0019C8                     
  2277                           ;application.c: 94:     switch(operator){
  2278   0019C8  EF57  F00D         	goto	l6674
  2279   0019CC                     l6658:
  2280   0019CC  5060               	movf	_num2^0,w,c
  2281   0019CE  2464               	addwf	_num1^0,w,c
  2282   0019D0  0100               	movlb	0	; () banked
  2283   0019D2  6F86               	movwf	_result& (0+255),b
  2284   0019D4  5061               	movf	(_num2+1)^0,w,c
  2285   0019D6  2065               	addwfc	(_num1+1)^0,w,c
  2286   0019D8  6F87               	movwf	(_result+1)& (0+255),b
  2287   0019DA  5062               	movf	(_num2+2)^0,w,c
  2288   0019DC  2066               	addwfc	(_num1+2)^0,w,c
  2289   0019DE  6F88               	movwf	(_result+2)& (0+255),b
  2290   0019E0  5063               	movf	(_num2+3)^0,w,c
  2291   0019E2  2067               	addwfc	(_num1+3)^0,w,c
  2292   0019E4  6F89               	movwf	(_result+3)& (0+255),b
  2293   0019E6  EF74  F00D         	goto	l6676
  2294   0019EA                     l6660:
  2295   0019EA  5060               	movf	_num2^0,w,c
  2296   0019EC  5C64               	subwf	_num1^0,w,c
  2297   0019EE  0100               	movlb	0	; () banked
  2298   0019F0  6F86               	movwf	_result& (0+255),b
  2299   0019F2  5061               	movf	(_num2+1)^0,w,c
  2300   0019F4  5865               	subwfb	(_num1+1)^0,w,c
  2301   0019F6  6F87               	movwf	(_result+1)& (0+255),b
  2302   0019F8  5062               	movf	(_num2+2)^0,w,c
  2303   0019FA  5866               	subwfb	(_num1+2)^0,w,c
  2304   0019FC  6F88               	movwf	(_result+2)& (0+255),b
  2305   0019FE  5063               	movf	(_num2+3)^0,w,c
  2306   001A00  5867               	subwfb	(_num1+3)^0,w,c
  2307   001A02  6F89               	movwf	(_result+3)& (0+255),b
  2308   001A04  EF74  F00D         	goto	l6676
  2309   001A08                     l6662:
  2310   001A08  C064  F003         	movff	_num1,___lmul@multiplier
  2311   001A0C  C065  F004         	movff	_num1+1,___lmul@multiplier+1
  2312   001A10  C066  F005         	movff	_num1+2,___lmul@multiplier+2
  2313   001A14  C067  F006         	movff	_num1+3,___lmul@multiplier+3
  2314   001A18  C060  F007         	movff	_num2,___lmul@multiplicand
  2315   001A1C  C061  F008         	movff	_num2+1,___lmul@multiplicand+1
  2316   001A20  C062  F009         	movff	_num2+2,___lmul@multiplicand+2
  2317   001A24  C063  F00A         	movff	_num2+3,___lmul@multiplicand+3
  2318   001A28  ECBD  F014         	call	___lmul	;wreg free
  2319   001A2C  C003  F086         	movff	?___lmul,_result
  2320   001A30  C004  F087         	movff	?___lmul+1,_result+1
  2321   001A34  C005  F088         	movff	?___lmul+2,_result+2
  2322   001A38  C006  F089         	movff	?___lmul+3,_result+3
  2323   001A3C  EF74  F00D         	goto	l6676
  2324   001A40                     l6664:
  2325                           
  2326                           ;application.c: 99:             if(0 == num2){
  2327   001A40  5060               	movf	_num2^0,w,c
  2328   001A42  1061               	iorwf	(_num2+1)^0,w,c
  2329   001A44  1062               	iorwf	(_num2+2)^0,w,c
  2330   001A46  1063               	iorwf	(_num2+3)^0,w,c
  2331   001A48  A4D8               	btfss	status,2,c
  2332   001A4A  EF29  F00D         	goto	u5031
  2333   001A4E  EF2B  F00D         	goto	u5030
  2334   001A52                     u5031:
  2335   001A52  EF3B  F00D         	goto	l6672
  2336   001A56                     u5030:
  2337   001A56  0EF7               	movlw	low _lcd_1
  2338   001A58  6E1C               	movwf	lcd_4bit_send_string_pos@lcd^0,c
  2339   001A5A  0E00               	movlw	high _lcd_1
  2340   001A5C  6E1D               	movwf	(lcd_4bit_send_string_pos@lcd+1)^0,c
  2341   001A5E  0E04               	movlw	4
  2342   001A60  6E1E               	movwf	lcd_4bit_send_string_pos@row^0,c
  2343   001A62  0E01               	movlw	1
  2344   001A64  6E1F               	movwf	lcd_4bit_send_string_pos@column^0,c
  2345   001A66  0E11               	movlw	low STR_8
  2346   001A68  6E20               	movwf	lcd_4bit_send_string_pos@str^0,c
  2347   001A6A  0E10               	movlw	high STR_8
  2348   001A6C  6E21               	movwf	(lcd_4bit_send_string_pos@str+1)^0,c
  2349   001A6E  EC01  F013         	call	_lcd_4bit_send_string_pos	;wreg free
  2350   001A72  EF90  F00D         	goto	l1795
  2351   001A76                     l6672:
  2352                           
  2353                           ;application.c: 103:             result = num1 / num2;
  2354   001A76  C064  F003         	movff	_num1,___lldiv@dividend
  2355   001A7A  C065  F004         	movff	_num1+1,___lldiv@dividend+1
  2356   001A7E  C066  F005         	movff	_num1+2,___lldiv@dividend+2
  2357   001A82  C067  F006         	movff	_num1+3,___lldiv@dividend+3
  2358   001A86  C060  F007         	movff	_num2,___lldiv@divisor
  2359   001A8A  C061  F008         	movff	_num2+1,___lldiv@divisor+1
  2360   001A8E  C062  F009         	movff	_num2+2,___lldiv@divisor+2
  2361   001A92  C063  F00A         	movff	_num2+3,___lldiv@divisor+3
  2362   001A96  ECAF  F012         	call	___lldiv	;wreg free
  2363   001A9A  C003  F086         	movff	?___lldiv,_result
  2364   001A9E  C004  F087         	movff	?___lldiv+1,_result+1
  2365   001AA2  C005  F088         	movff	?___lldiv+2,_result+2
  2366   001AA6  C006  F089         	movff	?___lldiv+3,_result+3
  2367   001AAA  EF74  F00D         	goto	l6676
  2368   001AAE                     l6674:
  2369   001AAE  506E               	movf	_operator^0,w,c
  2370   001AB0  6E5E               	movwf	??_calculate^0,c
  2371   001AB2  6A5F               	clrf	(??_calculate+1)^0,c
  2372                           
  2373                           ; Switch on 2 bytes has been partitioned into a top level switch of size 1, and 1 sub-sw
      +                          itches
  2374                           ; Switch size 1, requested type "simple"
  2375                           ; Number of cases is 1, Range of values is 0 to 0
  2376                           ; switch strategies available:
  2377                           ; Name         Instructions Cycles
  2378                           ; simple_byte            4     3 (average)
  2379                           ;	Chosen strategy is simple_byte
  2380   001AB4  505F               	movf	(??_calculate+1)^0,w,c
  2381   001AB6  0A00               	xorlw	0	; case 0
  2382   001AB8  B4D8               	btfsc	status,2,c
  2383   001ABA  EF61  F00D         	goto	l8198
  2384   001ABE  EF74  F00D         	goto	l6676
  2385   001AC2                     l8198:
  2386                           
  2387                           ; Switch size 1, requested type "simple"
  2388                           ; Number of cases is 4, Range of values is 42 to 47
  2389                           ; switch strategies available:
  2390                           ; Name         Instructions Cycles
  2391                           ; simple_byte           13     7 (average)
  2392                           ;	Chosen strategy is simple_byte
  2393   001AC2  505E               	movf	??_calculate^0,w,c
  2394   001AC4  0A2A               	xorlw	42	; case 42
  2395   001AC6  B4D8               	btfsc	status,2,c
  2396   001AC8  EF04  F00D         	goto	l6662
  2397   001ACC  0A01               	xorlw	1	; case 43
  2398   001ACE  B4D8               	btfsc	status,2,c
  2399   001AD0  EFE6  F00C         	goto	l6658
  2400   001AD4  0A06               	xorlw	6	; case 45
  2401   001AD6  B4D8               	btfsc	status,2,c
  2402   001AD8  EFF5  F00C         	goto	l6660
  2403   001ADC  0A02               	xorlw	2	; case 47
  2404   001ADE  B4D8               	btfsc	status,2,c
  2405   001AE0  EF20  F00D         	goto	l6664
  2406   001AE4  EF74  F00D         	goto	l6676
  2407   001AE8                     l6676:
  2408   001AE8  C086  F057         	movff	_result,convert_uint32_to_string@value
  2409   001AEC  C087  F058         	movff	_result+1,convert_uint32_to_string@value+1
  2410   001AF0  C088  F059         	movff	_result+2,convert_uint32_to_string@value+2
  2411   001AF4  C089  F05A         	movff	_result+3,convert_uint32_to_string@value+3
  2412   001AF8  0EC6               	movlw	low _result_txt
  2413   001AFA  6E5B               	movwf	convert_uint32_to_string@str^0,c
  2414   001AFC  0E00               	movlw	high _result_txt
  2415   001AFE  6E5C               	movwf	(convert_uint32_to_string@str+1)^0,c
  2416   001B00  EC26  F015         	call	_convert_uint32_to_string	;wreg free
  2417   001B04  0EF7               	movlw	low _lcd_1
  2418   001B06  6E1C               	movwf	lcd_4bit_send_string_pos@lcd^0,c
  2419   001B08  0E00               	movlw	high _lcd_1
  2420   001B0A  6E1D               	movwf	(lcd_4bit_send_string_pos@lcd+1)^0,c
  2421   001B0C  0E04               	movlw	4
  2422   001B0E  6E1E               	movwf	lcd_4bit_send_string_pos@row^0,c
  2423   001B10  0E0F               	movlw	15
  2424   001B12  6E1F               	movwf	lcd_4bit_send_string_pos@column^0,c
  2425   001B14  0EC6               	movlw	low _result_txt
  2426   001B16  6E20               	movwf	lcd_4bit_send_string_pos@str^0,c
  2427   001B18  0E00               	movlw	high _result_txt
  2428   001B1A  6E21               	movwf	(lcd_4bit_send_string_pos@str+1)^0,c
  2429   001B1C  EC01  F013         	call	_lcd_4bit_send_string_pos	;wreg free
  2430   001B20                     l1795:
  2431   001B20  0012               	return		;funcret
  2432   001B22                     __end_of_calculate:
  2433                           	callstack 0
  2434                           
  2435 ;; *************** function _lcd_4bit_send_string_pos *****************
  2436 ;; Defined at:
  2437 ;;		line 163 in file "ECU_Layer/Chr_LCD/ecu_chr_lcd.c"
  2438 ;; Parameters:    Size  Location     Type
  2439 ;;  lcd             2   27[COMRAM] PTR const struct .
  2440 ;;		 -> lcd_1(6), 
  2441 ;;  row             1   29[COMRAM] unsigned char 
  2442 ;;  column          1   30[COMRAM] unsigned char 
  2443 ;;  str             2   31[COMRAM] PTR unsigned char 
  2444 ;;		 -> result_txt(11), STR_8(21), STR_7(10), STR_6(10), 
  2445 ;;		 -> STR_5(8), STR_4(8), 
  2446 ;; Auto vars:     Size  Location     Type
  2447 ;;  ret             1   33[COMRAM] unsigned char 
  2448 ;; Return value:  Size  Location     Type
  2449 ;;                  1    wreg      unsigned char 
  2450 ;; Registers used:
  2451 ;;		wreg, fsr0l, fsr0h, fsr2l, fsr2h, status,2, status,0, tblptrl, tblptrh, tblptru, prodl, prodh, cstack
  2452 ;; Tracked objects:
  2453 ;;		On entry : 0/0
  2454 ;;		On exit  : 0/0
  2455 ;;		Unchanged: 0/0
  2456 ;; Data sizes:     COMRAM   BANK0   BANK1   BANK2   BANK3   BANK4   BANK5   BANK6   BANK7   BANK8   BANK9  BANK10  BANK1
      +1  BANK12  BANK13  BANK14  BANK15
  2457 ;;      Params:         6       0       0       0       0       0       0       0       0       0       0       0       
      +0       0       0       0       0
  2458 ;;      Locals:         1       0       0       0       0       0       0       0       0       0       0       0       
      +0       0       0       0       0
  2459 ;;      Temps:          0       0       0       0       0       0       0       0       0       0       0       0       
      +0       0       0       0       0
  2460 ;;      Totals:         7       0       0       0       0       0       0       0       0       0       0       0       
      +0       0       0       0       0
  2461 ;;Total ram usage:        7 bytes
  2462 ;; Hardware stack levels used: 1
  2463 ;; Hardware stack levels required when called: 6
  2464 ;; This function calls:
  2465 ;;		_lcd_4bit_send_char_data
  2466 ;;		_lcd_4bit_set_cursor
  2467 ;; This function is called by:
  2468 ;;		_main
  2469 ;;		_loading_screen
  2470 ;;		_calculate
  2471 ;; This function uses a non-reentrant model
  2472 ;;
  2473                           
  2474                           	psect	text9
  2475   002602                     __ptext9:
  2476                           	callstack 0
  2477   002602                     _lcd_4bit_send_string_pos:
  2478                           	callstack 23
  2479   002602                     
  2480                           ;ECU_Layer/Chr_LCD/ecu_chr_lcd.c: 165:     if(((void*)0) == lcd){
  2481   002602  501C               	movf	lcd_4bit_send_string_pos@lcd^0,w,c
  2482   002604  101D               	iorwf	(lcd_4bit_send_string_pos@lcd+1)^0,w,c
  2483   002606  A4D8               	btfss	status,2,c
  2484   002608  EF08  F013         	goto	u4631
  2485   00260C  EF0A  F013         	goto	u4630
  2486   002610                     u4631:
  2487   002610  EF0E  F013         	goto	l6180
  2488   002614                     u4630:
  2489   002614                     
  2490                           ;ECU_Layer/Chr_LCD/ecu_chr_lcd.c: 166:         ret = (Std_ReturnType)0x00;
  2491   002614  0E00               	movlw	0
  2492   002616  6E22               	movwf	lcd_4bit_send_string_pos@ret^0,c
  2493                           
  2494                           ;ECU_Layer/Chr_LCD/ecu_chr_lcd.c: 167:     }
  2495   002618  EF4F  F013         	goto	l6188
  2496   00261C                     l6180:
  2497                           
  2498                           ;ECU_Layer/Chr_LCD/ecu_chr_lcd.c: 169:         ret = lcd_4bit_set_cursor(lcd, row, colum
      +                          n);
  2499   00261C  C01C  F015         	movff	lcd_4bit_send_string_pos@lcd,lcd_4bit_set_cursor@lcd
  2500   002620  C01D  F016         	movff	lcd_4bit_send_string_pos@lcd+1,lcd_4bit_set_cursor@lcd+1
  2501   002624  C01E  F017         	movff	lcd_4bit_send_string_pos@row,lcd_4bit_set_cursor@row
  2502   002628  C01F  F018         	movff	lcd_4bit_send_string_pos@column,lcd_4bit_set_cursor@coulmn
  2503   00262C  EC5B  F012         	call	_lcd_4bit_set_cursor	;wreg free
  2504   002630  6E22               	movwf	lcd_4bit_send_string_pos@ret^0,c
  2505                           
  2506                           ;ECU_Layer/Chr_LCD/ecu_chr_lcd.c: 170:         while(*str){
  2507   002632  EF36  F013         	goto	l6186
  2508   002636                     l6182:
  2509                           
  2510                           ;ECU_Layer/Chr_LCD/ecu_chr_lcd.c: 171:             ret = lcd_4bit_send_char_data(lcd, *s
      +                          tr++);
  2511   002636  C01C  F011         	movff	lcd_4bit_send_string_pos@lcd,lcd_4bit_send_char_data@lcd
  2512   00263A  C01D  F012         	movff	lcd_4bit_send_string_pos@lcd+1,lcd_4bit_send_char_data@lcd+1
  2513   00263E  C020  FFF6         	movff	lcd_4bit_send_string_pos@str,tblptrl
  2514   002642  C021  FFF7         	movff	lcd_4bit_send_string_pos@str+1,tblptrh
  2515   002646  0E00               	movlw	low (__smallconst shr (0+16))
  2516   002648  6EF8               	movwf	tblptru,c
  2517   00264A  0E0F               	movlw	(high __ramtop+-1)
  2518   00264C  64F7               	cpfsgt	tblptrh,c
  2519   00264E  D003               	bra	u4647
  2520   002650  0008               	tblrd		*
  2521   002652  50F5               	movf	tablat,w,c
  2522   002654  D005               	bra	u4640
  2523   002656                     u4647:
  2524   002656  CFF6 FFE9          	movff	tblptrl,fsr0l
  2525   00265A  CFF7 FFEA          	movff	tblptrh,fsr0h
  2526   00265E  50EF               	movf	indf0,w,c
  2527   002660                     u4640:
  2528   002660  6E13               	movwf	lcd_4bit_send_char_data@data^0,c
  2529   002662  EC15  F014         	call	_lcd_4bit_send_char_data	;wreg free
  2530   002666  6E22               	movwf	lcd_4bit_send_string_pos@ret^0,c
  2531   002668  4A20               	infsnz	lcd_4bit_send_string_pos@str^0,f,c
  2532   00266A  2A21               	incf	(lcd_4bit_send_string_pos@str+1)^0,f,c
  2533   00266C                     l6186:
  2534                           
  2535                           ;ECU_Layer/Chr_LCD/ecu_chr_lcd.c: 170:         while(*str){
  2536   00266C  C020  FFF6         	movff	lcd_4bit_send_string_pos@str,tblptrl
  2537   002670  C021  FFF7         	movff	lcd_4bit_send_string_pos@str+1,tblptrh
  2538   002674  0E00               	movlw	low (__smallconst shr (0+16))
  2539   002676  6EF8               	movwf	tblptru,c
  2540   002678  0E0F               	movlw	(high __ramtop+-1)
  2541   00267A  64F7               	cpfsgt	tblptrh,c
  2542   00267C  D003               	bra	u4657
  2543   00267E  0008               	tblrd		*
  2544   002680  50F5               	movf	tablat,w,c
  2545   002682  D005               	bra	u4650
  2546   002684                     u4657:
  2547   002684  CFF6 FFE9          	movff	tblptrl,fsr0l
  2548   002688  CFF7 FFEA          	movff	tblptrh,fsr0h
  2549   00268C  50EF               	movf	indf0,w,c
  2550   00268E                     u4650:
  2551   00268E  0900               	iorlw	0
  2552   002690  A4D8               	btfss	status,2,c
  2553   002692  EF4D  F013         	goto	u4661
  2554   002696  EF4F  F013         	goto	u4660
  2555   00269A                     u4661:
  2556   00269A  EF1B  F013         	goto	l6182
  2557   00269E                     u4660:
  2558   00269E                     l6188:
  2559                           
  2560                           ;ECU_Layer/Chr_LCD/ecu_chr_lcd.c: 174:     return ret;
  2561   00269E  5022               	movf	lcd_4bit_send_string_pos@ret^0,w,c
  2562   0026A0  0012               	return		;funcret
  2563   0026A2                     __end_of_lcd_4bit_send_string_pos:
  2564                           	callstack 0
  2565                           
  2566 ;; *************** function _lcd_4bit_set_cursor *****************
  2567 ;; Defined at:
  2568 ;;		line 549 in file "ECU_Layer/Chr_LCD/ecu_chr_lcd.c"
  2569 ;; Parameters:    Size  Location     Type
  2570 ;;  lcd             2   20[COMRAM] PTR const struct .
  2571 ;;		 -> lcd_1(6), 
  2572 ;;  row             1   22[COMRAM] unsigned char 
  2573 ;;  coulmn          1   23[COMRAM] unsigned char 
  2574 ;; Auto vars:     Size  Location     Type
  2575 ;;  ret             1   26[COMRAM] unsigned char 
  2576 ;; Return value:  Size  Location     Type
  2577 ;;                  1    wreg      unsigned char 
  2578 ;; Registers used:
  2579 ;;		wreg, fsr2l, fsr2h, status,2, status,0, prodl, prodh, cstack
  2580 ;; Tracked objects:
  2581 ;;		On entry : 0/0
  2582 ;;		On exit  : 0/0
  2583 ;;		Unchanged: 0/0
  2584 ;; Data sizes:     COMRAM   BANK0   BANK1   BANK2   BANK3   BANK4   BANK5   BANK6   BANK7   BANK8   BANK9  BANK10  BANK1
      +1  BANK12  BANK13  BANK14  BANK15
  2585 ;;      Params:         4       0       0       0       0       0       0       0       0       0       0       0       
      +0       0       0       0       0
  2586 ;;      Locals:         1       0       0       0       0       0       0       0       0       0       0       0       
      +0       0       0       0       0
  2587 ;;      Temps:          2       0       0       0       0       0       0       0       0       0       0       0       
      +0       0       0       0       0
  2588 ;;      Totals:         7       0       0       0       0       0       0       0       0       0       0       0       
      +0       0       0       0       0
  2589 ;;Total ram usage:        7 bytes
  2590 ;; Hardware stack levels used: 1
  2591 ;; Hardware stack levels required when called: 5
  2592 ;; This function calls:
  2593 ;;		_lcd_4bit_send_command
  2594 ;; This function is called by:
  2595 ;;		_lcd_4bit_send_char_data_pos
  2596 ;;		_lcd_4bit_send_string_pos
  2597 ;; This function uses a non-reentrant model
  2598 ;;
  2599                           
  2600                           	psect	text10
  2601   0024B6                     __ptext10:
  2602                           	callstack 0
  2603   0024B6                     _lcd_4bit_set_cursor:
  2604                           	callstack 23
  2605   0024B6                     
  2606                           ;ECU_Layer/Chr_LCD/ecu_chr_lcd.c: 550:     Std_ReturnType ret = (Std_ReturnType)0x01;
  2607   0024B6  0E01               	movlw	1
  2608   0024B8  6E1B               	movwf	lcd_4bit_set_cursor@ret^0,c
  2609   0024BA                     
  2610                           ;ECU_Layer/Chr_LCD/ecu_chr_lcd.c: 551:     coulmn--;
  2611   0024BA  0618               	decf	lcd_4bit_set_cursor@coulmn^0,f,c
  2612                           
  2613                           ;ECU_Layer/Chr_LCD/ecu_chr_lcd.c: 552:     switch(row){
  2614   0024BC  EF90  F012         	goto	l6058
  2615   0024C0                     l6050:
  2616   0024C0  C015  F011         	movff	lcd_4bit_set_cursor@lcd,lcd_4bit_send_command@lcd
  2617   0024C4  C016  F012         	movff	lcd_4bit_set_cursor@lcd+1,lcd_4bit_send_command@lcd+1
  2618   0024C8  5018               	movf	lcd_4bit_set_cursor@coulmn^0,w,c
  2619   0024CA  0F80               	addlw	128
  2620   0024CC  6E13               	movwf	lcd_4bit_send_command@command^0,c
  2621   0024CE  EC4E  F014         	call	_lcd_4bit_send_command	;wreg free
  2622   0024D2  6E1B               	movwf	lcd_4bit_set_cursor@ret^0,c
  2623   0024D4  EFAD  F012         	goto	l6060
  2624   0024D8                     l6052:
  2625   0024D8  C015  F011         	movff	lcd_4bit_set_cursor@lcd,lcd_4bit_send_command@lcd
  2626   0024DC  C016  F012         	movff	lcd_4bit_set_cursor@lcd+1,lcd_4bit_send_command@lcd+1
  2627   0024E0  5018               	movf	lcd_4bit_set_cursor@coulmn^0,w,c
  2628   0024E2  0FC0               	addlw	192
  2629   0024E4  6E13               	movwf	lcd_4bit_send_command@command^0,c
  2630   0024E6  EC4E  F014         	call	_lcd_4bit_send_command	;wreg free
  2631   0024EA  6E1B               	movwf	lcd_4bit_set_cursor@ret^0,c
  2632   0024EC  EFAD  F012         	goto	l6060
  2633   0024F0                     l6054:
  2634   0024F0  C015  F011         	movff	lcd_4bit_set_cursor@lcd,lcd_4bit_send_command@lcd
  2635   0024F4  C016  F012         	movff	lcd_4bit_set_cursor@lcd+1,lcd_4bit_send_command@lcd+1
  2636   0024F8  5018               	movf	lcd_4bit_set_cursor@coulmn^0,w,c
  2637   0024FA  0F94               	addlw	148
  2638   0024FC  6E13               	movwf	lcd_4bit_send_command@command^0,c
  2639   0024FE  EC4E  F014         	call	_lcd_4bit_send_command	;wreg free
  2640   002502  6E1B               	movwf	lcd_4bit_set_cursor@ret^0,c
  2641   002504  EFAD  F012         	goto	l6060
  2642   002508                     l6056:
  2643   002508  C015  F011         	movff	lcd_4bit_set_cursor@lcd,lcd_4bit_send_command@lcd
  2644   00250C  C016  F012         	movff	lcd_4bit_set_cursor@lcd+1,lcd_4bit_send_command@lcd+1
  2645   002510  5018               	movf	lcd_4bit_set_cursor@coulmn^0,w,c
  2646   002512  0FD4               	addlw	212
  2647   002514  6E13               	movwf	lcd_4bit_send_command@command^0,c
  2648   002516  EC4E  F014         	call	_lcd_4bit_send_command	;wreg free
  2649   00251A  6E1B               	movwf	lcd_4bit_set_cursor@ret^0,c
  2650   00251C  EFAD  F012         	goto	l6060
  2651   002520                     l6058:
  2652   002520  5017               	movf	lcd_4bit_set_cursor@row^0,w,c
  2653   002522  6E19               	movwf	??_lcd_4bit_set_cursor^0,c
  2654   002524  6A1A               	clrf	(??_lcd_4bit_set_cursor+1)^0,c
  2655                           
  2656                           ; Switch on 2 bytes has been partitioned into a top level switch of size 1, and 1 sub-sw
      +                          itches
  2657                           ; Switch size 1, requested type "simple"
  2658                           ; Number of cases is 1, Range of values is 0 to 0
  2659                           ; switch strategies available:
  2660                           ; Name         Instructions Cycles
  2661                           ; simple_byte            4     3 (average)
  2662                           ;	Chosen strategy is simple_byte
  2663   002526  501A               	movf	(??_lcd_4bit_set_cursor+1)^0,w,c
  2664   002528  0A00               	xorlw	0	; case 0
  2665   00252A  B4D8               	btfsc	status,2,c
  2666   00252C  EF9A  F012         	goto	l8200
  2667   002530  EFAD  F012         	goto	l6060
  2668   002534                     l8200:
  2669                           
  2670                           ; Switch size 1, requested type "simple"
  2671                           ; Number of cases is 4, Range of values is 1 to 4
  2672                           ; switch strategies available:
  2673                           ; Name         Instructions Cycles
  2674                           ; simple_byte           13     7 (average)
  2675                           ;	Chosen strategy is simple_byte
  2676   002534  5019               	movf	??_lcd_4bit_set_cursor^0,w,c
  2677   002536  0A01               	xorlw	1	; case 1
  2678   002538  B4D8               	btfsc	status,2,c
  2679   00253A  EF60  F012         	goto	l6050
  2680   00253E  0A03               	xorlw	3	; case 2
  2681   002540  B4D8               	btfsc	status,2,c
  2682   002542  EF6C  F012         	goto	l6052
  2683   002546  0A01               	xorlw	1	; case 3
  2684   002548  B4D8               	btfsc	status,2,c
  2685   00254A  EF78  F012         	goto	l6054
  2686   00254E  0A07               	xorlw	7	; case 4
  2687   002550  B4D8               	btfsc	status,2,c
  2688   002552  EF84  F012         	goto	l6056
  2689   002556  EFAD  F012         	goto	l6060
  2690   00255A                     l6060:
  2691                           
  2692                           ;ECU_Layer/Chr_LCD/ecu_chr_lcd.c: 559:     return ret;
  2693   00255A  501B               	movf	lcd_4bit_set_cursor@ret^0,w,c
  2694   00255C  0012               	return		;funcret
  2695   00255E                     __end_of_lcd_4bit_set_cursor:
  2696                           	callstack 0
  2697                           
  2698 ;; *************** function _lcd_4bit_send_char_data *****************
  2699 ;; Defined at:
  2700 ;;		line 89 in file "ECU_Layer/Chr_LCD/ecu_chr_lcd.c"
  2701 ;; Parameters:    Size  Location     Type
  2702 ;;  lcd             2   16[COMRAM] PTR const struct .
  2703 ;;		 -> lcd_1(6), 
  2704 ;;  data            1   18[COMRAM] unsigned char 
  2705 ;; Auto vars:     Size  Location     Type
  2706 ;;  ret             1   19[COMRAM] unsigned char 
  2707 ;; Return value:  Size  Location     Type
  2708 ;;                  1    wreg      unsigned char 
  2709 ;; Registers used:
  2710 ;;		wreg, fsr2l, fsr2h, status,2, status,0, prodl, prodh, cstack
  2711 ;; Tracked objects:
  2712 ;;		On entry : 0/0
  2713 ;;		On exit  : 0/0
  2714 ;;		Unchanged: 0/0
  2715 ;; Data sizes:     COMRAM   BANK0   BANK1   BANK2   BANK3   BANK4   BANK5   BANK6   BANK7   BANK8   BANK9  BANK10  BANK1
      +1  BANK12  BANK13  BANK14  BANK15
  2716 ;;      Params:         3       0       0       0       0       0       0       0       0       0       0       0       
      +0       0       0       0       0
  2717 ;;      Locals:         1       0       0       0       0       0       0       0       0       0       0       0       
      +0       0       0       0       0
  2718 ;;      Temps:          0       0       0       0       0       0       0       0       0       0       0       0       
      +0       0       0       0       0
  2719 ;;      Totals:         4       0       0       0       0       0       0       0       0       0       0       0       
      +0       0       0       0       0
  2720 ;;Total ram usage:        4 bytes
  2721 ;; Hardware stack levels used: 1
  2722 ;; Hardware stack levels required when called: 4
  2723 ;; This function calls:
  2724 ;;		_gpio_pin_write_logic
  2725 ;;		_lcd_4bit_send_enable_signal
  2726 ;;		_lcd_send_4bits
  2727 ;; This function is called by:
  2728 ;;		_lcd_4bit_send_char_data_pos
  2729 ;;		_lcd_4bit_send_string_pos
  2730 ;;		_lcd_write
  2731 ;;		_lcd_4bit_send_string
  2732 ;;		_lcd_4bit_send_custom_char
  2733 ;; This function uses a non-reentrant model
  2734 ;;
  2735                           
  2736                           	psect	text11
  2737   00282A                     __ptext11:
  2738                           	callstack 0
  2739   00282A                     _lcd_4bit_send_char_data:
  2740                           	callstack 24
  2741   00282A                     
  2742                           ;ECU_Layer/Chr_LCD/ecu_chr_lcd.c: 91:     if(((void*)0) == lcd){
  2743   00282A  5011               	movf	lcd_4bit_send_char_data@lcd^0,w,c
  2744   00282C  1012               	iorwf	(lcd_4bit_send_char_data@lcd+1)^0,w,c
  2745   00282E  A4D8               	btfss	status,2,c
  2746   002830  EF1C  F014         	goto	u4491
  2747   002834  EF1E  F014         	goto	u4490
  2748   002838                     u4491:
  2749   002838  EF22  F014         	goto	l6040
  2750   00283C                     u4490:
  2751   00283C                     
  2752                           ;ECU_Layer/Chr_LCD/ecu_chr_lcd.c: 92:         ret = (Std_ReturnType)0x00;
  2753   00283C  0E00               	movlw	0
  2754   00283E  6E14               	movwf	lcd_4bit_send_char_data@ret^0,c
  2755                           
  2756                           ;ECU_Layer/Chr_LCD/ecu_chr_lcd.c: 93:     }
  2757   002840  EF4C  F014         	goto	l6042
  2758   002844                     l6040:
  2759                           
  2760                           ;ECU_Layer/Chr_LCD/ecu_chr_lcd.c: 97:         ret = gpio_pin_write_logic(&(lcd->lcd_rs),
      +                           GPIO_HIGH);
  2761   002844  C011  F003         	movff	lcd_4bit_send_char_data@lcd,gpio_pin_write_logic@_pin_config
  2762   002848  C012  F004         	movff	lcd_4bit_send_char_data@lcd+1,gpio_pin_write_logic@_pin_config+1
  2763   00284C  0E01               	movlw	1
  2764   00284E  6E05               	movwf	gpio_pin_write_logic@logic^0,c
  2765   002850  ECC9  F00E         	call	_gpio_pin_write_logic	;wreg free
  2766   002854  6E14               	movwf	lcd_4bit_send_char_data@ret^0,c
  2767                           
  2768                           ;ECU_Layer/Chr_LCD/ecu_chr_lcd.c: 99:         ret = lcd_send_4bits(lcd, data >> 4);
  2769   002856  C011  F00D         	movff	lcd_4bit_send_char_data@lcd,lcd_send_4bits@lcd
  2770   00285A  C012  F00E         	movff	lcd_4bit_send_char_data@lcd+1,lcd_send_4bits@lcd+1
  2771   00285E  3813               	swapf	lcd_4bit_send_char_data@data^0,w,c
  2772   002860  0B0F               	andlw	15
  2773   002862  6E0F               	movwf	lcd_send_4bits@_data_command^0,c
  2774   002864  ECF2  F014         	call	_lcd_send_4bits	;wreg free
  2775   002868  6E14               	movwf	lcd_4bit_send_char_data@ret^0,c
  2776                           
  2777                           ;ECU_Layer/Chr_LCD/ecu_chr_lcd.c: 101:         ret = lcd_4bit_send_enable_signal(lcd);
  2778   00286A  C011  F00D         	movff	lcd_4bit_send_char_data@lcd,lcd_4bit_send_enable_signal@lcd
  2779   00286E  C012  F00E         	movff	lcd_4bit_send_char_data@lcd+1,lcd_4bit_send_enable_signal@lcd+1
  2780   002872  EC2A  F016         	call	_lcd_4bit_send_enable_signal	;wreg free
  2781   002876  6E14               	movwf	lcd_4bit_send_char_data@ret^0,c
  2782                           
  2783                           ;ECU_Layer/Chr_LCD/ecu_chr_lcd.c: 103:         ret = lcd_send_4bits(lcd, data);
  2784   002878  C011  F00D         	movff	lcd_4bit_send_char_data@lcd,lcd_send_4bits@lcd
  2785   00287C  C012  F00E         	movff	lcd_4bit_send_char_data@lcd+1,lcd_send_4bits@lcd+1
  2786   002880  C013  F00F         	movff	lcd_4bit_send_char_data@data,lcd_send_4bits@_data_command
  2787   002884  ECF2  F014         	call	_lcd_send_4bits	;wreg free
  2788   002888  6E14               	movwf	lcd_4bit_send_char_data@ret^0,c
  2789                           
  2790                           ;ECU_Layer/Chr_LCD/ecu_chr_lcd.c: 105:         ret = lcd_4bit_send_enable_signal(lcd);
  2791   00288A  C011  F00D         	movff	lcd_4bit_send_char_data@lcd,lcd_4bit_send_enable_signal@lcd
  2792   00288E  C012  F00E         	movff	lcd_4bit_send_char_data@lcd+1,lcd_4bit_send_enable_signal@lcd+1
  2793   002892  EC2A  F016         	call	_lcd_4bit_send_enable_signal	;wreg free
  2794   002896  6E14               	movwf	lcd_4bit_send_char_data@ret^0,c
  2795   002898                     l6042:
  2796                           
  2797                           ;ECU_Layer/Chr_LCD/ecu_chr_lcd.c: 107:     return ret;
  2798   002898  5014               	movf	lcd_4bit_send_char_data@ret^0,w,c
  2799   00289A  0012               	return		;funcret
  2800   00289C                     __end_of_lcd_4bit_send_char_data:
  2801                           	callstack 0
  2802                           
  2803 ;; *************** function _convert_uint32_to_string *****************
  2804 ;; Defined at:
  2805 ;;		line 459 in file "ECU_Layer/Chr_LCD/ecu_chr_lcd.c"
  2806 ;; Parameters:    Size  Location     Type
  2807 ;;  value           4   86[COMRAM] unsigned long 
  2808 ;;  str             2   90[COMRAM] PTR unsigned char 
  2809 ;;		 -> result_txt(11), 
  2810 ;; Auto vars:     Size  Location     Type
  2811 ;;  ret             1   92[COMRAM] unsigned char 
  2812 ;; Return value:  Size  Location     Type
  2813 ;;                  1    wreg      unsigned char 
  2814 ;; Registers used:
  2815 ;;		wreg, fsr1l, fsr1h, fsr2l, fsr2h, status,2, status,0, tblptrl, tblptrh, tblptru, cstack
  2816 ;; Tracked objects:
  2817 ;;		On entry : 0/0
  2818 ;;		On exit  : 0/0
  2819 ;;		Unchanged: 0/0
  2820 ;; Data sizes:     COMRAM   BANK0   BANK1   BANK2   BANK3   BANK4   BANK5   BANK6   BANK7   BANK8   BANK9  BANK10  BANK1
      +1  BANK12  BANK13  BANK14  BANK15
  2821 ;;      Params:         6       0       0       0       0       0       0       0       0       0       0       0       
      +0       0       0       0       0
  2822 ;;      Locals:         1       0       0       0       0       0       0       0       0       0       0       0       
      +0       0       0       0       0
  2823 ;;      Temps:          0       0       0       0       0       0       0       0       0       0       0       0       
      +0       0       0       0       0
  2824 ;;      Totals:         7       0       0       0       0       0       0       0       0       0       0       0       
      +0       0       0       0       0
  2825 ;;Total ram usage:        7 bytes
  2826 ;; Hardware stack levels used: 1
  2827 ;; Hardware stack levels required when called: 10
  2828 ;; This function calls:
  2829 ;;		_memset
  2830 ;;		_sprintf
  2831 ;; This function is called by:
  2832 ;;		_calculate
  2833 ;; This function uses a non-reentrant model
  2834 ;;
  2835                           
  2836                           	psect	text12
  2837   002A4C                     __ptext12:
  2838                           	callstack 0
  2839   002A4C                     _convert_uint32_to_string:
  2840                           	callstack 19
  2841   002A4C                     
  2842                           ;ECU_Layer/Chr_LCD/ecu_chr_lcd.c: 460:     Std_ReturnType ret = (Std_ReturnType)0x01;
  2843   002A4C  0E01               	movlw	1
  2844   002A4E  6E5D               	movwf	convert_uint32_to_string@ret^0,c
  2845   002A50                     
  2846                           ;ECU_Layer/Chr_LCD/ecu_chr_lcd.c: 461:     if(((void*)0) == str){
  2847   002A50  505B               	movf	convert_uint32_to_string@str^0,w,c
  2848   002A52  105C               	iorwf	(convert_uint32_to_string@str+1)^0,w,c
  2849   002A54  A4D8               	btfss	status,2,c
  2850   002A56  EF2F  F015         	goto	u4701
  2851   002A5A  EF31  F015         	goto	u4700
  2852   002A5E                     u4701:
  2853   002A5E  EF35  F015         	goto	l6236
  2854   002A62                     u4700:
  2855   002A62                     
  2856                           ;ECU_Layer/Chr_LCD/ecu_chr_lcd.c: 462:         ret = (Std_ReturnType)0x00;
  2857   002A62  0E00               	movlw	0
  2858   002A64  6E5D               	movwf	convert_uint32_to_string@ret^0,c
  2859                           
  2860                           ;ECU_Layer/Chr_LCD/ecu_chr_lcd.c: 463:     }
  2861   002A66  EF55  F015         	goto	l6240
  2862   002A6A                     l6236:
  2863                           
  2864                           ;ECU_Layer/Chr_LCD/ecu_chr_lcd.c: 465:         memset((char *)str, '\0', 11);
  2865   002A6A  C05B  F003         	movff	convert_uint32_to_string@str,memset@dest
  2866   002A6E  C05C  F004         	movff	convert_uint32_to_string@str+1,memset@dest+1
  2867   002A72  0E00               	movlw	0
  2868   002A74  6E06               	movwf	(memset@c+1)^0,c
  2869   002A76  0E00               	movlw	0
  2870   002A78  6E05               	movwf	memset@c^0,c
  2871   002A7A  0E00               	movlw	0
  2872   002A7C  6E08               	movwf	(memset@n+1)^0,c
  2873   002A7E  0E0B               	movlw	11
  2874   002A80  6E07               	movwf	memset@n^0,c
  2875   002A82  EC29  F00C         	call	_memset	;wreg free
  2876   002A86                     
  2877                           ;ECU_Layer/Chr_LCD/ecu_chr_lcd.c: 466:         sprintf(str, "%i", value);
  2878   002A86  C05B  F041         	movff	convert_uint32_to_string@str,sprintf@s
  2879   002A8A  C05C  F042         	movff	convert_uint32_to_string@str+1,sprintf@s+1
  2880   002A8E  0E40               	movlw	low STR_1
  2881   002A90  6E43               	movwf	sprintf@fmt^0,c
  2882   002A92  0E10               	movlw	high STR_1
  2883   002A94  6E44               	movwf	(sprintf@fmt+1)^0,c
  2884   002A96  C057  F045         	movff	convert_uint32_to_string@value,?_sprintf+4
  2885   002A9A  C058  F046         	movff	convert_uint32_to_string@value+1,?_sprintf+5
  2886   002A9E  C059  F047         	movff	convert_uint32_to_string@value+2,?_sprintf+6
  2887   002AA2  C05A  F048         	movff	convert_uint32_to_string@value+3,?_sprintf+7
  2888   002AA6  EC7F  F015         	call	_sprintf	;wreg free
  2889   002AAA                     l6240:
  2890                           
  2891                           ;ECU_Layer/Chr_LCD/ecu_chr_lcd.c: 468:     return ret;
  2892   002AAA  505D               	movf	convert_uint32_to_string@ret^0,w,c
  2893   002AAC  0012               	return		;funcret
  2894   002AAE                     __end_of_convert_uint32_to_string:
  2895                           	callstack 0
  2896                           
  2897 ;; *************** function _sprintf *****************
  2898 ;; Defined at:
  2899 ;;		line 9 in file "C:\Program Files\Microchip\xc8\v2.41\pic\sources\c99\common\nf_sprintf.c"
  2900 ;; Parameters:    Size  Location     Type
  2901 ;;  s               2   64[COMRAM] PTR unsigned char 
  2902 ;;		 -> result_txt(11), convert_uint16_to_string@Temp_String(6), 
  2903 ;;  fmt             2   66[COMRAM] PTR const unsigned char 
  2904 ;;		 -> STR_3(3), STR_2(3), STR_1(3), 
  2905 ;; Auto vars:     Size  Location     Type
  2906 ;;  f              12   74[COMRAM] struct _IO_FILE
  2907 ;;  ap              2   72[COMRAM] PTR void [1]
  2908 ;;		 -> ?_sprintf(2), 
  2909 ;;  ret             2    0        int 
  2910 ;; Return value:  Size  Location     Type
  2911 ;;                  2   64[COMRAM] int 
  2912 ;; Registers used:
  2913 ;;		wreg, fsr1l, fsr1h, fsr2l, fsr2h, status,2, status,0, tblptrl, tblptrh, tblptru, cstack
  2914 ;; Tracked objects:
  2915 ;;		On entry : 0/0
  2916 ;;		On exit  : 0/0
  2917 ;;		Unchanged: 0/0
  2918 ;; Data sizes:     COMRAM   BANK0   BANK1   BANK2   BANK3   BANK4   BANK5   BANK6   BANK7   BANK8   BANK9  BANK10  BANK1
      +1  BANK12  BANK13  BANK14  BANK15
  2919 ;;      Params:         8       0       0       0       0       0       0       0       0       0       0       0       
      +0       0       0       0       0
  2920 ;;      Locals:        14       0       0       0       0       0       0       0       0       0       0       0       
      +0       0       0       0       0
  2921 ;;      Temps:          0       0       0       0       0       0       0       0       0       0       0       0       
      +0       0       0       0       0
  2922 ;;      Totals:        22       0       0       0       0       0       0       0       0       0       0       0       
      +0       0       0       0       0
  2923 ;;Total ram usage:       22 bytes
  2924 ;; Hardware stack levels used: 1
  2925 ;; Hardware stack levels required when called: 9
  2926 ;; This function calls:
  2927 ;;		_vfprintf
  2928 ;; This function is called by:
  2929 ;;		_convert_uint32_to_string
  2930 ;;		_convert_uint8_to_string
  2931 ;;		_convert_uint16_to_string
  2932 ;; This function uses a non-reentrant model
  2933 ;;
  2934                           
  2935                           	psect	text13
  2936   002AFE                     __ptext13:
  2937                           	callstack 0
  2938   002AFE                     _sprintf:
  2939                           	callstack 19
  2940   002AFE  0E45               	movlw	low (?_sprintf+4)
  2941   002B00  6E49               	movwf	sprintf@ap^0,c
  2942   002B02  0E00               	movlw	high (?_sprintf+4)
  2943   002B04  6E4A               	movwf	(sprintf@ap+1)^0,c
  2944   002B06  C041  F04B         	movff	sprintf@s,sprintf@f
  2945   002B0A  C042  F04C         	movff	sprintf@s+1,sprintf@f+1
  2946   002B0E  0E00               	movlw	0
  2947   002B10  6E4F               	movwf	(sprintf@f+4)^0,c
  2948   002B12  0E00               	movlw	0
  2949   002B14  6E4E               	movwf	(sprintf@f+3)^0,c
  2950   002B16  0E00               	movlw	0
  2951   002B18  6E56               	movwf	(sprintf@f+11)^0,c
  2952   002B1A  0E00               	movlw	0
  2953   002B1C  6E55               	movwf	(sprintf@f+10)^0,c
  2954   002B1E  0E4B               	movlw	low sprintf@f
  2955   002B20  6E39               	movwf	vfprintf@fp^0,c
  2956   002B22  0E00               	movlw	high sprintf@f
  2957   002B24  6E3A               	movwf	(vfprintf@fp+1)^0,c
  2958   002B26  C043  F03B         	movff	sprintf@fmt,vfprintf@fmt
  2959   002B2A  C044  F03C         	movff	sprintf@fmt+1,vfprintf@fmt+1
  2960   002B2E  0E49               	movlw	low sprintf@ap
  2961   002B30  6E3D               	movwf	vfprintf@ap^0,c
  2962   002B32  0E00               	movlw	high sprintf@ap
  2963   002B34  6E3E               	movwf	(vfprintf@ap+1)^0,c
  2964   002B36  EC57  F015         	call	_vfprintf	;wreg free
  2965   002B3A  504E               	movf	(sprintf@f+3)^0,w,c
  2966   002B3C  2441               	addwf	sprintf@s^0,w,c
  2967   002B3E  6ED9               	movwf	fsr2l,c
  2968   002B40  504F               	movf	(sprintf@f+4)^0,w,c
  2969   002B42  2042               	addwfc	(sprintf@s+1)^0,w,c
  2970   002B44  6EDA               	movwf	fsr2h,c
  2971   002B46  6ADF               	clrf	indf2,c
  2972   002B48  0012               	return		;funcret
  2973   002B4A                     __end_of_sprintf:
  2974                           	callstack 0
  2975                           
  2976 ;; *************** function _vfprintf *****************
  2977 ;; Defined at:
  2978 ;;		line 1546 in file "C:\Program Files\Microchip\xc8\v2.41\pic\sources\c99\common\doprnt.c"
  2979 ;; Parameters:    Size  Location     Type
  2980 ;;  fp              2   56[COMRAM] PTR struct _IO_FILE
  2981 ;;		 -> sprintf@f(12), 
  2982 ;;  fmt             2   58[COMRAM] PTR const unsigned char 
  2983 ;;		 -> STR_3(3), STR_2(3), STR_1(3), 
  2984 ;;  ap              2   60[COMRAM] PTR PTR void 
  2985 ;;		 -> sprintf@ap(2), 
  2986 ;; Auto vars:     Size  Location     Type
  2987 ;;  cfmt            2   62[COMRAM] PTR unsigned char 
  2988 ;;		 -> STR_3(3), STR_2(3), STR_1(3), 
  2989 ;; Return value:  Size  Location     Type
  2990 ;;                  2   56[COMRAM] int 
  2991 ;; Registers used:
  2992 ;;		wreg, fsr1l, fsr1h, fsr2l, fsr2h, status,2, status,0, tblptrl, tblptrh, tblptru, cstack
  2993 ;; Tracked objects:
  2994 ;;		On entry : 0/0
  2995 ;;		On exit  : 0/0
  2996 ;;		Unchanged: 0/0
  2997 ;; Data sizes:     COMRAM   BANK0   BANK1   BANK2   BANK3   BANK4   BANK5   BANK6   BANK7   BANK8   BANK9  BANK10  BANK1
      +1  BANK12  BANK13  BANK14  BANK15
  2998 ;;      Params:         6       0       0       0       0       0       0       0       0       0       0       0       
      +0       0       0       0       0
  2999 ;;      Locals:         2       0       0       0       0       0       0       0       0       0       0       0       
      +0       0       0       0       0
  3000 ;;      Temps:          0       0       0       0       0       0       0       0       0       0       0       0       
      +0       0       0       0       0
  3001 ;;      Totals:         8       0       0       0       0       0       0       0       0       0       0       0       
      +0       0       0       0       0
  3002 ;;Total ram usage:        8 bytes
  3003 ;; Hardware stack levels used: 1
  3004 ;; Hardware stack levels required when called: 8
  3005 ;; This function calls:
  3006 ;;		_vfpfcnvrt
  3007 ;; This function is called by:
  3008 ;;		_sprintf
  3009 ;; This function uses a non-reentrant model
  3010 ;;
  3011                           
  3012                           	psect	text14
  3013   002AAE                     __ptext14:
  3014                           	callstack 0
  3015   002AAE                     _vfprintf:
  3016                           	callstack 19
  3017   002AAE                     
  3018                           ;C:\Program Files\Microchip\xc8\v2.41\pic\sources\c99\common\doprnt.c: 1546: int vfprint
      +                          f(FILE *fp, const char *fmt, va_list ap);C:\Program Files\Microchip\xc8\v2.41\pic\source
      +                          s\c99\common\doprnt.c: 1547: {;C:\Program Files\Microchip\xc8\v2.41\pic\sources\c99\comm
      +                          on\doprnt.c: 1549:     char *cfmt;;C:\Program Files\Microchip\xc8\v2.41\pic\sources\c99\
      +                          common\doprnt.c: 1551:     cfmt = (char *)fmt;
  3019   002AAE  C03B  F03F         	movff	vfprintf@fmt,vfprintf@cfmt
  3020   002AB2  C03C  F040         	movff	vfprintf@fmt+1,vfprintf@cfmt+1
  3021                           
  3022                           ;C:\Program Files\Microchip\xc8\v2.41\pic\sources\c99\common\doprnt.c: 1555:     while (
      +                          *cfmt) {
  3023   002AB6  EF6B  F015         	goto	l5982
  3024   002ABA                     l5980:
  3025                           
  3026                           ;C:\Program Files\Microchip\xc8\v2.41\pic\sources\c99\common\doprnt.c: 1559:    vfpfcnvr
      +                          t(fp, &cfmt, ap);
  3027   002ABA  C039  F02B         	movff	vfprintf@fp,vfpfcnvrt@fp
  3028   002ABE  C03A  F02C         	movff	vfprintf@fp+1,vfpfcnvrt@fp+1
  3029   002AC2  0E3F               	movlw	low vfprintf@cfmt
  3030   002AC4  6E2D               	movwf	vfpfcnvrt@fmt^0,c
  3031   002AC6  0E00               	movlw	high vfprintf@cfmt
  3032   002AC8  6E2E               	movwf	(vfpfcnvrt@fmt+1)^0,c
  3033   002ACA  C03D  F02F         	movff	vfprintf@ap,vfpfcnvrt@ap
  3034   002ACE  C03E  F030         	movff	vfprintf@ap+1,vfpfcnvrt@ap+1
  3035   002AD2  EC33  F00E         	call	_vfpfcnvrt	;wreg free
  3036   002AD6                     l5982:
  3037                           
  3038                           ;C:\Program Files\Microchip\xc8\v2.41\pic\sources\c99\common\doprnt.c: 1555:     while (
      +                          *cfmt) {
  3039   002AD6  C03F  FFF6         	movff	vfprintf@cfmt,tblptrl
  3040   002ADA  C040  FFF7         	movff	vfprintf@cfmt+1,tblptrh
  3041   002ADE                     	if	1	;Program memory is < 0x10000, tblptru is always zero
  3042   002ADE  6AF8               	clrf	tblptru,c
  3043   002AE0                     	endif
  3044   002AE0                     	if	0	;tblptru may be non-zero
  3045   002AE0                     	endif
  3046   002AE0  0008               	tblrd		*
  3047   002AE2  50F5               	movf	tablat,w,c
  3048   002AE4  0900               	iorlw	0
  3049   002AE6  A4D8               	btfss	status,2,c
  3050   002AE8  EF78  F015         	goto	u4461
  3051   002AEC  EF7A  F015         	goto	u4460
  3052   002AF0                     u4461:
  3053   002AF0  EF5D  F015         	goto	l5980
  3054   002AF4                     u4460:
  3055   002AF4                     
  3056                           ;C:\Program Files\Microchip\xc8\v2.41\pic\sources\c99\common\doprnt.c: 1564:  return 0;
  3057   002AF4  0E00               	movlw	0
  3058   002AF6  6E3A               	movwf	(?_vfprintf+1)^0,c
  3059   002AF8  0E00               	movlw	0
  3060   002AFA  6E39               	movwf	?_vfprintf^0,c
  3061   002AFC  0012               	return		;funcret
  3062   002AFE                     __end_of_vfprintf:
  3063                           	callstack 0
  3064                           
  3065 ;; *************** function _vfpfcnvrt *****************
  3066 ;; Defined at:
  3067 ;;		line 1048 in file "C:\Program Files\Microchip\xc8\v2.41\pic\sources\c99\common\doprnt.c"
  3068 ;; Parameters:    Size  Location     Type
  3069 ;;  fp              2   42[COMRAM] PTR struct _IO_FILE
  3070 ;;		 -> sprintf@f(12), 
  3071 ;;  fmt             2   44[COMRAM] PTR PTR unsigned char 
  3072 ;;		 -> vfprintf@cfmt(2), 
  3073 ;;  ap              2   46[COMRAM] PTR PTR void 
  3074 ;;		 -> sprintf@ap(2), 
  3075 ;; Auto vars:     Size  Location     Type
  3076 ;;  convarg         4   50[COMRAM] struct .
  3077 ;;  cp              2   54[COMRAM] PTR unsigned char 
  3078 ;;		 -> STR_3(3), STR_2(3), STR_1(3), 
  3079 ;;  i               2    0        int 
  3080 ;;  done            2    0        int 
  3081 ;;  c               1    0        unsigned char 
  3082 ;; Return value:  Size  Location     Type
  3083 ;;                  1    wreg      void 
  3084 ;; Registers used:
  3085 ;;		wreg, fsr1l, fsr1h, fsr2l, fsr2h, status,2, status,0, tblptrl, tblptrh, tblptru, cstack
  3086 ;; Tracked objects:
  3087 ;;		On entry : 0/0
  3088 ;;		On exit  : 0/0
  3089 ;;		Unchanged: 0/0
  3090 ;; Data sizes:     COMRAM   BANK0   BANK1   BANK2   BANK3   BANK4   BANK5   BANK6   BANK7   BANK8   BANK9  BANK10  BANK1
      +1  BANK12  BANK13  BANK14  BANK15
  3091 ;;      Params:         6       0       0       0       0       0       0       0       0       0       0       0       
      +0       0       0       0       0
  3092 ;;      Locals:         6       0       0       0       0       0       0       0       0       0       0       0       
      +0       0       0       0       0
  3093 ;;      Temps:          2       0       0       0       0       0       0       0       0       0       0       0       
      +0       0       0       0       0
  3094 ;;      Totals:        14       0       0       0       0       0       0       0       0       0       0       0       
      +0       0       0       0       0
  3095 ;;Total ram usage:       14 bytes
  3096 ;; Hardware stack levels used: 1
  3097 ;; Hardware stack levels required when called: 7
  3098 ;; This function calls:
  3099 ;;		_dtoa
  3100 ;;		_fputc
  3101 ;; This function is called by:
  3102 ;;		_vfprintf
  3103 ;; This function uses a non-reentrant model
  3104 ;;
  3105                           
  3106                           	psect	text15
  3107   001C66                     __ptext15:
  3108                           	callstack 0
  3109   001C66                     _vfpfcnvrt:
  3110                           	callstack 19
  3111   001C66                     
  3112                           ;C:\Program Files\Microchip\xc8\v2.41\pic\sources\c99\common\doprnt.c: 1048: vfpfcnvrt(F
      +                          ILE *fp, char *fmt[], va_list ap);C:\Program Files\Microchip\xc8\v2.41\pic\sources\c99\c
      +                          ommon\doprnt.c: 1049: {;C:\Program Files\Microchip\xc8\v2.41\pic\sources\c99\common\dopr
      +                          nt.c: 1050:     char c, *cp;;C:\Program Files\Microchip\xc8\v2.41\pic\sources\c99\common
      +                          \doprnt.c: 1051:     int done, i;;C:\Program Files\Microchip\xc8\v2.41\pic\sources\c99\c
      +                          ommon\doprnt.c: 1059:  } convarg;;C:\Program Files\Microchip\xc8\v2.41\pic\sources\c99\c
      +                          ommon\doprnt.c: 1062:     if ((*fmt)[0] == '%') {
  3113   001C66  C02D  FFD9         	movff	vfpfcnvrt@fmt,fsr2l
  3114   001C6A  C02E  FFDA         	movff	vfpfcnvrt@fmt+1,fsr2h
  3115   001C6E  CFDE FFF6          	movff	postinc2,tblptrl
  3116   001C72  CFDD FFF7          	movff	postdec2,tblptrh
  3117   001C76                     	if	1	;Program memory is < 0x10000, tblptru is always zero
  3118   001C76  6AF8               	clrf	tblptru,c
  3119   001C78                     	endif
  3120   001C78                     	if	0	;tblptru may be non-zero
  3121   001C78                     	endif
  3122   001C78  0008               	tblrd		*
  3123   001C7A  50F5               	movf	tablat,w,c
  3124   001C7C  0A25               	xorlw	37
  3125   001C7E  A4D8               	btfss	status,2,c
  3126   001C80  EF44  F00E         	goto	u4401
  3127   001C84  EF46  F00E         	goto	u4400
  3128   001C88                     u4401:
  3129   001C88  EFB3  F00E         	goto	l5946
  3130   001C8C                     u4400:
  3131   001C8C                     
  3132                           ;C:\Program Files\Microchip\xc8\v2.41\pic\sources\c99\common\doprnt.c: 1063:         ++*
      +                          fmt;
  3133   001C8C  C02D  FFD9         	movff	vfpfcnvrt@fmt,fsr2l
  3134   001C90  C02E  FFDA         	movff	vfpfcnvrt@fmt+1,fsr2h
  3135   001C94  2ADE               	incf	postinc2,f,c
  3136   001C96  0E00               	movlw	0
  3137   001C98  22DD               	addwfc	postdec2,f,c
  3138   001C9A                     
  3139                           ;C:\Program Files\Microchip\xc8\v2.41\pic\sources\c99\common\doprnt.c: 1065:         fla
      +                          gs = width = 0;
  3140   001C9A  0E00               	movlw	0
  3141   001C9C  0100               	movlb	0	; () banked
  3142   001C9E  6F8B               	movwf	(_width+1)& (0+255),b
  3143   001CA0  0E00               	movlw	0
  3144   001CA2  6F8A               	movwf	_width& (0+255),b
  3145   001CA4  C08A  F06C         	movff	_width,_flags
  3146   001CA8                     
  3147                           ; BSR set to: 0
  3148                           ;C:\Program Files\Microchip\xc8\v2.41\pic\sources\c99\common\doprnt.c: 1066:         pre
      +                          c = -1;
  3149   001CA8  698C               	setf	_prec& (0+255),b
  3150   001CAA  698D               	setf	(_prec+1)& (0+255),b
  3151   001CAC                     
  3152                           ; BSR set to: 0
  3153                           ;C:\Program Files\Microchip\xc8\v2.41\pic\sources\c99\common\doprnt.c: 1143:   cp = *fmt
      +                          ;
  3154   001CAC  C02D  FFD9         	movff	vfpfcnvrt@fmt,fsr2l
  3155   001CB0  C02E  FFDA         	movff	vfpfcnvrt@fmt+1,fsr2h
  3156   001CB4  CFDE F037          	movff	postinc2,vfpfcnvrt@cp
  3157   001CB8  CFDD F038          	movff	postdec2,vfpfcnvrt@cp+1
  3158   001CBC                     
  3159                           ; BSR set to: 0
  3160                           ;C:\Program Files\Microchip\xc8\v2.41\pic\sources\c99\common\doprnt.c: 1213:   if (*cp =
      +                          = 'd' || *cp == 'i') {
  3161   001CBC  C037  FFF6         	movff	vfpfcnvrt@cp,tblptrl
  3162   001CC0  C038  FFF7         	movff	vfpfcnvrt@cp+1,tblptrh
  3163   001CC4                     	if	1	;Program memory is < 0x10000, tblptru is always zero
  3164   001CC4  6AF8               	clrf	tblptru,c
  3165   001CC6                     	endif
  3166   001CC6                     	if	0	;tblptru may be non-zero
  3167   001CC6                     	endif
  3168   001CC6  0008               	tblrd		*
  3169   001CC8  50F5               	movf	tablat,w,c
  3170   001CCA  0A64               	xorlw	100
  3171   001CCC  B4D8               	btfsc	status,2,c
  3172   001CCE  EF6B  F00E         	goto	u4411
  3173   001CD2  EF6D  F00E         	goto	u4410
  3174   001CD6                     u4411:
  3175   001CD6  EF7C  F00E         	goto	l5936
  3176   001CDA                     u4410:
  3177   001CDA                     
  3178                           ; BSR set to: 0
  3179   001CDA  C037  FFF6         	movff	vfpfcnvrt@cp,tblptrl
  3180   001CDE  C038  FFF7         	movff	vfpfcnvrt@cp+1,tblptrh
  3181   001CE2                     	if	1	;Program memory is < 0x10000, tblptru is always zero
  3182   001CE2  6AF8               	clrf	tblptru,c
  3183   001CE4                     	endif
  3184   001CE4                     	if	0	;tblptru may be non-zero
  3185   001CE4                     	endif
  3186   001CE4  0008               	tblrd		*
  3187   001CE6  50F5               	movf	tablat,w,c
  3188   001CE8  0A69               	xorlw	105
  3189   001CEA  A4D8               	btfss	status,2,c
  3190   001CEC  EF7A  F00E         	goto	u4421
  3191   001CF0  EF7C  F00E         	goto	u4420
  3192   001CF4                     u4421:
  3193   001CF4  EFAA  F00E         	goto	l5942
  3194   001CF8                     u4420:
  3195   001CF8                     l5936:
  3196                           
  3197                           ; BSR set to: 0
  3198                           ;C:\Program Files\Microchip\xc8\v2.41\pic\sources\c99\common\doprnt.c: 1256:    convarg.
      +                          sint = (vfpf_sint_t)(int)(*(int *)__va_arg(*(int **)ap, (int)0));
  3199   001CF8  C02F  FFD9         	movff	vfpfcnvrt@ap,fsr2l
  3200   001CFC  C030  FFDA         	movff	vfpfcnvrt@ap+1,fsr2h
  3201   001D00  CFDF F031          	movff	indf2,??_vfpfcnvrt
  3202   001D04  0E02               	movlw	2
  3203   001D06  26DE               	addwf	postinc2,f,c
  3204   001D08  CFDF F032          	movff	indf2,??_vfpfcnvrt+1
  3205   001D0C  0E00               	movlw	0
  3206   001D0E  22DD               	addwfc	postdec2,f,c
  3207   001D10  C031  FFD9         	movff	??_vfpfcnvrt,fsr2l
  3208   001D14  C032  FFDA         	movff	??_vfpfcnvrt+1,fsr2h
  3209   001D18  CFDE F033          	movff	postinc2,vfpfcnvrt@convarg
  3210   001D1C  CFDD F034          	movff	postdec2,vfpfcnvrt@convarg+1
  3211                           
  3212                           ;C:\Program Files\Microchip\xc8\v2.41\pic\sources\c99\common\doprnt.c: 1258:    *fmt = c
      +                          p+1;
  3213   001D20  0E01               	movlw	1
  3214   001D22  2437               	addwf	vfpfcnvrt@cp^0,w,c
  3215   001D24  6E31               	movwf	??_vfpfcnvrt^0,c
  3216   001D26  0E00               	movlw	0
  3217   001D28  2038               	addwfc	(vfpfcnvrt@cp+1)^0,w,c
  3218   001D2A  6E32               	movwf	(??_vfpfcnvrt+1)^0,c
  3219   001D2C  C02D  FFD9         	movff	vfpfcnvrt@fmt,fsr2l
  3220   001D30  C02E  FFDA         	movff	vfpfcnvrt@fmt+1,fsr2h
  3221   001D34  C031  FFDE         	movff	??_vfpfcnvrt,postinc2
  3222   001D38  C032  FFDD         	movff	??_vfpfcnvrt+1,postdec2
  3223   001D3C                     
  3224                           ; BSR set to: 0
  3225                           ;C:\Program Files\Microchip\xc8\v2.41\pic\sources\c99\common\doprnt.c: 1259:    return (
      +                          void) dtoa(fp, convarg.sint);;	Return value of _vfpfcnvrt is never used
  3226   001D3C  C02B  F01E         	movff	vfpfcnvrt@fp,dtoa@fp
  3227   001D40  C02C  F01F         	movff	vfpfcnvrt@fp+1,dtoa@fp+1
  3228   001D44  C033  F020         	movff	vfpfcnvrt@convarg,dtoa@d
  3229   001D48  C034  F021         	movff	vfpfcnvrt@convarg+1,dtoa@d+1
  3230   001D4C  EC5E  F00B         	call	_dtoa	;wreg free
  3231   001D50  EFC8  F00E         	goto	l2546
  3232   001D54                     l5942:
  3233                           
  3234                           ;C:\Program Files\Microchip\xc8\v2.41\pic\sources\c99\common\doprnt.c: 1535:         ++*
      +                          fmt;
  3235   001D54  C02D  FFD9         	movff	vfpfcnvrt@fmt,fsr2l
  3236   001D58  C02E  FFDA         	movff	vfpfcnvrt@fmt+1,fsr2h
  3237   001D5C  2ADE               	incf	postinc2,f,c
  3238   001D5E  0E00               	movlw	0
  3239   001D60  22DD               	addwfc	postdec2,f,c
  3240   001D62  EFC8  F00E         	goto	l2546
  3241   001D66                     l5946:
  3242                           
  3243                           ;C:\Program Files\Microchip\xc8\v2.41\pic\sources\c99\common\doprnt.c: 1540:     fputc((
      +                          int)(*fmt)[0], fp);
  3244   001D66  C02D  FFD9         	movff	vfpfcnvrt@fmt,fsr2l
  3245   001D6A  C02E  FFDA         	movff	vfpfcnvrt@fmt+1,fsr2h
  3246   001D6E  CFDE FFF6          	movff	postinc2,tblptrl
  3247   001D72  CFDD FFF7          	movff	postdec2,tblptrh
  3248   001D76                     	if	1	;Program memory is < 0x10000, tblptru is always zero
  3249   001D76  6AF8               	clrf	tblptru,c
  3250   001D78                     	endif
  3251   001D78                     	if	0	;tblptru may be non-zero
  3252   001D78                     	endif
  3253   001D78  0008               	tblrd		*
  3254   001D7A  50F5               	movf	tablat,w,c
  3255   001D7C  6E03               	movwf	fputc@c^0,c
  3256   001D7E  6A04               	clrf	(fputc@c+1)^0,c
  3257   001D80  C02B  F005         	movff	vfpfcnvrt@fp,fputc@fp
  3258   001D84  C02C  F006         	movff	vfpfcnvrt@fp+1,fputc@fp+1
  3259   001D88  EC83  F010         	call	_fputc	;wreg free
  3260   001D8C  EFAA  F00E         	goto	l5942
  3261   001D90                     l2546:
  3262   001D90  0012               	return		;funcret
  3263   001D92                     __end_of_vfpfcnvrt:
  3264                           	callstack 0
  3265                           
  3266 ;; *************** function _dtoa *****************
  3267 ;; Defined at:
  3268 ;;		line 470 in file "C:\Program Files\Microchip\xc8\v2.41\pic\sources\c99\common\doprnt.c"
  3269 ;; Parameters:    Size  Location     Type
  3270 ;;  fp              2   29[COMRAM] PTR struct _IO_FILE
  3271 ;;		 -> sprintf@f(12), 
  3272 ;;  d               2   31[COMRAM] int 
  3273 ;; Auto vars:     Size  Location     Type
  3274 ;;  i               2   39[COMRAM] int 
  3275 ;;  w               2   37[COMRAM] int 
  3276 ;;  p               2   35[COMRAM] int 
  3277 ;;  s               1   41[COMRAM] unsigned char 
  3278 ;; Return value:  Size  Location     Type
  3279 ;;                  1    wreg      void 
  3280 ;; Registers used:
  3281 ;;		wreg, fsr1l, fsr1h, fsr2l, fsr2h, status,2, status,0, cstack
  3282 ;; Tracked objects:
  3283 ;;		On entry : 0/0
  3284 ;;		On exit  : 0/0
  3285 ;;		Unchanged: 0/0
  3286 ;; Data sizes:     COMRAM   BANK0   BANK1   BANK2   BANK3   BANK4   BANK5   BANK6   BANK7   BANK8   BANK9  BANK10  BANK1
      +1  BANK12  BANK13  BANK14  BANK15
  3287 ;;      Params:         4       0       0       0       0       0       0       0       0       0       0       0       
      +0       0       0       0       0
  3288 ;;      Locals:         9       0       0       0       0       0       0       0       0       0       0       0       
      +0       0       0       0       0
  3289 ;;      Temps:          0       0       0       0       0       0       0       0       0       0       0       0       
      +0       0       0       0       0
  3290 ;;      Totals:        13       0       0       0       0       0       0       0       0       0       0       0       
      +0       0       0       0       0
  3291 ;;Total ram usage:       13 bytes
  3292 ;; Hardware stack levels used: 1
  3293 ;; Hardware stack levels required when called: 6
  3294 ;; This function calls:
  3295 ;;		___awdiv
  3296 ;;		___awmod
  3297 ;;		_abs
  3298 ;;		_pad
  3299 ;; This function is called by:
  3300 ;;		_vfpfcnvrt
  3301 ;; This function uses a non-reentrant model
  3302 ;;
  3303                           
  3304                           	psect	text16
  3305   0016BC                     __ptext16:
  3306                           	callstack 0
  3307   0016BC                     _dtoa:
  3308                           	callstack 19
  3309   0016BC                     
  3310                           ;C:\Program Files\Microchip\xc8\v2.41\pic\sources\c99\common\doprnt.c: 470: static void 
      +                          dtoa(FILE *fp, vfpf_sint_t d);C:\Program Files\Microchip\xc8\v2.41\pic\sources\c99\commo
      +                          n\doprnt.c: 471: {;C:\Program Files\Microchip\xc8\v2.41\pic\sources\c99\common\doprnt.c:
      +                           472:  char s;;C:\Program Files\Microchip\xc8\v2.41\pic\sources\c99\common\doprnt.c: 473
      +                          :     int i, p, w;;C:\Program Files\Microchip\xc8\v2.41\pic\sources\c99\common\doprnt.c:
      +                           476:     s = d < 0 ? 1 : 0;
  3311   0016BC  BE21               	btfsc	(dtoa@d+1)^0,7,c
  3312   0016BE  EF63  F00B         	goto	u4241
  3313   0016C2  EF66  F00B         	goto	u4240
  3314   0016C6                     u4241:
  3315   0016C6  0E01               	movlw	1
  3316   0016C8  EF67  F00B         	goto	u4250
  3317   0016CC                     u4240:
  3318   0016CC  0E00               	movlw	0
  3319   0016CE                     u4250:
  3320   0016CE  6E2A               	movwf	dtoa@s^0,c
  3321   0016D0                     
  3322                           ;C:\Program Files\Microchip\xc8\v2.41\pic\sources\c99\common\doprnt.c: 477:     if (s) {
  3323   0016D0  502A               	movf	dtoa@s^0,w,c
  3324   0016D2  B4D8               	btfsc	status,2,c
  3325   0016D4  EF6E  F00B         	goto	u4261
  3326   0016D8  EF70  F00B         	goto	u4260
  3327   0016DC                     u4261:
  3328   0016DC  EF74  F00B         	goto	l5830
  3329   0016E0                     u4260:
  3330   0016E0                     
  3331                           ;C:\Program Files\Microchip\xc8\v2.41\pic\sources\c99\common\doprnt.c: 478:         d = 
      +                          -d;
  3332   0016E0  6C20               	negf	dtoa@d^0,c
  3333   0016E2  1E21               	comf	(dtoa@d+1)^0,f,c
  3334   0016E4  B0D8               	btfsc	status,0,c
  3335   0016E6  2A21               	incf	(dtoa@d+1)^0,f,c
  3336   0016E8                     l5830:
  3337                           
  3338                           ;C:\Program Files\Microchip\xc8\v2.41\pic\sources\c99\common\doprnt.c: 487:     p = (0 <
      +                          = prec) ? prec : 1;
  3339   0016E8  0100               	movlb	0	; () banked
  3340   0016EA  BF8D               	btfsc	(_prec+1)& (0+255),7,b
  3341   0016EC  EF7C  F00B         	goto	u4270
  3342   0016F0  EF7A  F00B         	goto	u4271
  3343   0016F4                     u4271:
  3344   0016F4  EF82  F00B         	goto	l2525
  3345   0016F8                     u4270:
  3346   0016F8                     
  3347                           ; BSR set to: 0
  3348   0016F8  0E00               	movlw	0
  3349   0016FA  6E25               	movwf	(dtoa@p+1)^0,c
  3350   0016FC  0E01               	movlw	1
  3351   0016FE  6E24               	movwf	dtoa@p^0,c
  3352   001700  EF86  F00B         	goto	l2527
  3353   001704                     l2525:
  3354                           
  3355                           ; BSR set to: 0
  3356   001704  C08C  F024         	movff	_prec,dtoa@p
  3357   001708  C08D  F025         	movff	_prec+1,dtoa@p+1
  3358   00170C                     l2527:
  3359                           
  3360                           ; BSR set to: 0
  3361                           ;C:\Program Files\Microchip\xc8\v2.41\pic\sources\c99\common\doprnt.c: 488:     w = widt
      +                          h;
  3362   00170C  C08A  F026         	movff	_width,dtoa@w
  3363   001710  C08B  F027         	movff	_width+1,dtoa@w+1
  3364   001714                     
  3365                           ; BSR set to: 0
  3366                           ;C:\Program Files\Microchip\xc8\v2.41\pic\sources\c99\common\doprnt.c: 489:     if (s
  3367   001714  502A               	movf	dtoa@s^0,w,c
  3368   001716  B4D8               	btfsc	status,2,c
  3369   001718  EF90  F00B         	goto	u4281
  3370   00171C  EF92  F00B         	goto	u4280
  3371   001720                     u4281:
  3372   001720  EFA9  F00B         	goto	l2528
  3373   001724                     u4280:
  3374   001724                     
  3375                           ; BSR set to: 0
  3376                           ;C:\Program Files\Microchip\xc8\v2.41\pic\sources\c99\common\doprnt.c: 493:     ) {;C:\P
      +                          rogram Files\Microchip\xc8\v2.41\pic\sources\c99\common\doprnt.c: 494:         --w;
  3377   001724  0626               	decf	dtoa@w^0,f,c
  3378   001726  A0D8               	btfss	status,0,c
  3379   001728  0627               	decf	(dtoa@w+1)^0,f,c
  3380   00172A                     
  3381                           ; BSR set to: 0
  3382                           ;C:\Program Files\Microchip\xc8\v2.41\pic\sources\c99\common\doprnt.c: 495:   s = s ? '-
      +                          ' : '+';
  3383   00172A  502A               	movf	dtoa@s^0,w,c
  3384   00172C  A4D8               	btfss	status,2,c
  3385   00172E  EF9B  F00B         	goto	u4291
  3386   001732  EF9D  F00B         	goto	u4290
  3387   001736                     u4291:
  3388   001736  EFA3  F00B         	goto	l5842
  3389   00173A                     u4290:
  3390   00173A                     
  3391                           ; BSR set to: 0
  3392   00173A  0E00               	movlw	0
  3393   00173C  6E23               	movwf	(_dtoa$4951+1)^0,c
  3394   00173E  0E2B               	movlw	43
  3395   001740  6E22               	movwf	_dtoa$4951^0,c
  3396   001742  EFA7  F00B         	goto	l5844
  3397   001746                     l5842:
  3398                           
  3399                           ; BSR set to: 0
  3400   001746  0E00               	movlw	0
  3401   001748  6E23               	movwf	(_dtoa$4951+1)^0,c
  3402   00174A  0E2D               	movlw	45
  3403   00174C  6E22               	movwf	_dtoa$4951^0,c
  3404   00174E                     l5844:
  3405                           
  3406                           ; BSR set to: 0
  3407   00174E  C022  F02A         	movff	_dtoa$4951,dtoa@s
  3408   001752                     l2528:
  3409                           
  3410                           ; BSR set to: 0
  3411                           ;C:\Program Files\Microchip\xc8\v2.41\pic\sources\c99\common\doprnt.c: 505:     i = size
      +                          of(dbuf) - 1;
  3412   001752  0E00               	movlw	0
  3413   001754  6E29               	movwf	(dtoa@i+1)^0,c
  3414   001756  0E1F               	movlw	31
  3415   001758  6E28               	movwf	dtoa@i^0,c
  3416   00175A                     
  3417                           ; BSR set to: 0
  3418                           ;C:\Program Files\Microchip\xc8\v2.41\pic\sources\c99\common\doprnt.c: 506:     dbuf[i] 
      +                          = '\0';
  3419   00175A  0E00               	movlw	0
  3420   00175C  0101               	movlb	1	; () banked
  3421   00175E  6F1F               	movwf	(_dbuf+31)& (0+255),b
  3422                           
  3423                           ;C:\Program Files\Microchip\xc8\v2.41\pic\sources\c99\common\doprnt.c: 507:     while (!
      +                          (i < 1) && (d || (0 < p)
  3424   001760  EFE2  F00B         	goto	l5858
  3425   001764                     l5848:
  3426                           
  3427                           ;C:\Program Files\Microchip\xc8\v2.41\pic\sources\c99\common\doprnt.c: 511:     )) {;C:\
      +                          Program Files\Microchip\xc8\v2.41\pic\sources\c99\common\doprnt.c: 512:         --i;
  3428   001764  0628               	decf	dtoa@i^0,f,c
  3429   001766  A0D8               	btfss	status,0,c
  3430   001768  0629               	decf	(dtoa@i+1)^0,f,c
  3431   00176A                     
  3432                           ;C:\Program Files\Microchip\xc8\v2.41\pic\sources\c99\common\doprnt.c: 513:         dbuf
      +                          [i] = (char)((int)'0' + abs(d % 10));
  3433   00176A  0E00               	movlw	low _dbuf
  3434   00176C  2428               	addwf	dtoa@i^0,w,c
  3435   00176E  6ED9               	movwf	fsr2l,c
  3436   001770  0E01               	movlw	high _dbuf
  3437   001772  2029               	addwfc	(dtoa@i+1)^0,w,c
  3438   001774  6EDA               	movwf	fsr2h,c
  3439   001776  C020  F003         	movff	dtoa@d,___awmod@dividend
  3440   00177A  C021  F004         	movff	dtoa@d+1,___awmod@dividend+1
  3441   00177E  0E00               	movlw	0
  3442   001780  6E06               	movwf	(___awmod@divisor+1)^0,c
  3443   001782  0E0A               	movlw	10
  3444   001784  6E05               	movwf	___awmod@divisor^0,c
  3445   001786  EC03  F012         	call	___awmod	;wreg free
  3446   00178A  C003  F009         	movff	?___awmod,abs@a
  3447   00178E  C004  F00A         	movff	?___awmod+1,abs@a+1
  3448   001792  EC0A  F016         	call	_abs	;wreg free
  3449   001796  5009               	movf	?_abs^0,w,c
  3450   001798  0F30               	addlw	48
  3451   00179A  6EDF               	movwf	indf2,c
  3452   00179C                     
  3453                           ;C:\Program Files\Microchip\xc8\v2.41\pic\sources\c99\common\doprnt.c: 514:         --p;
  3454   00179C  0624               	decf	dtoa@p^0,f,c
  3455   00179E  A0D8               	btfss	status,0,c
  3456   0017A0  0625               	decf	(dtoa@p+1)^0,f,c
  3457   0017A2                     
  3458                           ;C:\Program Files\Microchip\xc8\v2.41\pic\sources\c99\common\doprnt.c: 515:         --w;
  3459   0017A2  0626               	decf	dtoa@w^0,f,c
  3460   0017A4  A0D8               	btfss	status,0,c
  3461   0017A6  0627               	decf	(dtoa@w+1)^0,f,c
  3462   0017A8                     
  3463                           ;C:\Program Files\Microchip\xc8\v2.41\pic\sources\c99\common\doprnt.c: 516:         d = 
      +                          d / 10;
  3464   0017A8  C020  F003         	movff	dtoa@d,___awdiv@dividend
  3465   0017AC  C021  F004         	movff	dtoa@d+1,___awdiv@dividend+1
  3466   0017B0  0E00               	movlw	0
  3467   0017B2  6E06               	movwf	(___awdiv@divisor+1)^0,c
  3468   0017B4  0E0A               	movlw	10
  3469   0017B6  6E05               	movwf	___awdiv@divisor^0,c
  3470   0017B8  ECE8  F010         	call	___awdiv	;wreg free
  3471   0017BC  C003  F020         	movff	?___awdiv,dtoa@d
  3472   0017C0  C004  F021         	movff	?___awdiv+1,dtoa@d+1
  3473   0017C4                     l5858:
  3474                           
  3475                           ;C:\Program Files\Microchip\xc8\v2.41\pic\sources\c99\common\doprnt.c: 507:     while (!
      +                          (i < 1) && (d || (0 < p)
  3476   0017C4  BE29               	btfsc	(dtoa@i+1)^0,7,c
  3477   0017C6  EFED  F00B         	goto	u4301
  3478   0017CA  5029               	movf	(dtoa@i+1)^0,w,c
  3479   0017CC  E108               	bnz	u4300
  3480   0017CE  0428               	decf	dtoa@i^0,w,c
  3481   0017D0  A0D8               	btfss	status,0,c
  3482   0017D2  EFED  F00B         	goto	u4301
  3483   0017D6  EFEF  F00B         	goto	u4300
  3484   0017DA                     u4301:
  3485   0017DA  EF05  F00C         	goto	l5864
  3486   0017DE                     u4300:
  3487   0017DE  5020               	movf	dtoa@d^0,w,c
  3488   0017E0  1021               	iorwf	(dtoa@d+1)^0,w,c
  3489   0017E2  A4D8               	btfss	status,2,c
  3490   0017E4  EFF6  F00B         	goto	u4311
  3491   0017E8  EFF8  F00B         	goto	u4310
  3492   0017EC                     u4311:
  3493   0017EC  EFB2  F00B         	goto	l5848
  3494   0017F0                     u4310:
  3495   0017F0  BE25               	btfsc	(dtoa@p+1)^0,7,c
  3496   0017F2  EF05  F00C         	goto	u4320
  3497   0017F6  5025               	movf	(dtoa@p+1)^0,w,c
  3498   0017F8  E106               	bnz	u4321
  3499   0017FA  0424               	decf	dtoa@p^0,w,c
  3500   0017FC  B0D8               	btfsc	status,0,c
  3501   0017FE  EF03  F00C         	goto	u4321
  3502   001802  EF05  F00C         	goto	u4320
  3503   001806                     u4321:
  3504   001806  EFB2  F00B         	goto	l5848
  3505   00180A                     u4320:
  3506   00180A                     l5864:
  3507                           
  3508                           ;C:\Program Files\Microchip\xc8\v2.41\pic\sources\c99\common\doprnt.c: 520:     if (s !=
      +                           0) {
  3509   00180A  502A               	movf	dtoa@s^0,w,c
  3510   00180C  B4D8               	btfsc	status,2,c
  3511   00180E  EF0B  F00C         	goto	u4331
  3512   001812  EF0D  F00C         	goto	u4330
  3513   001816                     u4331:
  3514   001816  EF18  F00C         	goto	l5870
  3515   00181A                     u4330:
  3516   00181A                     
  3517                           ;C:\Program Files\Microchip\xc8\v2.41\pic\sources\c99\common\doprnt.c: 521:         --i;
  3518   00181A  0628               	decf	dtoa@i^0,f,c
  3519   00181C  A0D8               	btfss	status,0,c
  3520   00181E  0629               	decf	(dtoa@i+1)^0,f,c
  3521   001820                     
  3522                           ;C:\Program Files\Microchip\xc8\v2.41\pic\sources\c99\common\doprnt.c: 522:         dbuf
      +                          [i] = s;
  3523   001820  0E00               	movlw	low _dbuf
  3524   001822  2428               	addwf	dtoa@i^0,w,c
  3525   001824  6ED9               	movwf	fsr2l,c
  3526   001826  0E01               	movlw	high _dbuf
  3527   001828  2029               	addwfc	(dtoa@i+1)^0,w,c
  3528   00182A  6EDA               	movwf	fsr2h,c
  3529   00182C  C02A  FFDF         	movff	dtoa@s,indf2
  3530   001830                     l5870:
  3531                           
  3532                           ;C:\Program Files\Microchip\xc8\v2.41\pic\sources\c99\common\doprnt.c: 526:     return (
      +                          void) pad(fp, &dbuf[i], w);
  3533   001830  C01E  F013         	movff	dtoa@fp,pad@fp
  3534   001834  C01F  F014         	movff	dtoa@fp+1,pad@fp+1
  3535   001838  0E00               	movlw	low _dbuf
  3536   00183A  2428               	addwf	dtoa@i^0,w,c
  3537   00183C  6E15               	movwf	pad@buf^0,c
  3538   00183E  0E01               	movlw	high _dbuf
  3539   001840  2029               	addwfc	(dtoa@i+1)^0,w,c
  3540   001842  6E16               	movwf	(pad@buf+1)^0,c
  3541   001844  C026  F017         	movff	dtoa@w,pad@p
  3542   001848  C027  F018         	movff	dtoa@w+1,pad@p+1
  3543   00184C  ECD8  F013         	call	_pad	;wreg free
  3544   001850  0012               	return		;funcret
  3545   001852                     __end_of_dtoa:
  3546                           	callstack 0
  3547                           
  3548 ;; *************** function _pad *****************
  3549 ;; Defined at:
  3550 ;;		line 152 in file "C:\Program Files\Microchip\xc8\v2.41\pic\sources\c99\common\doprnt.c"
  3551 ;; Parameters:    Size  Location     Type
  3552 ;;  fp              2   18[COMRAM] PTR struct _IO_FILE
  3553 ;;		 -> sprintf@f(12), 
  3554 ;;  buf             2   20[COMRAM] PTR unsigned char 
  3555 ;;		 -> dbuf(32), 
  3556 ;;  p               2   22[COMRAM] int 
  3557 ;; Auto vars:     Size  Location     Type
  3558 ;;  w               2   27[COMRAM] int 
  3559 ;;  i               2   25[COMRAM] int 
  3560 ;; Return value:  Size  Location     Type
  3561 ;;                  1    wreg      void 
  3562 ;; Registers used:
  3563 ;;		wreg, fsr1l, fsr1h, fsr2l, fsr2h, status,2, status,0, cstack
  3564 ;; Tracked objects:
  3565 ;;		On entry : 0/0
  3566 ;;		On exit  : 0/0
  3567 ;;		Unchanged: 0/0
  3568 ;; Data sizes:     COMRAM   BANK0   BANK1   BANK2   BANK3   BANK4   BANK5   BANK6   BANK7   BANK8   BANK9  BANK10  BANK1
      +1  BANK12  BANK13  BANK14  BANK15
  3569 ;;      Params:         6       0       0       0       0       0       0       0       0       0       0       0       
      +0       0       0       0       0
  3570 ;;      Locals:         4       0       0       0       0       0       0       0       0       0       0       0       
      +0       0       0       0       0
  3571 ;;      Temps:          1       0       0       0       0       0       0       0       0       0       0       0       
      +0       0       0       0       0
  3572 ;;      Totals:        11       0       0       0       0       0       0       0       0       0       0       0       
      +0       0       0       0       0
  3573 ;;Total ram usage:       11 bytes
  3574 ;; Hardware stack levels used: 1
  3575 ;; Hardware stack levels required when called: 5
  3576 ;; This function calls:
  3577 ;;		_fputc
  3578 ;;		_fputs
  3579 ;; This function is called by:
  3580 ;;		_dtoa
  3581 ;; This function uses a non-reentrant model
  3582 ;;
  3583                           
  3584                           	psect	text17
  3585   0027B0                     __ptext17:
  3586                           	callstack 0
  3587   0027B0                     _pad:
  3588                           	callstack 19
  3589   0027B0                     
  3590                           ;C:\Program Files\Microchip\xc8\v2.41\pic\sources\c99\common\doprnt.c: 152: static void 
      +                          pad(FILE *fp, char *buf, int p);C:\Program Files\Microchip\xc8\v2.41\pic\sources\c99\com
      +                          mon\doprnt.c: 153: {;C:\Program Files\Microchip\xc8\v2.41\pic\sources\c99\common\doprnt.
      +                          c: 154:     int i, w;;C:\Program Files\Microchip\xc8\v2.41\pic\sources\c99\common\doprnt
      +                          .c: 164:     w = (p < 0) ? 0 : p;
  3591   0027B0  BE18               	btfsc	(pad@p+1)^0,7,c
  3592   0027B2  EFDD  F013         	goto	u4171
  3593   0027B6  EFDF  F013         	goto	u4170
  3594   0027BA                     u4171:
  3595   0027BA  EFE5  F013         	goto	l5786
  3596   0027BE                     u4170:
  3597   0027BE  C017  F01C         	movff	pad@p,pad@w
  3598   0027C2  C018  F01D         	movff	pad@p+1,pad@w+1
  3599   0027C6  EFE9  F013         	goto	l2516
  3600   0027CA                     l5786:
  3601   0027CA  0E00               	movlw	0
  3602   0027CC  6E1D               	movwf	(pad@w+1)^0,c
  3603   0027CE  0E00               	movlw	0
  3604   0027D0  6E1C               	movwf	pad@w^0,c
  3605   0027D2                     l2516:
  3606                           
  3607                           ;C:\Program Files\Microchip\xc8\v2.41\pic\sources\c99\common\doprnt.c: 165:     i = 0;
  3608   0027D2  0E00               	movlw	0
  3609   0027D4  6E1B               	movwf	(pad@i+1)^0,c
  3610   0027D6  0E00               	movlw	0
  3611   0027D8  6E1A               	movwf	pad@i^0,c
  3612                           
  3613                           ;C:\Program Files\Microchip\xc8\v2.41\pic\sources\c99\common\doprnt.c: 166:     while (i
      +                           < w) {
  3614   0027DA  EFFB  F013         	goto	l5792
  3615   0027DE                     l5788:
  3616                           
  3617                           ;C:\Program Files\Microchip\xc8\v2.41\pic\sources\c99\common\doprnt.c: 167:         fput
      +                          c(' ', fp);
  3618   0027DE  0E00               	movlw	0
  3619   0027E0  6E04               	movwf	(fputc@c+1)^0,c
  3620   0027E2  0E20               	movlw	32
  3621   0027E4  6E03               	movwf	fputc@c^0,c
  3622   0027E6  C013  F005         	movff	pad@fp,fputc@fp
  3623   0027EA  C014  F006         	movff	pad@fp+1,fputc@fp+1
  3624   0027EE  EC83  F010         	call	_fputc	;wreg free
  3625   0027F2                     
  3626                           ;C:\Program Files\Microchip\xc8\v2.41\pic\sources\c99\common\doprnt.c: 168:         ++i;
  3627   0027F2  4A1A               	infsnz	pad@i^0,f,c
  3628   0027F4  2A1B               	incf	(pad@i+1)^0,f,c
  3629   0027F6                     l5792:
  3630                           
  3631                           ;C:\Program Files\Microchip\xc8\v2.41\pic\sources\c99\common\doprnt.c: 166:     while (i
      +                           < w) {
  3632   0027F6  501C               	movf	pad@w^0,w,c
  3633   0027F8  5C1A               	subwf	pad@i^0,w,c
  3634   0027FA  501B               	movf	(pad@i+1)^0,w,c
  3635   0027FC  0A80               	xorlw	128
  3636   0027FE  6E19               	movwf	??_pad^0,c
  3637   002800  501D               	movf	(pad@w+1)^0,w,c
  3638   002802  0A80               	xorlw	128
  3639   002804  5819               	subwfb	??_pad^0,w,c
  3640   002806  A0D8               	btfss	status,0,c
  3641   002808  EF08  F014         	goto	u4181
  3642   00280C  EF0A  F014         	goto	u4180
  3643   002810                     u4181:
  3644   002810  EFEF  F013         	goto	l5788
  3645   002814                     u4180:
  3646   002814                     
  3647                           ;C:\Program Files\Microchip\xc8\v2.41\pic\sources\c99\common\doprnt.c: 175:         fput
      +                          s((const char *)buf, fp);
  3648   002814  C015  F00C         	movff	pad@buf,fputs@s
  3649   002818  C016  F00D         	movff	pad@buf+1,fputs@s+1
  3650   00281C  C013  F00E         	movff	pad@fp,fputs@fp
  3651   002820  C014  F00F         	movff	pad@fp+1,fputs@fp+1
  3652   002824  ECC8  F015         	call	_fputs	;wreg free
  3653   002828  0012               	return		;funcret
  3654   00282A                     __end_of_pad:
  3655                           	callstack 0
  3656                           
  3657 ;; *************** function _fputs *****************
  3658 ;; Defined at:
  3659 ;;		line 8 in file "C:\Program Files\Microchip\xc8\v2.41\pic\sources\c99\common\nf_fputs.c"
  3660 ;; Parameters:    Size  Location     Type
  3661 ;;  s               2   11[COMRAM] PTR const unsigned char 
  3662 ;;		 -> dbuf(32), 
  3663 ;;  fp              2   13[COMRAM] PTR struct _IO_FILE
  3664 ;;		 -> sprintf@f(12), 
  3665 ;; Auto vars:     Size  Location     Type
  3666 ;;  i               2   16[COMRAM] int 
  3667 ;;  c               1   15[COMRAM] unsigned char 
  3668 ;; Return value:  Size  Location     Type
  3669 ;;                  2   11[COMRAM] int 
  3670 ;; Registers used:
  3671 ;;		wreg, fsr1l, fsr1h, fsr2l, fsr2h, status,2, status,0, cstack
  3672 ;; Tracked objects:
  3673 ;;		On entry : 0/0
  3674 ;;		On exit  : 0/0
  3675 ;;		Unchanged: 0/0
  3676 ;; Data sizes:     COMRAM   BANK0   BANK1   BANK2   BANK3   BANK4   BANK5   BANK6   BANK7   BANK8   BANK9  BANK10  BANK1
      +1  BANK12  BANK13  BANK14  BANK15
  3677 ;;      Params:         4       0       0       0       0       0       0       0       0       0       0       0       
      +0       0       0       0       0
  3678 ;;      Locals:         3       0       0       0       0       0       0       0       0       0       0       0       
      +0       0       0       0       0
  3679 ;;      Temps:          0       0       0       0       0       0       0       0       0       0       0       0       
      +0       0       0       0       0
  3680 ;;      Totals:         7       0       0       0       0       0       0       0       0       0       0       0       
      +0       0       0       0       0
  3681 ;;Total ram usage:        7 bytes
  3682 ;; Hardware stack levels used: 1
  3683 ;; Hardware stack levels required when called: 4
  3684 ;; This function calls:
  3685 ;;		_fputc
  3686 ;; This function is called by:
  3687 ;;		_pad
  3688 ;; This function uses a non-reentrant model
  3689 ;;
  3690                           
  3691                           	psect	text18
  3692   002B90                     __ptext18:
  3693                           	callstack 0
  3694   002B90                     _fputs:
  3695                           	callstack 19
  3696   002B90  0E00               	movlw	0
  3697   002B92  6E12               	movwf	(fputs@i+1)^0,c
  3698   002B94  0E00               	movlw	0
  3699   002B96  6E11               	movwf	fputs@i^0,c
  3700   002B98  EFD9  F015         	goto	l5700
  3701   002B9C                     l5696:
  3702   002B9C  C010  F003         	movff	fputs@c,fputc@c
  3703   002BA0  6A04               	clrf	(fputc@c+1)^0,c
  3704   002BA2  C00E  F005         	movff	fputs@fp,fputc@fp
  3705   002BA6  C00F  F006         	movff	fputs@fp+1,fputc@fp+1
  3706   002BAA  EC83  F010         	call	_fputc	;wreg free
  3707   002BAE  4A11               	infsnz	fputs@i^0,f,c
  3708   002BB0  2A12               	incf	(fputs@i+1)^0,f,c
  3709   002BB2                     l5700:
  3710   002BB2  5011               	movf	fputs@i^0,w,c
  3711   002BB4  240C               	addwf	fputs@s^0,w,c
  3712   002BB6  6ED9               	movwf	fsr2l,c
  3713   002BB8  5012               	movf	(fputs@i+1)^0,w,c
  3714   002BBA  200D               	addwfc	(fputs@s+1)^0,w,c
  3715   002BBC  6EDA               	movwf	fsr2h,c
  3716   002BBE  50DF               	movf	indf2,w,c
  3717   002BC0  6E10               	movwf	fputs@c^0,c
  3718   002BC2  5010               	movf	fputs@c^0,w,c
  3719   002BC4  A4D8               	btfss	status,2,c
  3720   002BC6  EFE7  F015         	goto	u4041
  3721   002BCA  EFE9  F015         	goto	u4040
  3722   002BCE                     u4041:
  3723   002BCE  EFCE  F015         	goto	l5696
  3724   002BD2                     u4040:
  3725   002BD2  0012               	return		;funcret
  3726   002BD4                     __end_of_fputs:
  3727                           	callstack 0
  3728                           
  3729 ;; *************** function _fputc *****************
  3730 ;; Defined at:
  3731 ;;		line 8 in file "C:\Program Files\Microchip\xc8\v2.41\pic\sources\c99\common\nf_fputc.c"
  3732 ;; Parameters:    Size  Location     Type
  3733 ;;  c               2    2[COMRAM] int 
  3734 ;;  fp              2    4[COMRAM] PTR struct _IO_FILE
  3735 ;;		 -> sprintf@f(12), 
  3736 ;; Auto vars:     Size  Location     Type
  3737 ;;		None
  3738 ;; Return value:  Size  Location     Type
  3739 ;;                  2    2[COMRAM] int 
  3740 ;; Registers used:
  3741 ;;		wreg, fsr1l, fsr1h, fsr2l, fsr2h, status,2, status,0, cstack
  3742 ;; Tracked objects:
  3743 ;;		On entry : 0/0
  3744 ;;		On exit  : 0/0
  3745 ;;		Unchanged: 0/0
  3746 ;; Data sizes:     COMRAM   BANK0   BANK1   BANK2   BANK3   BANK4   BANK5   BANK6   BANK7   BANK8   BANK9  BANK10  BANK1
      +1  BANK12  BANK13  BANK14  BANK15
  3747 ;;      Params:         4       0       0       0       0       0       0       0       0       0       0       0       
      +0       0       0       0       0
  3748 ;;      Locals:         0       0       0       0       0       0       0       0       0       0       0       0       
      +0       0       0       0       0
  3749 ;;      Temps:          5       0       0       0       0       0       0       0       0       0       0       0       
      +0       0       0       0       0
  3750 ;;      Totals:         9       0       0       0       0       0       0       0       0       0       0       0       
      +0       0       0       0       0
  3751 ;;Total ram usage:        9 bytes
  3752 ;; Hardware stack levels used: 1
  3753 ;; Hardware stack levels required when called: 3
  3754 ;; This function calls:
  3755 ;;		_putch
  3756 ;; This function is called by:
  3757 ;;		_pad
  3758 ;;		_vfpfcnvrt
  3759 ;;		_fputs
  3760 ;; This function uses a non-reentrant model
  3761 ;;
  3762                           
  3763                           	psect	text19
  3764   002106                     __ptext19:
  3765                           	callstack 0
  3766   002106                     _fputc:
  3767                           	callstack 22
  3768   002106  5005               	movf	fputc@fp^0,w,c
  3769   002108  1006               	iorwf	(fputc@fp+1)^0,w,c
  3770   00210A  B4D8               	btfsc	status,2,c
  3771   00210C  EF8A  F010         	goto	u4001
  3772   002110  EF8C  F010         	goto	u4000
  3773   002114                     u4001:
  3774   002114  EF95  F010         	goto	l5684
  3775   002118                     u4000:
  3776   002118  5005               	movf	fputc@fp^0,w,c
  3777   00211A  1006               	iorwf	(fputc@fp+1)^0,w,c
  3778   00211C  A4D8               	btfss	status,2,c
  3779   00211E  EF93  F010         	goto	u4011
  3780   002122  EF95  F010         	goto	u4010
  3781   002126                     u4011:
  3782   002126  EF9A  F010         	goto	l5686
  3783   00212A                     u4010:
  3784   00212A                     l5684:
  3785   00212A  5003               	movf	fputc@c^0,w,c
  3786   00212C  EC15  F017         	call	_putch
  3787   002130  EFE7  F010         	goto	l2571
  3788   002134                     l5686:
  3789   002134  EE20 F00A          	lfsr	2,10
  3790   002138  5005               	movf	fputc@fp^0,w,c
  3791   00213A  26D9               	addwf	fsr2l,f,c
  3792   00213C  5006               	movf	(fputc@fp+1)^0,w,c
  3793   00213E  22DA               	addwfc	fsr2h,f,c
  3794   002140  50DE               	movf	postinc2,w,c
  3795   002142  10DE               	iorwf	postinc2,w,c
  3796   002144  B4D8               	btfsc	status,2,c
  3797   002146  EFA7  F010         	goto	u4021
  3798   00214A  EFA9  F010         	goto	u4020
  3799   00214E                     u4021:
  3800   00214E  EFC4  F010         	goto	l5690
  3801   002152                     u4020:
  3802   002152  EE20 F00A          	lfsr	2,10
  3803   002156  5005               	movf	fputc@fp^0,w,c
  3804   002158  26D9               	addwf	fsr2l,f,c
  3805   00215A  5006               	movf	(fputc@fp+1)^0,w,c
  3806   00215C  22DA               	addwfc	fsr2h,f,c
  3807   00215E  EE10 F003          	lfsr	1,3
  3808   002162  5005               	movf	fputc@fp^0,w,c
  3809   002164  26E1               	addwf	fsr1l,f,c
  3810   002166  5006               	movf	(fputc@fp+1)^0,w,c
  3811   002168  22E2               	addwfc	fsr1h,f,c
  3812   00216A  50DE               	movf	postinc2,w,c
  3813   00216C  5CE6               	subwf	postinc1,w,c
  3814   00216E  50E6               	movf	postinc1,w,c
  3815   002170  0A80               	xorlw	128
  3816   002172  6E0B               	movwf	(??_fputc+4)^0,c
  3817   002174  50DE               	movf	postinc2,w,c
  3818   002176  0A80               	xorlw	128
  3819   002178  580B               	subwfb	(??_fputc+4)^0,w,c
  3820   00217A  B0D8               	btfsc	status,0,c
  3821   00217C  EFC2  F010         	goto	u4031
  3822   002180  EFC4  F010         	goto	u4030
  3823   002184                     u4031:
  3824   002184  EFE7  F010         	goto	l2571
  3825   002188                     u4030:
  3826   002188                     l5690:
  3827   002188  EE20 F003          	lfsr	2,3
  3828   00218C  5005               	movf	fputc@fp^0,w,c
  3829   00218E  26D9               	addwf	fsr2l,f,c
  3830   002190  5006               	movf	(fputc@fp+1)^0,w,c
  3831   002192  22DA               	addwfc	fsr2h,f,c
  3832   002194  CFDE F007          	movff	postinc2,??_fputc
  3833   002198  CFDD F008          	movff	postdec2,??_fputc+1
  3834   00219C  C005  FFD9         	movff	fputc@fp,fsr2l
  3835   0021A0  C006  FFDA         	movff	fputc@fp+1,fsr2h
  3836   0021A4  CFDE F009          	movff	postinc2,??_fputc+2
  3837   0021A8  CFDD F00A          	movff	postdec2,??_fputc+3
  3838   0021AC  5007               	movf	??_fputc^0,w,c
  3839   0021AE  2409               	addwf	(??_fputc+2)^0,w,c
  3840   0021B0  6ED9               	movwf	fsr2l,c
  3841   0021B2  5008               	movf	(??_fputc+1)^0,w,c
  3842   0021B4  200A               	addwfc	(??_fputc+3)^0,w,c
  3843   0021B6  6EDA               	movwf	fsr2h,c
  3844   0021B8  C003  FFDF         	movff	fputc@c,indf2
  3845   0021BC  EE20 F003          	lfsr	2,3
  3846   0021C0  5005               	movf	fputc@fp^0,w,c
  3847   0021C2  26D9               	addwf	fsr2l,f,c
  3848   0021C4  5006               	movf	(fputc@fp+1)^0,w,c
  3849   0021C6  22DA               	addwfc	fsr2h,f,c
  3850   0021C8  2ADE               	incf	postinc2,f,c
  3851   0021CA  0E00               	movlw	0
  3852   0021CC  22DD               	addwfc	postdec2,f,c
  3853   0021CE                     l2571:
  3854   0021CE  0012               	return		;funcret
  3855   0021D0                     __end_of_fputc:
  3856                           	callstack 0
  3857                           
  3858 ;; *************** function _putch *****************
  3859 ;; Defined at:
  3860 ;;		line 7 in file "C:\Program Files\Microchip\xc8\v2.41\pic\sources\c99\common\putch.c"
  3861 ;; Parameters:    Size  Location     Type
  3862 ;;  c               1    wreg     unsigned char 
  3863 ;; Auto vars:     Size  Location     Type
  3864 ;;  c               1    0[COMRAM] unsigned char 
  3865 ;; Return value:  Size  Location     Type
  3866 ;;                  1    wreg      void 
  3867 ;; Registers used:
  3868 ;;		wreg
  3869 ;; Tracked objects:
  3870 ;;		On entry : 0/0
  3871 ;;		On exit  : 0/0
  3872 ;;		Unchanged: 0/0
  3873 ;; Data sizes:     COMRAM   BANK0   BANK1   BANK2   BANK3   BANK4   BANK5   BANK6   BANK7   BANK8   BANK9  BANK10  BANK1
      +1  BANK12  BANK13  BANK14  BANK15
  3874 ;;      Params:         0       0       0       0       0       0       0       0       0       0       0       0       
      +0       0       0       0       0
  3875 ;;      Locals:         0       0       0       0       0       0       0       0       0       0       0       0       
      +0       0       0       0       0
  3876 ;;      Temps:          0       0       0       0       0       0       0       0       0       0       0       0       
      +0       0       0       0       0
  3877 ;;      Totals:         0       0       0       0       0       0       0       0       0       0       0       0       
      +0       0       0       0       0
  3878 ;;Total ram usage:        0 bytes
  3879 ;; Hardware stack levels used: 1
  3880 ;; Hardware stack levels required when called: 2
  3881 ;; This function calls:
  3882 ;;		Nothing
  3883 ;; This function is called by:
  3884 ;;		_fputc
  3885 ;; This function uses a non-reentrant model
  3886 ;;
  3887                           
  3888                           	psect	text20
  3889   002E2A                     __ptext20:
  3890                           	callstack 0
  3891   002E2A                     _putch:
  3892                           	callstack 22
  3893   002E2A  0012               	return		;funcret
  3894   002E2C                     __end_of_putch:
  3895                           	callstack 0
  3896                           
  3897 ;; *************** function _abs *****************
  3898 ;; Defined at:
  3899 ;;		line 1 in file "C:\Program Files\Microchip\xc8\v2.41\pic\sources\c99\common\abs.c"
  3900 ;; Parameters:    Size  Location     Type
  3901 ;;  a               2    8[COMRAM] int 
  3902 ;; Auto vars:     Size  Location     Type
  3903 ;;		None
  3904 ;; Return value:  Size  Location     Type
  3905 ;;                  2    8[COMRAM] int 
  3906 ;; Registers used:
  3907 ;;		wreg, status,2, status,0
  3908 ;; Tracked objects:
  3909 ;;		On entry : 0/0
  3910 ;;		On exit  : 0/0
  3911 ;;		Unchanged: 0/0
  3912 ;; Data sizes:     COMRAM   BANK0   BANK1   BANK2   BANK3   BANK4   BANK5   BANK6   BANK7   BANK8   BANK9  BANK10  BANK1
      +1  BANK12  BANK13  BANK14  BANK15
  3913 ;;      Params:         2       0       0       0       0       0       0       0       0       0       0       0       
      +0       0       0       0       0
  3914 ;;      Locals:         0       0       0       0       0       0       0       0       0       0       0       0       
      +0       0       0       0       0
  3915 ;;      Temps:          2       0       0       0       0       0       0       0       0       0       0       0       
      +0       0       0       0       0
  3916 ;;      Totals:         4       0       0       0       0       0       0       0       0       0       0       0       
      +0       0       0       0       0
  3917 ;;Total ram usage:        4 bytes
  3918 ;; Hardware stack levels used: 1
  3919 ;; Hardware stack levels required when called: 2
  3920 ;; This function calls:
  3921 ;;		Nothing
  3922 ;; This function is called by:
  3923 ;;		_dtoa
  3924 ;; This function uses a non-reentrant model
  3925 ;;
  3926                           
  3927                           	psect	text21
  3928   002C14                     __ptext21:
  3929                           	callstack 0
  3930   002C14                     _abs:
  3931                           	callstack 22
  3932   002C14  BE0A               	btfsc	(abs@a+1)^0,7,c
  3933   002C16  EF17  F016         	goto	u4190
  3934   002C1A  500A               	movf	(abs@a+1)^0,w,c
  3935   002C1C  E106               	bnz	u4191
  3936   002C1E  0409               	decf	abs@a^0,w,c
  3937   002C20  B0D8               	btfsc	status,0,c
  3938   002C22  EF15  F016         	goto	u4191
  3939   002C26  EF17  F016         	goto	u4190
  3940   002C2A                     u4191:
  3941   002C2A  EF25  F016         	goto	l2556
  3942   002C2E                     u4190:
  3943   002C2E  C009  F00B         	movff	abs@a,??_abs
  3944   002C32  C00A  F00C         	movff	abs@a+1,??_abs+1
  3945   002C36  1E0B               	comf	??_abs^0,f,c
  3946   002C38  1E0C               	comf	(??_abs+1)^0,f,c
  3947   002C3A  4A0B               	infsnz	??_abs^0,f,c
  3948   002C3C  2A0C               	incf	(??_abs+1)^0,f,c
  3949   002C3E  C00B  F009         	movff	??_abs,?_abs
  3950   002C42  C00C  F00A         	movff	??_abs+1,?_abs+1
  3951   002C46  EF29  F016         	goto	l2559
  3952   002C4A                     l2556:
  3953   002C4A  C009  F009         	movff	abs@a,?_abs
  3954   002C4E  C00A  F00A         	movff	abs@a+1,?_abs+1
  3955   002C52                     l2559:
  3956   002C52  0012               	return		;funcret
  3957   002C54                     __end_of_abs:
  3958                           	callstack 0
  3959                           
  3960 ;; *************** function ___awmod *****************
  3961 ;; Defined at:
  3962 ;;		line 7 in file "C:\Program Files\Microchip\xc8\v2.41\pic\sources\c99\common\awmod.c"
  3963 ;; Parameters:    Size  Location     Type
  3964 ;;  dividend        2    2[COMRAM] int 
  3965 ;;  divisor         2    4[COMRAM] int 
  3966 ;; Auto vars:     Size  Location     Type
  3967 ;;  sign            1    7[COMRAM] unsigned char 
  3968 ;;  counter         1    6[COMRAM] unsigned char 
  3969 ;; Return value:  Size  Location     Type
  3970 ;;                  2    2[COMRAM] int 
  3971 ;; Registers used:
  3972 ;;		wreg, status,2, status,0
  3973 ;; Tracked objects:
  3974 ;;		On entry : 0/0
  3975 ;;		On exit  : 0/0
  3976 ;;		Unchanged: 0/0
  3977 ;; Data sizes:     COMRAM   BANK0   BANK1   BANK2   BANK3   BANK4   BANK5   BANK6   BANK7   BANK8   BANK9  BANK10  BANK1
      +1  BANK12  BANK13  BANK14  BANK15
  3978 ;;      Params:         4       0       0       0       0       0       0       0       0       0       0       0       
      +0       0       0       0       0
  3979 ;;      Locals:         2       0       0       0       0       0       0       0       0       0       0       0       
      +0       0       0       0       0
  3980 ;;      Temps:          0       0       0       0       0       0       0       0       0       0       0       0       
      +0       0       0       0       0
  3981 ;;      Totals:         6       0       0       0       0       0       0       0       0       0       0       0       
      +0       0       0       0       0
  3982 ;;Total ram usage:        6 bytes
  3983 ;; Hardware stack levels used: 1
  3984 ;; Hardware stack levels required when called: 2
  3985 ;; This function calls:
  3986 ;;		Nothing
  3987 ;; This function is called by:
  3988 ;;		_dtoa
  3989 ;; This function uses a non-reentrant model
  3990 ;;
  3991                           
  3992                           	psect	text22
  3993   002406                     __ptext22:
  3994                           	callstack 0
  3995   002406                     ___awmod:
  3996                           	callstack 22
  3997   002406  0E00               	movlw	0
  3998   002408  6E08               	movwf	___awmod@sign^0,c
  3999   00240A  BE04               	btfsc	(___awmod@dividend+1)^0,7,c
  4000   00240C  EF0C  F012         	goto	u4110
  4001   002410  EF0A  F012         	goto	u4111
  4002   002414                     u4111:
  4003   002414  EF12  F012         	goto	l5754
  4004   002418                     u4110:
  4005   002418  6C03               	negf	___awmod@dividend^0,c
  4006   00241A  1E04               	comf	(___awmod@dividend+1)^0,f,c
  4007   00241C  B0D8               	btfsc	status,0,c
  4008   00241E  2A04               	incf	(___awmod@dividend+1)^0,f,c
  4009   002420  0E01               	movlw	1
  4010   002422  6E08               	movwf	___awmod@sign^0,c
  4011   002424                     l5754:
  4012   002424  BE06               	btfsc	(___awmod@divisor+1)^0,7,c
  4013   002426  EF19  F012         	goto	u4120
  4014   00242A  EF17  F012         	goto	u4121
  4015   00242E                     u4121:
  4016   00242E  EF1D  F012         	goto	l5758
  4017   002432                     u4120:
  4018   002432  6C05               	negf	___awmod@divisor^0,c
  4019   002434  1E06               	comf	(___awmod@divisor+1)^0,f,c
  4020   002436  B0D8               	btfsc	status,0,c
  4021   002438  2A06               	incf	(___awmod@divisor+1)^0,f,c
  4022   00243A                     l5758:
  4023   00243A  5005               	movf	___awmod@divisor^0,w,c
  4024   00243C  1006               	iorwf	(___awmod@divisor+1)^0,w,c
  4025   00243E  B4D8               	btfsc	status,2,c
  4026   002440  EF24  F012         	goto	u4131
  4027   002444  EF26  F012         	goto	u4130
  4028   002448                     u4131:
  4029   002448  EF4A  F012         	goto	l5774
  4030   00244C                     u4130:
  4031   00244C  0E01               	movlw	1
  4032   00244E  6E07               	movwf	___awmod@counter^0,c
  4033   002450  EF2E  F012         	goto	l5764
  4034   002454                     l5762:
  4035   002454  90D8               	bcf	status,0,c
  4036   002456  3605               	rlcf	___awmod@divisor^0,f,c
  4037   002458  3606               	rlcf	(___awmod@divisor+1)^0,f,c
  4038   00245A  2A07               	incf	___awmod@counter^0,f,c
  4039   00245C                     l5764:
  4040   00245C  AE06               	btfss	(___awmod@divisor+1)^0,7,c
  4041   00245E  EF33  F012         	goto	u4141
  4042   002462  EF35  F012         	goto	u4140
  4043   002466                     u4141:
  4044   002466  EF2A  F012         	goto	l5762
  4045   00246A                     u4140:
  4046   00246A                     l5766:
  4047   00246A  5005               	movf	___awmod@divisor^0,w,c
  4048   00246C  5C03               	subwf	___awmod@dividend^0,w,c
  4049   00246E  5006               	movf	(___awmod@divisor+1)^0,w,c
  4050   002470  5804               	subwfb	(___awmod@dividend+1)^0,w,c
  4051   002472  A0D8               	btfss	status,0,c
  4052   002474  EF3E  F012         	goto	u4151
  4053   002478  EF40  F012         	goto	u4150
  4054   00247C                     u4151:
  4055   00247C  EF44  F012         	goto	l5770
  4056   002480                     u4150:
  4057   002480  5005               	movf	___awmod@divisor^0,w,c
  4058   002482  5E03               	subwf	___awmod@dividend^0,f,c
  4059   002484  5006               	movf	(___awmod@divisor+1)^0,w,c
  4060   002486  5A04               	subwfb	(___awmod@dividend+1)^0,f,c
  4061   002488                     l5770:
  4062   002488  90D8               	bcf	status,0,c
  4063   00248A  3206               	rrcf	(___awmod@divisor+1)^0,f,c
  4064   00248C  3205               	rrcf	___awmod@divisor^0,f,c
  4065   00248E  2E07               	decfsz	___awmod@counter^0,f,c
  4066   002490  EF35  F012         	goto	l5766
  4067   002494                     l5774:
  4068   002494  5008               	movf	___awmod@sign^0,w,c
  4069   002496  B4D8               	btfsc	status,2,c
  4070   002498  EF50  F012         	goto	u4161
  4071   00249C  EF52  F012         	goto	u4160
  4072   0024A0                     u4161:
  4073   0024A0  EF56  F012         	goto	l5778
  4074   0024A4                     u4160:
  4075   0024A4  6C03               	negf	___awmod@dividend^0,c
  4076   0024A6  1E04               	comf	(___awmod@dividend+1)^0,f,c
  4077   0024A8  B0D8               	btfsc	status,0,c
  4078   0024AA  2A04               	incf	(___awmod@dividend+1)^0,f,c
  4079   0024AC                     l5778:
  4080   0024AC  C003  F003         	movff	___awmod@dividend,?___awmod
  4081   0024B0  C004  F004         	movff	___awmod@dividend+1,?___awmod+1
  4082   0024B4  0012               	return		;funcret
  4083   0024B6                     __end_of___awmod:
  4084                           	callstack 0
  4085                           
  4086 ;; *************** function ___awdiv *****************
  4087 ;; Defined at:
  4088 ;;		line 7 in file "C:\Program Files\Microchip\xc8\v2.41\pic\sources\c99\common\awdiv.c"
  4089 ;; Parameters:    Size  Location     Type
  4090 ;;  dividend        2    2[COMRAM] int 
  4091 ;;  divisor         2    4[COMRAM] int 
  4092 ;; Auto vars:     Size  Location     Type
  4093 ;;  quotient        2    8[COMRAM] int 
  4094 ;;  sign            1    7[COMRAM] unsigned char 
  4095 ;;  counter         1    6[COMRAM] unsigned char 
  4096 ;; Return value:  Size  Location     Type
  4097 ;;                  2    2[COMRAM] int 
  4098 ;; Registers used:
  4099 ;;		wreg, status,2, status,0
  4100 ;; Tracked objects:
  4101 ;;		On entry : 0/0
  4102 ;;		On exit  : 0/0
  4103 ;;		Unchanged: 0/0
  4104 ;; Data sizes:     COMRAM   BANK0   BANK1   BANK2   BANK3   BANK4   BANK5   BANK6   BANK7   BANK8   BANK9  BANK10  BANK1
      +1  BANK12  BANK13  BANK14  BANK15
  4105 ;;      Params:         4       0       0       0       0       0       0       0       0       0       0       0       
      +0       0       0       0       0
  4106 ;;      Locals:         4       0       0       0       0       0       0       0       0       0       0       0       
      +0       0       0       0       0
  4107 ;;      Temps:          0       0       0       0       0       0       0       0       0       0       0       0       
      +0       0       0       0       0
  4108 ;;      Totals:         8       0       0       0       0       0       0       0       0       0       0       0       
      +0       0       0       0       0
  4109 ;;Total ram usage:        8 bytes
  4110 ;; Hardware stack levels used: 1
  4111 ;; Hardware stack levels required when called: 2
  4112 ;; This function calls:
  4113 ;;		Nothing
  4114 ;; This function is called by:
  4115 ;;		_dtoa
  4116 ;; This function uses a non-reentrant model
  4117 ;;
  4118                           
  4119                           	psect	text23
  4120   0021D0                     __ptext23:
  4121                           	callstack 0
  4122   0021D0                     ___awdiv:
  4123                           	callstack 22
  4124   0021D0  0E00               	movlw	0
  4125   0021D2  6E08               	movwf	___awdiv@sign^0,c
  4126   0021D4  BE06               	btfsc	(___awdiv@divisor+1)^0,7,c
  4127   0021D6  EFF1  F010         	goto	u4050
  4128   0021DA  EFEF  F010         	goto	u4051
  4129   0021DE                     u4051:
  4130   0021DE  EFF7  F010         	goto	l5710
  4131   0021E2                     u4050:
  4132   0021E2  6C05               	negf	___awdiv@divisor^0,c
  4133   0021E4  1E06               	comf	(___awdiv@divisor+1)^0,f,c
  4134   0021E6  B0D8               	btfsc	status,0,c
  4135   0021E8  2A06               	incf	(___awdiv@divisor+1)^0,f,c
  4136   0021EA  0E01               	movlw	1
  4137   0021EC  6E08               	movwf	___awdiv@sign^0,c
  4138   0021EE                     l5710:
  4139   0021EE  BE04               	btfsc	(___awdiv@dividend+1)^0,7,c
  4140   0021F0  EFFE  F010         	goto	u4060
  4141   0021F4  EFFC  F010         	goto	u4061
  4142   0021F8                     u4061:
  4143   0021F8  EF04  F011         	goto	l5716
  4144   0021FC                     u4060:
  4145   0021FC  6C03               	negf	___awdiv@dividend^0,c
  4146   0021FE  1E04               	comf	(___awdiv@dividend+1)^0,f,c
  4147   002200  B0D8               	btfsc	status,0,c
  4148   002202  2A04               	incf	(___awdiv@dividend+1)^0,f,c
  4149   002204  0E01               	movlw	1
  4150   002206  1A08               	xorwf	___awdiv@sign^0,f,c
  4151   002208                     l5716:
  4152   002208  0E00               	movlw	0
  4153   00220A  6E0A               	movwf	(___awdiv@quotient+1)^0,c
  4154   00220C  0E00               	movlw	0
  4155   00220E  6E09               	movwf	___awdiv@quotient^0,c
  4156   002210  5005               	movf	___awdiv@divisor^0,w,c
  4157   002212  1006               	iorwf	(___awdiv@divisor+1)^0,w,c
  4158   002214  B4D8               	btfsc	status,2,c
  4159   002216  EF0F  F011         	goto	u4071
  4160   00221A  EF11  F011         	goto	u4070
  4161   00221E                     u4071:
  4162   00221E  EF39  F011         	goto	l5738
  4163   002222                     u4070:
  4164   002222  0E01               	movlw	1
  4165   002224  6E07               	movwf	___awdiv@counter^0,c
  4166   002226  EF19  F011         	goto	l5724
  4167   00222A                     l5722:
  4168   00222A  90D8               	bcf	status,0,c
  4169   00222C  3605               	rlcf	___awdiv@divisor^0,f,c
  4170   00222E  3606               	rlcf	(___awdiv@divisor+1)^0,f,c
  4171   002230  2A07               	incf	___awdiv@counter^0,f,c
  4172   002232                     l5724:
  4173   002232  AE06               	btfss	(___awdiv@divisor+1)^0,7,c
  4174   002234  EF1E  F011         	goto	u4081
  4175   002238  EF20  F011         	goto	u4080
  4176   00223C                     u4081:
  4177   00223C  EF15  F011         	goto	l5722
  4178   002240                     u4080:
  4179   002240                     l5726:
  4180   002240  90D8               	bcf	status,0,c
  4181   002242  3609               	rlcf	___awdiv@quotient^0,f,c
  4182   002244  360A               	rlcf	(___awdiv@quotient+1)^0,f,c
  4183   002246  5005               	movf	___awdiv@divisor^0,w,c
  4184   002248  5C03               	subwf	___awdiv@dividend^0,w,c
  4185   00224A  5006               	movf	(___awdiv@divisor+1)^0,w,c
  4186   00224C  5804               	subwfb	(___awdiv@dividend+1)^0,w,c
  4187   00224E  A0D8               	btfss	status,0,c
  4188   002250  EF2C  F011         	goto	u4091
  4189   002254  EF2E  F011         	goto	u4090
  4190   002258                     u4091:
  4191   002258  EF33  F011         	goto	l5734
  4192   00225C                     u4090:
  4193   00225C  5005               	movf	___awdiv@divisor^0,w,c
  4194   00225E  5E03               	subwf	___awdiv@dividend^0,f,c
  4195   002260  5006               	movf	(___awdiv@divisor+1)^0,w,c
  4196   002262  5A04               	subwfb	(___awdiv@dividend+1)^0,f,c
  4197   002264  8009               	bsf	___awdiv@quotient^0,0,c
  4198   002266                     l5734:
  4199   002266  90D8               	bcf	status,0,c
  4200   002268  3206               	rrcf	(___awdiv@divisor+1)^0,f,c
  4201   00226A  3205               	rrcf	___awdiv@divisor^0,f,c
  4202   00226C  2E07               	decfsz	___awdiv@counter^0,f,c
  4203   00226E  EF20  F011         	goto	l5726
  4204   002272                     l5738:
  4205   002272  5008               	movf	___awdiv@sign^0,w,c
  4206   002274  B4D8               	btfsc	status,2,c
  4207   002276  EF3F  F011         	goto	u4101
  4208   00227A  EF41  F011         	goto	u4100
  4209   00227E                     u4101:
  4210   00227E  EF45  F011         	goto	l5742
  4211   002282                     u4100:
  4212   002282  6C09               	negf	___awdiv@quotient^0,c
  4213   002284  1E0A               	comf	(___awdiv@quotient+1)^0,f,c
  4214   002286  B0D8               	btfsc	status,0,c
  4215   002288  2A0A               	incf	(___awdiv@quotient+1)^0,f,c
  4216   00228A                     l5742:
  4217   00228A  C009  F003         	movff	___awdiv@quotient,?___awdiv
  4218   00228E  C00A  F004         	movff	___awdiv@quotient+1,?___awdiv+1
  4219   002292  0012               	return		;funcret
  4220   002294                     __end_of___awdiv:
  4221                           	callstack 0
  4222                           
  4223 ;; *************** function _memset *****************
  4224 ;; Defined at:
  4225 ;;		line 4 in file "C:\Program Files\Microchip\xc8\v2.41\pic\sources\c99\common\memset.c"
  4226 ;; Parameters:    Size  Location     Type
  4227 ;;  dest            2    2[COMRAM] PTR void 
  4228 ;;		 -> result_txt(11), 
  4229 ;;  c               2    4[COMRAM] int 
  4230 ;;  n               2    6[COMRAM] unsigned int 
  4231 ;; Auto vars:     Size  Location     Type
  4232 ;;  s               2   12[COMRAM] PTR unsigned char 
  4233 ;;		 -> result_txt(11), 
  4234 ;;  k               2   10[COMRAM] unsigned int 
  4235 ;; Return value:  Size  Location     Type
  4236 ;;                  2    2[COMRAM] PTR void 
  4237 ;; Registers used:
  4238 ;;		wreg, fsr2l, fsr2h, status,2, status,0
  4239 ;; Tracked objects:
  4240 ;;		On entry : 0/0
  4241 ;;		On exit  : 0/0
  4242 ;;		Unchanged: 0/0
  4243 ;; Data sizes:     COMRAM   BANK0   BANK1   BANK2   BANK3   BANK4   BANK5   BANK6   BANK7   BANK8   BANK9  BANK10  BANK1
      +1  BANK12  BANK13  BANK14  BANK15
  4244 ;;      Params:         6       0       0       0       0       0       0       0       0       0       0       0       
      +0       0       0       0       0
  4245 ;;      Locals:         4       0       0       0       0       0       0       0       0       0       0       0       
      +0       0       0       0       0
  4246 ;;      Temps:          2       0       0       0       0       0       0       0       0       0       0       0       
      +0       0       0       0       0
  4247 ;;      Totals:        12       0       0       0       0       0       0       0       0       0       0       0       
      +0       0       0       0       0
  4248 ;;Total ram usage:       12 bytes
  4249 ;; Hardware stack levels used: 1
  4250 ;; Hardware stack levels required when called: 2
  4251 ;; This function calls:
  4252 ;;		Nothing
  4253 ;; This function is called by:
  4254 ;;		_convert_uint32_to_string
  4255 ;;		_convert_uint8_to_string
  4256 ;;		_convert_uint16_to_string
  4257 ;; This function uses a non-reentrant model
  4258 ;;
  4259                           
  4260                           	psect	text24
  4261   001852                     __ptext24:
  4262                           	callstack 0
  4263   001852                     _memset:
  4264                           	callstack 26
  4265   001852  C003  F00D         	movff	memset@dest,memset@s
  4266   001856  C004  F00E         	movff	memset@dest+1,memset@s+1
  4267   00185A  5007               	movf	memset@n^0,w,c
  4268   00185C  1008               	iorwf	(memset@n+1)^0,w,c
  4269   00185E  A4D8               	btfss	status,2,c
  4270   001860  EF34  F00C         	goto	u4501
  4271   001864  EF36  F00C         	goto	u4500
  4272   001868                     u4501:
  4273   001868  EF38  F00C         	goto	l6072
  4274   00186C                     u4500:
  4275   00186C  EFE3  F00C         	goto	l2481
  4276   001870                     l6072:
  4277   001870  C00D  FFD9         	movff	memset@s,fsr2l
  4278   001874  C00E  FFDA         	movff	memset@s+1,fsr2h
  4279   001878  C005  FFDF         	movff	memset@c,indf2
  4280   00187C  5007               	movf	memset@n^0,w,c
  4281   00187E  240D               	addwf	memset@s^0,w,c
  4282   001880  6E09               	movwf	??_memset^0,c
  4283   001882  5008               	movf	(memset@n+1)^0,w,c
  4284   001884  200E               	addwfc	(memset@s+1)^0,w,c
  4285   001886  6E0A               	movwf	(??_memset+1)^0,c
  4286   001888  0EFF               	movlw	255
  4287   00188A  2409               	addwf	??_memset^0,w,c
  4288   00188C  6ED9               	movwf	fsr2l,c
  4289   00188E  0EFF               	movlw	255
  4290   001890  200A               	addwfc	(??_memset+1)^0,w,c
  4291   001892  6EDA               	movwf	fsr2h,c
  4292   001894  C005  FFDF         	movff	memset@c,indf2
  4293   001898  5008               	movf	(memset@n+1)^0,w,c
  4294   00189A  E107               	bnz	u4511
  4295   00189C  0E03               	movlw	3
  4296   00189E  5C07               	subwf	memset@n^0,w,c
  4297   0018A0  B0D8               	btfsc	status,0,c
  4298   0018A2  EF55  F00C         	goto	u4511
  4299   0018A6  EF57  F00C         	goto	u4510
  4300   0018AA                     u4511:
  4301   0018AA  EF59  F00C         	goto	l6078
  4302   0018AE                     u4510:
  4303   0018AE  EFE3  F00C         	goto	l2481
  4304   0018B2                     l6078:
  4305   0018B2  EE20 F001          	lfsr	2,1
  4306   0018B6  500D               	movf	memset@s^0,w,c
  4307   0018B8  26D9               	addwf	fsr2l,f,c
  4308   0018BA  500E               	movf	(memset@s+1)^0,w,c
  4309   0018BC  22DA               	addwfc	fsr2h,f,c
  4310   0018BE  C005  FFDF         	movff	memset@c,indf2
  4311   0018C2  EE20 F002          	lfsr	2,2
  4312   0018C6  500D               	movf	memset@s^0,w,c
  4313   0018C8  26D9               	addwf	fsr2l,f,c
  4314   0018CA  500E               	movf	(memset@s+1)^0,w,c
  4315   0018CC  22DA               	addwfc	fsr2h,f,c
  4316   0018CE  C005  FFDF         	movff	memset@c,indf2
  4317   0018D2  5007               	movf	memset@n^0,w,c
  4318   0018D4  240D               	addwf	memset@s^0,w,c
  4319   0018D6  6E09               	movwf	??_memset^0,c
  4320   0018D8  5008               	movf	(memset@n+1)^0,w,c
  4321   0018DA  200E               	addwfc	(memset@s+1)^0,w,c
  4322   0018DC  6E0A               	movwf	(??_memset+1)^0,c
  4323   0018DE  0EFE               	movlw	254
  4324   0018E0  2409               	addwf	??_memset^0,w,c
  4325   0018E2  6ED9               	movwf	fsr2l,c
  4326   0018E4  0EFF               	movlw	255
  4327   0018E6  200A               	addwfc	(??_memset+1)^0,w,c
  4328   0018E8  6EDA               	movwf	fsr2h,c
  4329   0018EA  C005  FFDF         	movff	memset@c,indf2
  4330   0018EE  5007               	movf	memset@n^0,w,c
  4331   0018F0  240D               	addwf	memset@s^0,w,c
  4332   0018F2  6E09               	movwf	??_memset^0,c
  4333   0018F4  5008               	movf	(memset@n+1)^0,w,c
  4334   0018F6  200E               	addwfc	(memset@s+1)^0,w,c
  4335   0018F8  6E0A               	movwf	(??_memset+1)^0,c
  4336   0018FA  0EFD               	movlw	253
  4337   0018FC  2409               	addwf	??_memset^0,w,c
  4338   0018FE  6ED9               	movwf	fsr2l,c
  4339   001900  0EFF               	movlw	255
  4340   001902  200A               	addwfc	(??_memset+1)^0,w,c
  4341   001904  6EDA               	movwf	fsr2h,c
  4342   001906  C005  FFDF         	movff	memset@c,indf2
  4343   00190A  5008               	movf	(memset@n+1)^0,w,c
  4344   00190C  E107               	bnz	u4521
  4345   00190E  0E07               	movlw	7
  4346   001910  5C07               	subwf	memset@n^0,w,c
  4347   001912  B0D8               	btfsc	status,0,c
  4348   001914  EF8E  F00C         	goto	u4521
  4349   001918  EF90  F00C         	goto	u4520
  4350   00191C                     u4521:
  4351   00191C  EF92  F00C         	goto	l6084
  4352   001920                     u4520:
  4353   001920  EFE3  F00C         	goto	l2481
  4354   001924                     l6084:
  4355   001924  EE20 F003          	lfsr	2,3
  4356   001928  500D               	movf	memset@s^0,w,c
  4357   00192A  26D9               	addwf	fsr2l,f,c
  4358   00192C  500E               	movf	(memset@s+1)^0,w,c
  4359   00192E  22DA               	addwfc	fsr2h,f,c
  4360   001930  C005  FFDF         	movff	memset@c,indf2
  4361   001934  5007               	movf	memset@n^0,w,c
  4362   001936  240D               	addwf	memset@s^0,w,c
  4363   001938  6E09               	movwf	??_memset^0,c
  4364   00193A  5008               	movf	(memset@n+1)^0,w,c
  4365   00193C  200E               	addwfc	(memset@s+1)^0,w,c
  4366   00193E  6E0A               	movwf	(??_memset+1)^0,c
  4367   001940  0EFC               	movlw	252
  4368   001942  2409               	addwf	??_memset^0,w,c
  4369   001944  6ED9               	movwf	fsr2l,c
  4370   001946  0EFF               	movlw	255
  4371   001948  200A               	addwfc	(??_memset+1)^0,w,c
  4372   00194A  6EDA               	movwf	fsr2h,c
  4373   00194C  C005  FFDF         	movff	memset@c,indf2
  4374   001950  5008               	movf	(memset@n+1)^0,w,c
  4375   001952  E107               	bnz	u4531
  4376   001954  0E09               	movlw	9
  4377   001956  5C07               	subwf	memset@n^0,w,c
  4378   001958  B0D8               	btfsc	status,0,c
  4379   00195A  EFB1  F00C         	goto	u4531
  4380   00195E  EFB3  F00C         	goto	u4530
  4381   001962                     u4531:
  4382   001962  EFB5  F00C         	goto	l6090
  4383   001966                     u4530:
  4384   001966  EFE3  F00C         	goto	l2481
  4385   00196A                     l6090:
  4386   00196A  C00D  F009         	movff	memset@s,??_memset
  4387   00196E  C00E  F00A         	movff	memset@s+1,??_memset+1
  4388   001972  1E09               	comf	??_memset^0,f,c
  4389   001974  1E0A               	comf	(??_memset+1)^0,f,c
  4390   001976  4A09               	infsnz	??_memset^0,f,c
  4391   001978  2A0A               	incf	(??_memset+1)^0,f,c
  4392   00197A  0E03               	movlw	3
  4393   00197C  1409               	andwf	??_memset^0,w,c
  4394   00197E  6E0B               	movwf	memset@k^0,c
  4395   001980  6A0C               	clrf	(memset@k+1)^0,c
  4396   001982  500B               	movf	memset@k^0,w,c
  4397   001984  260D               	addwf	memset@s^0,f,c
  4398   001986  500C               	movf	(memset@k+1)^0,w,c
  4399   001988  220E               	addwfc	(memset@s+1)^0,f,c
  4400   00198A  500B               	movf	memset@k^0,w,c
  4401   00198C  5E07               	subwf	memset@n^0,f,c
  4402   00198E  500C               	movf	(memset@k+1)^0,w,c
  4403   001990  5A08               	subwfb	(memset@n+1)^0,f,c
  4404   001992  0EFC               	movlw	252
  4405   001994  1607               	andwf	memset@n^0,f,c
  4406   001996  0EFF               	movlw	255
  4407   001998  1608               	andwf	(memset@n+1)^0,f,c
  4408   00199A  EFDA  F00C         	goto	l6098
  4409   00199E                     l6092:
  4410   00199E  C00D  FFD9         	movff	memset@s,fsr2l
  4411   0019A2  C00E  FFDA         	movff	memset@s+1,fsr2h
  4412   0019A6  C005  FFDF         	movff	memset@c,indf2
  4413   0019AA  0607               	decf	memset@n^0,f,c
  4414   0019AC  A0D8               	btfss	status,0,c
  4415   0019AE  0608               	decf	(memset@n+1)^0,f,c
  4416   0019B0  4A0D               	infsnz	memset@s^0,f,c
  4417   0019B2  2A0E               	incf	(memset@s+1)^0,f,c
  4418   0019B4                     l6098:
  4419   0019B4  5007               	movf	memset@n^0,w,c
  4420   0019B6  1008               	iorwf	(memset@n+1)^0,w,c
  4421   0019B8  A4D8               	btfss	status,2,c
  4422   0019BA  EFE1  F00C         	goto	u4541
  4423   0019BE  EFE3  F00C         	goto	u4540
  4424   0019C2                     u4541:
  4425   0019C2  EFCF  F00C         	goto	l6092
  4426   0019C6                     u4540:
  4427   0019C6                     l2481:
  4428   0019C6  0012               	return		;funcret
  4429   0019C8                     __end_of_memset:
  4430                           	callstack 0
  4431                           
  4432 ;; *************** function ___lmul *****************
  4433 ;; Defined at:
  4434 ;;		line 15 in file "C:\Program Files\Microchip\xc8\v2.41\pic\sources\c99\common\Umul32.c"
  4435 ;; Parameters:    Size  Location     Type
  4436 ;;  multiplier      4    2[COMRAM] unsigned long 
  4437 ;;  multiplicand    4    6[COMRAM] unsigned long 
  4438 ;; Auto vars:     Size  Location     Type
  4439 ;;  product         4   10[COMRAM] unsigned long 
  4440 ;; Return value:  Size  Location     Type
  4441 ;;                  4    2[COMRAM] unsigned long 
  4442 ;; Registers used:
  4443 ;;		wreg, status,2, status,0
  4444 ;; Tracked objects:
  4445 ;;		On entry : 0/0
  4446 ;;		On exit  : 0/0
  4447 ;;		Unchanged: 0/0
  4448 ;; Data sizes:     COMRAM   BANK0   BANK1   BANK2   BANK3   BANK4   BANK5   BANK6   BANK7   BANK8   BANK9  BANK10  BANK1
      +1  BANK12  BANK13  BANK14  BANK15
  4449 ;;      Params:         8       0       0       0       0       0       0       0       0       0       0       0       
      +0       0       0       0       0
  4450 ;;      Locals:         4       0       0       0       0       0       0       0       0       0       0       0       
      +0       0       0       0       0
  4451 ;;      Temps:          0       0       0       0       0       0       0       0       0       0       0       0       
      +0       0       0       0       0
  4452 ;;      Totals:        12       0       0       0       0       0       0       0       0       0       0       0       
      +0       0       0       0       0
  4453 ;;Total ram usage:       12 bytes
  4454 ;; Hardware stack levels used: 1
  4455 ;; Hardware stack levels required when called: 2
  4456 ;; This function calls:
  4457 ;;		Nothing
  4458 ;; This function is called by:
  4459 ;;		_main
  4460 ;;		_calculate
  4461 ;; This function uses a non-reentrant model
  4462 ;;
  4463                           
  4464                           	psect	text25
  4465   00297A                     __ptext25:
  4466                           	callstack 0
  4467   00297A                     ___lmul:
  4468                           	callstack 27
  4469   00297A  0E00               	movlw	0
  4470   00297C  6E0B               	movwf	___lmul@product^0,c
  4471   00297E  0E00               	movlw	0
  4472   002980  6E0C               	movwf	(___lmul@product+1)^0,c
  4473   002982  0E00               	movlw	0
  4474   002984  6E0D               	movwf	(___lmul@product+2)^0,c
  4475   002986  0E00               	movlw	0
  4476   002988  6E0E               	movwf	(___lmul@product+3)^0,c
  4477   00298A                     l6252:
  4478   00298A  A003               	btfss	___lmul@multiplier^0,0,c
  4479   00298C  EFCA  F014         	goto	u4711
  4480   002990  EFCC  F014         	goto	u4710
  4481   002994                     u4711:
  4482   002994  EFD4  F014         	goto	l6256
  4483   002998                     u4710:
  4484   002998  5007               	movf	___lmul@multiplicand^0,w,c
  4485   00299A  260B               	addwf	___lmul@product^0,f,c
  4486   00299C  5008               	movf	(___lmul@multiplicand+1)^0,w,c
  4487   00299E  220C               	addwfc	(___lmul@product+1)^0,f,c
  4488   0029A0  5009               	movf	(___lmul@multiplicand+2)^0,w,c
  4489   0029A2  220D               	addwfc	(___lmul@product+2)^0,f,c
  4490   0029A4  500A               	movf	(___lmul@multiplicand+3)^0,w,c
  4491   0029A6  220E               	addwfc	(___lmul@product+3)^0,f,c
  4492   0029A8                     l6256:
  4493   0029A8  90D8               	bcf	status,0,c
  4494   0029AA  3607               	rlcf	___lmul@multiplicand^0,f,c
  4495   0029AC  3608               	rlcf	(___lmul@multiplicand+1)^0,f,c
  4496   0029AE  3609               	rlcf	(___lmul@multiplicand+2)^0,f,c
  4497   0029B0  360A               	rlcf	(___lmul@multiplicand+3)^0,f,c
  4498   0029B2  90D8               	bcf	status,0,c
  4499   0029B4  3206               	rrcf	(___lmul@multiplier+3)^0,f,c
  4500   0029B6  3205               	rrcf	(___lmul@multiplier+2)^0,f,c
  4501   0029B8  3204               	rrcf	(___lmul@multiplier+1)^0,f,c
  4502   0029BA  3203               	rrcf	___lmul@multiplier^0,f,c
  4503   0029BC  5003               	movf	___lmul@multiplier^0,w,c
  4504   0029BE  1004               	iorwf	(___lmul@multiplier+1)^0,w,c
  4505   0029C0  1005               	iorwf	(___lmul@multiplier+2)^0,w,c
  4506   0029C2  1006               	iorwf	(___lmul@multiplier+3)^0,w,c
  4507   0029C4  A4D8               	btfss	status,2,c
  4508   0029C6  EFE7  F014         	goto	u4721
  4509   0029CA  EFE9  F014         	goto	u4720
  4510   0029CE                     u4721:
  4511   0029CE  EFC5  F014         	goto	l6252
  4512   0029D2                     u4720:
  4513   0029D2  C00B  F003         	movff	___lmul@product,?___lmul
  4514   0029D6  C00C  F004         	movff	___lmul@product+1,?___lmul+1
  4515   0029DA  C00D  F005         	movff	___lmul@product+2,?___lmul+2
  4516   0029DE  C00E  F006         	movff	___lmul@product+3,?___lmul+3
  4517   0029E2  0012               	return		;funcret
  4518   0029E4                     __end_of___lmul:
  4519                           	callstack 0
  4520                           
  4521 ;; *************** function ___lldiv *****************
  4522 ;; Defined at:
  4523 ;;		line 7 in file "C:\Program Files\Microchip\xc8\v2.41\pic\sources\c99\common\__lldiv.c"
  4524 ;; Parameters:    Size  Location     Type
  4525 ;;  dividend        4    2[COMRAM] unsigned long 
  4526 ;;  divisor         4    6[COMRAM] unsigned long 
  4527 ;; Auto vars:     Size  Location     Type
  4528 ;;  quotient        4   10[COMRAM] unsigned long 
  4529 ;;  counter         1   14[COMRAM] unsigned char 
  4530 ;; Return value:  Size  Location     Type
  4531 ;;                  4    2[COMRAM] unsigned long 
  4532 ;; Registers used:
  4533 ;;		wreg, status,2, status,0
  4534 ;; Tracked objects:
  4535 ;;		On entry : 0/0
  4536 ;;		On exit  : 0/0
  4537 ;;		Unchanged: 0/0
  4538 ;; Data sizes:     COMRAM   BANK0   BANK1   BANK2   BANK3   BANK4   BANK5   BANK6   BANK7   BANK8   BANK9  BANK10  BANK1
      +1  BANK12  BANK13  BANK14  BANK15
  4539 ;;      Params:         8       0       0       0       0       0       0       0       0       0       0       0       
      +0       0       0       0       0
  4540 ;;      Locals:         5       0       0       0       0       0       0       0       0       0       0       0       
      +0       0       0       0       0
  4541 ;;      Temps:          0       0       0       0       0       0       0       0       0       0       0       0       
      +0       0       0       0       0
  4542 ;;      Totals:        13       0       0       0       0       0       0       0       0       0       0       0       
      +0       0       0       0       0
  4543 ;;Total ram usage:       13 bytes
  4544 ;; Hardware stack levels used: 1
  4545 ;; Hardware stack levels required when called: 2
  4546 ;; This function calls:
  4547 ;;		Nothing
  4548 ;; This function is called by:
  4549 ;;		_calculate
  4550 ;; This function uses a non-reentrant model
  4551 ;;
  4552                           
  4553                           	psect	text26
  4554   00255E                     __ptext26:
  4555                           	callstack 0
  4556   00255E                     ___lldiv:
  4557                           	callstack 27
  4558   00255E  0E00               	movlw	0
  4559   002560  6E0B               	movwf	___lldiv@quotient^0,c
  4560   002562  0E00               	movlw	0
  4561   002564  6E0C               	movwf	(___lldiv@quotient+1)^0,c
  4562   002566  0E00               	movlw	0
  4563   002568  6E0D               	movwf	(___lldiv@quotient+2)^0,c
  4564   00256A  0E00               	movlw	0
  4565   00256C  6E0E               	movwf	(___lldiv@quotient+3)^0,c
  4566   00256E  5007               	movf	___lldiv@divisor^0,w,c
  4567   002570  1008               	iorwf	(___lldiv@divisor+1)^0,w,c
  4568   002572  1009               	iorwf	(___lldiv@divisor+2)^0,w,c
  4569   002574  100A               	iorwf	(___lldiv@divisor+3)^0,w,c
  4570   002576  B4D8               	btfsc	status,2,c
  4571   002578  EFC0  F012         	goto	u4731
  4572   00257C  EFC2  F012         	goto	u4730
  4573   002580                     u4731:
  4574   002580  EFF8  F012         	goto	l1827
  4575   002584                     u4730:
  4576   002584  0E01               	movlw	1
  4577   002586  6E0F               	movwf	___lldiv@counter^0,c
  4578   002588  EFCC  F012         	goto	l6268
  4579   00258C                     l6266:
  4580   00258C  90D8               	bcf	status,0,c
  4581   00258E  3607               	rlcf	___lldiv@divisor^0,f,c
  4582   002590  3608               	rlcf	(___lldiv@divisor+1)^0,f,c
  4583   002592  3609               	rlcf	(___lldiv@divisor+2)^0,f,c
  4584   002594  360A               	rlcf	(___lldiv@divisor+3)^0,f,c
  4585   002596  2A0F               	incf	___lldiv@counter^0,f,c
  4586   002598                     l6268:
  4587   002598  AE0A               	btfss	(___lldiv@divisor+3)^0,7,c
  4588   00259A  EFD1  F012         	goto	u4741
  4589   00259E  EFD3  F012         	goto	u4740
  4590   0025A2                     u4741:
  4591   0025A2  EFC6  F012         	goto	l6266
  4592   0025A6                     u4740:
  4593   0025A6                     l6270:
  4594   0025A6  90D8               	bcf	status,0,c
  4595   0025A8  360B               	rlcf	___lldiv@quotient^0,f,c
  4596   0025AA  360C               	rlcf	(___lldiv@quotient+1)^0,f,c
  4597   0025AC  360D               	rlcf	(___lldiv@quotient+2)^0,f,c
  4598   0025AE  360E               	rlcf	(___lldiv@quotient+3)^0,f,c
  4599   0025B0  5007               	movf	___lldiv@divisor^0,w,c
  4600   0025B2  5C03               	subwf	___lldiv@dividend^0,w,c
  4601   0025B4  5008               	movf	(___lldiv@divisor+1)^0,w,c
  4602   0025B6  5804               	subwfb	(___lldiv@dividend+1)^0,w,c
  4603   0025B8  5009               	movf	(___lldiv@divisor+2)^0,w,c
  4604   0025BA  5805               	subwfb	(___lldiv@dividend+2)^0,w,c
  4605   0025BC  500A               	movf	(___lldiv@divisor+3)^0,w,c
  4606   0025BE  5806               	subwfb	(___lldiv@dividend+3)^0,w,c
  4607   0025C0  A0D8               	btfss	status,0,c
  4608   0025C2  EFE5  F012         	goto	u4751
  4609   0025C6  EFE7  F012         	goto	u4750
  4610   0025CA                     u4751:
  4611   0025CA  EFF0  F012         	goto	l6278
  4612   0025CE                     u4750:
  4613   0025CE  5007               	movf	___lldiv@divisor^0,w,c
  4614   0025D0  5E03               	subwf	___lldiv@dividend^0,f,c
  4615   0025D2  5008               	movf	(___lldiv@divisor+1)^0,w,c
  4616   0025D4  5A04               	subwfb	(___lldiv@dividend+1)^0,f,c
  4617   0025D6  5009               	movf	(___lldiv@divisor+2)^0,w,c
  4618   0025D8  5A05               	subwfb	(___lldiv@dividend+2)^0,f,c
  4619   0025DA  500A               	movf	(___lldiv@divisor+3)^0,w,c
  4620   0025DC  5A06               	subwfb	(___lldiv@dividend+3)^0,f,c
  4621   0025DE  800B               	bsf	___lldiv@quotient^0,0,c
  4622   0025E0                     l6278:
  4623   0025E0  90D8               	bcf	status,0,c
  4624   0025E2  320A               	rrcf	(___lldiv@divisor+3)^0,f,c
  4625   0025E4  3209               	rrcf	(___lldiv@divisor+2)^0,f,c
  4626   0025E6  3208               	rrcf	(___lldiv@divisor+1)^0,f,c
  4627   0025E8  3207               	rrcf	___lldiv@divisor^0,f,c
  4628   0025EA  2E0F               	decfsz	___lldiv@counter^0,f,c
  4629   0025EC  EFD3  F012         	goto	l6270
  4630   0025F0                     l1827:
  4631   0025F0  C00B  F003         	movff	___lldiv@quotient,?___lldiv
  4632   0025F4  C00C  F004         	movff	___lldiv@quotient+1,?___lldiv+1
  4633   0025F8  C00D  F005         	movff	___lldiv@quotient+2,?___lldiv+2
  4634   0025FC  C00E  F006         	movff	___lldiv@quotient+3,?___lldiv+3
  4635   002600  0012               	return		;funcret
  4636   002602                     __end_of___lldiv:
  4637                           	callstack 0
  4638                           
  4639 ;; *************** function _application_initialize *****************
  4640 ;; Defined at:
  4641 ;;		line 61 in file "application.c"
  4642 ;; Parameters:    Size  Location     Type
  4643 ;;		None
  4644 ;; Auto vars:     Size  Location     Type
  4645 ;;  ret             1    0        unsigned char 
  4646 ;; Return value:  Size  Location     Type
  4647 ;;                  1    wreg      void 
  4648 ;; Registers used:
  4649 ;;		wreg, fsr2l, fsr2h, status,2, status,0, prodl, prodh, cstack
  4650 ;; Tracked objects:
  4651 ;;		On entry : 0/0
  4652 ;;		On exit  : 0/0
  4653 ;;		Unchanged: 0/0
  4654 ;; Data sizes:     COMRAM   BANK0   BANK1   BANK2   BANK3   BANK4   BANK5   BANK6   BANK7   BANK8   BANK9  BANK10  BANK1
      +1  BANK12  BANK13  BANK14  BANK15
  4655 ;;      Params:         0       0       0       0       0       0       0       0       0       0       0       0       
      +0       0       0       0       0
  4656 ;;      Locals:         0       0       0       0       0       0       0       0       0       0       0       0       
      +0       0       0       0       0
  4657 ;;      Temps:          0       0       0       0       0       0       0       0       0       0       0       0       
      +0       0       0       0       0
  4658 ;;      Totals:         0       0       0       0       0       0       0       0       0       0       0       0       
      +0       0       0       0       0
  4659 ;;Total ram usage:        0 bytes
  4660 ;; Hardware stack levels used: 1
  4661 ;; Hardware stack levels required when called: 7
  4662 ;; This function calls:
  4663 ;;		_ecu_layer_init
  4664 ;; This function is called by:
  4665 ;;		_main
  4666 ;; This function uses a non-reentrant model
  4667 ;;
  4668                           
  4669                           	psect	text27
  4670   002DFA                     __ptext27:
  4671                           	callstack 0
  4672   002DFA                     _application_initialize:
  4673                           	callstack 23
  4674   002DFA                     
  4675                           ;application.c: 63:     ecu_layer_init();
  4676   002DFA  EC9A  F016         	call	_ecu_layer_init	;wreg free
  4677   002DFE  0012               	return		;funcret
  4678   002E00                     __end_of_application_initialize:
  4679                           	callstack 0
  4680                           
  4681 ;; *************** function _ecu_layer_init *****************
  4682 ;; Defined at:
  4683 ;;		line 195 in file "ECU_Layer/ecu_layer_init.c"
  4684 ;; Parameters:    Size  Location     Type
  4685 ;;		None
  4686 ;; Auto vars:     Size  Location     Type
  4687 ;;  ret             1    0        unsigned char 
  4688 ;; Return value:  Size  Location     Type
  4689 ;;                  1    wreg      void 
  4690 ;; Registers used:
  4691 ;;		wreg, fsr2l, fsr2h, status,2, status,0, prodl, prodh, cstack
  4692 ;; Tracked objects:
  4693 ;;		On entry : 0/0
  4694 ;;		On exit  : 0/0
  4695 ;;		Unchanged: 0/0
  4696 ;; Data sizes:     COMRAM   BANK0   BANK1   BANK2   BANK3   BANK4   BANK5   BANK6   BANK7   BANK8   BANK9  BANK10  BANK1
      +1  BANK12  BANK13  BANK14  BANK15
  4697 ;;      Params:         0       0       0       0       0       0       0       0       0       0       0       0       
      +0       0       0       0       0
  4698 ;;      Locals:         0       0       0       0       0       0       0       0       0       0       0       0       
      +0       0       0       0       0
  4699 ;;      Temps:          0       0       0       0       0       0       0       0       0       0       0       0       
      +0       0       0       0       0
  4700 ;;      Totals:         0       0       0       0       0       0       0       0       0       0       0       0       
      +0       0       0       0       0
  4701 ;;Total ram usage:        0 bytes
  4702 ;; Hardware stack levels used: 1
  4703 ;; Hardware stack levels required when called: 6
  4704 ;; This function calls:
  4705 ;;		_keypad_initialize
  4706 ;;		_lcd_4bit_intialize
  4707 ;; This function is called by:
  4708 ;;		_application_initialize
  4709 ;; This function uses a non-reentrant model
  4710 ;;
  4711                           
  4712                           	psect	text28
  4713   002D34                     __ptext28:
  4714                           	callstack 0
  4715   002D34                     _ecu_layer_init:
  4716                           	callstack 23
  4717   002D34  0EF7               	movlw	low _lcd_1
  4718   002D36  6E15               	movwf	lcd_4bit_intialize@lcd^0,c
  4719   002D38  0E00               	movlw	high _lcd_1
  4720   002D3A  6E16               	movwf	(lcd_4bit_intialize@lcd+1)^0,c
  4721   002D3C  EC5F  F00F         	call	_lcd_4bit_intialize	;wreg free
  4722   002D40  0EEF               	movlw	low _keypad1
  4723   002D42  6E11               	movwf	keypad_initialize@_keypad_obj^0,c
  4724   002D44  0E00               	movlw	high _keypad1
  4725   002D46  6E12               	movwf	(keypad_initialize@_keypad_obj+1)^0,c
  4726   002D48  EC98  F013         	call	_keypad_initialize	;wreg free
  4727   002D4C  0012               	return		;funcret
  4728   002D4E                     __end_of_ecu_layer_init:
  4729                           	callstack 0
  4730                           
  4731 ;; *************** function _lcd_4bit_intialize *****************
  4732 ;; Defined at:
  4733 ;;		line 23 in file "ECU_Layer/Chr_LCD/ecu_chr_lcd.c"
  4734 ;; Parameters:    Size  Location     Type
  4735 ;;  lcd             2   20[COMRAM] PTR const struct .
  4736 ;;		 -> lcd_1(6), 
  4737 ;; Auto vars:     Size  Location     Type
  4738 ;;  ret             1   25[COMRAM] unsigned char 
  4739 ;;  l_data_pins_    1   24[COMRAM] unsigned char 
  4740 ;; Return value:  Size  Location     Type
  4741 ;;                  1    wreg      unsigned char 
  4742 ;; Registers used:
  4743 ;;		wreg, fsr2l, fsr2h, status,2, status,0, prodl, prodh, cstack
  4744 ;; Tracked objects:
  4745 ;;		On entry : 0/0
  4746 ;;		On exit  : 0/0
  4747 ;;		Unchanged: 0/0
  4748 ;; Data sizes:     COMRAM   BANK0   BANK1   BANK2   BANK3   BANK4   BANK5   BANK6   BANK7   BANK8   BANK9  BANK10  BANK1
      +1  BANK12  BANK13  BANK14  BANK15
  4749 ;;      Params:         2       0       0       0       0       0       0       0       0       0       0       0       
      +0       0       0       0       0
  4750 ;;      Locals:         2       0       0       0       0       0       0       0       0       0       0       0       
      +0       0       0       0       0
  4751 ;;      Temps:          2       0       0       0       0       0       0       0       0       0       0       0       
      +0       0       0       0       0
  4752 ;;      Totals:         6       0       0       0       0       0       0       0       0       0       0       0       
      +0       0       0       0       0
  4753 ;;Total ram usage:        6 bytes
  4754 ;; Hardware stack levels used: 1
  4755 ;; Hardware stack levels required when called: 5
  4756 ;; This function calls:
  4757 ;;		_gpio_pin_intialize
  4758 ;;		_lcd_4bit_send_command
  4759 ;; This function is called by:
  4760 ;;		_ecu_layer_init
  4761 ;; This function uses a non-reentrant model
  4762 ;;
  4763                           
  4764                           	psect	text29
  4765   001EBE                     __ptext29:
  4766                           	callstack 0
  4767   001EBE                     _lcd_4bit_intialize:
  4768                           	callstack 23
  4769   001EBE                     
  4770                           ;ECU_Layer/Chr_LCD/ecu_chr_lcd.c: 25:     uint8 l_data_pins_counter = 0;
  4771   001EBE  0E00               	movlw	0
  4772   001EC0  6E19               	movwf	lcd_4bit_intialize@l_data_pins_counter^0,c
  4773   001EC2                     
  4774                           ;ECU_Layer/Chr_LCD/ecu_chr_lcd.c: 26:     if(((void*)0) == lcd){
  4775   001EC2  5015               	movf	lcd_4bit_intialize@lcd^0,w,c
  4776   001EC4  1016               	iorwf	(lcd_4bit_intialize@lcd+1)^0,w,c
  4777   001EC6  A4D8               	btfss	status,2,c
  4778   001EC8  EF68  F00F         	goto	u4471
  4779   001ECC  EF6A  F00F         	goto	u4470
  4780   001ED0                     u4471:
  4781   001ED0  EF6E  F00F         	goto	l5994
  4782   001ED4                     u4470:
  4783   001ED4                     
  4784                           ;ECU_Layer/Chr_LCD/ecu_chr_lcd.c: 27:         ret = (Std_ReturnType)0x00;
  4785   001ED4  0E00               	movlw	0
  4786   001ED6  6E1A               	movwf	lcd_4bit_intialize@ret^0,c
  4787                           
  4788                           ;ECU_Layer/Chr_LCD/ecu_chr_lcd.c: 28:     }
  4789   001ED8  EFF1  F00F         	goto	l6030
  4790   001EDC                     l5994:
  4791                           
  4792                           ;ECU_Layer/Chr_LCD/ecu_chr_lcd.c: 30:         ret = gpio_pin_intialize(&(lcd->lcd_rs));
  4793   001EDC  C015  F00D         	movff	lcd_4bit_intialize@lcd,gpio_pin_intialize@_pin_config
  4794   001EE0  C016  F00E         	movff	lcd_4bit_intialize@lcd+1,gpio_pin_intialize@_pin_config+1
  4795   001EE4  EC87  F014         	call	_gpio_pin_intialize	;wreg free
  4796   001EE8  6E1A               	movwf	lcd_4bit_intialize@ret^0,c
  4797                           
  4798                           ;ECU_Layer/Chr_LCD/ecu_chr_lcd.c: 31:         ret = gpio_pin_intialize(&(lcd->lcd_en));
  4799   001EEA  0E01               	movlw	1
  4800   001EEC  2415               	addwf	lcd_4bit_intialize@lcd^0,w,c
  4801   001EEE  6E0D               	movwf	gpio_pin_intialize@_pin_config^0,c
  4802   001EF0  0E00               	movlw	0
  4803   001EF2  2016               	addwfc	(lcd_4bit_intialize@lcd+1)^0,w,c
  4804   001EF4  6E0E               	movwf	(gpio_pin_intialize@_pin_config+1)^0,c
  4805   001EF6  EC87  F014         	call	_gpio_pin_intialize	;wreg free
  4806   001EFA  6E1A               	movwf	lcd_4bit_intialize@ret^0,c
  4807   001EFC                     
  4808                           ;ECU_Layer/Chr_LCD/ecu_chr_lcd.c: 32:         for(l_data_pins_counter=0; l_data_pins_cou
      +                          nter<4; l_data_pins_counter++){
  4809   001EFC  0E00               	movlw	0
  4810   001EFE  6E19               	movwf	lcd_4bit_intialize@l_data_pins_counter^0,c
  4811   001F00                     l6002:
  4812   001F00  5019               	movf	lcd_4bit_intialize@l_data_pins_counter^0,w,c
  4813   001F02  2415               	addwf	lcd_4bit_intialize@lcd^0,w,c
  4814   001F04  6E17               	movwf	??_lcd_4bit_intialize^0,c
  4815   001F06  0E00               	movlw	0
  4816   001F08  2016               	addwfc	(lcd_4bit_intialize@lcd+1)^0,w,c
  4817   001F0A  6E18               	movwf	(??_lcd_4bit_intialize+1)^0,c
  4818   001F0C  0E02               	movlw	2
  4819   001F0E  2417               	addwf	??_lcd_4bit_intialize^0,w,c
  4820   001F10  6E0D               	movwf	gpio_pin_intialize@_pin_config^0,c
  4821   001F12  0E00               	movlw	0
  4822   001F14  2018               	addwfc	(??_lcd_4bit_intialize+1)^0,w,c
  4823   001F16  6E0E               	movwf	(gpio_pin_intialize@_pin_config+1)^0,c
  4824   001F18  EC87  F014         	call	_gpio_pin_intialize	;wreg free
  4825   001F1C                     
  4826                           ;ECU_Layer/Chr_LCD/ecu_chr_lcd.c: 34:         }
  4827   001F1C  2A19               	incf	lcd_4bit_intialize@l_data_pins_counter^0,f,c
  4828   001F1E  0E03               	movlw	3
  4829   001F20  6419               	cpfsgt	lcd_4bit_intialize@l_data_pins_counter^0,c
  4830   001F22  EF95  F00F         	goto	u4481
  4831   001F26  EF97  F00F         	goto	u4480
  4832   001F2A                     u4481:
  4833   001F2A  EF80  F00F         	goto	l6002
  4834   001F2E                     u4480:
  4835   001F2E                     
  4836                           ;ECU_Layer/Chr_LCD/ecu_chr_lcd.c: 35:         _delay((unsigned long)((20)*(8000000UL/400
      +                          0.0)));
  4837   001F2E  0E34               	movlw	52
  4838   001F30  6E17               	movwf	??_lcd_4bit_intialize^0,c
  4839   001F32  0EF2               	movlw	242
  4840   001F34                     u7127:
  4841   001F34  2EE8               	decfsz	wreg,f,c
  4842   001F36  D7FE               	bra	u7127
  4843   001F38  2E17               	decfsz	??_lcd_4bit_intialize^0,f,c
  4844   001F3A  D7FC               	bra	u7127
  4845   001F3C  C015  F011         	movff	lcd_4bit_intialize@lcd,lcd_4bit_send_command@lcd
  4846   001F40  C016  F012         	movff	lcd_4bit_intialize@lcd+1,lcd_4bit_send_command@lcd+1
  4847   001F44  0E38               	movlw	56
  4848   001F46  6E13               	movwf	lcd_4bit_send_command@command^0,c
  4849   001F48  EC4E  F014         	call	_lcd_4bit_send_command	;wreg free
  4850   001F4C                     
  4851                           ;ECU_Layer/Chr_LCD/ecu_chr_lcd.c: 37:         _delay((unsigned long)((5)*(8000000UL/4000
      +                          .0)));
  4852   001F4C  0E0D               	movlw	13
  4853   001F4E  6E17               	movwf	??_lcd_4bit_intialize^0,c
  4854   001F50  0EFC               	movlw	252
  4855   001F52                     u7137:
  4856   001F52  2EE8               	decfsz	wreg,f,c
  4857   001F54  D7FE               	bra	u7137
  4858   001F56  2E17               	decfsz	??_lcd_4bit_intialize^0,f,c
  4859   001F58  D7FC               	bra	u7137
  4860   001F5A  C015  F011         	movff	lcd_4bit_intialize@lcd,lcd_4bit_send_command@lcd
  4861   001F5E  C016  F012         	movff	lcd_4bit_intialize@lcd+1,lcd_4bit_send_command@lcd+1
  4862   001F62  0E38               	movlw	56
  4863   001F64  6E13               	movwf	lcd_4bit_send_command@command^0,c
  4864   001F66  EC4E  F014         	call	_lcd_4bit_send_command	;wreg free
  4865   001F6A                     
  4866                           ;ECU_Layer/Chr_LCD/ecu_chr_lcd.c: 39:         _delay((unsigned long)((150)*(8000000UL/40
      +                          00000.0)));
  4867   001F6A  0E64               	movlw	100
  4868   001F6C                     u7147:
  4869   001F6C  2EE8               	decfsz	wreg,f,c
  4870   001F6E  D7FE               	bra	u7147
  4871   001F70  C015  F011         	movff	lcd_4bit_intialize@lcd,lcd_4bit_send_command@lcd
  4872   001F74  C016  F012         	movff	lcd_4bit_intialize@lcd+1,lcd_4bit_send_command@lcd+1
  4873   001F78  0E38               	movlw	56
  4874   001F7A  6E13               	movwf	lcd_4bit_send_command@command^0,c
  4875   001F7C  EC4E  F014         	call	_lcd_4bit_send_command	;wreg free
  4876   001F80  C015  F011         	movff	lcd_4bit_intialize@lcd,lcd_4bit_send_command@lcd
  4877   001F84  C016  F012         	movff	lcd_4bit_intialize@lcd+1,lcd_4bit_send_command@lcd+1
  4878   001F88  0E01               	movlw	1
  4879   001F8A  6E13               	movwf	lcd_4bit_send_command@command^0,c
  4880   001F8C  EC4E  F014         	call	_lcd_4bit_send_command	;wreg free
  4881   001F90  C015  F011         	movff	lcd_4bit_intialize@lcd,lcd_4bit_send_command@lcd
  4882   001F94  C016  F012         	movff	lcd_4bit_intialize@lcd+1,lcd_4bit_send_command@lcd+1
  4883   001F98  0E02               	movlw	2
  4884   001F9A  6E13               	movwf	lcd_4bit_send_command@command^0,c
  4885   001F9C  EC4E  F014         	call	_lcd_4bit_send_command	;wreg free
  4886   001FA0  C015  F011         	movff	lcd_4bit_intialize@lcd,lcd_4bit_send_command@lcd
  4887   001FA4  C016  F012         	movff	lcd_4bit_intialize@lcd+1,lcd_4bit_send_command@lcd+1
  4888   001FA8  0E06               	movlw	6
  4889   001FAA  6E13               	movwf	lcd_4bit_send_command@command^0,c
  4890   001FAC  EC4E  F014         	call	_lcd_4bit_send_command	;wreg free
  4891   001FB0  C015  F011         	movff	lcd_4bit_intialize@lcd,lcd_4bit_send_command@lcd
  4892   001FB4  C016  F012         	movff	lcd_4bit_intialize@lcd+1,lcd_4bit_send_command@lcd+1
  4893   001FB8  0E0C               	movlw	12
  4894   001FBA  6E13               	movwf	lcd_4bit_send_command@command^0,c
  4895   001FBC  EC4E  F014         	call	_lcd_4bit_send_command	;wreg free
  4896   001FC0  C015  F011         	movff	lcd_4bit_intialize@lcd,lcd_4bit_send_command@lcd
  4897   001FC4  C016  F012         	movff	lcd_4bit_intialize@lcd+1,lcd_4bit_send_command@lcd+1
  4898   001FC8  0E28               	movlw	40
  4899   001FCA  6E13               	movwf	lcd_4bit_send_command@command^0,c
  4900   001FCC  EC4E  F014         	call	_lcd_4bit_send_command	;wreg free
  4901   001FD0                     
  4902                           ;ECU_Layer/Chr_LCD/ecu_chr_lcd.c: 47:         ret = lcd_4bit_send_command(lcd, 0x80);
  4903   001FD0  C015  F011         	movff	lcd_4bit_intialize@lcd,lcd_4bit_send_command@lcd
  4904   001FD4  C016  F012         	movff	lcd_4bit_intialize@lcd+1,lcd_4bit_send_command@lcd+1
  4905   001FD8  0E80               	movlw	128
  4906   001FDA  6E13               	movwf	lcd_4bit_send_command@command^0,c
  4907   001FDC  EC4E  F014         	call	_lcd_4bit_send_command	;wreg free
  4908   001FE0  6E1A               	movwf	lcd_4bit_intialize@ret^0,c
  4909   001FE2                     l6030:
  4910                           
  4911                           ;ECU_Layer/Chr_LCD/ecu_chr_lcd.c: 49:     return ret;
  4912   001FE2  501A               	movf	lcd_4bit_intialize@ret^0,w,c
  4913   001FE4  0012               	return		;funcret
  4914   001FE6                     __end_of_lcd_4bit_intialize:
  4915                           	callstack 0
  4916                           
  4917 ;; *************** function _lcd_4bit_send_command *****************
  4918 ;; Defined at:
  4919 ;;		line 60 in file "ECU_Layer/Chr_LCD/ecu_chr_lcd.c"
  4920 ;; Parameters:    Size  Location     Type
  4921 ;;  lcd             2   16[COMRAM] PTR const struct .
  4922 ;;		 -> lcd_1(6), 
  4923 ;;  command         1   18[COMRAM] unsigned char 
  4924 ;; Auto vars:     Size  Location     Type
  4925 ;;  ret             1   19[COMRAM] unsigned char 
  4926 ;; Return value:  Size  Location     Type
  4927 ;;                  1    wreg      unsigned char 
  4928 ;; Registers used:
  4929 ;;		wreg, fsr2l, fsr2h, status,2, status,0, prodl, prodh, cstack
  4930 ;; Tracked objects:
  4931 ;;		On entry : 0/0
  4932 ;;		On exit  : 0/0
  4933 ;;		Unchanged: 0/0
  4934 ;; Data sizes:     COMRAM   BANK0   BANK1   BANK2   BANK3   BANK4   BANK5   BANK6   BANK7   BANK8   BANK9  BANK10  BANK1
      +1  BANK12  BANK13  BANK14  BANK15
  4935 ;;      Params:         3       0       0       0       0       0       0       0       0       0       0       0       
      +0       0       0       0       0
  4936 ;;      Locals:         1       0       0       0       0       0       0       0       0       0       0       0       
      +0       0       0       0       0
  4937 ;;      Temps:          0       0       0       0       0       0       0       0       0       0       0       0       
      +0       0       0       0       0
  4938 ;;      Totals:         4       0       0       0       0       0       0       0       0       0       0       0       
      +0       0       0       0       0
  4939 ;;Total ram usage:        4 bytes
  4940 ;; Hardware stack levels used: 1
  4941 ;; Hardware stack levels required when called: 4
  4942 ;; This function calls:
  4943 ;;		_gpio_pin_write_logic
  4944 ;;		_lcd_4bit_send_enable_signal
  4945 ;;		_lcd_send_4bits
  4946 ;; This function is called by:
  4947 ;;		_lcd_4bit_intialize
  4948 ;;		_lcd_4bit_clear
  4949 ;;		_lcd_4bit_set_cursor
  4950 ;;		_lcd_4bit_send_custom_char
  4951 ;;		_lcd_8bit_clear
  4952 ;; This function uses a non-reentrant model
  4953 ;;
  4954                           
  4955                           	psect	text30
  4956   00289C                     __ptext30:
  4957                           	callstack 0
  4958   00289C                     _lcd_4bit_send_command:
  4959                           	callstack 23
  4960   00289C                     
  4961                           ;ECU_Layer/Chr_LCD/ecu_chr_lcd.c: 62:     if(((void*)0) == lcd){
  4962   00289C  5011               	movf	lcd_4bit_send_command@lcd^0,w,c
  4963   00289E  1012               	iorwf	(lcd_4bit_send_command@lcd+1)^0,w,c
  4964   0028A0  A4D8               	btfss	status,2,c
  4965   0028A2  EF55  F014         	goto	u4451
  4966   0028A6  EF57  F014         	goto	u4450
  4967   0028AA                     u4451:
  4968   0028AA  EF5B  F014         	goto	l5972
  4969   0028AE                     u4450:
  4970   0028AE                     
  4971                           ;ECU_Layer/Chr_LCD/ecu_chr_lcd.c: 63:         ret = (Std_ReturnType)0x00;
  4972   0028AE  0E00               	movlw	0
  4973   0028B0  6E14               	movwf	lcd_4bit_send_command@ret^0,c
  4974                           
  4975                           ;ECU_Layer/Chr_LCD/ecu_chr_lcd.c: 64:     }
  4976   0028B2  EF85  F014         	goto	l5974
  4977   0028B6                     l5972:
  4978                           
  4979                           ;ECU_Layer/Chr_LCD/ecu_chr_lcd.c: 68:         ret = gpio_pin_write_logic(&(lcd->lcd_rs),
      +                           GPIO_LOW);
  4980   0028B6  C011  F003         	movff	lcd_4bit_send_command@lcd,gpio_pin_write_logic@_pin_config
  4981   0028BA  C012  F004         	movff	lcd_4bit_send_command@lcd+1,gpio_pin_write_logic@_pin_config+1
  4982   0028BE  0E00               	movlw	0
  4983   0028C0  6E05               	movwf	gpio_pin_write_logic@logic^0,c
  4984   0028C2  ECC9  F00E         	call	_gpio_pin_write_logic	;wreg free
  4985   0028C6  6E14               	movwf	lcd_4bit_send_command@ret^0,c
  4986                           
  4987                           ;ECU_Layer/Chr_LCD/ecu_chr_lcd.c: 70:         ret = lcd_send_4bits(lcd, command >> 4);
  4988   0028C8  C011  F00D         	movff	lcd_4bit_send_command@lcd,lcd_send_4bits@lcd
  4989   0028CC  C012  F00E         	movff	lcd_4bit_send_command@lcd+1,lcd_send_4bits@lcd+1
  4990   0028D0  3813               	swapf	lcd_4bit_send_command@command^0,w,c
  4991   0028D2  0B0F               	andlw	15
  4992   0028D4  6E0F               	movwf	lcd_send_4bits@_data_command^0,c
  4993   0028D6  ECF2  F014         	call	_lcd_send_4bits	;wreg free
  4994   0028DA  6E14               	movwf	lcd_4bit_send_command@ret^0,c
  4995                           
  4996                           ;ECU_Layer/Chr_LCD/ecu_chr_lcd.c: 72:         ret = lcd_4bit_send_enable_signal(lcd);
  4997   0028DC  C011  F00D         	movff	lcd_4bit_send_command@lcd,lcd_4bit_send_enable_signal@lcd
  4998   0028E0  C012  F00E         	movff	lcd_4bit_send_command@lcd+1,lcd_4bit_send_enable_signal@lcd+1
  4999   0028E4  EC2A  F016         	call	_lcd_4bit_send_enable_signal	;wreg free
  5000   0028E8  6E14               	movwf	lcd_4bit_send_command@ret^0,c
  5001                           
  5002                           ;ECU_Layer/Chr_LCD/ecu_chr_lcd.c: 74:         ret = lcd_send_4bits(lcd, command);
  5003   0028EA  C011  F00D         	movff	lcd_4bit_send_command@lcd,lcd_send_4bits@lcd
  5004   0028EE  C012  F00E         	movff	lcd_4bit_send_command@lcd+1,lcd_send_4bits@lcd+1
  5005   0028F2  C013  F00F         	movff	lcd_4bit_send_command@command,lcd_send_4bits@_data_command
  5006   0028F6  ECF2  F014         	call	_lcd_send_4bits	;wreg free
  5007   0028FA  6E14               	movwf	lcd_4bit_send_command@ret^0,c
  5008                           
  5009                           ;ECU_Layer/Chr_LCD/ecu_chr_lcd.c: 76:         ret = lcd_4bit_send_enable_signal(lcd);
  5010   0028FC  C011  F00D         	movff	lcd_4bit_send_command@lcd,lcd_4bit_send_enable_signal@lcd
  5011   002900  C012  F00E         	movff	lcd_4bit_send_command@lcd+1,lcd_4bit_send_enable_signal@lcd+1
  5012   002904  EC2A  F016         	call	_lcd_4bit_send_enable_signal	;wreg free
  5013   002908  6E14               	movwf	lcd_4bit_send_command@ret^0,c
  5014   00290A                     l5974:
  5015                           
  5016                           ;ECU_Layer/Chr_LCD/ecu_chr_lcd.c: 78:     return ret;
  5017   00290A  5014               	movf	lcd_4bit_send_command@ret^0,w,c
  5018   00290C  0012               	return		;funcret
  5019   00290E                     __end_of_lcd_4bit_send_command:
  5020                           	callstack 0
  5021                           
  5022 ;; *************** function _lcd_send_4bits *****************
  5023 ;; Defined at:
  5024 ;;		line 479 in file "ECU_Layer/Chr_LCD/ecu_chr_lcd.c"
  5025 ;; Parameters:    Size  Location     Type
  5026 ;;  lcd             2   12[COMRAM] PTR const struct .
  5027 ;;		 -> lcd_1(6), 
  5028 ;;  _data_comman    1   14[COMRAM] unsigned char 
  5029 ;; Auto vars:     Size  Location     Type
  5030 ;;  ret             1   15[COMRAM] unsigned char 
  5031 ;; Return value:  Size  Location     Type
  5032 ;;                  1    wreg      unsigned char 
  5033 ;; Registers used:
  5034 ;;		wreg, fsr2l, fsr2h, status,2, status,0, prodl, prodh, cstack
  5035 ;; Tracked objects:
  5036 ;;		On entry : 0/0
  5037 ;;		On exit  : 0/0
  5038 ;;		Unchanged: 0/0
  5039 ;; Data sizes:     COMRAM   BANK0   BANK1   BANK2   BANK3   BANK4   BANK5   BANK6   BANK7   BANK8   BANK9  BANK10  BANK1
      +1  BANK12  BANK13  BANK14  BANK15
  5040 ;;      Params:         3       0       0       0       0       0       0       0       0       0       0       0       
      +0       0       0       0       0
  5041 ;;      Locals:         1       0       0       0       0       0       0       0       0       0       0       0       
      +0       0       0       0       0
  5042 ;;      Temps:          0       0       0       0       0       0       0       0       0       0       0       0       
      +0       0       0       0       0
  5043 ;;      Totals:         4       0       0       0       0       0       0       0       0       0       0       0       
      +0       0       0       0       0
  5044 ;;Total ram usage:        4 bytes
  5045 ;; Hardware stack levels used: 1
  5046 ;; Hardware stack levels required when called: 3
  5047 ;; This function calls:
  5048 ;;		_gpio_pin_write_logic
  5049 ;; This function is called by:
  5050 ;;		_lcd_4bit_send_command
  5051 ;;		_lcd_4bit_send_char_data
  5052 ;; This function uses a non-reentrant model
  5053 ;;
  5054                           
  5055                           	psect	text31
  5056   0029E4                     __ptext31:
  5057                           	callstack 0
  5058   0029E4                     _lcd_send_4bits:
  5059                           	callstack 23
  5060   0029E4  0E02               	movlw	2
  5061   0029E6  240D               	addwf	lcd_send_4bits@lcd^0,w,c
  5062   0029E8  6E03               	movwf	gpio_pin_write_logic@_pin_config^0,c
  5063   0029EA  0E00               	movlw	0
  5064   0029EC  200E               	addwfc	(lcd_send_4bits@lcd+1)^0,w,c
  5065   0029EE  6E04               	movwf	(gpio_pin_write_logic@_pin_config+1)^0,c
  5066   0029F0  500F               	movf	lcd_send_4bits@_data_command^0,w,c
  5067   0029F2  0B01               	andlw	1
  5068   0029F4  6E05               	movwf	gpio_pin_write_logic@logic^0,c
  5069   0029F6  ECC9  F00E         	call	_gpio_pin_write_logic	;wreg free
  5070   0029FA  0E03               	movlw	3
  5071   0029FC  240D               	addwf	lcd_send_4bits@lcd^0,w,c
  5072   0029FE  6E03               	movwf	gpio_pin_write_logic@_pin_config^0,c
  5073   002A00  0E00               	movlw	0
  5074   002A02  200E               	addwfc	(lcd_send_4bits@lcd+1)^0,w,c
  5075   002A04  6E04               	movwf	(gpio_pin_write_logic@_pin_config+1)^0,c
  5076   002A06  90D8               	bcf	status,0,c
  5077   002A08  300F               	rrcf	lcd_send_4bits@_data_command^0,w,c
  5078   002A0A  0B01               	andlw	1
  5079   002A0C  6E05               	movwf	gpio_pin_write_logic@logic^0,c
  5080   002A0E  ECC9  F00E         	call	_gpio_pin_write_logic	;wreg free
  5081   002A12  0E04               	movlw	4
  5082   002A14  240D               	addwf	lcd_send_4bits@lcd^0,w,c
  5083   002A16  6E03               	movwf	gpio_pin_write_logic@_pin_config^0,c
  5084   002A18  0E00               	movlw	0
  5085   002A1A  200E               	addwfc	(lcd_send_4bits@lcd+1)^0,w,c
  5086   002A1C  6E04               	movwf	(gpio_pin_write_logic@_pin_config+1)^0,c
  5087   002A1E  400F               	rrncf	lcd_send_4bits@_data_command^0,w,c
  5088   002A20  42E8               	rrncf	wreg,f,c
  5089   002A22  0B3F               	andlw	63
  5090   002A24  0B01               	andlw	1
  5091   002A26  6E05               	movwf	gpio_pin_write_logic@logic^0,c
  5092   002A28  ECC9  F00E         	call	_gpio_pin_write_logic	;wreg free
  5093   002A2C                     
  5094                           ;ECU_Layer/Chr_LCD/ecu_chr_lcd.c: 484:     ret = gpio_pin_write_logic(&(lcd->lcd_data[3]
      +                          ), (_data_command >> 3) & (uint8)0x01);
  5095   002A2C  0E05               	movlw	5
  5096   002A2E  240D               	addwf	lcd_send_4bits@lcd^0,w,c
  5097   002A30  6E03               	movwf	gpio_pin_write_logic@_pin_config^0,c
  5098   002A32  0E00               	movlw	0
  5099   002A34  200E               	addwfc	(lcd_send_4bits@lcd+1)^0,w,c
  5100   002A36  6E04               	movwf	(gpio_pin_write_logic@_pin_config+1)^0,c
  5101   002A38  380F               	swapf	lcd_send_4bits@_data_command^0,w,c
  5102   002A3A  46E8               	rlncf	wreg,f,c
  5103   002A3C  0B1F               	andlw	31
  5104   002A3E  0B01               	andlw	1
  5105   002A40  6E05               	movwf	gpio_pin_write_logic@logic^0,c
  5106   002A42  ECC9  F00E         	call	_gpio_pin_write_logic	;wreg free
  5107   002A46  6E10               	movwf	lcd_send_4bits@ret^0,c
  5108                           
  5109                           ;ECU_Layer/Chr_LCD/ecu_chr_lcd.c: 485:     return ret;
  5110   002A48  5010               	movf	lcd_send_4bits@ret^0,w,c
  5111   002A4A  0012               	return		;funcret
  5112   002A4C                     __end_of_lcd_send_4bits:
  5113                           	callstack 0
  5114                           
  5115 ;; *************** function _lcd_4bit_send_enable_signal *****************
  5116 ;; Defined at:
  5117 ;;		line 495 in file "ECU_Layer/Chr_LCD/ecu_chr_lcd.c"
  5118 ;; Parameters:    Size  Location     Type
  5119 ;;  lcd             2   12[COMRAM] PTR const struct .
  5120 ;;		 -> lcd_1(6), 
  5121 ;; Auto vars:     Size  Location     Type
  5122 ;;  ret             1   14[COMRAM] unsigned char 
  5123 ;; Return value:  Size  Location     Type
  5124 ;;                  1    wreg      unsigned char 
  5125 ;; Registers used:
  5126 ;;		wreg, fsr2l, fsr2h, status,2, status,0, prodl, prodh, cstack
  5127 ;; Tracked objects:
  5128 ;;		On entry : 0/0
  5129 ;;		On exit  : 0/0
  5130 ;;		Unchanged: 0/0
  5131 ;; Data sizes:     COMRAM   BANK0   BANK1   BANK2   BANK3   BANK4   BANK5   BANK6   BANK7   BANK8   BANK9  BANK10  BANK1
      +1  BANK12  BANK13  BANK14  BANK15
  5132 ;;      Params:         2       0       0       0       0       0       0       0       0       0       0       0       
      +0       0       0       0       0
  5133 ;;      Locals:         1       0       0       0       0       0       0       0       0       0       0       0       
      +0       0       0       0       0
  5134 ;;      Temps:          0       0       0       0       0       0       0       0       0       0       0       0       
      +0       0       0       0       0
  5135 ;;      Totals:         3       0       0       0       0       0       0       0       0       0       0       0       
      +0       0       0       0       0
  5136 ;;Total ram usage:        3 bytes
  5137 ;; Hardware stack levels used: 1
  5138 ;; Hardware stack levels required when called: 3
  5139 ;; This function calls:
  5140 ;;		_gpio_pin_write_logic
  5141 ;; This function is called by:
  5142 ;;		_lcd_4bit_send_command
  5143 ;;		_lcd_4bit_send_char_data
  5144 ;; This function uses a non-reentrant model
  5145 ;;
  5146                           
  5147                           	psect	text32
  5148   002C54                     __ptext32:
  5149                           	callstack 0
  5150   002C54                     _lcd_4bit_send_enable_signal:
  5151                           	callstack 23
  5152   002C54  0E01               	movlw	1
  5153   002C56  240D               	addwf	lcd_4bit_send_enable_signal@lcd^0,w,c
  5154   002C58  6E03               	movwf	gpio_pin_write_logic@_pin_config^0,c
  5155   002C5A  0E00               	movlw	0
  5156   002C5C  200E               	addwfc	(lcd_4bit_send_enable_signal@lcd+1)^0,w,c
  5157   002C5E  6E04               	movwf	(gpio_pin_write_logic@_pin_config+1)^0,c
  5158   002C60  0E01               	movlw	1
  5159   002C62  6E05               	movwf	gpio_pin_write_logic@logic^0,c
  5160   002C64  ECC9  F00E         	call	_gpio_pin_write_logic	;wreg free
  5161   002C68                     
  5162                           ;ECU_Layer/Chr_LCD/ecu_chr_lcd.c: 498:     _delay((unsigned long)((5)*(8000000UL/4000000
      +                          .0)));
  5163   002C68  0E03               	movlw	3
  5164   002C6A                     u7157:
  5165   002C6A  2EE8               	decfsz	wreg,f,c
  5166   002C6C  D7FE               	bra	u7157
  5167   002C6E  F000               	nop	
  5168   002C70                     
  5169                           ;ECU_Layer/Chr_LCD/ecu_chr_lcd.c: 499:     ret = gpio_pin_write_logic(&(lcd->lcd_en), GP
      +                          IO_LOW);
  5170   002C70  0E01               	movlw	1
  5171   002C72  240D               	addwf	lcd_4bit_send_enable_signal@lcd^0,w,c
  5172   002C74  6E03               	movwf	gpio_pin_write_logic@_pin_config^0,c
  5173   002C76  0E00               	movlw	0
  5174   002C78  200E               	addwfc	(lcd_4bit_send_enable_signal@lcd+1)^0,w,c
  5175   002C7A  6E04               	movwf	(gpio_pin_write_logic@_pin_config+1)^0,c
  5176   002C7C  0E00               	movlw	0
  5177   002C7E  6E05               	movwf	gpio_pin_write_logic@logic^0,c
  5178   002C80  ECC9  F00E         	call	_gpio_pin_write_logic	;wreg free
  5179   002C84  6E0F               	movwf	lcd_4bit_send_enable_signal@ret^0,c
  5180   002C86                     
  5181                           ;ECU_Layer/Chr_LCD/ecu_chr_lcd.c: 500:     return ret;
  5182   002C86  500F               	movf	lcd_4bit_send_enable_signal@ret^0,w,c
  5183   002C88  0012               	return		;funcret
  5184   002C8A                     __end_of_lcd_4bit_send_enable_signal:
  5185                           	callstack 0
  5186                           
  5187 ;; *************** function _keypad_initialize *****************
  5188 ;; Defined at:
  5189 ;;		line 24 in file "ECU_Layer/KeyPad/ecu_keypad.c"
  5190 ;; Parameters:    Size  Location     Type
  5191 ;;  _keypad_obj     2   16[COMRAM] PTR const struct .
  5192 ;;		 -> keypad1(8), 
  5193 ;; Auto vars:     Size  Location     Type
  5194 ;;  columns_coun    1   22[COMRAM] unsigned char 
  5195 ;;  rows_counter    1   21[COMRAM] unsigned char 
  5196 ;;  ret             1   20[COMRAM] unsigned char 
  5197 ;; Return value:  Size  Location     Type
  5198 ;;                  1    wreg      unsigned char 
  5199 ;; Registers used:
  5200 ;;		wreg, fsr2l, fsr2h, status,2, status,0, prodl, prodh, cstack
  5201 ;; Tracked objects:
  5202 ;;		On entry : 0/0
  5203 ;;		On exit  : 0/0
  5204 ;;		Unchanged: 0/0
  5205 ;; Data sizes:     COMRAM   BANK0   BANK1   BANK2   BANK3   BANK4   BANK5   BANK6   BANK7   BANK8   BANK9  BANK10  BANK1
      +1  BANK12  BANK13  BANK14  BANK15
  5206 ;;      Params:         2       0       0       0       0       0       0       0       0       0       0       0       
      +0       0       0       0       0
  5207 ;;      Locals:         3       0       0       0       0       0       0       0       0       0       0       0       
      +0       0       0       0       0
  5208 ;;      Temps:          2       0       0       0       0       0       0       0       0       0       0       0       
      +0       0       0       0       0
  5209 ;;      Totals:         7       0       0       0       0       0       0       0       0       0       0       0       
      +0       0       0       0       0
  5210 ;;Total ram usage:        7 bytes
  5211 ;; Hardware stack levels used: 1
  5212 ;; Hardware stack levels required when called: 4
  5213 ;; This function calls:
  5214 ;;		_gpio_pin_direction_intialize
  5215 ;;		_gpio_pin_intialize
  5216 ;; This function is called by:
  5217 ;;		_ecu_layer_init
  5218 ;; This function uses a non-reentrant model
  5219 ;;
  5220                           
  5221                           	psect	text33
  5222   002730                     __ptext33:
  5223                           	callstack 0
  5224   002730                     _keypad_initialize:
  5225                           	callstack 24
  5226   002730                     
  5227                           ;ECU_Layer/KeyPad/ecu_keypad.c: 26:     uint8 rows_counter = 0, columns_counter = 0;
  5228   002730  0E00               	movlw	0
  5229   002732  6E16               	movwf	keypad_initialize@rows_counter^0,c
  5230   002734  0E00               	movlw	0
  5231   002736  6E17               	movwf	keypad_initialize@columns_counter^0,c
  5232   002738                     
  5233                           ;ECU_Layer/KeyPad/ecu_keypad.c: 27:     if(((void*)0) == _keypad_obj){
  5234   002738  5011               	movf	keypad_initialize@_keypad_obj^0,w,c
  5235   00273A  1012               	iorwf	(keypad_initialize@_keypad_obj+1)^0,w,c
  5236   00273C  A4D8               	btfss	status,2,c
  5237   00273E  EFA3  F013         	goto	u4551
  5238   002742  EFA5  F013         	goto	u4550
  5239   002746                     u4551:
  5240   002746  EFA9  F013         	goto	l6118
  5241   00274A                     u4550:
  5242   00274A                     
  5243                           ;ECU_Layer/KeyPad/ecu_keypad.c: 28:         ret = (Std_ReturnType)0x00;
  5244   00274A  0E00               	movlw	0
  5245   00274C  6E15               	movwf	keypad_initialize@ret^0,c
  5246                           
  5247                           ;ECU_Layer/KeyPad/ecu_keypad.c: 29:     }
  5248   00274E  EFD6  F013         	goto	l6142
  5249   002752                     l6118:
  5250                           
  5251                           ;ECU_Layer/KeyPad/ecu_keypad.c: 31:         for(rows_counter=0; rows_counter<4; rows_cou
      +                          nter++){
  5252   002752  0E00               	movlw	0
  5253   002754  6E16               	movwf	keypad_initialize@rows_counter^0,c
  5254   002756                     l6124:
  5255   002756  5016               	movf	keypad_initialize@rows_counter^0,w,c
  5256   002758  2411               	addwf	keypad_initialize@_keypad_obj^0,w,c
  5257   00275A  6E0D               	movwf	gpio_pin_intialize@_pin_config^0,c
  5258   00275C  0E00               	movlw	0
  5259   00275E  2012               	addwfc	(keypad_initialize@_keypad_obj+1)^0,w,c
  5260   002760  6E0E               	movwf	(gpio_pin_intialize@_pin_config+1)^0,c
  5261   002762  EC87  F014         	call	_gpio_pin_intialize	;wreg free
  5262   002766                     
  5263                           ;ECU_Layer/KeyPad/ecu_keypad.c: 33:         }
  5264   002766  2A16               	incf	keypad_initialize@rows_counter^0,f,c
  5265   002768  0E03               	movlw	3
  5266   00276A  6416               	cpfsgt	keypad_initialize@rows_counter^0,c
  5267   00276C  EFBA  F013         	goto	u4561
  5268   002770  EFBC  F013         	goto	u4560
  5269   002774                     u4561:
  5270   002774  EFAB  F013         	goto	l6124
  5271   002778                     u4560:
  5272   002778                     
  5273                           ;ECU_Layer/KeyPad/ecu_keypad.c: 34:         for(columns_counter=0; columns_counter<4; co
      +                          lumns_counter++){
  5274   002778  0E00               	movlw	0
  5275   00277A  6E17               	movwf	keypad_initialize@columns_counter^0,c
  5276   00277C                     l6136:
  5277                           
  5278                           ;ECU_Layer/KeyPad/ecu_keypad.c: 35:             ret = gpio_pin_direction_intialize(&(_ke
      +                          ypad_obj->keypad_columns_pins[columns_counter]));
  5279   00277C  5017               	movf	keypad_initialize@columns_counter^0,w,c
  5280   00277E  2411               	addwf	keypad_initialize@_keypad_obj^0,w,c
  5281   002780  6E13               	movwf	??_keypad_initialize^0,c
  5282   002782  0E00               	movlw	0
  5283   002784  2012               	addwfc	(keypad_initialize@_keypad_obj+1)^0,w,c
  5284   002786  6E14               	movwf	(??_keypad_initialize+1)^0,c
  5285   002788  0E04               	movlw	4
  5286   00278A  2413               	addwf	??_keypad_initialize^0,w,c
  5287   00278C  6E03               	movwf	gpio_pin_direction_intialize@_pin_config^0,c
  5288   00278E  0E00               	movlw	0
  5289   002790  2014               	addwfc	(??_keypad_initialize+1)^0,w,c
  5290   002792  6E04               	movwf	(gpio_pin_direction_intialize@_pin_config+1)^0,c
  5291   002794  EC91  F00D         	call	_gpio_pin_direction_intialize	;wreg free
  5292   002798  6E15               	movwf	keypad_initialize@ret^0,c
  5293   00279A                     
  5294                           ;ECU_Layer/KeyPad/ecu_keypad.c: 36:         }
  5295   00279A  2A17               	incf	keypad_initialize@columns_counter^0,f,c
  5296   00279C  0E03               	movlw	3
  5297   00279E  6417               	cpfsgt	keypad_initialize@columns_counter^0,c
  5298   0027A0  EFD4  F013         	goto	u4571
  5299   0027A4  EFD6  F013         	goto	u4570
  5300   0027A8                     u4571:
  5301   0027A8  EFBE  F013         	goto	l6136
  5302   0027AC                     u4570:
  5303   0027AC                     l6142:
  5304                           
  5305                           ;ECU_Layer/KeyPad/ecu_keypad.c: 38:     return ret;
  5306   0027AC  5015               	movf	keypad_initialize@ret^0,w,c
  5307   0027AE  0012               	return		;funcret
  5308   0027B0                     __end_of_keypad_initialize:
  5309                           	callstack 0
  5310                           
  5311 ;; *************** function _gpio_pin_intialize *****************
  5312 ;; Defined at:
  5313 ;;		line 144 in file "MCAL_Layer/GPIO/hal_gpio.c"
  5314 ;; Parameters:    Size  Location     Type
  5315 ;;  _pin_config     2   12[COMRAM] PTR const struct .
  5316 ;;		 -> keypad1.keypad_row_pins(4), keypad1(8), lcd_1.lcd_data(4), lcd_1(6), 
  5317 ;; Auto vars:     Size  Location     Type
  5318 ;;  ret             1   15[COMRAM] unsigned char 
  5319 ;; Return value:  Size  Location     Type
  5320 ;;                  1    wreg      unsigned char 
  5321 ;; Registers used:
  5322 ;;		wreg, fsr2l, fsr2h, status,2, status,0, prodl, prodh, cstack
  5323 ;; Tracked objects:
  5324 ;;		On entry : 0/0
  5325 ;;		On exit  : 0/0
  5326 ;;		Unchanged: 0/0
  5327 ;; Data sizes:     COMRAM   BANK0   BANK1   BANK2   BANK3   BANK4   BANK5   BANK6   BANK7   BANK8   BANK9  BANK10  BANK1
      +1  BANK12  BANK13  BANK14  BANK15
  5328 ;;      Params:         2       0       0       0       0       0       0       0       0       0       0       0       
      +0       0       0       0       0
  5329 ;;      Locals:         1       0       0       0       0       0       0       0       0       0       0       0       
      +0       0       0       0       0
  5330 ;;      Temps:          1       0       0       0       0       0       0       0       0       0       0       0       
      +0       0       0       0       0
  5331 ;;      Totals:         4       0       0       0       0       0       0       0       0       0       0       0       
      +0       0       0       0       0
  5332 ;;Total ram usage:        4 bytes
  5333 ;; Hardware stack levels used: 1
  5334 ;; Hardware stack levels required when called: 3
  5335 ;; This function calls:
  5336 ;;		_gpio_pin_direction_intialize
  5337 ;;		_gpio_pin_write_logic
  5338 ;; This function is called by:
  5339 ;;		_lcd_4bit_intialize
  5340 ;;		_keypad_initialize
  5341 ;;		_seven_segement_intialize
  5342 ;;		_lcd_8bit_intialize
  5343 ;;		_dc_motor_initialize
  5344 ;;		_led_initialize
  5345 ;;		_relay_initialize
  5346 ;;		_Ultrasonic_Init
  5347 ;;		_CCP_Init
  5348 ;; This function uses a non-reentrant model
  5349 ;;
  5350                           
  5351                           	psect	text34
  5352   00290E                     __ptext34:
  5353                           	callstack 0
  5354   00290E                     _gpio_pin_intialize:
  5355                           	callstack 24
  5356   00290E                     
  5357                           ;MCAL_Layer/GPIO/hal_gpio.c: 146:     if(((void*)0) == _pin_config || _pin_config->pin >
      +                           8 -1){
  5358   00290E  500D               	movf	gpio_pin_intialize@_pin_config^0,w,c
  5359   002910  100E               	iorwf	(gpio_pin_intialize@_pin_config+1)^0,w,c
  5360   002912  B4D8               	btfsc	status,2,c
  5361   002914  EF8E  F014         	goto	u4431
  5362   002918  EF90  F014         	goto	u4430
  5363   00291C                     u4431:
  5364   00291C  EFA1  F014         	goto	l5958
  5365   002920                     u4430:
  5366   002920  C00D  FFD9         	movff	gpio_pin_intialize@_pin_config,fsr2l
  5367   002924  C00E  FFDA         	movff	gpio_pin_intialize@_pin_config+1,fsr2h
  5368   002928  30DF               	rrcf	223,w,c
  5369   00292A  32E8               	rrcf	wreg,f,c
  5370   00292C  32E8               	rrcf	wreg,f,c
  5371   00292E  0B07               	andlw	7
  5372   002930  6E0F               	movwf	??_gpio_pin_intialize^0,c
  5373   002932  0E07               	movlw	7
  5374   002934  640F               	cpfsgt	??_gpio_pin_intialize^0,c
  5375   002936  EF9F  F014         	goto	u4441
  5376   00293A  EFA1  F014         	goto	u4440
  5377   00293E                     u4441:
  5378   00293E  EFA5  F014         	goto	l5960
  5379   002942                     u4440:
  5380   002942                     l5958:
  5381                           
  5382                           ;MCAL_Layer/GPIO/hal_gpio.c: 147:         ret = (Std_ReturnType)0x00;
  5383   002942  0E00               	movlw	0
  5384   002944  6E10               	movwf	gpio_pin_intialize@ret^0,c
  5385                           
  5386                           ;MCAL_Layer/GPIO/hal_gpio.c: 148:     }
  5387   002946  EFBB  F014         	goto	l5962
  5388   00294A                     l5960:
  5389                           
  5390                           ;MCAL_Layer/GPIO/hal_gpio.c: 150:         ret = gpio_pin_direction_intialize(_pin_config
      +                          );
  5391   00294A  C00D  F003         	movff	gpio_pin_intialize@_pin_config,gpio_pin_direction_intialize@_pin_config
  5392   00294E  C00E  F004         	movff	gpio_pin_intialize@_pin_config+1,gpio_pin_direction_intialize@_pin_config+1
  5393   002952  EC91  F00D         	call	_gpio_pin_direction_intialize	;wreg free
  5394   002956  6E10               	movwf	gpio_pin_intialize@ret^0,c
  5395                           
  5396                           ;MCAL_Layer/GPIO/hal_gpio.c: 151:         ret = gpio_pin_write_logic(_pin_config, _pin_c
      +                          onfig->logic);
  5397   002958  C00D  F003         	movff	gpio_pin_intialize@_pin_config,gpio_pin_write_logic@_pin_config
  5398   00295C  C00E  F004         	movff	gpio_pin_intialize@_pin_config+1,gpio_pin_write_logic@_pin_config+1
  5399   002960  C00D  FFD9         	movff	gpio_pin_intialize@_pin_config,fsr2l
  5400   002964  C00E  FFDA         	movff	gpio_pin_intialize@_pin_config+1,fsr2h
  5401   002968  0E00               	movlw	0
  5402   00296A  BEDF               	btfsc	indf2,7,c
  5403   00296C  0E01               	movlw	1
  5404   00296E  6E05               	movwf	gpio_pin_write_logic@logic^0,c
  5405   002970  ECC9  F00E         	call	_gpio_pin_write_logic	;wreg free
  5406   002974  6E10               	movwf	gpio_pin_intialize@ret^0,c
  5407   002976                     l5962:
  5408                           
  5409                           ;MCAL_Layer/GPIO/hal_gpio.c: 153:     return ret;
  5410   002976  5010               	movf	gpio_pin_intialize@ret^0,w,c
  5411   002978  0012               	return		;funcret
  5412   00297A                     __end_of_gpio_pin_intialize:
  5413                           	callstack 0
  5414                           
  5415 ;; *************** function _gpio_pin_write_logic *****************
  5416 ;; Defined at:
  5417 ;;		line 75 in file "MCAL_Layer/GPIO/hal_gpio.c"
  5418 ;; Parameters:    Size  Location     Type
  5419 ;;  _pin_config     2    2[COMRAM] PTR const struct .
  5420 ;;		 -> keypad1.keypad_row_pins(4), keypad1(8), lcd_1.lcd_data(4), lcd_1(6), 
  5421 ;;  logic           1    4[COMRAM] enum E3462
  5422 ;; Auto vars:     Size  Location     Type
  5423 ;;  ret             1   11[COMRAM] unsigned char 
  5424 ;; Return value:  Size  Location     Type
  5425 ;;                  1    wreg      unsigned char 
  5426 ;; Registers used:
  5427 ;;		wreg, fsr2l, fsr2h, status,2, status,0, prodl, prodh
  5428 ;; Tracked objects:
  5429 ;;		On entry : 0/0
  5430 ;;		On exit  : 0/0
  5431 ;;		Unchanged: 0/0
  5432 ;; Data sizes:     COMRAM   BANK0   BANK1   BANK2   BANK3   BANK4   BANK5   BANK6   BANK7   BANK8   BANK9  BANK10  BANK1
      +1  BANK12  BANK13  BANK14  BANK15
  5433 ;;      Params:         3       0       0       0       0       0       0       0       0       0       0       0       
      +0       0       0       0       0
  5434 ;;      Locals:         1       0       0       0       0       0       0       0       0       0       0       0       
      +0       0       0       0       0
  5435 ;;      Temps:          6       0       0       0       0       0       0       0       0       0       0       0       
      +0       0       0       0       0
  5436 ;;      Totals:        10       0       0       0       0       0       0       0       0       0       0       0       
      +0       0       0       0       0
  5437 ;;Total ram usage:       10 bytes
  5438 ;; Hardware stack levels used: 1
  5439 ;; Hardware stack levels required when called: 2
  5440 ;; This function calls:
  5441 ;;		Nothing
  5442 ;; This function is called by:
  5443 ;;		_lcd_4bit_send_command
  5444 ;;		_lcd_4bit_send_char_data
  5445 ;;		_lcd_send_4bits
  5446 ;;		_lcd_4bit_send_enable_signal
  5447 ;;		_keypad_get_value
  5448 ;;		_gpio_pin_intialize
  5449 ;;		_seven_segement_write_number
  5450 ;;		_lcd_8bit_send_command
  5451 ;;		_lcd_8bit_send_char_data
  5452 ;;		_lcd_8bit_send_enable_signal
  5453 ;;		_dc_motor_move_right
  5454 ;;		_dc_motor_move_left
  5455 ;;		_dc_motor_stop
  5456 ;;		_led_turn_on
  5457 ;;		_led_turn_off
  5458 ;;		_relay_turn_on
  5459 ;;		_relay_turn_off
  5460 ;;		_Ultrasonic_Calculate_Distance
  5461 ;; This function uses a non-reentrant model
  5462 ;;
  5463                           
  5464                           	psect	text35
  5465   001D92                     __ptext35:
  5466                           	callstack 0
  5467   001D92                     _gpio_pin_write_logic:
  5468                           	callstack 23
  5469   001D92                     
  5470                           ;MCAL_Layer/GPIO/hal_gpio.c: 76:     Std_ReturnType ret = (Std_ReturnType)0x01;
  5471   001D92  0E01               	movlw	1
  5472   001D94  6E0C               	movwf	gpio_pin_write_logic@ret^0,c
  5473   001D96                     
  5474                           ;MCAL_Layer/GPIO/hal_gpio.c: 77:     if(((void*)0) == _pin_config || _pin_config->pin > 
      +                          8 -1){
  5475   001D96  5003               	movf	gpio_pin_write_logic@_pin_config^0,w,c
  5476   001D98  1004               	iorwf	(gpio_pin_write_logic@_pin_config+1)^0,w,c
  5477   001D9A  B4D8               	btfsc	status,2,c
  5478   001D9C  EFD2  F00E         	goto	u4201
  5479   001DA0  EFD4  F00E         	goto	u4200
  5480   001DA4                     u4201:
  5481   001DA4  EFE5  F00E         	goto	l5806
  5482   001DA8                     u4200:
  5483   001DA8  C003  FFD9         	movff	gpio_pin_write_logic@_pin_config,fsr2l
  5484   001DAC  C004  FFDA         	movff	gpio_pin_write_logic@_pin_config+1,fsr2h
  5485   001DB0  30DF               	rrcf	223,w,c
  5486   001DB2  32E8               	rrcf	wreg,f,c
  5487   001DB4  32E8               	rrcf	wreg,f,c
  5488   001DB6  0B07               	andlw	7
  5489   001DB8  6E06               	movwf	??_gpio_pin_write_logic^0,c
  5490   001DBA  0E07               	movlw	7
  5491   001DBC  6406               	cpfsgt	??_gpio_pin_write_logic^0,c
  5492   001DBE  EFE3  F00E         	goto	u4211
  5493   001DC2  EFE5  F00E         	goto	u4210
  5494   001DC6                     u4211:
  5495   001DC6  EF48  F00F         	goto	l5814
  5496   001DCA                     u4210:
  5497   001DCA                     l5806:
  5498                           
  5499                           ;MCAL_Layer/GPIO/hal_gpio.c: 78:         ret = (Std_ReturnType)0x00;
  5500   001DCA  0E00               	movlw	0
  5501   001DCC  6E0C               	movwf	gpio_pin_write_logic@ret^0,c
  5502                           
  5503                           ;MCAL_Layer/GPIO/hal_gpio.c: 79:     }
  5504   001DCE  EF5D  F00F         	goto	l5816
  5505   001DD2                     l5808:
  5506                           
  5507                           ;MCAL_Layer/GPIO/hal_gpio.c: 83:                 (*lat_registers[_pin_config->port] &= ~
      +                          ((uint8)1 << _pin_config->pin));
  5508   001DD2  C003  FFD9         	movff	gpio_pin_write_logic@_pin_config,fsr2l
  5509   001DD6  C004  FFDA         	movff	gpio_pin_write_logic@_pin_config+1,fsr2h
  5510   001DDA  30DF               	rrcf	223,w,c
  5511   001DDC  32E8               	rrcf	wreg,f,c
  5512   001DDE  32E8               	rrcf	wreg,f,c
  5513   001DE0  0B07               	andlw	7
  5514   001DE2  6E06               	movwf	??_gpio_pin_write_logic^0,c
  5515   001DE4  0E01               	movlw	1
  5516   001DE6  6E07               	movwf	(??_gpio_pin_write_logic+1)^0,c
  5517   001DE8  2A06               	incf	??_gpio_pin_write_logic^0,f,c
  5518   001DEA  EFF9  F00E         	goto	u4224
  5519   001DEE                     u4225:
  5520   001DEE  90D8               	bcf	status,0,c
  5521   001DF0  3607               	rlcf	(??_gpio_pin_write_logic+1)^0,f,c
  5522   001DF2                     u4224:
  5523   001DF2  2E06               	decfsz	??_gpio_pin_write_logic^0,f,c
  5524   001DF4  EFF7  F00E         	goto	u4225
  5525   001DF8  5007               	movf	(??_gpio_pin_write_logic+1)^0,w,c
  5526   001DFA  0AFF               	xorlw	255
  5527   001DFC  6E08               	movwf	(??_gpio_pin_write_logic+2)^0,c
  5528   001DFE  C003  FFD9         	movff	gpio_pin_write_logic@_pin_config,fsr2l
  5529   001E02  C004  FFDA         	movff	gpio_pin_write_logic@_pin_config+1,fsr2h
  5530   001E06  50DF               	movf	223,w,c
  5531   001E08  0B07               	andlw	7
  5532   001E0A  6E09               	movwf	(??_gpio_pin_write_logic+3)^0,c
  5533   001E0C  5009               	movf	(??_gpio_pin_write_logic+3)^0,w,c
  5534   001E0E  0D02               	mullw	2
  5535   001E10  0EDB               	movlw	low _lat_registers
  5536   001E12  24F3               	addwf	243,w,c
  5537   001E14  6ED9               	movwf	fsr2l,c
  5538   001E16  0E00               	movlw	high _lat_registers
  5539   001E18  20F4               	addwfc	prodh,w,c
  5540   001E1A  6EDA               	movwf	fsr2h,c
  5541   001E1C  CFDE F00A          	movff	postinc2,??_gpio_pin_write_logic+4
  5542   001E20  CFDD F00B          	movff	postdec2,??_gpio_pin_write_logic+5
  5543   001E24  C00A  FFD9         	movff	??_gpio_pin_write_logic+4,fsr2l
  5544   001E28  C00B  FFDA         	movff	??_gpio_pin_write_logic+5,fsr2h
  5545   001E2C  5008               	movf	(??_gpio_pin_write_logic+2)^0,w,c
  5546   001E2E  16DF               	andwf	indf2,f,c
  5547                           
  5548                           ;MCAL_Layer/GPIO/hal_gpio.c: 84:                 break;
  5549   001E30  EF5D  F00F         	goto	l5816
  5550   001E34                     l5810:
  5551                           
  5552                           ;MCAL_Layer/GPIO/hal_gpio.c: 86:                 (*lat_registers[_pin_config->port] |= (
      +                          (uint8)1 << _pin_config->pin));
  5553   001E34  C003  FFD9         	movff	gpio_pin_write_logic@_pin_config,fsr2l
  5554   001E38  C004  FFDA         	movff	gpio_pin_write_logic@_pin_config+1,fsr2h
  5555   001E3C  30DF               	rrcf	223,w,c
  5556   001E3E  32E8               	rrcf	wreg,f,c
  5557   001E40  32E8               	rrcf	wreg,f,c
  5558   001E42  0B07               	andlw	7
  5559   001E44  6E06               	movwf	??_gpio_pin_write_logic^0,c
  5560   001E46  0E01               	movlw	1
  5561   001E48  6E07               	movwf	(??_gpio_pin_write_logic+1)^0,c
  5562   001E4A  2A06               	incf	??_gpio_pin_write_logic^0,f,c
  5563   001E4C  EF2A  F00F         	goto	u4234
  5564   001E50                     u4235:
  5565   001E50  90D8               	bcf	status,0,c
  5566   001E52  3607               	rlcf	(??_gpio_pin_write_logic+1)^0,f,c
  5567   001E54                     u4234:
  5568   001E54  2E06               	decfsz	??_gpio_pin_write_logic^0,f,c
  5569   001E56  EF28  F00F         	goto	u4235
  5570   001E5A  C003  FFD9         	movff	gpio_pin_write_logic@_pin_config,fsr2l
  5571   001E5E  C004  FFDA         	movff	gpio_pin_write_logic@_pin_config+1,fsr2h
  5572   001E62  50DF               	movf	223,w,c
  5573   001E64  0B07               	andlw	7
  5574   001E66  6E08               	movwf	(??_gpio_pin_write_logic+2)^0,c
  5575   001E68  5008               	movf	(??_gpio_pin_write_logic+2)^0,w,c
  5576   001E6A  0D02               	mullw	2
  5577   001E6C  0EDB               	movlw	low _lat_registers
  5578   001E6E  24F3               	addwf	243,w,c
  5579   001E70  6ED9               	movwf	fsr2l,c
  5580   001E72  0E00               	movlw	high _lat_registers
  5581   001E74  20F4               	addwfc	prodh,w,c
  5582   001E76  6EDA               	movwf	fsr2h,c
  5583   001E78  CFDE F009          	movff	postinc2,??_gpio_pin_write_logic+3
  5584   001E7C  CFDD F00A          	movff	postdec2,??_gpio_pin_write_logic+4
  5585   001E80  C009  FFD9         	movff	??_gpio_pin_write_logic+3,fsr2l
  5586   001E84  C00A  FFDA         	movff	??_gpio_pin_write_logic+4,fsr2h
  5587   001E88  5007               	movf	(??_gpio_pin_write_logic+1)^0,w,c
  5588   001E8A  12DF               	iorwf	indf2,f,c
  5589                           
  5590                           ;MCAL_Layer/GPIO/hal_gpio.c: 87:                 break;
  5591   001E8C  EF5D  F00F         	goto	l5816
  5592   001E90                     l5814:
  5593   001E90  5005               	movf	gpio_pin_write_logic@logic^0,w,c
  5594   001E92  6E06               	movwf	??_gpio_pin_write_logic^0,c
  5595   001E94  6A07               	clrf	(??_gpio_pin_write_logic+1)^0,c
  5596                           
  5597                           ; Switch on 2 bytes has been partitioned into a top level switch of size 1, and 1 sub-sw
      +                          itches
  5598                           ; Switch size 1, requested type "simple"
  5599                           ; Number of cases is 1, Range of values is 0 to 0
  5600                           ; switch strategies available:
  5601                           ; Name         Instructions Cycles
  5602                           ; simple_byte            4     3 (average)
  5603                           ;	Chosen strategy is simple_byte
  5604   001E96  5007               	movf	(??_gpio_pin_write_logic+1)^0,w,c
  5605   001E98  0A00               	xorlw	0	; case 0
  5606   001E9A  B4D8               	btfsc	status,2,c
  5607   001E9C  EF52  F00F         	goto	l8202
  5608   001EA0  EFE5  F00E         	goto	l5806
  5609   001EA4                     l8202:
  5610                           
  5611                           ; Switch size 1, requested type "simple"
  5612                           ; Number of cases is 2, Range of values is 0 to 1
  5613                           ; switch strategies available:
  5614                           ; Name         Instructions Cycles
  5615                           ; simple_byte            7     4 (average)
  5616                           ;	Chosen strategy is simple_byte
  5617   001EA4  5006               	movf	??_gpio_pin_write_logic^0,w,c
  5618   001EA6  0A00               	xorlw	0	; case 0
  5619   001EA8  B4D8               	btfsc	status,2,c
  5620   001EAA  EFE9  F00E         	goto	l5808
  5621   001EAE  0A01               	xorlw	1	; case 1
  5622   001EB0  B4D8               	btfsc	status,2,c
  5623   001EB2  EF1A  F00F         	goto	l5810
  5624   001EB6  EFE5  F00E         	goto	l5806
  5625   001EBA                     l5816:
  5626                           
  5627                           ;MCAL_Layer/GPIO/hal_gpio.c: 91:     return ret;
  5628   001EBA  500C               	movf	gpio_pin_write_logic@ret^0,w,c
  5629   001EBC  0012               	return		;funcret
  5630   001EBE                     __end_of_gpio_pin_write_logic:
  5631                           	callstack 0
  5632                           
  5633 ;; *************** function _gpio_pin_direction_intialize *****************
  5634 ;; Defined at:
  5635 ;;		line 25 in file "MCAL_Layer/GPIO/hal_gpio.c"
  5636 ;; Parameters:    Size  Location     Type
  5637 ;;  _pin_config     2    2[COMRAM] PTR const struct .
  5638 ;;		 -> MSSP_SPI_Slave_Mode_GPIO_PIN_Configurations@SPI_SS(1), MSSP_SPI_Slave_Mode_GPIO_PIN_Configurations@SPI_CLK(1), M
      +SSP_SPI_Slave_Mode_GPIO_PIN_Configurations@SPI_SDI(1), MSSP_SPI_Slave_Mode_GPIO_PIN_Configurations@SPI_SDO(1), 
  5639 ;;		 -> MSSP_SPI_Msster_Mode_GPIO_PIN_Configurations@SPI_CLK(1), MSSP_SPI_Msster_Mode_GPIO_PIN_Configurations@SPI_SDI(1)
      +, MSSP_SPI_Msster_Mode_GPIO_PIN_Configurations@SPI_SDO(1), keypad1.keypad_columns_pins(4), 
  5640 ;;		 -> keypad1.keypad_row_pins(4), keypad1(8), lcd_1.lcd_data(4), lcd_1(6), 
  5641 ;; Auto vars:     Size  Location     Type
  5642 ;;  ret             1   10[COMRAM] unsigned char 
  5643 ;; Return value:  Size  Location     Type
  5644 ;;                  1    wreg      unsigned char 
  5645 ;; Registers used:
  5646 ;;		wreg, fsr2l, fsr2h, status,2, status,0, prodl, prodh
  5647 ;; Tracked objects:
  5648 ;;		On entry : 0/0
  5649 ;;		On exit  : 0/0
  5650 ;;		Unchanged: 0/0
  5651 ;; Data sizes:     COMRAM   BANK0   BANK1   BANK2   BANK3   BANK4   BANK5   BANK6   BANK7   BANK8   BANK9  BANK10  BANK1
      +1  BANK12  BANK13  BANK14  BANK15
  5652 ;;      Params:         2       0       0       0       0       0       0       0       0       0       0       0       
      +0       0       0       0       0
  5653 ;;      Locals:         1       0       0       0       0       0       0       0       0       0       0       0       
      +0       0       0       0       0
  5654 ;;      Temps:          6       0       0       0       0       0       0       0       0       0       0       0       
      +0       0       0       0       0
  5655 ;;      Totals:         9       0       0       0       0       0       0       0       0       0       0       0       
      +0       0       0       0       0
  5656 ;;Total ram usage:        9 bytes
  5657 ;; Hardware stack levels used: 1
  5658 ;; Hardware stack levels required when called: 2
  5659 ;; This function calls:
  5660 ;;		Nothing
  5661 ;; This function is called by:
  5662 ;;		_keypad_initialize
  5663 ;;		_gpio_pin_intialize
  5664 ;;		_button_initialize
  5665 ;;		_Interrupt_RBx_Init
  5666 ;;		_Interrupt_INTx_Pin_Init
  5667 ;;		_MSSP_SPI_Msster_Mode_GPIO_PIN_Configurations
  5668 ;;		_MSSP_SPI_Slave_Mode_GPIO_PIN_Configurations
  5669 ;; This function uses a non-reentrant model
  5670 ;;
  5671                           
  5672                           	psect	text36
  5673   001B22                     __ptext36:
  5674                           	callstack 0
  5675   001B22                     _gpio_pin_direction_intialize:
  5676                           	callstack 24
  5677   001B22                     
  5678                           ;MCAL_Layer/GPIO/hal_gpio.c: 26:     Std_ReturnType ret = (Std_ReturnType)0x01;
  5679   001B22  0E01               	movlw	1
  5680   001B24  6E0B               	movwf	gpio_pin_direction_intialize@ret^0,c
  5681   001B26                     
  5682                           ;MCAL_Layer/GPIO/hal_gpio.c: 27:     if(((void*)0) == _pin_config || _pin_config->pin > 
      +                          8 -1){
  5683   001B26  5003               	movf	gpio_pin_direction_intialize@_pin_config^0,w,c
  5684   001B28  1004               	iorwf	(gpio_pin_direction_intialize@_pin_config+1)^0,w,c
  5685   001B2A  B4D8               	btfsc	status,2,c
  5686   001B2C  EF9A  F00D         	goto	u4341
  5687   001B30  EF9C  F00D         	goto	u4340
  5688   001B34                     u4341:
  5689   001B34  EFAD  F00D         	goto	l5880
  5690   001B38                     u4340:
  5691   001B38  C003  FFD9         	movff	gpio_pin_direction_intialize@_pin_config,fsr2l
  5692   001B3C  C004  FFDA         	movff	gpio_pin_direction_intialize@_pin_config+1,fsr2h
  5693   001B40  30DF               	rrcf	223,w,c
  5694   001B42  32E8               	rrcf	wreg,f,c
  5695   001B44  32E8               	rrcf	wreg,f,c
  5696   001B46  0B07               	andlw	7
  5697   001B48  6E05               	movwf	??_gpio_pin_direction_intialize^0,c
  5698   001B4A  0E07               	movlw	7
  5699   001B4C  6405               	cpfsgt	??_gpio_pin_direction_intialize^0,c
  5700   001B4E  EFAB  F00D         	goto	u4351
  5701   001B52  EFAD  F00D         	goto	u4350
  5702   001B56                     u4351:
  5703   001B56  EF10  F00E         	goto	l5888
  5704   001B5A                     u4350:
  5705   001B5A                     l5880:
  5706                           
  5707                           ;MCAL_Layer/GPIO/hal_gpio.c: 28:         ret = (Std_ReturnType)0x00;
  5708   001B5A  0E00               	movlw	0
  5709   001B5C  6E0B               	movwf	gpio_pin_direction_intialize@ret^0,c
  5710                           
  5711                           ;MCAL_Layer/GPIO/hal_gpio.c: 29:     }
  5712   001B5E  EF31  F00E         	goto	l5890
  5713   001B62                     l5882:
  5714                           
  5715                           ;MCAL_Layer/GPIO/hal_gpio.c: 33:                 (*tris_registers[_pin_config->port] &= 
      +                          ~((uint8)1 << _pin_config->pin));
  5716   001B62  C003  FFD9         	movff	gpio_pin_direction_intialize@_pin_config,fsr2l
  5717   001B66  C004  FFDA         	movff	gpio_pin_direction_intialize@_pin_config+1,fsr2h
  5718   001B6A  30DF               	rrcf	223,w,c
  5719   001B6C  32E8               	rrcf	wreg,f,c
  5720   001B6E  32E8               	rrcf	wreg,f,c
  5721   001B70  0B07               	andlw	7
  5722   001B72  6E05               	movwf	??_gpio_pin_direction_intialize^0,c
  5723   001B74  0E01               	movlw	1
  5724   001B76  6E06               	movwf	(??_gpio_pin_direction_intialize+1)^0,c
  5725   001B78  2A05               	incf	??_gpio_pin_direction_intialize^0,f,c
  5726   001B7A  EFC1  F00D         	goto	u4364
  5727   001B7E                     u4365:
  5728   001B7E  90D8               	bcf	status,0,c
  5729   001B80  3606               	rlcf	(??_gpio_pin_direction_intialize+1)^0,f,c
  5730   001B82                     u4364:
  5731   001B82  2E05               	decfsz	??_gpio_pin_direction_intialize^0,f,c
  5732   001B84  EFBF  F00D         	goto	u4365
  5733   001B88  5006               	movf	(??_gpio_pin_direction_intialize+1)^0,w,c
  5734   001B8A  0AFF               	xorlw	255
  5735   001B8C  6E07               	movwf	(??_gpio_pin_direction_intialize+2)^0,c
  5736   001B8E  C003  FFD9         	movff	gpio_pin_direction_intialize@_pin_config,fsr2l
  5737   001B92  C004  FFDA         	movff	gpio_pin_direction_intialize@_pin_config+1,fsr2h
  5738   001B96  50DF               	movf	223,w,c
  5739   001B98  0B07               	andlw	7
  5740   001B9A  6E08               	movwf	(??_gpio_pin_direction_intialize+3)^0,c
  5741   001B9C  5008               	movf	(??_gpio_pin_direction_intialize+3)^0,w,c
  5742   001B9E  0D02               	mullw	2
  5743   001BA0  0EE5               	movlw	low _tris_registers
  5744   001BA2  24F3               	addwf	243,w,c
  5745   001BA4  6ED9               	movwf	fsr2l,c
  5746   001BA6  0E00               	movlw	high _tris_registers
  5747   001BA8  20F4               	addwfc	prodh,w,c
  5748   001BAA  6EDA               	movwf	fsr2h,c
  5749   001BAC  CFDE F009          	movff	postinc2,??_gpio_pin_direction_intialize+4
  5750   001BB0  CFDD F00A          	movff	postdec2,??_gpio_pin_direction_intialize+5
  5751   001BB4  C009  FFD9         	movff	??_gpio_pin_direction_intialize+4,fsr2l
  5752   001BB8  C00A  FFDA         	movff	??_gpio_pin_direction_intialize+5,fsr2h
  5753   001BBC  5007               	movf	(??_gpio_pin_direction_intialize+2)^0,w,c
  5754   001BBE  16DF               	andwf	indf2,f,c
  5755                           
  5756                           ;MCAL_Layer/GPIO/hal_gpio.c: 34:                 break;
  5757   001BC0  EF31  F00E         	goto	l5890
  5758   001BC4                     l5884:
  5759                           
  5760                           ;MCAL_Layer/GPIO/hal_gpio.c: 36:                 (*tris_registers[_pin_config->port] |= 
      +                          ((uint8)1 << _pin_config->pin));
  5761   001BC4  C003  FFD9         	movff	gpio_pin_direction_intialize@_pin_config,fsr2l
  5762   001BC8  C004  FFDA         	movff	gpio_pin_direction_intialize@_pin_config+1,fsr2h
  5763   001BCC  30DF               	rrcf	223,w,c
  5764   001BCE  32E8               	rrcf	wreg,f,c
  5765   001BD0  32E8               	rrcf	wreg,f,c
  5766   001BD2  0B07               	andlw	7
  5767   001BD4  6E05               	movwf	??_gpio_pin_direction_intialize^0,c
  5768   001BD6  0E01               	movlw	1
  5769   001BD8  6E06               	movwf	(??_gpio_pin_direction_intialize+1)^0,c
  5770   001BDA  2A05               	incf	??_gpio_pin_direction_intialize^0,f,c
  5771   001BDC  EFF2  F00D         	goto	u4374
  5772   001BE0                     u4375:
  5773   001BE0  90D8               	bcf	status,0,c
  5774   001BE2  3606               	rlcf	(??_gpio_pin_direction_intialize+1)^0,f,c
  5775   001BE4                     u4374:
  5776   001BE4  2E05               	decfsz	??_gpio_pin_direction_intialize^0,f,c
  5777   001BE6  EFF0  F00D         	goto	u4375
  5778   001BEA  C003  FFD9         	movff	gpio_pin_direction_intialize@_pin_config,fsr2l
  5779   001BEE  C004  FFDA         	movff	gpio_pin_direction_intialize@_pin_config+1,fsr2h
  5780   001BF2  50DF               	movf	223,w,c
  5781   001BF4  0B07               	andlw	7
  5782   001BF6  6E07               	movwf	(??_gpio_pin_direction_intialize+2)^0,c
  5783   001BF8  5007               	movf	(??_gpio_pin_direction_intialize+2)^0,w,c
  5784   001BFA  0D02               	mullw	2
  5785   001BFC  0EE5               	movlw	low _tris_registers
  5786   001BFE  24F3               	addwf	243,w,c
  5787   001C00  6ED9               	movwf	fsr2l,c
  5788   001C02  0E00               	movlw	high _tris_registers
  5789   001C04  20F4               	addwfc	prodh,w,c
  5790   001C06  6EDA               	movwf	fsr2h,c
  5791   001C08  CFDE F008          	movff	postinc2,??_gpio_pin_direction_intialize+3
  5792   001C0C  CFDD F009          	movff	postdec2,??_gpio_pin_direction_intialize+4
  5793   001C10  C008  FFD9         	movff	??_gpio_pin_direction_intialize+3,fsr2l
  5794   001C14  C009  FFDA         	movff	??_gpio_pin_direction_intialize+4,fsr2h
  5795   001C18  5006               	movf	(??_gpio_pin_direction_intialize+1)^0,w,c
  5796   001C1A  12DF               	iorwf	indf2,f,c
  5797                           
  5798                           ;MCAL_Layer/GPIO/hal_gpio.c: 37:                 break;
  5799   001C1C  EF31  F00E         	goto	l5890
  5800   001C20                     l5888:
  5801   001C20  C003  FFD9         	movff	gpio_pin_direction_intialize@_pin_config,fsr2l
  5802   001C24  C004  FFDA         	movff	gpio_pin_direction_intialize@_pin_config+1,fsr2h
  5803   001C28  BCDF               	btfsc	indf2,6,c
  5804   001C2A  EF19  F00E         	goto	u4381
  5805   001C2E  EF1C  F00E         	goto	u4380
  5806   001C32                     u4381:
  5807   001C32  0E01               	movlw	1
  5808   001C34  EF1D  F00E         	goto	u4390
  5809   001C38                     u4380:
  5810   001C38  0E00               	movlw	0
  5811   001C3A                     u4390:
  5812   001C3A  6E05               	movwf	??_gpio_pin_direction_intialize^0,c
  5813   001C3C  6A06               	clrf	(??_gpio_pin_direction_intialize+1)^0,c
  5814                           
  5815                           ; Switch on 2 bytes has been partitioned into a top level switch of size 1, and 1 sub-sw
      +                          itches
  5816                           ; Switch size 1, requested type "simple"
  5817                           ; Number of cases is 1, Range of values is 0 to 0
  5818                           ; switch strategies available:
  5819                           ; Name         Instructions Cycles
  5820                           ; simple_byte            4     3 (average)
  5821                           ;	Chosen strategy is simple_byte
  5822   001C3E  5006               	movf	(??_gpio_pin_direction_intialize+1)^0,w,c
  5823   001C40  0A00               	xorlw	0	; case 0
  5824   001C42  B4D8               	btfsc	status,2,c
  5825   001C44  EF26  F00E         	goto	l8204
  5826   001C48  EFAD  F00D         	goto	l5880
  5827   001C4C                     l8204:
  5828                           
  5829                           ; Switch size 1, requested type "simple"
  5830                           ; Number of cases is 2, Range of values is 0 to 1
  5831                           ; switch strategies available:
  5832                           ; Name         Instructions Cycles
  5833                           ; simple_byte            7     4 (average)
  5834                           ;	Chosen strategy is simple_byte
  5835   001C4C  5005               	movf	??_gpio_pin_direction_intialize^0,w,c
  5836   001C4E  0A00               	xorlw	0	; case 0
  5837   001C50  B4D8               	btfsc	status,2,c
  5838   001C52  EFB1  F00D         	goto	l5882
  5839   001C56  0A01               	xorlw	1	; case 1
  5840   001C58  B4D8               	btfsc	status,2,c
  5841   001C5A  EFE2  F00D         	goto	l5884
  5842   001C5E  EFAD  F00D         	goto	l5880
  5843   001C62                     l5890:
  5844                           
  5845                           ;MCAL_Layer/GPIO/hal_gpio.c: 41:     return ret;
  5846   001C62  500B               	movf	gpio_pin_direction_intialize@ret^0,w,c
  5847   001C64  0012               	return		;funcret
  5848   001C66                     __end_of_gpio_pin_direction_intialize:
  5849                           	callstack 0
  5850                           
  5851 ;; *************** function _InterruptManager *****************
  5852 ;; Defined at:
  5853 ;;		line 32 in file "MCAL_Layer/Interrupt/mcal_interrupt_manager.c"
  5854 ;; Parameters:    Size  Location     Type
  5855 ;;		None
  5856 ;; Auto vars:     Size  Location     Type
  5857 ;;		None
  5858 ;; Return value:  Size  Location     Type
  5859 ;;                  1    wreg      void 
  5860 ;; Registers used:
  5861 ;;		wreg, status,2, status,0, cstack
  5862 ;; Tracked objects:
  5863 ;;		On entry : 0/0
  5864 ;;		On exit  : 0/0
  5865 ;;		Unchanged: 0/0
  5866 ;; Data sizes:     COMRAM   BANK0   BANK1   BANK2   BANK3   BANK4   BANK5   BANK6   BANK7   BANK8   BANK9  BANK10  BANK1
      +1  BANK12  BANK13  BANK14  BANK15
  5867 ;;      Params:         0       0       0       0       0       0       0       0       0       0       0       0       
      +0       0       0       0       0
  5868 ;;      Locals:         0       0       0       0       0       0       0       0       0       0       0       0       
      +0       0       0       0       0
  5869 ;;      Temps:          1       0       0       0       0       0       0       0       0       0       0       0       
      +0       0       0       0       0
  5870 ;;      Totals:         1       0       0       0       0       0       0       0       0       0       0       0       
      +0       0       0       0       0
  5871 ;;Total ram usage:        1 bytes
  5872 ;; Hardware stack levels used: 1
  5873 ;; Hardware stack levels required when called: 1
  5874 ;; This function calls:
  5875 ;;		_ADC_ISR
  5876 ;;		_CCP1_ISR
  5877 ;;		_CCP2_ISR
  5878 ;;		_EUSART_RX_ISR
  5879 ;;		_EUSART_TX_ISR
  5880 ;;		_INT0_ISR
  5881 ;;		_INT1_ISR
  5882 ;;		_INT2_ISR
  5883 ;;		_MSSP_I2C_BC_ISR
  5884 ;;		_MSSP_I2C_ISR
  5885 ;;		_MSSP_SPI_ISR
  5886 ;;		_RB4_ISR
  5887 ;;		_RB5_ISR
  5888 ;;		_RB6_ISR
  5889 ;;		_RB7_ISR
  5890 ;;		_TMR0_ISR
  5891 ;;		_TMR1_ISR
  5892 ;;		_TMR2_ISR
  5893 ;;		_TMR3_ISR
  5894 ;; This function is called by:
  5895 ;;		Interrupt level 2
  5896 ;; This function uses a non-reentrant model
  5897 ;;
  5898                           
  5899                           	psect	intcode
  5900   000008                     __pintcode:
  5901                           	callstack 0
  5902   000008                     _InterruptManager:
  5903                           	callstack 19
  5904                           
  5905                           ;incstack = 0
  5906   000008  827C               	bsf	int$flags,1,c	;set compiler interrupt flag (level 2)
  5907   00000A  ED22  F008         	call	int_func,f	;refresh shadow registers
  5908                           
  5909                           	psect	intcode_body
  5910   001044                     __pintcode_body:
  5911                           	callstack 19
  5912   001044                     int_func:
  5913                           	callstack 19
  5914   001044  0006               	pop		; remove dummy address from shadow register refresh
  5915   001046                     
  5916                           ;MCAL_Layer/Interrupt/mcal_interrupt_manager.c: 34:     if((1 == INTCONbits.INT0IE) && (
      +                          1 == INTCONbits.INT0IF)){
  5917   001046  A8F2               	btfss	242,4,c	;volatile
  5918   001048  EF28  F008         	goto	i2u584_41
  5919   00104C  EF2A  F008         	goto	i2u584_40
  5920   001050                     i2u584_41:
  5921   001050  EF33  F008         	goto	i2l1202
  5922   001054                     i2u584_40:
  5923   001054  A2F2               	btfss	242,1,c	;volatile
  5924   001056  EF2F  F008         	goto	i2u585_41
  5925   00105A  EF31  F008         	goto	i2u585_40
  5926   00105E                     i2u585_41:
  5927   00105E  EF33  F008         	goto	i2l1202
  5928   001062                     i2u585_40:
  5929   001062                     
  5930                           ;MCAL_Layer/Interrupt/mcal_interrupt_manager.c: 35:         INT0_ISR();
  5931   001062  EC0B  F017         	call	_INT0_ISR	;wreg free
  5932   001066                     i2l1202:
  5933                           
  5934                           ;MCAL_Layer/Interrupt/mcal_interrupt_manager.c: 38:     if((1 == INTCON3bits.INT1E) && (
      +                          1 == INTCON3bits.INT1F)){
  5935   001066  A6F0               	btfss	240,3,c	;volatile
  5936   001068  EF38  F008         	goto	i2u586_41
  5937   00106C  EF3A  F008         	goto	i2u586_40
  5938   001070                     i2u586_41:
  5939   001070  EF43  F008         	goto	i2l1204
  5940   001074                     i2u586_40:
  5941   001074  A0F0               	btfss	240,0,c	;volatile
  5942   001076  EF3F  F008         	goto	i2u587_41
  5943   00107A  EF41  F008         	goto	i2u587_40
  5944   00107E                     i2u587_41:
  5945   00107E  EF43  F008         	goto	i2l1204
  5946   001082                     i2u587_40:
  5947   001082                     
  5948                           ;MCAL_Layer/Interrupt/mcal_interrupt_manager.c: 39:         INT1_ISR();
  5949   001082  EC09  F017         	call	_INT1_ISR	;wreg free
  5950   001086                     i2l1204:
  5951                           
  5952                           ;MCAL_Layer/Interrupt/mcal_interrupt_manager.c: 42:     if((1 == INTCON3bits.INT2IE) && 
      +                          (1 == INTCON3bits.INT2IF)){
  5953   001086  A8F0               	btfss	240,4,c	;volatile
  5954   001088  EF48  F008         	goto	i2u588_41
  5955   00108C  EF4A  F008         	goto	i2u588_40
  5956   001090                     i2u588_41:
  5957   001090  EF53  F008         	goto	i2l1206
  5958   001094                     i2u588_40:
  5959   001094  A2F0               	btfss	240,1,c	;volatile
  5960   001096  EF4F  F008         	goto	i2u589_41
  5961   00109A  EF51  F008         	goto	i2u589_40
  5962   00109E                     i2u589_41:
  5963   00109E  EF53  F008         	goto	i2l1206
  5964   0010A2                     i2u589_40:
  5965   0010A2                     
  5966                           ;MCAL_Layer/Interrupt/mcal_interrupt_manager.c: 43:         INT2_ISR();
  5967   0010A2  EC07  F017         	call	_INT2_ISR	;wreg free
  5968   0010A6                     i2l1206:
  5969                           
  5970                           ;MCAL_Layer/Interrupt/mcal_interrupt_manager.c: 49:     if((1 == INTCONbits.RBIE) && (1 
      +                          == INTCONbits.RBIF) &&
  5971   0010A6  A6F2               	btfss	242,3,c	;volatile
  5972   0010A8  EF58  F008         	goto	i2u590_41
  5973   0010AC  EF5A  F008         	goto	i2u590_40
  5974   0010B0                     i2u590_41:
  5975   0010B0  EF75  F008         	goto	i2l1208
  5976   0010B4                     i2u590_40:
  5977   0010B4  A0F2               	btfss	242,0,c	;volatile
  5978   0010B6  EF5F  F008         	goto	i2u591_41
  5979   0010BA  EF61  F008         	goto	i2u591_40
  5980   0010BE                     i2u591_41:
  5981   0010BE  EF75  F008         	goto	i2l1208
  5982   0010C2                     i2u591_40:
  5983   0010C2  A881               	btfss	129,4,c	;volatile
  5984   0010C4  EF66  F008         	goto	i2u592_41
  5985   0010C8  EF68  F008         	goto	i2u592_40
  5986   0010CC                     i2u592_41:
  5987   0010CC  EF75  F008         	goto	i2l1208
  5988   0010D0                     i2u592_40:
  5989   0010D0  047B               	decf	_RB4_Flag^0,w,c	;volatile
  5990   0010D2  A4D8               	btfss	status,2,c
  5991   0010D4  EF6E  F008         	goto	i2u593_41
  5992   0010D8  EF70  F008         	goto	i2u593_40
  5993   0010DC                     i2u593_41:
  5994   0010DC  EF75  F008         	goto	i2l1208
  5995   0010E0                     i2u593_40:
  5996   0010E0                     
  5997                           ;MCAL_Layer/Interrupt/mcal_interrupt_manager.c: 50:        (PORTBbits.RB4 == GPIO_HIGH) 
      +                          && (RB4_Flag == 1)){;MCAL_Layer/Interrupt/mcal_interrupt_manager.c: 51:         RB4_Flag
      +                           = 0;
  5998   0010E0  0E00               	movlw	0
  5999   0010E2  6E7B               	movwf	_RB4_Flag^0,c	;volatile
  6000   0010E4                     
  6001                           ;MCAL_Layer/Interrupt/mcal_interrupt_manager.c: 52:         RB4_ISR(0);
  6002   0010E4  0E00               	movlw	0
  6003   0010E6  ECCE  F016         	call	_RB4_ISR
  6004   0010EA                     i2l1208:
  6005                           
  6006                           ;MCAL_Layer/Interrupt/mcal_interrupt_manager.c: 55:     if((1 == INTCONbits.RBIE) && (1 
      +                          == INTCONbits.RBIF) &&
  6007   0010EA  A6F2               	btfss	242,3,c	;volatile
  6008   0010EC  EF7A  F008         	goto	i2u594_41
  6009   0010F0  EF7C  F008         	goto	i2u594_40
  6010   0010F4                     i2u594_41:
  6011   0010F4  EF97  F008         	goto	i2l1210
  6012   0010F8                     i2u594_40:
  6013   0010F8  A0F2               	btfss	242,0,c	;volatile
  6014   0010FA  EF81  F008         	goto	i2u595_41
  6015   0010FE  EF83  F008         	goto	i2u595_40
  6016   001102                     i2u595_41:
  6017   001102  EF97  F008         	goto	i2l1210
  6018   001106                     i2u595_40:
  6019   001106  B881               	btfsc	129,4,c	;volatile
  6020   001108  EF88  F008         	goto	i2u596_41
  6021   00110C  EF8A  F008         	goto	i2u596_40
  6022   001110                     i2u596_41:
  6023   001110  EF97  F008         	goto	i2l1210
  6024   001114                     i2u596_40:
  6025   001114  507B               	movf	_RB4_Flag^0,w,c	;volatile
  6026   001116  A4D8               	btfss	status,2,c
  6027   001118  EF90  F008         	goto	i2u597_41
  6028   00111C  EF92  F008         	goto	i2u597_40
  6029   001120                     i2u597_41:
  6030   001120  EF97  F008         	goto	i2l1210
  6031   001124                     i2u597_40:
  6032   001124                     
  6033                           ;MCAL_Layer/Interrupt/mcal_interrupt_manager.c: 56:        (PORTBbits.RB4 == GPIO_LOW) &
      +                          & (RB4_Flag == 0)){;MCAL_Layer/Interrupt/mcal_interrupt_manager.c: 57:         RB4_Flag 
      +                          = 1;
  6034   001124  0E01               	movlw	1
  6035   001126  6E7B               	movwf	_RB4_Flag^0,c	;volatile
  6036   001128                     
  6037                           ;MCAL_Layer/Interrupt/mcal_interrupt_manager.c: 58:         RB4_ISR(1);
  6038   001128  0E01               	movlw	1
  6039   00112A  ECCE  F016         	call	_RB4_ISR
  6040   00112E                     i2l1210:
  6041                           
  6042                           ;MCAL_Layer/Interrupt/mcal_interrupt_manager.c: 61:     if((1 == INTCONbits.RBIE) && (1 
      +                          == INTCONbits.RBIF) &&
  6043   00112E  A6F2               	btfss	242,3,c	;volatile
  6044   001130  EF9C  F008         	goto	i2u598_41
  6045   001134  EF9E  F008         	goto	i2u598_40
  6046   001138                     i2u598_41:
  6047   001138  EFB9  F008         	goto	i2l1212
  6048   00113C                     i2u598_40:
  6049   00113C  A0F2               	btfss	242,0,c	;volatile
  6050   00113E  EFA3  F008         	goto	i2u599_41
  6051   001142  EFA5  F008         	goto	i2u599_40
  6052   001146                     i2u599_41:
  6053   001146  EFB9  F008         	goto	i2l1212
  6054   00114A                     i2u599_40:
  6055   00114A  AA81               	btfss	129,5,c	;volatile
  6056   00114C  EFAA  F008         	goto	i2u600_41
  6057   001150  EFAC  F008         	goto	i2u600_40
  6058   001154                     i2u600_41:
  6059   001154  EFB9  F008         	goto	i2l1212
  6060   001158                     i2u600_40:
  6061   001158  047A               	decf	_RB5_Flag^0,w,c	;volatile
  6062   00115A  A4D8               	btfss	status,2,c
  6063   00115C  EFB2  F008         	goto	i2u601_41
  6064   001160  EFB4  F008         	goto	i2u601_40
  6065   001164                     i2u601_41:
  6066   001164  EFB9  F008         	goto	i2l1212
  6067   001168                     i2u601_40:
  6068   001168                     
  6069                           ;MCAL_Layer/Interrupt/mcal_interrupt_manager.c: 62:        (PORTBbits.RB5 == GPIO_HIGH) 
      +                          && (RB5_Flag == 1)){;MCAL_Layer/Interrupt/mcal_interrupt_manager.c: 63:         RB5_Flag
      +                           = 0;
  6070   001168  0E00               	movlw	0
  6071   00116A  6E7A               	movwf	_RB5_Flag^0,c	;volatile
  6072   00116C                     
  6073                           ;MCAL_Layer/Interrupt/mcal_interrupt_manager.c: 64:         RB5_ISR(0);
  6074   00116C  0E00               	movlw	0
  6075   00116E  ECC1  F016         	call	_RB5_ISR
  6076   001172                     i2l1212:
  6077                           
  6078                           ;MCAL_Layer/Interrupt/mcal_interrupt_manager.c: 67:     if((1 == INTCONbits.RBIE) && (1 
      +                          == INTCONbits.RBIF) &&
  6079   001172  A6F2               	btfss	242,3,c	;volatile
  6080   001174  EFBE  F008         	goto	i2u602_41
  6081   001178  EFC0  F008         	goto	i2u602_40
  6082   00117C                     i2u602_41:
  6083   00117C  EFDB  F008         	goto	i2l1214
  6084   001180                     i2u602_40:
  6085   001180  A0F2               	btfss	242,0,c	;volatile
  6086   001182  EFC5  F008         	goto	i2u603_41
  6087   001186  EFC7  F008         	goto	i2u603_40
  6088   00118A                     i2u603_41:
  6089   00118A  EFDB  F008         	goto	i2l1214
  6090   00118E                     i2u603_40:
  6091   00118E  BA81               	btfsc	129,5,c	;volatile
  6092   001190  EFCC  F008         	goto	i2u604_41
  6093   001194  EFCE  F008         	goto	i2u604_40
  6094   001198                     i2u604_41:
  6095   001198  EFDB  F008         	goto	i2l1214
  6096   00119C                     i2u604_40:
  6097   00119C  507A               	movf	_RB5_Flag^0,w,c	;volatile
  6098   00119E  A4D8               	btfss	status,2,c
  6099   0011A0  EFD4  F008         	goto	i2u605_41
  6100   0011A4  EFD6  F008         	goto	i2u605_40
  6101   0011A8                     i2u605_41:
  6102   0011A8  EFDB  F008         	goto	i2l1214
  6103   0011AC                     i2u605_40:
  6104   0011AC                     
  6105                           ;MCAL_Layer/Interrupt/mcal_interrupt_manager.c: 68:        (PORTBbits.RB5 == GPIO_LOW) &
      +                          & (RB5_Flag == 0)){;MCAL_Layer/Interrupt/mcal_interrupt_manager.c: 69:         RB5_Flag 
      +                          = 1;
  6106   0011AC  0E01               	movlw	1
  6107   0011AE  6E7A               	movwf	_RB5_Flag^0,c	;volatile
  6108   0011B0                     
  6109                           ;MCAL_Layer/Interrupt/mcal_interrupt_manager.c: 70:         RB5_ISR(1);
  6110   0011B0  0E01               	movlw	1
  6111   0011B2  ECC1  F016         	call	_RB5_ISR
  6112   0011B6                     i2l1214:
  6113                           
  6114                           ;MCAL_Layer/Interrupt/mcal_interrupt_manager.c: 73:     if((1 == INTCONbits.RBIE) && (1 
      +                          == INTCONbits.RBIF) &&
  6115   0011B6  A6F2               	btfss	242,3,c	;volatile
  6116   0011B8  EFE0  F008         	goto	i2u606_41
  6117   0011BC  EFE2  F008         	goto	i2u606_40
  6118   0011C0                     i2u606_41:
  6119   0011C0  EFFD  F008         	goto	i2l1216
  6120   0011C4                     i2u606_40:
  6121   0011C4  A0F2               	btfss	242,0,c	;volatile
  6122   0011C6  EFE7  F008         	goto	i2u607_41
  6123   0011CA  EFE9  F008         	goto	i2u607_40
  6124   0011CE                     i2u607_41:
  6125   0011CE  EFFD  F008         	goto	i2l1216
  6126   0011D2                     i2u607_40:
  6127   0011D2  AC81               	btfss	129,6,c	;volatile
  6128   0011D4  EFEE  F008         	goto	i2u608_41
  6129   0011D8  EFF0  F008         	goto	i2u608_40
  6130   0011DC                     i2u608_41:
  6131   0011DC  EFFD  F008         	goto	i2l1216
  6132   0011E0                     i2u608_40:
  6133   0011E0  0479               	decf	_RB6_Flag^0,w,c	;volatile
  6134   0011E2  A4D8               	btfss	status,2,c
  6135   0011E4  EFF6  F008         	goto	i2u609_41
  6136   0011E8  EFF8  F008         	goto	i2u609_40
  6137   0011EC                     i2u609_41:
  6138   0011EC  EFFD  F008         	goto	i2l1216
  6139   0011F0                     i2u609_40:
  6140   0011F0                     
  6141                           ;MCAL_Layer/Interrupt/mcal_interrupt_manager.c: 74:        (PORTBbits.RB6 == GPIO_HIGH) 
      +                          && (RB6_Flag == 1)){;MCAL_Layer/Interrupt/mcal_interrupt_manager.c: 75:         RB6_Flag
      +                           = 0;
  6142   0011F0  0E00               	movlw	0
  6143   0011F2  6E79               	movwf	_RB6_Flag^0,c	;volatile
  6144   0011F4                     
  6145                           ;MCAL_Layer/Interrupt/mcal_interrupt_manager.c: 76:         RB6_ISR(0);
  6146   0011F4  0E00               	movlw	0
  6147   0011F6  ECB4  F016         	call	_RB6_ISR
  6148   0011FA                     i2l1216:
  6149                           
  6150                           ;MCAL_Layer/Interrupt/mcal_interrupt_manager.c: 79:     if((1 == INTCONbits.RBIE) && (1 
      +                          == INTCONbits.RBIF) &&
  6151   0011FA  A6F2               	btfss	242,3,c	;volatile
  6152   0011FC  EF02  F009         	goto	i2u610_41
  6153   001200  EF04  F009         	goto	i2u610_40
  6154   001204                     i2u610_41:
  6155   001204  EF1F  F009         	goto	i2l1218
  6156   001208                     i2u610_40:
  6157   001208  A0F2               	btfss	242,0,c	;volatile
  6158   00120A  EF09  F009         	goto	i2u611_41
  6159   00120E  EF0B  F009         	goto	i2u611_40
  6160   001212                     i2u611_41:
  6161   001212  EF1F  F009         	goto	i2l1218
  6162   001216                     i2u611_40:
  6163   001216  BC81               	btfsc	129,6,c	;volatile
  6164   001218  EF10  F009         	goto	i2u612_41
  6165   00121C  EF12  F009         	goto	i2u612_40
  6166   001220                     i2u612_41:
  6167   001220  EF1F  F009         	goto	i2l1218
  6168   001224                     i2u612_40:
  6169   001224  5079               	movf	_RB6_Flag^0,w,c	;volatile
  6170   001226  A4D8               	btfss	status,2,c
  6171   001228  EF18  F009         	goto	i2u613_41
  6172   00122C  EF1A  F009         	goto	i2u613_40
  6173   001230                     i2u613_41:
  6174   001230  EF1F  F009         	goto	i2l1218
  6175   001234                     i2u613_40:
  6176   001234                     
  6177                           ;MCAL_Layer/Interrupt/mcal_interrupt_manager.c: 80:        (PORTBbits.RB6 == GPIO_LOW) &
      +                          & (RB6_Flag == 0)){;MCAL_Layer/Interrupt/mcal_interrupt_manager.c: 81:         RB6_Flag 
      +                          = 1;
  6178   001234  0E01               	movlw	1
  6179   001236  6E79               	movwf	_RB6_Flag^0,c	;volatile
  6180   001238                     
  6181                           ;MCAL_Layer/Interrupt/mcal_interrupt_manager.c: 82:         RB6_ISR(1);
  6182   001238  0E01               	movlw	1
  6183   00123A  ECB4  F016         	call	_RB6_ISR
  6184   00123E                     i2l1218:
  6185                           
  6186                           ;MCAL_Layer/Interrupt/mcal_interrupt_manager.c: 85:     if((1 == INTCONbits.RBIE) && (1 
      +                          == INTCONbits.RBIF) &&
  6187   00123E  A6F2               	btfss	242,3,c	;volatile
  6188   001240  EF24  F009         	goto	i2u614_41
  6189   001244  EF26  F009         	goto	i2u614_40
  6190   001248                     i2u614_41:
  6191   001248  EF41  F009         	goto	i2l1220
  6192   00124C                     i2u614_40:
  6193   00124C  A0F2               	btfss	242,0,c	;volatile
  6194   00124E  EF2B  F009         	goto	i2u615_41
  6195   001252  EF2D  F009         	goto	i2u615_40
  6196   001256                     i2u615_41:
  6197   001256  EF41  F009         	goto	i2l1220
  6198   00125A                     i2u615_40:
  6199   00125A  AE81               	btfss	129,7,c	;volatile
  6200   00125C  EF32  F009         	goto	i2u616_41
  6201   001260  EF34  F009         	goto	i2u616_40
  6202   001264                     i2u616_41:
  6203   001264  EF41  F009         	goto	i2l1220
  6204   001268                     i2u616_40:
  6205   001268  0478               	decf	_RB7_Flag^0,w,c	;volatile
  6206   00126A  A4D8               	btfss	status,2,c
  6207   00126C  EF3A  F009         	goto	i2u617_41
  6208   001270  EF3C  F009         	goto	i2u617_40
  6209   001274                     i2u617_41:
  6210   001274  EF41  F009         	goto	i2l1220
  6211   001278                     i2u617_40:
  6212   001278                     
  6213                           ;MCAL_Layer/Interrupt/mcal_interrupt_manager.c: 86:        (PORTBbits.RB7 == GPIO_HIGH) 
      +                          && (RB7_Flag == 1)){;MCAL_Layer/Interrupt/mcal_interrupt_manager.c: 87:         RB7_Flag
      +                           = 0;
  6214   001278  0E00               	movlw	0
  6215   00127A  6E78               	movwf	_RB7_Flag^0,c	;volatile
  6216   00127C                     
  6217                           ;MCAL_Layer/Interrupt/mcal_interrupt_manager.c: 88:         RB7_ISR(0);
  6218   00127C  0E00               	movlw	0
  6219   00127E  ECA7  F016         	call	_RB7_ISR
  6220   001282                     i2l1220:
  6221                           
  6222                           ;MCAL_Layer/Interrupt/mcal_interrupt_manager.c: 91:     if((1 == INTCONbits.RBIE) && (1 
      +                          == INTCONbits.RBIF) &&
  6223   001282  A6F2               	btfss	242,3,c	;volatile
  6224   001284  EF46  F009         	goto	i2u618_41
  6225   001288  EF48  F009         	goto	i2u618_40
  6226   00128C                     i2u618_41:
  6227   00128C  EF63  F009         	goto	i2l1222
  6228   001290                     i2u618_40:
  6229   001290  A0F2               	btfss	242,0,c	;volatile
  6230   001292  EF4D  F009         	goto	i2u619_41
  6231   001296  EF4F  F009         	goto	i2u619_40
  6232   00129A                     i2u619_41:
  6233   00129A  EF63  F009         	goto	i2l1222
  6234   00129E                     i2u619_40:
  6235   00129E  BE81               	btfsc	129,7,c	;volatile
  6236   0012A0  EF54  F009         	goto	i2u620_41
  6237   0012A4  EF56  F009         	goto	i2u620_40
  6238   0012A8                     i2u620_41:
  6239   0012A8  EF63  F009         	goto	i2l1222
  6240   0012AC                     i2u620_40:
  6241   0012AC  5078               	movf	_RB7_Flag^0,w,c	;volatile
  6242   0012AE  A4D8               	btfss	status,2,c
  6243   0012B0  EF5C  F009         	goto	i2u621_41
  6244   0012B4  EF5E  F009         	goto	i2u621_40
  6245   0012B8                     i2u621_41:
  6246   0012B8  EF63  F009         	goto	i2l1222
  6247   0012BC                     i2u621_40:
  6248   0012BC                     
  6249                           ;MCAL_Layer/Interrupt/mcal_interrupt_manager.c: 92:        (PORTBbits.RB7 == GPIO_LOW) &
      +                          & (RB7_Flag == 0)){;MCAL_Layer/Interrupt/mcal_interrupt_manager.c: 93:         RB7_Flag 
      +                          = 1;
  6250   0012BC  0E01               	movlw	1
  6251   0012BE  6E78               	movwf	_RB7_Flag^0,c	;volatile
  6252   0012C0                     
  6253                           ;MCAL_Layer/Interrupt/mcal_interrupt_manager.c: 94:         RB7_ISR(1);
  6254   0012C0  0E01               	movlw	1
  6255   0012C2  ECA7  F016         	call	_RB7_ISR
  6256   0012C6                     i2l1222:
  6257                           
  6258                           ;MCAL_Layer/Interrupt/mcal_interrupt_manager.c: 99:     if((1 == PIE1bits.ADIE) && (1 ==
      +                           PIR1bits.ADIF)){
  6259   0012C6  AC9D               	btfss	157,6,c	;volatile
  6260   0012C8  EF68  F009         	goto	i2u622_41
  6261   0012CC  EF6A  F009         	goto	i2u622_40
  6262   0012D0                     i2u622_41:
  6263   0012D0  EF73  F009         	goto	i2l1224
  6264   0012D4                     i2u622_40:
  6265   0012D4  AC9E               	btfss	158,6,c	;volatile
  6266   0012D6  EF6F  F009         	goto	i2u623_41
  6267   0012DA  EF71  F009         	goto	i2u623_40
  6268   0012DE                     i2u623_41:
  6269   0012DE  EF73  F009         	goto	i2l1224
  6270   0012E2                     i2u623_40:
  6271   0012E2                     
  6272                           ;MCAL_Layer/Interrupt/mcal_interrupt_manager.c: 100:         ADC_ISR();
  6273   0012E2  EC13  F017         	call	_ADC_ISR	;wreg free
  6274   0012E6                     i2l1224:
  6275                           
  6276                           ;MCAL_Layer/Interrupt/mcal_interrupt_manager.c: 104:     if((1 == INTCONbits.TMR0IE) && 
      +                          (1 == INTCONbits.TMR0IF)){
  6277   0012E6  AAF2               	btfss	242,5,c	;volatile
  6278   0012E8  EF78  F009         	goto	i2u624_41
  6279   0012EC  EF7A  F009         	goto	i2u624_40
  6280   0012F0                     i2u624_41:
  6281   0012F0  EF83  F009         	goto	i2l1226
  6282   0012F4                     i2u624_40:
  6283   0012F4  A4F2               	btfss	242,2,c	;volatile
  6284   0012F6  EF7F  F009         	goto	i2u625_41
  6285   0012FA  EF81  F009         	goto	i2u625_40
  6286   0012FE                     i2u625_41:
  6287   0012FE  EF83  F009         	goto	i2l1226
  6288   001302                     i2u625_40:
  6289   001302                     
  6290                           ;MCAL_Layer/Interrupt/mcal_interrupt_manager.c: 105:         TMR0_ISR();
  6291   001302  ECE8  F016         	call	_TMR0_ISR	;wreg free
  6292   001306                     i2l1226:
  6293                           
  6294                           ;MCAL_Layer/Interrupt/mcal_interrupt_manager.c: 108:     if((1 == PIE1bits.TMR1IE) && (1
      +                           == PIR1bits.TMR1IF)){
  6295   001306  A09D               	btfss	157,0,c	;volatile
  6296   001308  EF88  F009         	goto	i2u626_41
  6297   00130C  EF8A  F009         	goto	i2u626_40
  6298   001310                     i2u626_41:
  6299   001310  EF93  F009         	goto	i2l1228
  6300   001314                     i2u626_40:
  6301   001314  A09E               	btfss	158,0,c	;volatile
  6302   001316  EF8F  F009         	goto	i2u627_41
  6303   00131A  EF91  F009         	goto	i2u627_40
  6304   00131E                     i2u627_41:
  6305   00131E  EF93  F009         	goto	i2l1228
  6306   001322                     i2u627_40:
  6307   001322                     
  6308                           ;MCAL_Layer/Interrupt/mcal_interrupt_manager.c: 109:         TMR1_ISR();
  6309   001322  ECE2  F016         	call	_TMR1_ISR	;wreg free
  6310   001326                     i2l1228:
  6311                           
  6312                           ;MCAL_Layer/Interrupt/mcal_interrupt_manager.c: 112:     if((1 == PIE1bits.TMR2IE) && (1
      +                           == PIR1bits.TMR2IF)){
  6313   001326  A29D               	btfss	157,1,c	;volatile
  6314   001328  EF98  F009         	goto	i2u628_41
  6315   00132C  EF9A  F009         	goto	i2u628_40
  6316   001330                     i2u628_41:
  6317   001330  EFA3  F009         	goto	i2l1230
  6318   001334                     i2u628_40:
  6319   001334  A29E               	btfss	158,1,c	;volatile
  6320   001336  EF9F  F009         	goto	i2u629_41
  6321   00133A  EFA1  F009         	goto	i2u629_40
  6322   00133E                     i2u629_41:
  6323   00133E  EFA3  F009         	goto	i2l1230
  6324   001342                     i2u629_40:
  6325   001342                     
  6326                           ;MCAL_Layer/Interrupt/mcal_interrupt_manager.c: 113:         TMR2_ISR();
  6327   001342  ECF9  F016         	call	_TMR2_ISR	;wreg free
  6328   001346                     i2l1230:
  6329                           
  6330                           ;MCAL_Layer/Interrupt/mcal_interrupt_manager.c: 116:     if((1 == PIE2bits.TMR3IE) && (1
      +                           == PIR2bits.TMR3IF)){
  6331   001346  A2A0               	btfss	160,1,c	;volatile
  6332   001348  EFA8  F009         	goto	i2u630_41
  6333   00134C  EFAA  F009         	goto	i2u630_40
  6334   001350                     i2u630_41:
  6335   001350  EFB3  F009         	goto	i2l1232
  6336   001354                     i2u630_40:
  6337   001354  A2A1               	btfss	161,1,c	;volatile
  6338   001356  EFAF  F009         	goto	i2u631_41
  6339   00135A  EFB1  F009         	goto	i2u631_40
  6340   00135E                     i2u631_41:
  6341   00135E  EFB3  F009         	goto	i2l1232
  6342   001362                     i2u631_40:
  6343   001362                     
  6344                           ;MCAL_Layer/Interrupt/mcal_interrupt_manager.c: 117:         TMR3_ISR();
  6345   001362  ECDB  F016         	call	_TMR3_ISR	;wreg free
  6346   001366                     i2l1232:
  6347                           
  6348                           ;MCAL_Layer/Interrupt/mcal_interrupt_manager.c: 121:     if((1 == PIE1bits.TXIE) && (1 =
      +                          = PIR1bits.TXIF)){
  6349   001366  A89D               	btfss	157,4,c	;volatile
  6350   001368  EFB8  F009         	goto	i2u632_41
  6351   00136C  EFBA  F009         	goto	i2u632_40
  6352   001370                     i2u632_41:
  6353   001370  EFC3  F009         	goto	i2l1234
  6354   001374                     i2u632_40:
  6355   001374  A89E               	btfss	158,4,c	;volatile
  6356   001376  EFBF  F009         	goto	i2u633_41
  6357   00137A  EFC1  F009         	goto	i2u633_40
  6358   00137E                     i2u633_41:
  6359   00137E  EFC3  F009         	goto	i2l1234
  6360   001382                     i2u633_40:
  6361   001382                     
  6362                           ;MCAL_Layer/Interrupt/mcal_interrupt_manager.c: 122:         EUSART_TX_ISR();
  6363   001382  EC0D  F017         	call	_EUSART_TX_ISR	;wreg free
  6364   001386                     i2l1234:
  6365                           
  6366                           ;MCAL_Layer/Interrupt/mcal_interrupt_manager.c: 125:     if((1 == PIE1bits.RCIE) && (1 =
      +                          = PIR1bits.RCIF)){
  6367   001386  AA9D               	btfss	157,5,c	;volatile
  6368   001388  EFC8  F009         	goto	i2u634_41
  6369   00138C  EFCA  F009         	goto	i2u634_40
  6370   001390                     i2u634_41:
  6371   001390  EFD3  F009         	goto	i2l1236
  6372   001394                     i2u634_40:
  6373   001394  AA9E               	btfss	158,5,c	;volatile
  6374   001396  EFCF  F009         	goto	i2u635_41
  6375   00139A  EFD1  F009         	goto	i2u635_40
  6376   00139E                     i2u635_41:
  6377   00139E  EFD3  F009         	goto	i2l1236
  6378   0013A2                     i2u635_40:
  6379   0013A2                     
  6380                           ;MCAL_Layer/Interrupt/mcal_interrupt_manager.c: 126:         EUSART_RX_ISR();
  6381   0013A2  EC71  F016         	call	_EUSART_RX_ISR	;wreg free
  6382   0013A6                     i2l1236:
  6383                           
  6384                           ;MCAL_Layer/Interrupt/mcal_interrupt_manager.c: 131:     if((1 == PIE1bits.SSPIE) && (1 
      +                          == PIR1bits.SSPIF && (SSPCON1bits.SSPM > 5))){
  6385   0013A6  A69D               	btfss	157,3,c	;volatile
  6386   0013A8  EFD8  F009         	goto	i2u636_41
  6387   0013AC  EFDA  F009         	goto	i2u636_40
  6388   0013B0                     i2u636_41:
  6389   0013B0  EFEE  F009         	goto	i2l1238
  6390   0013B4                     i2u636_40:
  6391   0013B4  A69E               	btfss	158,3,c	;volatile
  6392   0013B6  EFDF  F009         	goto	i2u637_41
  6393   0013BA  EFE1  F009         	goto	i2u637_40
  6394   0013BE                     i2u637_41:
  6395   0013BE  EFEE  F009         	goto	i2l1238
  6396   0013C2                     i2u637_40:
  6397   0013C2  50C6               	movf	198,w,c	;volatile
  6398   0013C4  0B0F               	andlw	15
  6399   0013C6  6E02               	movwf	??_InterruptManager^0,c
  6400   0013C8  0E05               	movlw	5
  6401   0013CA  6402               	cpfsgt	??_InterruptManager^0,c
  6402   0013CC  EFEA  F009         	goto	i2u638_41
  6403   0013D0  EFEC  F009         	goto	i2u638_40
  6404   0013D4                     i2u638_41:
  6405   0013D4  EFEE  F009         	goto	i2l1238
  6406   0013D8                     i2u638_40:
  6407   0013D8                     
  6408                           ;MCAL_Layer/Interrupt/mcal_interrupt_manager.c: 132:         MSSP_I2C_ISR();
  6409   0013D8  EC03  F017         	call	_MSSP_I2C_ISR	;wreg free
  6410   0013DC                     i2l1238:
  6411                           
  6412                           ;MCAL_Layer/Interrupt/mcal_interrupt_manager.c: 135:     if((1 == PIE2bits.BCLIE) && (1 
      +                          == PIR2bits.BCLIF) && (SSPCON1bits.SSPM > 5)){
  6413   0013DC  A6A0               	btfss	160,3,c	;volatile
  6414   0013DE  EFF3  F009         	goto	i2u639_41
  6415   0013E2  EFF5  F009         	goto	i2u639_40
  6416   0013E6                     i2u639_41:
  6417   0013E6  EF09  F00A         	goto	i2l1240
  6418   0013EA                     i2u639_40:
  6419   0013EA  A6A1               	btfss	161,3,c	;volatile
  6420   0013EC  EFFA  F009         	goto	i2u640_41
  6421   0013F0  EFFC  F009         	goto	i2u640_40
  6422   0013F4                     i2u640_41:
  6423   0013F4  EF09  F00A         	goto	i2l1240
  6424   0013F8                     i2u640_40:
  6425   0013F8  50C6               	movf	198,w,c	;volatile
  6426   0013FA  0B0F               	andlw	15
  6427   0013FC  6E02               	movwf	??_InterruptManager^0,c
  6428   0013FE  0E05               	movlw	5
  6429   001400  6402               	cpfsgt	??_InterruptManager^0,c
  6430   001402  EF05  F00A         	goto	i2u641_41
  6431   001406  EF07  F00A         	goto	i2u641_40
  6432   00140A                     i2u641_41:
  6433   00140A  EF09  F00A         	goto	i2l1240
  6434   00140E                     i2u641_40:
  6435   00140E                     
  6436                           ;MCAL_Layer/Interrupt/mcal_interrupt_manager.c: 136:         MSSP_I2C_BC_ISR();
  6437   00140E  EC05  F017         	call	_MSSP_I2C_BC_ISR	;wreg free
  6438   001412                     i2l1240:
  6439                           
  6440                           ;MCAL_Layer/Interrupt/mcal_interrupt_manager.c: 139:     if((1 == PIE1bits.SSPIE) && (1 
      +                          == PIR1bits.SSPIF) && (SSPCON1bits.SSPM <= 5) ){
  6441   001412  A69D               	btfss	157,3,c	;volatile
  6442   001414  EF0E  F00A         	goto	i2u642_41
  6443   001418  EF10  F00A         	goto	i2u642_40
  6444   00141C                     i2u642_41:
  6445   00141C  EF24  F00A         	goto	i2l1242
  6446   001420                     i2u642_40:
  6447   001420  A69E               	btfss	158,3,c	;volatile
  6448   001422  EF15  F00A         	goto	i2u643_41
  6449   001426  EF17  F00A         	goto	i2u643_40
  6450   00142A                     i2u643_41:
  6451   00142A  EF24  F00A         	goto	i2l1242
  6452   00142E                     i2u643_40:
  6453   00142E  50C6               	movf	198,w,c	;volatile
  6454   001430  0B0F               	andlw	15
  6455   001432  6E02               	movwf	??_InterruptManager^0,c
  6456   001434  0E06               	movlw	6
  6457   001436  6002               	cpfslt	??_InterruptManager^0,c
  6458   001438  EF20  F00A         	goto	i2u644_41
  6459   00143C  EF22  F00A         	goto	i2u644_40
  6460   001440                     i2u644_41:
  6461   001440  EF24  F00A         	goto	i2l1242
  6462   001444                     i2u644_40:
  6463   001444                     
  6464                           ;MCAL_Layer/Interrupt/mcal_interrupt_manager.c: 140:         MSSP_SPI_ISR();
  6465   001444  EC00  F017         	call	_MSSP_SPI_ISR	;wreg free
  6466   001448                     i2l1242:
  6467                           
  6468                           ;MCAL_Layer/Interrupt/mcal_interrupt_manager.c: 145:     if((1 == PIE1bits.CCP1IE) && (1
      +                           == PIR1bits.CCP1IF)){
  6469   001448  A49D               	btfss	157,2,c	;volatile
  6470   00144A  EF29  F00A         	goto	i2u645_41
  6471   00144E  EF2B  F00A         	goto	i2u645_40
  6472   001452                     i2u645_41:
  6473   001452  EF34  F00A         	goto	i2l1244
  6474   001456                     i2u645_40:
  6475   001456  A49E               	btfss	158,2,c	;volatile
  6476   001458  EF30  F00A         	goto	i2u646_41
  6477   00145C  EF32  F00A         	goto	i2u646_40
  6478   001460                     i2u646_41:
  6479   001460  EF34  F00A         	goto	i2l1244
  6480   001464                     i2u646_40:
  6481   001464                     
  6482                           ;MCAL_Layer/Interrupt/mcal_interrupt_manager.c: 146:         CCP1_ISR();
  6483   001464  EC11  F017         	call	_CCP1_ISR	;wreg free
  6484   001468                     i2l1244:
  6485                           
  6486                           ;MCAL_Layer/Interrupt/mcal_interrupt_manager.c: 149:     if((1 == PIE2bits.CCP2IE) && (1
      +                           == PIR2bits.CCP2IF)){
  6487   001468  A0A0               	btfss	160,0,c	;volatile
  6488   00146A  EF39  F00A         	goto	i2u647_41
  6489   00146E  EF3B  F00A         	goto	i2u647_40
  6490   001472                     i2u647_41:
  6491   001472  EF44  F00A         	goto	i2l1247
  6492   001476                     i2u647_40:
  6493   001476  A0A1               	btfss	161,0,c	;volatile
  6494   001478  EF40  F00A         	goto	i2u648_41
  6495   00147C  EF42  F00A         	goto	i2u648_40
  6496   001480                     i2u648_41:
  6497   001480  EF44  F00A         	goto	i2l1247
  6498   001484                     i2u648_40:
  6499   001484                     
  6500                           ;MCAL_Layer/Interrupt/mcal_interrupt_manager.c: 150:         CCP2_ISR();
  6501   001484  EC0F  F017         	call	_CCP2_ISR	;wreg free
  6502   001488                     i2l1247:
  6503   001488  927C               	bcf	int$flags,1,c	;clear compiler interrupt flag (level 2)
  6504   00148A  0011               	retfie		f
  6505   00148C                     __end_of_InterruptManager:
  6506                           	callstack 0
  6507                           
  6508 ;; *************** function _TMR3_ISR *****************
  6509 ;; Defined at:
  6510 ;;		line 102 in file "MCAL_Layer/Timer3/hal_timr3.c"
  6511 ;; Parameters:    Size  Location     Type
  6512 ;;		None
  6513 ;; Auto vars:     Size  Location     Type
  6514 ;;		None
  6515 ;; Return value:  Size  Location     Type
  6516 ;;                  1    wreg      void 
  6517 ;; Registers used:
  6518 ;;		wreg, status,2
  6519 ;; Tracked objects:
  6520 ;;		On entry : 0/0
  6521 ;;		On exit  : 0/0
  6522 ;;		Unchanged: 0/0
  6523 ;; Data sizes:     COMRAM   BANK0   BANK1   BANK2   BANK3   BANK4   BANK5   BANK6   BANK7   BANK8   BANK9  BANK10  BANK1
      +1  BANK12  BANK13  BANK14  BANK15
  6524 ;;      Params:         0       0       0       0       0       0       0       0       0       0       0       0       
      +0       0       0       0       0
  6525 ;;      Locals:         0       0       0       0       0       0       0       0       0       0       0       0       
      +0       0       0       0       0
  6526 ;;      Temps:          0       0       0       0       0       0       0       0       0       0       0       0       
      +0       0       0       0       0
  6527 ;;      Totals:         0       0       0       0       0       0       0       0       0       0       0       0       
      +0       0       0       0       0
  6528 ;;Total ram usage:        0 bytes
  6529 ;; Hardware stack levels used: 1
  6530 ;; This function calls:
  6531 ;;		Nothing
  6532 ;; This function is called by:
  6533 ;;		_InterruptManager
  6534 ;; This function uses a non-reentrant model
  6535 ;;
  6536                           
  6537                           	psect	text38
  6538   002DB6                     __ptext38:
  6539                           	callstack 0
  6540   002DB6                     _TMR3_ISR:
  6541                           	callstack 19
  6542   002DB6                     
  6543                           ;MCAL_Layer/Timer3/hal_timr3.c: 103:     (PIR2bits.TMR3IF = 0);
  6544   002DB6  92A1               	bcf	161,1,c	;volatile
  6545   002DB8                     
  6546                           ;MCAL_Layer/Timer3/hal_timr3.c: 104:     TMR3H = (timer3_preload) >> 8;
  6547   002DB8  0100               	movlb	0	; () banked
  6548   002DBA  5197               	movf	(_timer3_preload+1)& (0+255),w,b
  6549   002DBC  6EB3               	movwf	179,c	;volatile
  6550   002DBE                     
  6551                           ; BSR set to: 0
  6552                           ;MCAL_Layer/Timer3/hal_timr3.c: 105:     TMR3L = (uint8)(timer3_preload);
  6553   002DBE  C096  FFB2         	movff	_timer3_preload,4018	;volatile
  6554   002DC2                     
  6555                           ; BSR set to: 0
  6556   002DC2  0012               	return		;funcret
  6557   002DC4                     __end_of_TMR3_ISR:
  6558                           	callstack 0
  6559                           
  6560 ;; *************** function _TMR2_ISR *****************
  6561 ;; Defined at:
  6562 ;;		line 95 in file "MCAL_Layer/Timer2/hal_timr2.c"
  6563 ;; Parameters:    Size  Location     Type
  6564 ;;		None
  6565 ;; Auto vars:     Size  Location     Type
  6566 ;;		None
  6567 ;; Return value:  Size  Location     Type
  6568 ;;                  1    wreg      void 
  6569 ;; Registers used:
  6570 ;;		None
  6571 ;; Tracked objects:
  6572 ;;		On entry : 0/0
  6573 ;;		On exit  : 0/0
  6574 ;;		Unchanged: 0/0
  6575 ;; Data sizes:     COMRAM   BANK0   BANK1   BANK2   BANK3   BANK4   BANK5   BANK6   BANK7   BANK8   BANK9  BANK10  BANK1
      +1  BANK12  BANK13  BANK14  BANK15
  6576 ;;      Params:         0       0       0       0       0       0       0       0       0       0       0       0       
      +0       0       0       0       0
  6577 ;;      Locals:         0       0       0       0       0       0       0       0       0       0       0       0       
      +0       0       0       0       0
  6578 ;;      Temps:          0       0       0       0       0       0       0       0       0       0       0       0       
      +0       0       0       0       0
  6579 ;;      Totals:         0       0       0       0       0       0       0       0       0       0       0       0       
      +0       0       0       0       0
  6580 ;;Total ram usage:        0 bytes
  6581 ;; Hardware stack levels used: 1
  6582 ;; This function calls:
  6583 ;;		Nothing
  6584 ;; This function is called by:
  6585 ;;		_InterruptManager
  6586 ;; This function uses a non-reentrant model
  6587 ;;
  6588                           
  6589                           	psect	text39
  6590   002DF2                     __ptext39:
  6591                           	callstack 0
  6592   002DF2                     _TMR2_ISR:
  6593                           	callstack 19
  6594   002DF2                     
  6595                           ;MCAL_Layer/Timer2/hal_timr2.c: 96:     (PIR1bits.TMR2IF = 0);
  6596   002DF2  929E               	bcf	158,1,c	;volatile
  6597                           
  6598                           ;MCAL_Layer/Timer2/hal_timr2.c: 97:     TMR2 = timer2_preload;
  6599   002DF4  C06F  FFCC         	movff	_timer2_preload,4044	;volatile
  6600   002DF8  0012               	return		;funcret
  6601   002DFA                     __end_of_TMR2_ISR:
  6602                           	callstack 0
  6603                           
  6604 ;; *************** function _TMR1_ISR *****************
  6605 ;; Defined at:
  6606 ;;		line 102 in file "MCAL_Layer/Timer1/hal_timr1.c"
  6607 ;; Parameters:    Size  Location     Type
  6608 ;;		None
  6609 ;; Auto vars:     Size  Location     Type
  6610 ;;		None
  6611 ;; Return value:  Size  Location     Type
  6612 ;;                  1    wreg      void 
  6613 ;; Registers used:
  6614 ;;		wreg, status,2
  6615 ;; Tracked objects:
  6616 ;;		On entry : 0/0
  6617 ;;		On exit  : 0/0
  6618 ;;		Unchanged: 0/0
  6619 ;; Data sizes:     COMRAM   BANK0   BANK1   BANK2   BANK3   BANK4   BANK5   BANK6   BANK7   BANK8   BANK9  BANK10  BANK1
      +1  BANK12  BANK13  BANK14  BANK15
  6620 ;;      Params:         0       0       0       0       0       0       0       0       0       0       0       0       
      +0       0       0       0       0
  6621 ;;      Locals:         0       0       0       0       0       0       0       0       0       0       0       0       
      +0       0       0       0       0
  6622 ;;      Temps:          0       0       0       0       0       0       0       0       0       0       0       0       
      +0       0       0       0       0
  6623 ;;      Totals:         0       0       0       0       0       0       0       0       0       0       0       0       
      +0       0       0       0       0
  6624 ;;Total ram usage:        0 bytes
  6625 ;; Hardware stack levels used: 1
  6626 ;; This function calls:
  6627 ;;		Nothing
  6628 ;; This function is called by:
  6629 ;;		_InterruptManager
  6630 ;; This function uses a non-reentrant model
  6631 ;;
  6632                           
  6633                           	psect	text40
  6634   002DC4                     __ptext40:
  6635                           	callstack 0
  6636   002DC4                     _TMR1_ISR:
  6637                           	callstack 19
  6638   002DC4                     
  6639                           ;MCAL_Layer/Timer1/hal_timr1.c: 103:     (PIR1bits.TMR1IF = 0);
  6640   002DC4  909E               	bcf	158,0,c	;volatile
  6641   002DC6                     
  6642                           ;MCAL_Layer/Timer1/hal_timr1.c: 104:     TMR1H = (timer1_preload) >> 8;
  6643   002DC6  5069               	movf	(_timer1_preload+1)^0,w,c	;volatile
  6644   002DC8  6ECF               	movwf	207,c	;volatile
  6645   002DCA                     
  6646                           ;MCAL_Layer/Timer1/hal_timr1.c: 105:     TMR1L = (uint8)(timer1_preload);
  6647   002DCA  C068  FFCE         	movff	_timer1_preload,4046	;volatile
  6648   002DCE  0012               	return		;funcret
  6649   002DD0                     __end_of_TMR1_ISR:
  6650                           	callstack 0
  6651                           
  6652 ;; *************** function _TMR0_ISR *****************
  6653 ;; Defined at:
  6654 ;;		line 107 in file "MCAL_Layer/Timer0/hal_timr0.c"
  6655 ;; Parameters:    Size  Location     Type
  6656 ;;		None
  6657 ;; Auto vars:     Size  Location     Type
  6658 ;;		None
  6659 ;; Return value:  Size  Location     Type
  6660 ;;                  1    wreg      void 
  6661 ;; Registers used:
  6662 ;;		wreg, status,2
  6663 ;; Tracked objects:
  6664 ;;		On entry : 0/0
  6665 ;;		On exit  : 0/0
  6666 ;;		Unchanged: 0/0
  6667 ;; Data sizes:     COMRAM   BANK0   BANK1   BANK2   BANK3   BANK4   BANK5   BANK6   BANK7   BANK8   BANK9  BANK10  BANK1
      +1  BANK12  BANK13  BANK14  BANK15
  6668 ;;      Params:         0       0       0       0       0       0       0       0       0       0       0       0       
      +0       0       0       0       0
  6669 ;;      Locals:         0       0       0       0       0       0       0       0       0       0       0       0       
      +0       0       0       0       0
  6670 ;;      Temps:          0       0       0       0       0       0       0       0       0       0       0       0       
      +0       0       0       0       0
  6671 ;;      Totals:         0       0       0       0       0       0       0       0       0       0       0       0       
      +0       0       0       0       0
  6672 ;;Total ram usage:        0 bytes
  6673 ;; Hardware stack levels used: 1
  6674 ;; This function calls:
  6675 ;;		Nothing
  6676 ;; This function is called by:
  6677 ;;		_InterruptManager
  6678 ;; This function uses a non-reentrant model
  6679 ;;
  6680                           
  6681                           	psect	text41
  6682   002DD0                     __ptext41:
  6683                           	callstack 0
  6684   002DD0                     _TMR0_ISR:
  6685                           	callstack 19
  6686   002DD0                     
  6687                           ;MCAL_Layer/Timer0/hal_timr0.c: 108:     (INTCONbits.TMR0IF = 0);
  6688   002DD0  94F2               	bcf	242,2,c	;volatile
  6689   002DD2                     
  6690                           ;MCAL_Layer/Timer0/hal_timr0.c: 109:     TMR0H = (timer0_preload) >> 8;
  6691   002DD2  506B               	movf	(_timer0_preload+1)^0,w,c
  6692   002DD4  6ED7               	movwf	215,c	;volatile
  6693   002DD6                     
  6694                           ;MCAL_Layer/Timer0/hal_timr0.c: 110:     TMR0L = (uint8)(timer0_preload);
  6695   002DD6  C06A  FFD6         	movff	_timer0_preload,4054	;volatile
  6696   002DDA  0012               	return		;funcret
  6697   002DDC                     __end_of_TMR0_ISR:
  6698                           	callstack 0
  6699                           
  6700 ;; *************** function _RB7_ISR *****************
  6701 ;; Defined at:
  6702 ;;		line 164 in file "MCAL_Layer/Interrupt/mcal_external_interrupt.c"
  6703 ;; Parameters:    Size  Location     Type
  6704 ;;  RB7_Source      1    wreg     unsigned char 
  6705 ;; Auto vars:     Size  Location     Type
  6706 ;;  RB7_Source      1    0[COMRAM] unsigned char 
  6707 ;; Return value:  Size  Location     Type
  6708 ;;                  1    wreg      void 
  6709 ;; Registers used:
  6710 ;;		wreg, status,2, status,0
  6711 ;; Tracked objects:
  6712 ;;		On entry : 0/0
  6713 ;;		On exit  : 0/0
  6714 ;;		Unchanged: 0/0
  6715 ;; Data sizes:     COMRAM   BANK0   BANK1   BANK2   BANK3   BANK4   BANK5   BANK6   BANK7   BANK8   BANK9  BANK10  BANK1
      +1  BANK12  BANK13  BANK14  BANK15
  6716 ;;      Params:         0       0       0       0       0       0       0       0       0       0       0       0       
      +0       0       0       0       0
  6717 ;;      Locals:         1       0       0       0       0       0       0       0       0       0       0       0       
      +0       0       0       0       0
  6718 ;;      Temps:          0       0       0       0       0       0       0       0       0       0       0       0       
      +0       0       0       0       0
  6719 ;;      Totals:         1       0       0       0       0       0       0       0       0       0       0       0       
      +0       0       0       0       0
  6720 ;;Total ram usage:        1 bytes
  6721 ;; Hardware stack levels used: 1
  6722 ;; This function calls:
  6723 ;;		Nothing
  6724 ;; This function is called by:
  6725 ;;		_InterruptManager
  6726 ;; This function uses a non-reentrant model
  6727 ;;
  6728                           
  6729                           	psect	text42
  6730   002D4E                     __ptext42:
  6731                           	callstack 0
  6732   002D4E                     _RB7_ISR:
  6733                           	callstack 19
  6734                           
  6735                           ;incstack = 0
  6736                           ;RB7_ISR@RB7_Source stored from wreg
  6737   002D4E  6E01               	movwf	RB7_ISR@RB7_Source^0,c
  6738   002D50                     
  6739                           ;MCAL_Layer/Interrupt/mcal_external_interrupt.c: 166:     (INTCONbits.RBIF = 0);
  6740   002D50  90F2               	bcf	242,0,c	;volatile
  6741   002D52                     
  6742                           ;MCAL_Layer/Interrupt/mcal_external_interrupt.c: 169:     if(0 == RB7_Source){
  6743   002D52  5001               	movf	RB7_ISR@RB7_Source^0,w,c
  6744   002D54  A4D8               	btfss	status,2,c
  6745   002D56  EFAF  F016         	goto	i2u492_41
  6746   002D5A  EFB1  F016         	goto	i2u492_40
  6747   002D5E                     i2u492_41:
  6748   002D5E  EFB3  F016         	goto	i2l6506
  6749   002D62                     i2u492_40:
  6750   002D62  EFB3  F016         	goto	i2l1025
  6751   002D66                     i2l6506:
  6752   002D66                     i2l1025:
  6753   002D66  0012               	return		;funcret
  6754   002D68                     __end_of_RB7_ISR:
  6755                           	callstack 0
  6756                           
  6757 ;; *************** function _RB6_ISR *****************
  6758 ;; Defined at:
  6759 ;;		line 145 in file "MCAL_Layer/Interrupt/mcal_external_interrupt.c"
  6760 ;; Parameters:    Size  Location     Type
  6761 ;;  RB6_Source      1    wreg     unsigned char 
  6762 ;; Auto vars:     Size  Location     Type
  6763 ;;  RB6_Source      1    0[COMRAM] unsigned char 
  6764 ;; Return value:  Size  Location     Type
  6765 ;;                  1    wreg      void 
  6766 ;; Registers used:
  6767 ;;		wreg, status,2, status,0
  6768 ;; Tracked objects:
  6769 ;;		On entry : 0/0
  6770 ;;		On exit  : 0/0
  6771 ;;		Unchanged: 0/0
  6772 ;; Data sizes:     COMRAM   BANK0   BANK1   BANK2   BANK3   BANK4   BANK5   BANK6   BANK7   BANK8   BANK9  BANK10  BANK1
      +1  BANK12  BANK13  BANK14  BANK15
  6773 ;;      Params:         0       0       0       0       0       0       0       0       0       0       0       0       
      +0       0       0       0       0
  6774 ;;      Locals:         1       0       0       0       0       0       0       0       0       0       0       0       
      +0       0       0       0       0
  6775 ;;      Temps:          0       0       0       0       0       0       0       0       0       0       0       0       
      +0       0       0       0       0
  6776 ;;      Totals:         1       0       0       0       0       0       0       0       0       0       0       0       
      +0       0       0       0       0
  6777 ;;Total ram usage:        1 bytes
  6778 ;; Hardware stack levels used: 1
  6779 ;; This function calls:
  6780 ;;		Nothing
  6781 ;; This function is called by:
  6782 ;;		_InterruptManager
  6783 ;; This function uses a non-reentrant model
  6784 ;;
  6785                           
  6786                           	psect	text43
  6787   002D68                     __ptext43:
  6788                           	callstack 0
  6789   002D68                     _RB6_ISR:
  6790                           	callstack 19
  6791                           
  6792                           ;incstack = 0
  6793                           ;RB6_ISR@RB6_Source stored from wreg
  6794   002D68  6E01               	movwf	RB6_ISR@RB6_Source^0,c
  6795   002D6A                     
  6796                           ;MCAL_Layer/Interrupt/mcal_external_interrupt.c: 147:     (INTCONbits.RBIF = 0);
  6797   002D6A  90F2               	bcf	242,0,c	;volatile
  6798   002D6C                     
  6799                           ;MCAL_Layer/Interrupt/mcal_external_interrupt.c: 150:     if(0 == RB6_Source){
  6800   002D6C  5001               	movf	RB6_ISR@RB6_Source^0,w,c
  6801   002D6E  A4D8               	btfss	status,2,c
  6802   002D70  EFBC  F016         	goto	i2u491_41
  6803   002D74  EFBE  F016         	goto	i2u491_40
  6804   002D78                     i2u491_41:
  6805   002D78  EFC0  F016         	goto	i2l6492
  6806   002D7C                     i2u491_40:
  6807   002D7C  EFC0  F016         	goto	i2l1014
  6808   002D80                     i2l6492:
  6809   002D80                     i2l1014:
  6810   002D80  0012               	return		;funcret
  6811   002D82                     __end_of_RB6_ISR:
  6812                           	callstack 0
  6813                           
  6814 ;; *************** function _RB5_ISR *****************
  6815 ;; Defined at:
  6816 ;;		line 126 in file "MCAL_Layer/Interrupt/mcal_external_interrupt.c"
  6817 ;; Parameters:    Size  Location     Type
  6818 ;;  RB5_Source      1    wreg     unsigned char 
  6819 ;; Auto vars:     Size  Location     Type
  6820 ;;  RB5_Source      1    0[COMRAM] unsigned char 
  6821 ;; Return value:  Size  Location     Type
  6822 ;;                  1    wreg      void 
  6823 ;; Registers used:
  6824 ;;		wreg, status,2, status,0
  6825 ;; Tracked objects:
  6826 ;;		On entry : 0/0
  6827 ;;		On exit  : 0/0
  6828 ;;		Unchanged: 0/0
  6829 ;; Data sizes:     COMRAM   BANK0   BANK1   BANK2   BANK3   BANK4   BANK5   BANK6   BANK7   BANK8   BANK9  BANK10  BANK1
      +1  BANK12  BANK13  BANK14  BANK15
  6830 ;;      Params:         0       0       0       0       0       0       0       0       0       0       0       0       
      +0       0       0       0       0
  6831 ;;      Locals:         1       0       0       0       0       0       0       0       0       0       0       0       
      +0       0       0       0       0
  6832 ;;      Temps:          0       0       0       0       0       0       0       0       0       0       0       0       
      +0       0       0       0       0
  6833 ;;      Totals:         1       0       0       0       0       0       0       0       0       0       0       0       
      +0       0       0       0       0
  6834 ;;Total ram usage:        1 bytes
  6835 ;; Hardware stack levels used: 1
  6836 ;; This function calls:
  6837 ;;		Nothing
  6838 ;; This function is called by:
  6839 ;;		_InterruptManager
  6840 ;; This function uses a non-reentrant model
  6841 ;;
  6842                           
  6843                           	psect	text44
  6844   002D82                     __ptext44:
  6845                           	callstack 0
  6846   002D82                     _RB5_ISR:
  6847                           	callstack 19
  6848                           
  6849                           ;incstack = 0
  6850                           ;RB5_ISR@RB5_Source stored from wreg
  6851   002D82  6E01               	movwf	RB5_ISR@RB5_Source^0,c
  6852   002D84                     
  6853                           ;MCAL_Layer/Interrupt/mcal_external_interrupt.c: 128:     (INTCONbits.RBIF = 0);
  6854   002D84  90F2               	bcf	242,0,c	;volatile
  6855   002D86                     
  6856                           ;MCAL_Layer/Interrupt/mcal_external_interrupt.c: 131:     if(0 == RB5_Source){
  6857   002D86  5001               	movf	RB5_ISR@RB5_Source^0,w,c
  6858   002D88  A4D8               	btfss	status,2,c
  6859   002D8A  EFC9  F016         	goto	i2u490_41
  6860   002D8E  EFCB  F016         	goto	i2u490_40
  6861   002D92                     i2u490_41:
  6862   002D92  EFCD  F016         	goto	i2l6478
  6863   002D96                     i2u490_40:
  6864   002D96  EFCD  F016         	goto	i2l1003
  6865   002D9A                     i2l6478:
  6866   002D9A                     i2l1003:
  6867   002D9A  0012               	return		;funcret
  6868   002D9C                     __end_of_RB5_ISR:
  6869                           	callstack 0
  6870                           
  6871 ;; *************** function _RB4_ISR *****************
  6872 ;; Defined at:
  6873 ;;		line 107 in file "MCAL_Layer/Interrupt/mcal_external_interrupt.c"
  6874 ;; Parameters:    Size  Location     Type
  6875 ;;  RB4_Source      1    wreg     unsigned char 
  6876 ;; Auto vars:     Size  Location     Type
  6877 ;;  RB4_Source      1    0[COMRAM] unsigned char 
  6878 ;; Return value:  Size  Location     Type
  6879 ;;                  1    wreg      void 
  6880 ;; Registers used:
  6881 ;;		wreg, status,2, status,0
  6882 ;; Tracked objects:
  6883 ;;		On entry : 0/0
  6884 ;;		On exit  : 0/0
  6885 ;;		Unchanged: 0/0
  6886 ;; Data sizes:     COMRAM   BANK0   BANK1   BANK2   BANK3   BANK4   BANK5   BANK6   BANK7   BANK8   BANK9  BANK10  BANK1
      +1  BANK12  BANK13  BANK14  BANK15
  6887 ;;      Params:         0       0       0       0       0       0       0       0       0       0       0       0       
      +0       0       0       0       0
  6888 ;;      Locals:         1       0       0       0       0       0       0       0       0       0       0       0       
      +0       0       0       0       0
  6889 ;;      Temps:          0       0       0       0       0       0       0       0       0       0       0       0       
      +0       0       0       0       0
  6890 ;;      Totals:         1       0       0       0       0       0       0       0       0       0       0       0       
      +0       0       0       0       0
  6891 ;;Total ram usage:        1 bytes
  6892 ;; Hardware stack levels used: 1
  6893 ;; This function calls:
  6894 ;;		Nothing
  6895 ;; This function is called by:
  6896 ;;		_InterruptManager
  6897 ;; This function uses a non-reentrant model
  6898 ;;
  6899                           
  6900                           	psect	text45
  6901   002D9C                     __ptext45:
  6902                           	callstack 0
  6903   002D9C                     _RB4_ISR:
  6904                           	callstack 19
  6905                           
  6906                           ;incstack = 0
  6907                           ;RB4_ISR@RB4_Source stored from wreg
  6908   002D9C  6E01               	movwf	RB4_ISR@RB4_Source^0,c
  6909   002D9E                     
  6910                           ;MCAL_Layer/Interrupt/mcal_external_interrupt.c: 109:     (INTCONbits.RBIF = 0);
  6911   002D9E  90F2               	bcf	242,0,c	;volatile
  6912   002DA0                     
  6913                           ;MCAL_Layer/Interrupt/mcal_external_interrupt.c: 112:     if(0 == RB4_Source){
  6914   002DA0  5001               	movf	RB4_ISR@RB4_Source^0,w,c
  6915   002DA2  A4D8               	btfss	status,2,c
  6916   002DA4  EFD6  F016         	goto	i2u489_41
  6917   002DA8  EFD8  F016         	goto	i2u489_40
  6918   002DAC                     i2u489_41:
  6919   002DAC  EFDA  F016         	goto	i2l6464
  6920   002DB0                     i2u489_40:
  6921   002DB0  EFDA  F016         	goto	i2l992
  6922   002DB4                     i2l6464:
  6923   002DB4                     i2l992:
  6924   002DB4  0012               	return		;funcret
  6925   002DB6                     __end_of_RB4_ISR:
  6926                           	callstack 0
  6927                           
  6928 ;; *************** function _MSSP_SPI_ISR *****************
  6929 ;; Defined at:
  6930 ;;		line 130 in file "MCAL_Layer/SPI/hal_spi.c"
  6931 ;; Parameters:    Size  Location     Type
  6932 ;;		None
  6933 ;; Auto vars:     Size  Location     Type
  6934 ;;		None
  6935 ;; Return value:  Size  Location     Type
  6936 ;;                  1    wreg      void 
  6937 ;; Registers used:
  6938 ;;		None
  6939 ;; Tracked objects:
  6940 ;;		On entry : 0/0
  6941 ;;		On exit  : 0/0
  6942 ;;		Unchanged: 0/0
  6943 ;; Data sizes:     COMRAM   BANK0   BANK1   BANK2   BANK3   BANK4   BANK5   BANK6   BANK7   BANK8   BANK9  BANK10  BANK1
      +1  BANK12  BANK13  BANK14  BANK15
  6944 ;;      Params:         0       0       0       0       0       0       0       0       0       0       0       0       
      +0       0       0       0       0
  6945 ;;      Locals:         0       0       0       0       0       0       0       0       0       0       0       0       
      +0       0       0       0       0
  6946 ;;      Temps:          0       0       0       0       0       0       0       0       0       0       0       0       
      +0       0       0       0       0
  6947 ;;      Totals:         0       0       0       0       0       0       0       0       0       0       0       0       
      +0       0       0       0       0
  6948 ;;Total ram usage:        0 bytes
  6949 ;; Hardware stack levels used: 1
  6950 ;; This function calls:
  6951 ;;		Nothing
  6952 ;; This function is called by:
  6953 ;;		_InterruptManager
  6954 ;; This function uses a non-reentrant model
  6955 ;;
  6956                           
  6957                           	psect	text46
  6958   002E00                     __ptext46:
  6959                           	callstack 0
  6960   002E00                     _MSSP_SPI_ISR:
  6961                           	callstack 19
  6962   002E00                     
  6963                           ;MCAL_Layer/SPI/hal_spi.c: 132:     (PIR1bits.SSPIF = 0);
  6964   002E00  969E               	bcf	158,3,c	;volatile
  6965                           
  6966                           ;MCAL_Layer/SPI/hal_spi.c: 133:     (PIR1bits.SSPIF = 0);
  6967   002E02  969E               	bcf	158,3,c	;volatile
  6968   002E04  0012               	return		;funcret
  6969   002E06                     __end_of_MSSP_SPI_ISR:
  6970                           	callstack 0
  6971                           
  6972 ;; *************** function _MSSP_I2C_ISR *****************
  6973 ;; Defined at:
  6974 ;;		line 281 in file "MCAL_Layer/I2C/hal_i2c.c"
  6975 ;; Parameters:    Size  Location     Type
  6976 ;;		None
  6977 ;; Auto vars:     Size  Location     Type
  6978 ;;		None
  6979 ;; Return value:  Size  Location     Type
  6980 ;;                  1    wreg      void 
  6981 ;; Registers used:
  6982 ;;		None
  6983 ;; Tracked objects:
  6984 ;;		On entry : 0/0
  6985 ;;		On exit  : 0/0
  6986 ;;		Unchanged: 0/0
  6987 ;; Data sizes:     COMRAM   BANK0   BANK1   BANK2   BANK3   BANK4   BANK5   BANK6   BANK7   BANK8   BANK9  BANK10  BANK1
      +1  BANK12  BANK13  BANK14  BANK15
  6988 ;;      Params:         0       0       0       0       0       0       0       0       0       0       0       0       
      +0       0       0       0       0
  6989 ;;      Locals:         0       0       0       0       0       0       0       0       0       0       0       0       
      +0       0       0       0       0
  6990 ;;      Temps:          0       0       0       0       0       0       0       0       0       0       0       0       
      +0       0       0       0       0
  6991 ;;      Totals:         0       0       0       0       0       0       0       0       0       0       0       0       
      +0       0       0       0       0
  6992 ;;Total ram usage:        0 bytes
  6993 ;; Hardware stack levels used: 1
  6994 ;; This function calls:
  6995 ;;		Nothing
  6996 ;; This function is called by:
  6997 ;;		_InterruptManager
  6998 ;; This function uses a non-reentrant model
  6999 ;;
  7000                           
  7001                           	psect	text47
  7002   002E06                     __ptext47:
  7003                           	callstack 0
  7004   002E06                     _MSSP_I2C_ISR:
  7005                           	callstack 19
  7006   002E06                     
  7007                           ;MCAL_Layer/I2C/hal_i2c.c: 283:     (PIR1bits.SSPIF = 0);
  7008   002E06  969E               	bcf	158,3,c	;volatile
  7009   002E08  0012               	return		;funcret
  7010   002E0A                     __end_of_MSSP_I2C_ISR:
  7011                           	callstack 0
  7012                           
  7013 ;; *************** function _MSSP_I2C_BC_ISR *****************
  7014 ;; Defined at:
  7015 ;;		line 290 in file "MCAL_Layer/I2C/hal_i2c.c"
  7016 ;; Parameters:    Size  Location     Type
  7017 ;;		None
  7018 ;; Auto vars:     Size  Location     Type
  7019 ;;		None
  7020 ;; Return value:  Size  Location     Type
  7021 ;;                  1    wreg      void 
  7022 ;; Registers used:
  7023 ;;		None
  7024 ;; Tracked objects:
  7025 ;;		On entry : 0/0
  7026 ;;		On exit  : 0/0
  7027 ;;		Unchanged: 0/0
  7028 ;; Data sizes:     COMRAM   BANK0   BANK1   BANK2   BANK3   BANK4   BANK5   BANK6   BANK7   BANK8   BANK9  BANK10  BANK1
      +1  BANK12  BANK13  BANK14  BANK15
  7029 ;;      Params:         0       0       0       0       0       0       0       0       0       0       0       0       
      +0       0       0       0       0
  7030 ;;      Locals:         0       0       0       0       0       0       0       0       0       0       0       0       
      +0       0       0       0       0
  7031 ;;      Temps:          0       0       0       0       0       0       0       0       0       0       0       0       
      +0       0       0       0       0
  7032 ;;      Totals:         0       0       0       0       0       0       0       0       0       0       0       0       
      +0       0       0       0       0
  7033 ;;Total ram usage:        0 bytes
  7034 ;; Hardware stack levels used: 1
  7035 ;; This function calls:
  7036 ;;		Nothing
  7037 ;; This function is called by:
  7038 ;;		_InterruptManager
  7039 ;; This function uses a non-reentrant model
  7040 ;;
  7041                           
  7042                           	psect	text48
  7043   002E0A                     __ptext48:
  7044                           	callstack 0
  7045   002E0A                     _MSSP_I2C_BC_ISR:
  7046                           	callstack 19
  7047   002E0A                     
  7048                           ;MCAL_Layer/I2C/hal_i2c.c: 292:     (PIR2bits.BCLIF = 0);
  7049   002E0A  96A1               	bcf	161,3,c	;volatile
  7050   002E0C  0012               	return		;funcret
  7051   002E0E                     __end_of_MSSP_I2C_BC_ISR:
  7052                           	callstack 0
  7053                           
  7054 ;; *************** function _INT2_ISR *****************
  7055 ;; Defined at:
  7056 ;;		line 95 in file "MCAL_Layer/Interrupt/mcal_external_interrupt.c"
  7057 ;; Parameters:    Size  Location     Type
  7058 ;;		None
  7059 ;; Auto vars:     Size  Location     Type
  7060 ;;		None
  7061 ;; Return value:  Size  Location     Type
  7062 ;;                  1    wreg      void 
  7063 ;; Registers used:
  7064 ;;		None
  7065 ;; Tracked objects:
  7066 ;;		On entry : 0/0
  7067 ;;		On exit  : 0/0
  7068 ;;		Unchanged: 0/0
  7069 ;; Data sizes:     COMRAM   BANK0   BANK1   BANK2   BANK3   BANK4   BANK5   BANK6   BANK7   BANK8   BANK9  BANK10  BANK1
      +1  BANK12  BANK13  BANK14  BANK15
  7070 ;;      Params:         0       0       0       0       0       0       0       0       0       0       0       0       
      +0       0       0       0       0
  7071 ;;      Locals:         0       0       0       0       0       0       0       0       0       0       0       0       
      +0       0       0       0       0
  7072 ;;      Temps:          0       0       0       0       0       0       0       0       0       0       0       0       
      +0       0       0       0       0
  7073 ;;      Totals:         0       0       0       0       0       0       0       0       0       0       0       0       
      +0       0       0       0       0
  7074 ;;Total ram usage:        0 bytes
  7075 ;; Hardware stack levels used: 1
  7076 ;; This function calls:
  7077 ;;		Nothing
  7078 ;; This function is called by:
  7079 ;;		_InterruptManager
  7080 ;; This function uses a non-reentrant model
  7081 ;;
  7082                           
  7083                           	psect	text49
  7084   002E0E                     __ptext49:
  7085                           	callstack 0
  7086   002E0E                     _INT2_ISR:
  7087                           	callstack 19
  7088   002E0E                     
  7089                           ;MCAL_Layer/Interrupt/mcal_external_interrupt.c: 97:     (INTCON3bits.INT2IF = 0);
  7090   002E0E  92F0               	bcf	240,1,c	;volatile
  7091   002E10  0012               	return		;funcret
  7092   002E12                     __end_of_INT2_ISR:
  7093                           	callstack 0
  7094                           
  7095 ;; *************** function _INT1_ISR *****************
  7096 ;; Defined at:
  7097 ;;		line 86 in file "MCAL_Layer/Interrupt/mcal_external_interrupt.c"
  7098 ;; Parameters:    Size  Location     Type
  7099 ;;		None
  7100 ;; Auto vars:     Size  Location     Type
  7101 ;;		None
  7102 ;; Return value:  Size  Location     Type
  7103 ;;                  1    wreg      void 
  7104 ;; Registers used:
  7105 ;;		None
  7106 ;; Tracked objects:
  7107 ;;		On entry : 0/0
  7108 ;;		On exit  : 0/0
  7109 ;;		Unchanged: 0/0
  7110 ;; Data sizes:     COMRAM   BANK0   BANK1   BANK2   BANK3   BANK4   BANK5   BANK6   BANK7   BANK8   BANK9  BANK10  BANK1
      +1  BANK12  BANK13  BANK14  BANK15
  7111 ;;      Params:         0       0       0       0       0       0       0       0       0       0       0       0       
      +0       0       0       0       0
  7112 ;;      Locals:         0       0       0       0       0       0       0       0       0       0       0       0       
      +0       0       0       0       0
  7113 ;;      Temps:          0       0       0       0       0       0       0       0       0       0       0       0       
      +0       0       0       0       0
  7114 ;;      Totals:         0       0       0       0       0       0       0       0       0       0       0       0       
      +0       0       0       0       0
  7115 ;;Total ram usage:        0 bytes
  7116 ;; Hardware stack levels used: 1
  7117 ;; This function calls:
  7118 ;;		Nothing
  7119 ;; This function is called by:
  7120 ;;		_InterruptManager
  7121 ;; This function uses a non-reentrant model
  7122 ;;
  7123                           
  7124                           	psect	text50
  7125   002E12                     __ptext50:
  7126                           	callstack 0
  7127   002E12                     _INT1_ISR:
  7128                           	callstack 19
  7129   002E12                     
  7130                           ;MCAL_Layer/Interrupt/mcal_external_interrupt.c: 88:     (INTCON3bits.INT1IF = 0);
  7131   002E12  90F0               	bcf	240,0,c	;volatile
  7132   002E14  0012               	return		;funcret
  7133   002E16                     __end_of_INT1_ISR:
  7134                           	callstack 0
  7135                           
  7136 ;; *************** function _INT0_ISR *****************
  7137 ;; Defined at:
  7138 ;;		line 74 in file "MCAL_Layer/Interrupt/mcal_external_interrupt.c"
  7139 ;; Parameters:    Size  Location     Type
  7140 ;;		None
  7141 ;; Auto vars:     Size  Location     Type
  7142 ;;		None
  7143 ;; Return value:  Size  Location     Type
  7144 ;;                  1    wreg      void 
  7145 ;; Registers used:
  7146 ;;		None
  7147 ;; Tracked objects:
  7148 ;;		On entry : 0/0
  7149 ;;		On exit  : 0/0
  7150 ;;		Unchanged: 0/0
  7151 ;; Data sizes:     COMRAM   BANK0   BANK1   BANK2   BANK3   BANK4   BANK5   BANK6   BANK7   BANK8   BANK9  BANK10  BANK1
      +1  BANK12  BANK13  BANK14  BANK15
  7152 ;;      Params:         0       0       0       0       0       0       0       0       0       0       0       0       
      +0       0       0       0       0
  7153 ;;      Locals:         0       0       0       0       0       0       0       0       0       0       0       0       
      +0       0       0       0       0
  7154 ;;      Temps:          0       0       0       0       0       0       0       0       0       0       0       0       
      +0       0       0       0       0
  7155 ;;      Totals:         0       0       0       0       0       0       0       0       0       0       0       0       
      +0       0       0       0       0
  7156 ;;Total ram usage:        0 bytes
  7157 ;; Hardware stack levels used: 1
  7158 ;; This function calls:
  7159 ;;		Nothing
  7160 ;; This function is called by:
  7161 ;;		_InterruptManager
  7162 ;; This function uses a non-reentrant model
  7163 ;;
  7164                           
  7165                           	psect	text51
  7166   002E16                     __ptext51:
  7167                           	callstack 0
  7168   002E16                     _INT0_ISR:
  7169                           	callstack 19
  7170   002E16                     
  7171                           ;MCAL_Layer/Interrupt/mcal_external_interrupt.c: 76:     (INTCONbits.INT0IF = 0);
  7172   002E16  92F2               	bcf	242,1,c	;volatile
  7173   002E18  0012               	return		;funcret
  7174   002E1A                     __end_of_INT0_ISR:
  7175                           	callstack 0
  7176                           
  7177 ;; *************** function _EUSART_TX_ISR *****************
  7178 ;; Defined at:
  7179 ;;		line 260 in file "MCAL_Layer/usart/hal_usart.c"
  7180 ;; Parameters:    Size  Location     Type
  7181 ;;		None
  7182 ;; Auto vars:     Size  Location     Type
  7183 ;;		None
  7184 ;; Return value:  Size  Location     Type
  7185 ;;                  1    wreg      void 
  7186 ;; Registers used:
  7187 ;;		None
  7188 ;; Tracked objects:
  7189 ;;		On entry : 0/0
  7190 ;;		On exit  : 0/0
  7191 ;;		Unchanged: 0/0
  7192 ;; Data sizes:     COMRAM   BANK0   BANK1   BANK2   BANK3   BANK4   BANK5   BANK6   BANK7   BANK8   BANK9  BANK10  BANK1
      +1  BANK12  BANK13  BANK14  BANK15
  7193 ;;      Params:         0       0       0       0       0       0       0       0       0       0       0       0       
      +0       0       0       0       0
  7194 ;;      Locals:         0       0       0       0       0       0       0       0       0       0       0       0       
      +0       0       0       0       0
  7195 ;;      Temps:          0       0       0       0       0       0       0       0       0       0       0       0       
      +0       0       0       0       0
  7196 ;;      Totals:         0       0       0       0       0       0       0       0       0       0       0       0       
      +0       0       0       0       0
  7197 ;;Total ram usage:        0 bytes
  7198 ;; Hardware stack levels used: 1
  7199 ;; This function calls:
  7200 ;;		Nothing
  7201 ;; This function is called by:
  7202 ;;		_InterruptManager
  7203 ;; This function uses a non-reentrant model
  7204 ;;
  7205                           
  7206                           	psect	text52
  7207   002E1A                     __ptext52:
  7208                           	callstack 0
  7209   002E1A                     _EUSART_TX_ISR:
  7210                           	callstack 19
  7211   002E1A                     
  7212                           ;MCAL_Layer/usart/hal_usart.c: 261:   (PIE1bits.TXIE = 0);
  7213   002E1A  989D               	bcf	157,4,c	;volatile
  7214   002E1C  0012               	return		;funcret
  7215   002E1E                     __end_of_EUSART_TX_ISR:
  7216                           	callstack 0
  7217                           
  7218 ;; *************** function _EUSART_RX_ISR *****************
  7219 ;; Defined at:
  7220 ;;		line 268 in file "MCAL_Layer/usart/hal_usart.c"
  7221 ;; Parameters:    Size  Location     Type
  7222 ;;		None
  7223 ;; Auto vars:     Size  Location     Type
  7224 ;;		None
  7225 ;; Return value:  Size  Location     Type
  7226 ;;                  1    wreg      void 
  7227 ;; Registers used:
  7228 ;;		wreg, status,2, status,0
  7229 ;; Tracked objects:
  7230 ;;		On entry : 0/0
  7231 ;;		On exit  : 0/0
  7232 ;;		Unchanged: 0/0
  7233 ;; Data sizes:     COMRAM   BANK0   BANK1   BANK2   BANK3   BANK4   BANK5   BANK6   BANK7   BANK8   BANK9  BANK10  BANK1
      +1  BANK12  BANK13  BANK14  BANK15
  7234 ;;      Params:         0       0       0       0       0       0       0       0       0       0       0       0       
      +0       0       0       0       0
  7235 ;;      Locals:         0       0       0       0       0       0       0       0       0       0       0       0       
      +0       0       0       0       0
  7236 ;;      Temps:          0       0       0       0       0       0       0       0       0       0       0       0       
      +0       0       0       0       0
  7237 ;;      Totals:         0       0       0       0       0       0       0       0       0       0       0       0       
      +0       0       0       0       0
  7238 ;;Total ram usage:        0 bytes
  7239 ;; Hardware stack levels used: 1
  7240 ;; This function calls:
  7241 ;;		Nothing
  7242 ;; This function is called by:
  7243 ;;		_InterruptManager
  7244 ;; This function uses a non-reentrant model
  7245 ;;
  7246                           
  7247                           	psect	text53
  7248   002CE2                     __ptext53:
  7249                           	callstack 0
  7250   002CE2                     _EUSART_RX_ISR:
  7251                           	callstack 19
  7252   002CE2                     
  7253                           ;MCAL_Layer/usart/hal_usart.c: 273:   if (EUSART_FramingErrorHandler && RCSTAbits.FERR) 
      +                          {
  7254   002CE2  0100               	movlb	0	; () banked
  7255   002CE4  5190               	movf	_EUSART_FramingErrorHandler& (0+255),w,b
  7256   002CE6  1191               	iorwf	(_EUSART_FramingErrorHandler+1)& (0+255),w,b
  7257   002CE8  B4D8               	btfsc	status,2,c
  7258   002CEA  EF79  F016         	goto	i2u496_41
  7259   002CEE  EF7B  F016         	goto	i2u496_40
  7260   002CF2                     i2u496_41:
  7261   002CF2  EF7C  F016         	goto	i2l6598
  7262   002CF6                     i2u496_40:
  7263   002CF6                     
  7264                           ; BSR set to: 0
  7265                           ;MCAL_Layer/usart/hal_usart.c: 274:     EUSART_FramingErrorHandler();
  7266   002CF6  50AB               	movf	171,w,c	;volatile
  7267   002CF8                     i2l6598:
  7268                           
  7269                           ; BSR set to: 0
  7270                           ;MCAL_Layer/usart/hal_usart.c: 277:   if (EUSART_OverrunErrorHandler && RCSTAbits.OERR) 
      +                          {
  7271   002CF8  518E               	movf	_EUSART_OverrunErrorHandler& (0+255),w,b
  7272   002CFA  118F               	iorwf	(_EUSART_OverrunErrorHandler+1)& (0+255),w,b
  7273   002CFC  B4D8               	btfsc	status,2,c
  7274   002CFE  EF83  F016         	goto	i2u497_41
  7275   002D02  EF85  F016         	goto	i2u497_40
  7276   002D06                     i2u497_41:
  7277   002D06  EF86  F016         	goto	i2l1702
  7278   002D0A                     i2u497_40:
  7279   002D0A                     
  7280                           ; BSR set to: 0
  7281                           ;MCAL_Layer/usart/hal_usart.c: 278:     EUSART_OverrunErrorHandler();
  7282   002D0A  50AB               	movf	171,w,c	;volatile
  7283   002D0C                     i2l1702:
  7284                           
  7285                           ; BSR set to: 0
  7286   002D0C  0012               	return		;funcret
  7287   002D0E                     __end_of_EUSART_RX_ISR:
  7288                           	callstack 0
  7289                           
  7290 ;; *************** function _CCP2_ISR *****************
  7291 ;; Defined at:
  7292 ;;		line 254 in file "MCAL_Layer/CCP/hal_ccp.c"
  7293 ;; Parameters:    Size  Location     Type
  7294 ;;		None
  7295 ;; Auto vars:     Size  Location     Type
  7296 ;;		None
  7297 ;; Return value:  Size  Location     Type
  7298 ;;                  1    wreg      void 
  7299 ;; Registers used:
  7300 ;;		None
  7301 ;; Tracked objects:
  7302 ;;		On entry : 0/0
  7303 ;;		On exit  : 0/0
  7304 ;;		Unchanged: 0/0
  7305 ;; Data sizes:     COMRAM   BANK0   BANK1   BANK2   BANK3   BANK4   BANK5   BANK6   BANK7   BANK8   BANK9  BANK10  BANK1
      +1  BANK12  BANK13  BANK14  BANK15
  7306 ;;      Params:         0       0       0       0       0       0       0       0       0       0       0       0       
      +0       0       0       0       0
  7307 ;;      Locals:         0       0       0       0       0       0       0       0       0       0       0       0       
      +0       0       0       0       0
  7308 ;;      Temps:          0       0       0       0       0       0       0       0       0       0       0       0       
      +0       0       0       0       0
  7309 ;;      Totals:         0       0       0       0       0       0       0       0       0       0       0       0       
      +0       0       0       0       0
  7310 ;;Total ram usage:        0 bytes
  7311 ;; Hardware stack levels used: 1
  7312 ;; This function calls:
  7313 ;;		Nothing
  7314 ;; This function is called by:
  7315 ;;		_InterruptManager
  7316 ;; This function uses a non-reentrant model
  7317 ;;
  7318                           
  7319                           	psect	text54
  7320   002E1E                     __ptext54:
  7321                           	callstack 0
  7322   002E1E                     _CCP2_ISR:
  7323                           	callstack 19
  7324   002E1E                     
  7325                           ;MCAL_Layer/CCP/hal_ccp.c: 255:     (PIR2bits.CCP2IF = 0);
  7326   002E1E  90A1               	bcf	161,0,c	;volatile
  7327   002E20  0012               	return		;funcret
  7328   002E22                     __end_of_CCP2_ISR:
  7329                           	callstack 0
  7330                           
  7331 ;; *************** function _CCP1_ISR *****************
  7332 ;; Defined at:
  7333 ;;		line 246 in file "MCAL_Layer/CCP/hal_ccp.c"
  7334 ;; Parameters:    Size  Location     Type
  7335 ;;		None
  7336 ;; Auto vars:     Size  Location     Type
  7337 ;;		None
  7338 ;; Return value:  Size  Location     Type
  7339 ;;                  1    wreg      void 
  7340 ;; Registers used:
  7341 ;;		None
  7342 ;; Tracked objects:
  7343 ;;		On entry : 0/0
  7344 ;;		On exit  : 0/0
  7345 ;;		Unchanged: 0/0
  7346 ;; Data sizes:     COMRAM   BANK0   BANK1   BANK2   BANK3   BANK4   BANK5   BANK6   BANK7   BANK8   BANK9  BANK10  BANK1
      +1  BANK12  BANK13  BANK14  BANK15
  7347 ;;      Params:         0       0       0       0       0       0       0       0       0       0       0       0       
      +0       0       0       0       0
  7348 ;;      Locals:         0       0       0       0       0       0       0       0       0       0       0       0       
      +0       0       0       0       0
  7349 ;;      Temps:          0       0       0       0       0       0       0       0       0       0       0       0       
      +0       0       0       0       0
  7350 ;;      Totals:         0       0       0       0       0       0       0       0       0       0       0       0       
      +0       0       0       0       0
  7351 ;;Total ram usage:        0 bytes
  7352 ;; Hardware stack levels used: 1
  7353 ;; This function calls:
  7354 ;;		Nothing
  7355 ;; This function is called by:
  7356 ;;		_InterruptManager
  7357 ;; This function uses a non-reentrant model
  7358 ;;
  7359                           
  7360                           	psect	text55
  7361   002E22                     __ptext55:
  7362                           	callstack 0
  7363   002E22                     _CCP1_ISR:
  7364                           	callstack 19
  7365   002E22                     
  7366                           ;MCAL_Layer/CCP/hal_ccp.c: 247:     (PIR1bits.CCP1IF = 0);
  7367   002E22  949E               	bcf	158,2,c	;volatile
  7368   002E24  0012               	return		;funcret
  7369   002E26                     __end_of_CCP1_ISR:
  7370                           	callstack 0
  7371                           
  7372 ;; *************** function _ADC_ISR *****************
  7373 ;; Defined at:
  7374 ;;		line 296 in file "MCAL_Layer/ADC/hal_adc.c"
  7375 ;; Parameters:    Size  Location     Type
  7376 ;;		None
  7377 ;; Auto vars:     Size  Location     Type
  7378 ;;		None
  7379 ;; Return value:  Size  Location     Type
  7380 ;;                  1    wreg      void 
  7381 ;; Registers used:
  7382 ;;		None
  7383 ;; Tracked objects:
  7384 ;;		On entry : 0/0
  7385 ;;		On exit  : 0/0
  7386 ;;		Unchanged: 0/0
  7387 ;; Data sizes:     COMRAM   BANK0   BANK1   BANK2   BANK3   BANK4   BANK5   BANK6   BANK7   BANK8   BANK9  BANK10  BANK1
      +1  BANK12  BANK13  BANK14  BANK15
  7388 ;;      Params:         0       0       0       0       0       0       0       0       0       0       0       0       
      +0       0       0       0       0
  7389 ;;      Locals:         0       0       0       0       0       0       0       0       0       0       0       0       
      +0       0       0       0       0
  7390 ;;      Temps:          0       0       0       0       0       0       0       0       0       0       0       0       
      +0       0       0       0       0
  7391 ;;      Totals:         0       0       0       0       0       0       0       0       0       0       0       0       
      +0       0       0       0       0
  7392 ;;Total ram usage:        0 bytes
  7393 ;; Hardware stack levels used: 1
  7394 ;; This function calls:
  7395 ;;		Nothing
  7396 ;; This function is called by:
  7397 ;;		_InterruptManager
  7398 ;; This function uses a non-reentrant model
  7399 ;;
  7400                           
  7401                           	psect	text56
  7402   002E26                     __ptext56:
  7403                           	callstack 0
  7404   002E26                     _ADC_ISR:
  7405                           	callstack 19
  7406   002E26                     
  7407                           ;MCAL_Layer/ADC/hal_adc.c: 297:     (PIR1bits.ADIF = 0);
  7408   002E26  9C9E               	bcf	158,6,c	;volatile
  7409   002E28  0012               	return		;funcret
  7410   002E2A                     __end_of_ADC_ISR:
  7411                           	callstack 0
  7412                           
  7413                           	psect	rparam
  7414   000000                     
  7415                           	psect	temp
  7416   00007C                     btemp:
  7417                           	callstack 0
  7418   00007C                     	ds	1
  7419   000000                     int$flags	set	btemp
  7420   000000                     wtemp8	set	btemp+1
  7421   000000                     ttemp5	set	btemp+1
  7422   000000                     ttemp6	set	btemp+4
  7423   000000                     ttemp7	set	btemp+8
  7424                           
  7425                           	psect	idloc
  7426                           
  7427                           ;Config register IDLOC0 @ 0x200000
  7428                           ;	unspecified, using default values
  7429   200000                     	org	2097152
  7430   200000  FF                 	db	255
  7431                           
  7432                           ;Config register IDLOC1 @ 0x200001
  7433                           ;	unspecified, using default values
  7434   200001                     	org	2097153
  7435   200001  FF                 	db	255
  7436                           
  7437                           ;Config register IDLOC2 @ 0x200002
  7438                           ;	unspecified, using default values
  7439   200002                     	org	2097154
  7440   200002  FF                 	db	255
  7441                           
  7442                           ;Config register IDLOC3 @ 0x200003
  7443                           ;	unspecified, using default values
  7444   200003                     	org	2097155
  7445   200003  FF                 	db	255
  7446                           
  7447                           ;Config register IDLOC4 @ 0x200004
  7448                           ;	unspecified, using default values
  7449   200004                     	org	2097156
  7450   200004  FF                 	db	255
  7451                           
  7452                           ;Config register IDLOC5 @ 0x200005
  7453                           ;	unspecified, using default values
  7454   200005                     	org	2097157
  7455   200005  FF                 	db	255
  7456                           
  7457                           ;Config register IDLOC6 @ 0x200006
  7458                           ;	unspecified, using default values
  7459   200006                     	org	2097158
  7460   200006  FF                 	db	255
  7461                           
  7462                           ;Config register IDLOC7 @ 0x200007
  7463                           ;	unspecified, using default values
  7464   200007                     	org	2097159
  7465   200007  FF                 	db	255
  7466                           
  7467                           	psect	config
  7468                           
  7469                           ; Padding undefined space
  7470   300000                     	org	3145728
  7471   300000  FF                 	db	255
  7472                           
  7473                           ;Config register CONFIG1H @ 0x300001
  7474                           ;	Oscillator Selection bits
  7475                           ;	OSC = HS, HS oscillator
  7476                           ;	Fail-Safe Clock Monitor Enable bit
  7477                           ;	FCMEN = OFF, Fail-Safe Clock Monitor disabled
  7478                           ;	Internal/External Oscillator Switchover bit
  7479                           ;	IESO = OFF, Oscillator Switchover mode disabled
  7480   300001                     	org	3145729
  7481   300001  02                 	db	2
  7482                           
  7483                           ;Config register CONFIG2L @ 0x300002
  7484                           ;	Power-up Timer Enable bit
  7485                           ;	PWRT = OFF, PWRT disabled
  7486                           ;	Brown-out Reset Enable bits
  7487                           ;	BOREN = OFF, Brown-out Reset disabled in hardware and software
  7488                           ;	Brown Out Reset Voltage bits
  7489                           ;	BORV = 1, 
  7490   300002                     	org	3145730
  7491   300002  09                 	db	9
  7492                           
  7493                           ;Config register CONFIG2H @ 0x300003
  7494                           ;	Watchdog Timer Enable bit
  7495                           ;	WDT = OFF, WDT disabled (control is placed on the SWDTEN bit)
  7496                           ;	Watchdog Timer Postscale Select bits
  7497                           ;	WDTPS = 512, 1:512
  7498   300003                     	org	3145731
  7499   300003  12                 	db	18
  7500                           
  7501                           ; Padding undefined space
  7502   300004                     	org	3145732
  7503   300004  FF                 	db	255
  7504                           
  7505                           ;Config register CONFIG3H @ 0x300005
  7506                           ;	CCP2 MUX bit
  7507                           ;	CCP2MX = PORTC, CCP2 input/output is multiplexed with RC1
  7508                           ;	PORTB A/D Enable bit
  7509                           ;	PBADEN = OFF, PORTB<4:0> pins are configured as digital I/O on Reset
  7510                           ;	Low-Power Timer1 Oscillator Enable bit
  7511                           ;	LPT1OSC = OFF, Timer1 configured for higher power operation
  7512                           ;	MCLR Pin Enable bit
  7513                           ;	MCLRE = ON, MCLR pin enabled; RE3 input pin disabled
  7514   300005                     	org	3145733
  7515   300005  81                 	db	129
  7516                           
  7517                           ;Config register CONFIG4L @ 0x300006
  7518                           ;	Stack Full/Underflow Reset Enable bit
  7519                           ;	STVREN = ON, Stack full/underflow will cause Reset
  7520                           ;	Single-Supply ICSP Enable bit
  7521                           ;	LVP = OFF, Single-Supply ICSP disabled
  7522                           ;	Extended Instruction Set Enable bit
  7523                           ;	XINST = OFF, Instruction set extension and Indexed Addressing mode disabled (Legacy mo
      +                          de)
  7524                           ;	Background Debugger Enable bit
  7525                           ;	DEBUG = 0x1, unprogrammed default
  7526   300006                     	org	3145734
  7527   300006  81                 	db	129
  7528                           
  7529                           ; Padding undefined space
  7530   300007                     	org	3145735
  7531   300007  FF                 	db	255
  7532                           
  7533                           ;Config register CONFIG5L @ 0x300008
  7534                           ;	Code Protection bit
  7535                           ;	CP0 = OFF, Block 0 (000800-003FFFh) not code-protected
  7536                           ;	Code Protection bit
  7537                           ;	CP1 = OFF, Block 1 (004000-007FFFh) not code-protected
  7538                           ;	Code Protection bit
  7539                           ;	CP2 = OFF, Block 2 (008000-00BFFFh) not code-protected
  7540                           ;	Code Protection bit
  7541                           ;	CP3 = OFF, Block 3 (00C000-00FFFFh) not code-protected
  7542   300008                     	org	3145736
  7543   300008  0F                 	db	15
  7544                           
  7545                           ;Config register CONFIG5H @ 0x300009
  7546                           ;	Boot Block Code Protection bit
  7547                           ;	CPB = OFF, Boot block (000000-0007FFh) not code-protected
  7548                           ;	Data EEPROM Code Protection bit
  7549                           ;	CPD = OFF, Data EEPROM not code-protected
  7550   300009                     	org	3145737
  7551   300009  C0                 	db	192
  7552                           
  7553                           ;Config register CONFIG6L @ 0x30000A
  7554                           ;	Write Protection bit
  7555                           ;	WRT0 = OFF, Block 0 (000800-003FFFh) not write-protected
  7556                           ;	Write Protection bit
  7557                           ;	WRT1 = OFF, Block 1 (004000-007FFFh) not write-protected
  7558                           ;	Write Protection bit
  7559                           ;	WRT2 = OFF, Block 2 (008000-00BFFFh) not write-protected
  7560                           ;	Write Protection bit
  7561                           ;	WRT3 = OFF, Block 3 (00C000-00FFFFh) not write-protected
  7562   30000A                     	org	3145738
  7563   30000A  0F                 	db	15
  7564                           
  7565                           ;Config register CONFIG6H @ 0x30000B
  7566                           ;	Configuration Register Write Protection bit
  7567                           ;	WRTC = OFF, Configuration registers (300000-3000FFh) not write-protected
  7568                           ;	Boot Block Write Protection bit
  7569                           ;	WRTB = OFF, Boot Block (000000-0007FFh) not write-protected
  7570                           ;	Data EEPROM Write Protection bit
  7571                           ;	WRTD = OFF, Data EEPROM not write-protected
  7572   30000B                     	org	3145739
  7573   30000B  E0                 	db	224
  7574                           
  7575                           ;Config register CONFIG7L @ 0x30000C
  7576                           ;	Table Read Protection bit
  7577                           ;	EBTR0 = OFF, Block 0 (000800-003FFFh) not protected from table reads executed in other
      +                           blocks
  7578                           ;	Table Read Protection bit
  7579                           ;	EBTR1 = OFF, Block 1 (004000-007FFFh) not protected from table reads executed in other
      +                           blocks
  7580                           ;	Table Read Protection bit
  7581                           ;	EBTR2 = OFF, Block 2 (008000-00BFFFh) not protected from table reads executed in other
      +                           blocks
  7582                           ;	Table Read Protection bit
  7583                           ;	EBTR3 = OFF, Block 3 (00C000-00FFFFh) not protected from table reads executed in other
      +                           blocks
  7584   30000C                     	org	3145740
  7585   30000C  0F                 	db	15
  7586                           
  7587                           ;Config register CONFIG7H @ 0x30000D
  7588                           ;	Boot Block Table Read Protection bit
  7589                           ;	EBTRB = OFF, Boot Block (000000-0007FFh) not protected from table reads executed in ot
      +                          her blocks
  7590   30000D                     	org	3145741
  7591   30000D  40                 	db	64
  7592                           tosu	equ	0xFFF
  7593                           tosh	equ	0xFFE
  7594                           tosl	equ	0xFFD
  7595                           stkptr	equ	0xFFC
  7596                           pclatu	equ	0xFFB
  7597                           pclath	equ	0xFFA
  7598                           pcl	equ	0xFF9
  7599                           tblptru	equ	0xFF8
  7600                           tblptrh	equ	0xFF7
  7601                           tblptrl	equ	0xFF6
  7602                           tablat	equ	0xFF5
  7603                           prodh	equ	0xFF4
  7604                           prodl	equ	0xFF3
  7605                           indf0	equ	0xFEF
  7606                           postinc0	equ	0xFEE
  7607                           postdec0	equ	0xFED
  7608                           preinc0	equ	0xFEC
  7609                           plusw0	equ	0xFEB
  7610                           fsr0h	equ	0xFEA
  7611                           fsr0l	equ	0xFE9
  7612                           wreg	equ	0xFE8
  7613                           indf1	equ	0xFE7
  7614                           postinc1	equ	0xFE6
  7615                           postdec1	equ	0xFE5
  7616                           preinc1	equ	0xFE4
  7617                           plusw1	equ	0xFE3
  7618                           fsr1h	equ	0xFE2
  7619                           fsr1l	equ	0xFE1
  7620                           bsr	equ	0xFE0
  7621                           indf2	equ	0xFDF
  7622                           postinc2	equ	0xFDE
  7623                           postdec2	equ	0xFDD
  7624                           preinc2	equ	0xFDC
  7625                           plusw2	equ	0xFDB
  7626                           fsr2h	equ	0xFDA
  7627                           fsr2l	equ	0xFD9
  7628                           status	equ	0xFD8

Data Sizes:
    Strings     50
    Constant    16
    Data        65
    BSS         130
    Persistent  0
    Stack       0

Auto Spaces:
    Space          Size  Autos    Used
    COMRAM          126     95     123
    BANK0           128      2     127
    BANK1           256      0      42
    BANK2           256      0       0
    BANK3           256      0       0
    BANK4           256      0       0
    BANK5           256      0       0
    BANK6           256      0       0
    BANK7           256      0       0
    BANK8           256      0       0
    BANK9           256      0       0
    BANK10          256      0       0
    BANK11          256      0       0
    BANK12          256      0       0
    BANK13          256      0       0
    BANK14          256      0       0
    BANK15          128      0       0

Pointer List with Targets:

    fputs@s	PTR const unsigned char  size(2) Largest target is 32
		 -> dbuf(BANK1[32]), 

    fputs@fp	PTR struct _IO_FILE size(2) Largest target is 12
		 -> sprintf@f(COMRAM[12]), 

    fputc@fp...source	PTR const unsigned char  size(2) Largest target is 0

    fputc@fp...buffer	PTR unsigned char  size(2) Largest target is 0

    fputc@fp	PTR struct _IO_FILE size(2) Largest target is 12
		 -> sprintf@f(COMRAM[12]), 

    vfprintf@ap	PTR PTR void  size(2) Largest target is 2
		 -> sprintf@ap(COMRAM[2]), 

    vfprintf@fp	PTR struct _IO_FILE size(2) Largest target is 12
		 -> sprintf@f(COMRAM[12]), 

    vfprintf@fmt	PTR const unsigned char  size(2) Largest target is 3
		 -> STR_3(CODE[3]), STR_2(CODE[3]), STR_1(CODE[3]), 

    vfprintf@cfmt	PTR unsigned char  size(2) Largest target is 3
		 -> STR_3(CODE[3]), STR_2(CODE[3]), STR_1(CODE[3]), 

    vfpfcnvrt@fp	PTR struct _IO_FILE size(2) Largest target is 12
		 -> sprintf@f(COMRAM[12]), 

    vfpfcnvrt@ap	PTR PTR void  size(2) Largest target is 2
		 -> sprintf@ap(COMRAM[2]), 

    vfpfcnvrt@cp	PTR unsigned char  size(2) Largest target is 3
		 -> STR_3(CODE[3]), STR_2(CODE[3]), STR_1(CODE[3]), 

    vfpfcnvrt@fmt	PTR PTR unsigned char  size(2) Largest target is 2
		 -> vfprintf@cfmt(COMRAM[2]), 

    S4924$vp	PTR void  size(2) Largest target is 0

    convarg.vp	PTR void  size(2) Largest target is 0

    dtoa@fp	PTR struct _IO_FILE size(2) Largest target is 12
		 -> sprintf@f(COMRAM[12]), 

    pad@buf	PTR unsigned char  size(2) Largest target is 32
		 -> dbuf(BANK1[32]), 

    pad@fp	PTR struct _IO_FILE size(2) Largest target is 12
		 -> sprintf@f(COMRAM[12]), 

    sprintf@fmt	PTR const unsigned char  size(2) Largest target is 3
		 -> STR_3(CODE[3]), STR_2(CODE[3]), STR_1(CODE[3]), 

    sprintf@s	PTR unsigned char  size(2) Largest target is 11
		 -> result_txt(BANK0[11]), convert_uint16_to_string@Temp_String(COMRAM[6]), 

    sprintf@ap	PTR void [1] size(2) Largest target is 2
		 -> ?_sprintf(COMRAM[2]), 

    S4871$source	PTR const unsigned char  size(2) Largest target is 0

    f...source	PTR const unsigned char  size(2) Largest target is 0

    S4871$buffer	PTR unsigned char  size(2) Largest target is 0

    f...buffer	PTR unsigned char  size(2) Largest target is 0

    memset@dest	PTR void  size(2) Largest target is 11
		 -> result_txt(BANK0[11]), 

    memset@s	PTR unsigned char  size(2) Largest target is 11
		 -> result_txt(BANK0[11]), 

    EUSART_OverrunErrorHandler	PTR FTN()void  size(2) Largest target is 1
		 -> NULL(), 

    EUSART_FramingErrorHandler	PTR FTN()void  size(2) Largest target is 1
		 -> NULL(), 

    EUSART_RxInterruptHandler	PTR FTN()void  size(2) Largest target is 1
		 -> NULL(), 

    EUSART_ASYNC_RX_Init@_eusart.EUSART_OverrunErrorHandler	PTR FTN()void  size(2) Largest target is 0

    EUSART_ASYNC_RX_Init@_eusart.EUSART_FramingErrorHandler	PTR FTN()void  size(2) Largest target is 0

    EUSART_ASYNC_RX_Init@_eusart.EUSART_RxDefaultInterruptHandler	PTR FTN()void  size(2) Largest target is 0

    EUSART_ASYNC_RX_Init@_eusart.EUSART_TxDefaultInterruptHandler	PTR FTN()void  size(2) Largest target is 0

    EUSART_TxInterruptHandler	PTR FTN()void  size(2) Largest target is 1
		 -> NULL(), 

    EUSART_ASYNC_TX_Init@_eusart.EUSART_OverrunErrorHandler	PTR FTN()void  size(2) Largest target is 0

    EUSART_ASYNC_TX_Init@_eusart.EUSART_FramingErrorHandler	PTR FTN()void  size(2) Largest target is 0

    EUSART_ASYNC_TX_Init@_eusart.EUSART_RxDefaultInterruptHandler	PTR FTN()void  size(2) Largest target is 0

    EUSART_ASYNC_TX_Init@_eusart.EUSART_TxDefaultInterruptHandler	PTR FTN()void  size(2) Largest target is 0

    S3929$EUSART_OverrunErrorHandler	PTR FTN()void  size(2) Largest target is 0

    EUSART_Baud_Rate_Calculation@_eusart.EUSART_OverrunErrorHandler	PTR FTN()void  size(2) Largest target is 0

    S3929$EUSART_FramingErrorHandler	PTR FTN()void  size(2) Largest target is 0

    EUSART_Baud_Rate_Calculation@_eusart.EUSART_FramingErrorHandler	PTR FTN()void  size(2) Largest target is 0

    S3929$EUSART_RxDefaultInterruptHandler	PTR FTN()void  size(2) Largest target is 0

    EUSART_Baud_Rate_Calculation@_eusart.EUSART_RxDefaultInterruptHandler	PTR FTN()void  size(2) Largest target is 0

    S3929$EUSART_TxDefaultInterruptHandler	PTR FTN()void  size(2) Largest target is 0

    EUSART_Baud_Rate_Calculation@_eusart.EUSART_TxDefaultInterruptHandler	PTR FTN()void  size(2) Largest target is 0

    Timer3_Mode_Select@_timer.TMR3_InterruptHandler	PTR FTN()void  size(2) Largest target is 0

    TMR3_InterruptHandler	PTR FTN()void  size(2) Largest target is 1
		 -> NULL(), 

    S3735$TMR3_InterruptHandler	PTR FTN()void  size(2) Largest target is 0

    Timer3_Init@_timer.TMR3_InterruptHandler	PTR FTN()void  size(2) Largest target is 0

    TMR2_InterruptHandler	PTR FTN()void  size(2) Largest target is 1
		 -> NULL(), 

    S3606$TMR2_InterruptHandler	PTR FTN()void  size(2) Largest target is 0

    Timer2_Init@_timer.TMR2_InterruptHandler	PTR FTN()void  size(2) Largest target is 0

    Timer1_Mode_Select@_timer.TMR1_InterruptHandler	PTR FTN()void  size(2) Largest target is 0

    TMR1_InterruptHandler	PTR FTN()volatile void  size(2) Largest target is 1
		 -> NULL(), 

    S3416$TMR1_InterruptHandler	PTR FTN()void  size(2) Largest target is 0

    Timer1_Init@_timer.TMR1_InterruptHandler	PTR FTN()void  size(2) Largest target is 0

    Timer0_Register_Size_Config@_timer.TMR0_InterruptHandler	PTR FTN()void  size(2) Largest target is 0

    Timer0_Mode_Select@_timer.TMR0_InterruptHandler	PTR FTN()void  size(2) Largest target is 0

    Timer0_Prescaler_Config@_timer.TMR0_InterruptHandler	PTR FTN()void  size(2) Largest target is 0

    TMR0_InterruptHandler	PTR FTN()void  size(2) Largest target is 1
		 -> NULL(), 

    S3251$TMR0_InterruptHandler	PTR FTN()void  size(2) Largest target is 0

    Timer0_Init@_timer.TMR0_InterruptHandler	PTR FTN()void  size(2) Largest target is 0

    MSSP_SPI_Slave_Mode_GPIO_PIN_Configurations@Config.MSSP_SPI_InterruptHandler	PTR FTN()void  size(2) Largest target is 0

    MSSP_SPI_Interrupt_Init@Config.MSSP_SPI_InterruptHandler	PTR FTN()void  size(2) Largest target is 0

    SPI_InterruptHandler	PTR FTN()void  size(2) Largest target is 1
		 -> NULL(), 

    S2914$MSSP_SPI_InterruptHandler	PTR FTN()void  size(2) Largest target is 0

    SPI_Init@Config.MSSP_SPI_InterruptHandler	PTR FTN()void  size(2) Largest target is 0

    Interrupt_INTx_SetInterruptHandler@int_obj.EXT_InterruptHandler	PTR FTN()void  size(2) Largest target is 0

    Interrupt_INTx_Clear_Flag@int_obj.EXT_InterruptHandler	PTR FTN()void  size(2) Largest target is 0

    Interrupt_INTx_Pin_Init@int_obj.EXT_InterruptHandler	PTR FTN()void  size(2) Largest target is 0

    Interrupt_INTx_Edge_Init@int_obj.EXT_InterruptHandler	PTR FTN()void  size(2) Largest target is 0

    Interrupt_INTx_Disable@int_obj.EXT_InterruptHandler	PTR FTN()void  size(2) Largest target is 0

    S2291$EXT_InterruptHandler	PTR FTN()void  size(2) Largest target is 0

    Interrupt_INTx_Enable@int_obj.EXT_InterruptHandler	PTR FTN()void  size(2) Largest target is 0

    S2407$EXT_InterruptHandler_LOW	PTR FTN()void  size(2) Largest target is 0

    Interrupt_RBx_Init@int_obj.EXT_InterruptHandler_LOW	PTR FTN()void  size(2) Largest target is 0

    S2407$EXT_InterruptHandler_HIGH	PTR FTN()void  size(2) Largest target is 0

    Interrupt_RBx_Init@int_obj.EXT_InterruptHandler_HIGH	PTR FTN()void  size(2) Largest target is 0

    RB7_InterruptHandler_LOW	PTR FTN()void  size(2) Largest target is 1
		 -> NULL(), 

    RB7_InterruptHandler_HIGH	PTR FTN()void  size(2) Largest target is 1
		 -> NULL(), 

    RB6_InterruptHandler_LOW	PTR FTN()void  size(2) Largest target is 1
		 -> NULL(), 

    RB6_InterruptHandler_HIGH	PTR FTN()void  size(2) Largest target is 1
		 -> NULL(), 

    RB5_InterruptHandler_LOW	PTR FTN()void  size(2) Largest target is 1
		 -> NULL(), 

    RB5_InterruptHandler_HIGH	PTR FTN()void  size(2) Largest target is 1
		 -> NULL(), 

    RB4_InterruptHandler_LOW	PTR FTN()void  size(2) Largest target is 1
		 -> NULL(), 

    RB4_InterruptHandler_HIGH	PTR FTN()void  size(2) Largest target is 1
		 -> NULL(), 

    INT2_InterruptHandler	PTR FTN()void  size(2) Largest target is 1
		 -> NULL(), 

    INT1_InterruptHandler	PTR FTN()void  size(2) Largest target is 1
		 -> NULL(), 

    INT0_InterruptHandler	PTR FTN()void  size(2) Largest target is 1
		 -> NULL(), 

    I2C_Report_Receive_Overflow_InterruptHandle	PTR FTN()void  size(2) Largest target is 1
		 -> NULL(), 

    MSSP_I2C_Interrupt_Configurations@i2c_obj.I2C_Report_Receive_Overflow	PTR FTN()void  size(2) Largest target is 0

    MSSP_I2C_Interrupt_Configurations@i2c_obj.I2C_DefaultInterruptHandler	PTR FTN()void  size(2) Largest target is 0

    MSSP_I2C_Interrupt_Configurations@i2c_obj.I2C_Report_Write_Collision	PTR FTN()void  size(2) Largest target is 0

    I2C_Slave_Mode_Configurations@i2c_obj.I2C_Report_Receive_Overflow	PTR FTN()void  size(2) Largest target is 0

    I2C_Slave_Mode_Configurations@i2c_obj.I2C_DefaultInterruptHandler	PTR FTN()void  size(2) Largest target is 0

    I2C_Slave_Mode_Configurations@i2c_obj.I2C_Report_Write_Collision	PTR FTN()void  size(2) Largest target is 0

    I2C_Master_Mode_Clock_Configurations@i2c_obj.I2C_Report_Receive_Overflow	PTR FTN()void  size(2) Largest target is 0

    I2C_Master_Mode_Clock_Configurations@i2c_obj.I2C_DefaultInterruptHandler	PTR FTN()void  size(2) Largest target is 0

    I2C_Master_Mode_Clock_Configurations@i2c_obj.I2C_Report_Write_Collision	PTR FTN()void  size(2) Largest target is 0

    I2C_Report_Write_Collision_InterruptHandler	PTR FTN()void  size(2) Largest target is 1
		 -> NULL(), 

    I2C_DefaultInterruptHandle	PTR FTN()void  size(2) Largest target is 1
		 -> NULL(), 

    S1770$I2C_Report_Receive_Overflow	PTR FTN()void  size(2) Largest target is 0

    MSSP_I2C_Init@i2c_obj.I2C_Report_Receive_Overflow	PTR FTN()void  size(2) Largest target is 0

    S1770$I2C_DefaultInterruptHandler	PTR FTN()void  size(2) Largest target is 0

    MSSP_I2C_Init@i2c_obj.I2C_DefaultInterruptHandler	PTR FTN()void  size(2) Largest target is 0

    S1770$I2C_Report_Write_Collision	PTR FTN()void  size(2) Largest target is 0

    MSSP_I2C_Init@i2c_obj.I2C_Report_Write_Collision	PTR FTN()void  size(2) Largest target is 0

    gpio_pin_intialize@_pin_config	PTR const struct . size(2) Largest target is 8
		 -> keypad1.keypad_row_pins(BANK0[4]), keypad1(BANK0[8]), lcd_1.lcd_data(BANK0[4]), lcd_1(BANK0[6]), 

    gpio_pin_read_logic@logic	PTR enum E3462 size(2) Largest target is 1
		 -> Ultrasonic_Calculate_Distance@EchoPinLogic(COMRAM[1]), keypad_get_value@column_logic(COMRAM[1]), button_read_state@Pin_Logic_Status(COMRAM[1]), 

    gpio_pin_read_logic@_pin_config	PTR const struct . size(2) Largest target is 8
		 -> keypad1.keypad_columns_pins(BANK0[4]), keypad1(BANK0[8]), 

    gpio_pin_write_logic@_pin_config	PTR const struct . size(2) Largest target is 8
		 -> keypad1.keypad_row_pins(BANK0[4]), keypad1(BANK0[8]), lcd_1.lcd_data(BANK0[4]), lcd_1(BANK0[6]), 

    gpio_pin_direction_intialize@_pin_config	PTR const struct . size(2) Largest target is 8
		 -> MSSP_SPI_Slave_Mode_GPIO_PIN_Configurations@SPI_SS(COMRAM[1]), MSSP_SPI_Slave_Mode_GPIO_PIN_Configurations@SPI_CLK(COMRAM[1]), MSSP_SPI_Slave_Mode_GPIO_PIN_Configurations@SPI_SDI(COMRAM[1]), MSSP_SPI_Slave_Mode_GPIO_PIN_Configurations@SPI_SDO(COMRAM[1]), 
		 -> MSSP_SPI_Msster_Mode_GPIO_PIN_Configurations@SPI_CLK(COMRAM[1]), MSSP_SPI_Msster_Mode_GPIO_PIN_Configurations@SPI_SDI(COMRAM[1]), MSSP_SPI_Msster_Mode_GPIO_PIN_Configurations@SPI_SDO(COMRAM[1]), keypad1.keypad_columns_pins(BANK0[4]), 
		 -> keypad1.keypad_row_pins(BANK0[4]), keypad1(BANK0[8]), lcd_1.lcd_data(BANK0[4]), lcd_1(BANK0[6]), 

    port_registers	PTR volatile unsigned char [5] size(2) Largest target is 1
		 -> PORTE(BITBIGSFRlllll[1]), PORTD(BITBIGSFRlllll[1]), PORTC(BITBIGSFRlllll[1]), PORTB(BITBIGSFRlllll[1]), 
		 -> PORTA(BITBIGSFRlllll[1]), 

    lat_registers	PTR volatile unsigned char [5] size(2) Largest target is 1
		 -> LATE(BITBIGSFRllllh[1]), LATD(BITBIGSFRllllh[1]), LATC(BITBIGSFRllllh[1]), LATB(BITBIGSFRllllh[1]), 
		 -> LATA(BITBIGSFRlllll[1]), 

    tris_registers	PTR volatile unsigned char [5] size(2) Largest target is 1
		 -> TRISD(ABS[1]), TRISC(ABS[1]), TRISB(ABS[1]), TRISE(ABS[1]), 
		 -> TRISA(BITBIGSFRlllll[1]), 

    CCP_Compare_Mode_Config@_ccp_obj.CCP2_InterruptHandler	PTR FTN()void  size(2) Largest target is 0

    CCP_Compare_Mode_Config@_ccp_obj.CCP1_InterruptHandler	PTR FTN()void  size(2) Largest target is 0

    CCP_Capture_Mode_Config@_ccp_obj.CCP2_InterruptHandler	PTR FTN()void  size(2) Largest target is 0

    CCP_Capture_Mode_Config@_ccp_obj.CCP1_InterruptHandler	PTR FTN()void  size(2) Largest target is 0

    CCP_Mode_Timer_Select@_ccp_obj.CCP2_InterruptHandler	PTR FTN()void  size(2) Largest target is 0

    CCP_Mode_Timer_Select@_ccp_obj.CCP1_InterruptHandler	PTR FTN()void  size(2) Largest target is 0

    CCP_Interrupt_Config@_ccp_obj.CCP2_InterruptHandler	PTR FTN()void  size(2) Largest target is 0

    CCP_Interrupt_Config@_ccp_obj.CCP1_InterruptHandler	PTR FTN()void  size(2) Largest target is 0

    CCP2_InterruptHandler	PTR FTN()void  size(2) Largest target is 1
		 -> NULL(), 

    CCP1_InterruptHandler	PTR FTN()void  size(2) Largest target is 1
		 -> NULL(), 

    CCP_DeInit@_ccp_obj.CCP2_InterruptHandler	PTR FTN()void  size(2) Largest target is 0

    CCP_DeInit@_ccp_obj.CCP1_InterruptHandler	PTR FTN()void  size(2) Largest target is 0

    S1132$CCP2_InterruptHandler	PTR FTN()void  size(2) Largest target is 0

    CCP_Init@_ccp_obj.CCP2_InterruptHandler	PTR FTN()void  size(2) Largest target is 0

    S1132$CCP1_InterruptHandler	PTR FTN()void  size(2) Largest target is 0

    CCP_Init@_ccp_obj.CCP1_InterruptHandler	PTR FTN()void  size(2) Largest target is 0

    configure_voltage_reference@_adc.ADC_InterruptHandler	PTR FTN()void  size(2) Largest target is 0

    select_result_format@_adc.ADC_InterruptHandler	PTR FTN()void  size(2) Largest target is 0

    ADC_GetConversionResult@_adc.ADC_InterruptHandler	PTR FTN()void  size(2) Largest target is 0

    ADC_InterruptHandler	PTR FTN()void  size(2) Largest target is 1
		 -> NULL(), 

    S714$ADC_InterruptHandler	PTR FTN()void  size(2) Largest target is 0

    ADC_Init@_adc.ADC_InterruptHandler	PTR FTN()void  size(2) Largest target is 0

    keypad_get_value@value	PTR unsigned char  size(2) Largest target is 1
		 -> keypad_value(COMRAM[1]), 

    keypad_get_value@_keypad_obj	PTR const struct . size(2) Largest target is 8
		 -> keypad1(BANK0[8]), 

    keypad_initialize@_keypad_obj	PTR const struct . size(2) Largest target is 8
		 -> keypad1(BANK0[8]), 

    lcd_4bit_set_cursor@lcd	PTR const struct . size(2) Largest target is 6
		 -> lcd_1(BANK0[6]), 

    lcd_4bit_send_enable_signal@lcd	PTR const struct . size(2) Largest target is 6
		 -> lcd_1(BANK0[6]), 

    lcd_send_4bits@lcd	PTR const struct . size(2) Largest target is 6
		 -> lcd_1(BANK0[6]), 

    convert_uint32_to_string@str	PTR unsigned char  size(2) Largest target is 11
		 -> result_txt(BANK0[11]), 

    sp__memset	PTR void  size(2) Largest target is 11
		 -> result_txt(BANK0[11]), 

    lcd_4bit_clear@lcd	PTR const struct . size(2) Largest target is 6
		 -> lcd_1(BANK0[6]), 

    lcd_4bit_send_string_pos@str	PTR unsigned char  size(2) Largest target is 21
		 -> result_txt(BANK0[11]), STR_8(CODE[21]), STR_7(CODE[10]), STR_6(CODE[10]), 
		 -> STR_5(CODE[8]), STR_4(CODE[8]), 

    lcd_4bit_send_string_pos@lcd	PTR const struct . size(2) Largest target is 6
		 -> lcd_1(BANK0[6]), 

    lcd_4bit_send_char_data_pos@lcd	PTR const struct . size(2) Largest target is 6
		 -> lcd_1(BANK0[6]), 

    lcd_4bit_send_char_data@lcd	PTR const struct . size(2) Largest target is 6
		 -> lcd_1(BANK0[6]), 

    lcd_4bit_send_command@lcd	PTR const struct . size(2) Largest target is 6
		 -> lcd_1(BANK0[6]), 

    lcd_4bit_intialize@lcd	PTR const struct . size(2) Largest target is 6
		 -> lcd_1(BANK0[6]), 


Critical Paths under _main in COMRAM

    _main->_calculate
    _loading_screen->_lcd_4bit_send_string_pos
    _lcd_4bit_send_char_data_pos->_lcd_4bit_set_cursor
    _lcd_write->_lcd_4bit_send_char_data
    _lcd_4bit_clear->_lcd_4bit_send_command
    _keypad_get_value->_gpio_pin_read_logic
    _keypad_get_value->_gpio_pin_write_logic
    _calculate->_convert_uint32_to_string
    _lcd_4bit_send_string_pos->_lcd_4bit_set_cursor
    _lcd_4bit_set_cursor->_lcd_4bit_send_command
    _lcd_4bit_send_char_data->_lcd_send_4bits
    _convert_uint32_to_string->_sprintf
    _sprintf->_vfprintf
    _vfprintf->_vfpfcnvrt
    _vfpfcnvrt->_dtoa
    _dtoa->_pad
    _pad->_fputs
    _fputs->_fputc
    _abs->___awmod
    _ecu_layer_init->_lcd_4bit_intialize
    _lcd_4bit_intialize->_lcd_4bit_send_command
    _lcd_4bit_send_command->_lcd_send_4bits
    _lcd_send_4bits->_gpio_pin_write_logic
    _lcd_4bit_send_enable_signal->_gpio_pin_write_logic
    _keypad_initialize->_gpio_pin_intialize
    _gpio_pin_intialize->_gpio_pin_write_logic

Critical Paths under _InterruptManager in COMRAM

    _InterruptManager->_RB4_ISR
    _InterruptManager->_RB5_ISR
    _InterruptManager->_RB6_ISR
    _InterruptManager->_RB7_ISR

Critical Paths under _main in BANK0

    None.

Critical Paths under _InterruptManager in BANK0

    None.

Critical Paths under _main in BANK1

    None.

Critical Paths under _InterruptManager in BANK1

    None.

Critical Paths under _main in BANK2

    None.

Critical Paths under _InterruptManager in BANK2

    None.

Critical Paths under _main in BANK3

    None.

Critical Paths under _InterruptManager in BANK3

    None.

Critical Paths under _main in BANK4

    None.

Critical Paths under _InterruptManager in BANK4

    None.

Critical Paths under _main in BANK5

    None.

Critical Paths under _InterruptManager in BANK5

    None.

Critical Paths under _main in BANK6

    None.

Critical Paths under _InterruptManager in BANK6

    None.

Critical Paths under _main in BANK7

    None.

Critical Paths under _InterruptManager in BANK7

    None.

Critical Paths under _main in BANK8

    None.

Critical Paths under _InterruptManager in BANK8

    None.

Critical Paths under _main in BANK9

    None.

Critical Paths under _InterruptManager in BANK9

    None.

Critical Paths under _main in BANK10

    None.

Critical Paths under _InterruptManager in BANK10

    None.

Critical Paths under _main in BANK11

    None.

Critical Paths under _InterruptManager in BANK11

    None.

Critical Paths under _main in BANK12

    None.

Critical Paths under _InterruptManager in BANK12

    None.

Critical Paths under _main in BANK13

    None.

Critical Paths under _InterruptManager in BANK13

    None.

Critical Paths under _main in BANK14

    None.

Critical Paths under _InterruptManager in BANK14

    None.

Critical Paths under _main in BANK15

    None.

Critical Paths under _InterruptManager in BANK15

    None.

Call Graph Tables:

 ---------------------------------------------------------------------------------
 (Depth) Function   	        Calls       Base Space   Used Autos Params    Refs
 ---------------------------------------------------------------------------------
 (0) _main                                                 3     3      0  249416
                                              0 BANK0      2     2      0
                             ___lmul
             _application_initialize
                          _calculate
                            _isdigit
                   _keypad_get_value
                     _lcd_4bit_clear
           _lcd_4bit_send_string_pos
                          _lcd_write
                     _loading_screen
 ---------------------------------------------------------------------------------
 (1) _loading_screen                                       4     4      0   78813
                                             34 COMRAM     4     4      0
        _lcd_4bit_send_char_data_pos
           _lcd_4bit_send_string_pos
 ---------------------------------------------------------------------------------
 (2) _lcd_4bit_send_char_data_pos                          6     1      5   38740
                                             27 COMRAM     6     1      5
            _lcd_4bit_send_char_data
                _lcd_4bit_set_cursor
 ---------------------------------------------------------------------------------
 (1) _lcd_write                                            4     4      0   17781
                                             20 COMRAM     3     3      0
            _lcd_4bit_send_char_data
 ---------------------------------------------------------------------------------
 (1) _lcd_4bit_clear                                       3     1      2   19855
                                             20 COMRAM     3     1      2
              _lcd_4bit_send_command
 ---------------------------------------------------------------------------------
 (1) _keypad_get_value                                    11     7      4    6567
                                             12 COMRAM    11     7      4
                _gpio_pin_read_logic
               _gpio_pin_write_logic
 ---------------------------------------------------------------------------------
 (2) _gpio_pin_read_logic                                 10     6      4     764
                                              2 COMRAM    10     6      4
 ---------------------------------------------------------------------------------
 (1) _isdigit                                              4     2      2     237
                                              2 COMRAM     4     2      2
 ---------------------------------------------------------------------------------
 (1) _calculate                                            3     3      0   48489
                                             93 COMRAM     2     2      0
                            ___lldiv
                             ___lmul
           _convert_uint32_to_string
           _lcd_4bit_send_string_pos
 ---------------------------------------------------------------------------------
 (2) _lcd_4bit_send_string_pos                             7     1      6   39979
                                             27 COMRAM     7     1      6
            _lcd_4bit_send_char_data
                _lcd_4bit_set_cursor
 ---------------------------------------------------------------------------------
 (3) _lcd_4bit_set_cursor                                  7     3      4   20240
                                             20 COMRAM     7     3      4
              _lcd_4bit_send_command
 ---------------------------------------------------------------------------------
 (3) _lcd_4bit_send_char_data                              4     1      3   17734
                                             16 COMRAM     4     1      3
               _gpio_pin_write_logic
        _lcd_4bit_send_enable_signal
                     _lcd_send_4bits
 ---------------------------------------------------------------------------------
 (2) _convert_uint32_to_string                             7     1      6    7518
                                             86 COMRAM     7     1      6
                             _memset
                            _sprintf
 ---------------------------------------------------------------------------------
 (3) _sprintf                                             24    16      8    5851
                                             64 COMRAM    22    14      8
                           _vfprintf
 ---------------------------------------------------------------------------------
 (4) _vfprintf                                             8     2      6    5196
                                             56 COMRAM     8     2      6
                          _vfpfcnvrt
 ---------------------------------------------------------------------------------
 (5) _vfpfcnvrt                                           19    13      6    4846
                                             42 COMRAM    14     8      6
                               _dtoa
                              _fputc
 ---------------------------------------------------------------------------------
 (6) _dtoa                                                13     9      4    3626
                                             29 COMRAM    13     9      4
                            ___awdiv
                            ___awmod
                                _abs
                                _pad
 ---------------------------------------------------------------------------------
 (7) _pad                                                 11     5      6    1999
                                             18 COMRAM    11     5      6
                              _fputc
                              _fputs
 ---------------------------------------------------------------------------------
 (8) _fputs                                                7     3      4     931
                                             11 COMRAM     7     3      4
                              _fputc
 ---------------------------------------------------------------------------------
 (6) _fputc                                                9     5      4     682
                                              2 COMRAM     9     5      4
                              _putch
 ---------------------------------------------------------------------------------
 (7) _putch                                                1     1      0       0
 ---------------------------------------------------------------------------------
 (7) _abs                                                  4     2      2     142
                                              8 COMRAM     4     2      2
                            ___awmod (ARG)
 ---------------------------------------------------------------------------------
 (7) ___awmod                                              6     2      4     448
                                              2 COMRAM     6     2      4
 ---------------------------------------------------------------------------------
 (7) ___awdiv                                              8     4      4     452
                                              2 COMRAM     8     4      4
 ---------------------------------------------------------------------------------
 (3) _memset                                              12     6      6    1403
                                              2 COMRAM    12     6      6
 ---------------------------------------------------------------------------------
 (2) ___lmul                                              12     4      8     674
                                              2 COMRAM    12     4      8
 ---------------------------------------------------------------------------------
 (2) ___lldiv                                             13     5      8     314
                                              2 COMRAM    13     5      8
 ---------------------------------------------------------------------------------
 (1) _application_initialize                               1     1      0   37006
                     _ecu_layer_init
 ---------------------------------------------------------------------------------
 (2) _ecu_layer_init                                       1     1      0   37005
                  _keypad_initialize
                 _lcd_4bit_intialize
 ---------------------------------------------------------------------------------
 (3) _lcd_4bit_intialize                                   6     4      2   27815
                                             20 COMRAM     6     4      2
                 _gpio_pin_intialize
              _lcd_4bit_send_command
 ---------------------------------------------------------------------------------
 (4) _lcd_4bit_send_command                                4     1      3   19558
                                             16 COMRAM     4     1      3
               _gpio_pin_write_logic
        _lcd_4bit_send_enable_signal
                     _lcd_send_4bits
 ---------------------------------------------------------------------------------
 (5) _lcd_send_4bits                                       4     1      3    6006
                                             12 COMRAM     4     1      3
               _gpio_pin_write_logic
 ---------------------------------------------------------------------------------
 (5) _lcd_4bit_send_enable_signal                          3     1      2    5568
                                             12 COMRAM     3     1      2
               _gpio_pin_write_logic
 ---------------------------------------------------------------------------------
 (3) _keypad_initialize                                    7     5      2    9187
                                             16 COMRAM     7     5      2
       _gpio_pin_direction_intialize
                 _gpio_pin_intialize
 ---------------------------------------------------------------------------------
 (4) _gpio_pin_intialize                                   4     2      2    7790
                                             12 COMRAM     4     2      2
       _gpio_pin_direction_intialize
               _gpio_pin_write_logic
 ---------------------------------------------------------------------------------
 (6) _gpio_pin_write_logic                                10     7      3    5195
                                              2 COMRAM    10     7      3
 ---------------------------------------------------------------------------------
 (5) _gpio_pin_direction_intialize                         9     7      2    1091
                                              2 COMRAM     9     7      2
 ---------------------------------------------------------------------------------
 Estimated maximum stack depth 8
 ---------------------------------------------------------------------------------
 (Depth) Function   	        Calls       Base Space   Used Autos Params    Refs
 ---------------------------------------------------------------------------------
 (11) _InterruptManager                                    1     1      0     176
                                              1 COMRAM     1     1      0
                            _ADC_ISR
                           _CCP1_ISR
                           _CCP2_ISR
                      _EUSART_RX_ISR
                      _EUSART_TX_ISR
                           _INT0_ISR
                           _INT1_ISR
                           _INT2_ISR
                    _MSSP_I2C_BC_ISR
                       _MSSP_I2C_ISR
                       _MSSP_SPI_ISR
                            _RB4_ISR
                            _RB5_ISR
                            _RB6_ISR
                            _RB7_ISR
                           _TMR0_ISR
                           _TMR1_ISR
                           _TMR2_ISR
                           _TMR3_ISR
 ---------------------------------------------------------------------------------
 (12) _TMR3_ISR                                            0     0      0       0
 ---------------------------------------------------------------------------------
 (12) _TMR2_ISR                                            0     0      0       0
 ---------------------------------------------------------------------------------
 (12) _TMR1_ISR                                            0     0      0       0
 ---------------------------------------------------------------------------------
 (12) _TMR0_ISR                                            0     0      0       0
 ---------------------------------------------------------------------------------
 (12) _RB7_ISR                                             1     1      0      44
                                              0 COMRAM     1     1      0
 ---------------------------------------------------------------------------------
 (12) _RB6_ISR                                             1     1      0      44
                                              0 COMRAM     1     1      0
 ---------------------------------------------------------------------------------
 (12) _RB5_ISR                                             1     1      0      44
                                              0 COMRAM     1     1      0
 ---------------------------------------------------------------------------------
 (12) _RB4_ISR                                             1     1      0      44
                                              0 COMRAM     1     1      0
 ---------------------------------------------------------------------------------
 (12) _MSSP_SPI_ISR                                        0     0      0       0
 ---------------------------------------------------------------------------------
 (12) _MSSP_I2C_ISR                                        0     0      0       0
 ---------------------------------------------------------------------------------
 (12) _MSSP_I2C_BC_ISR                                     0     0      0       0
 ---------------------------------------------------------------------------------
 (12) _INT2_ISR                                            0     0      0       0
 ---------------------------------------------------------------------------------
 (12) _INT1_ISR                                            0     0      0       0
 ---------------------------------------------------------------------------------
 (12) _INT0_ISR                                            0     0      0       0
 ---------------------------------------------------------------------------------
 (12) _EUSART_TX_ISR                                       0     0      0       0
 ---------------------------------------------------------------------------------
 (12) _EUSART_RX_ISR                                       0     0      0       0
 ---------------------------------------------------------------------------------
 (12) _CCP2_ISR                                            0     0      0       0
 ---------------------------------------------------------------------------------
 (12) _CCP1_ISR                                            0     0      0       0
 ---------------------------------------------------------------------------------
 (12) _ADC_ISR                                             0     0      0       0
 ---------------------------------------------------------------------------------
 Estimated maximum stack depth 12
 ---------------------------------------------------------------------------------

 Call Graph Graphs:

 _main (ROOT)
   ___lmul
   _application_initialize
     _ecu_layer_init
       _keypad_initialize
         _gpio_pin_direction_intialize
         _gpio_pin_intialize
           _gpio_pin_direction_intialize
           _gpio_pin_write_logic
       _lcd_4bit_intialize
         _gpio_pin_intialize
         _lcd_4bit_send_command
           _gpio_pin_write_logic
           _lcd_4bit_send_enable_signal
             _gpio_pin_write_logic
           _lcd_send_4bits
             _gpio_pin_write_logic
   _calculate
     ___lldiv
     ___lmul
     _convert_uint32_to_string
       _memset
       _sprintf
         _vfprintf
           _vfpfcnvrt
             _dtoa
               ___awdiv
               ___awmod
               _abs
                 ___awmod (ARG)
               _pad
                 _fputc
                   _putch
                 _fputs
                   _fputc
             _fputc
     _lcd_4bit_send_string_pos
       _lcd_4bit_send_char_data
         _gpio_pin_write_logic
         _lcd_4bit_send_enable_signal
         _lcd_send_4bits
       _lcd_4bit_set_cursor
         _lcd_4bit_send_command
   _isdigit
   _keypad_get_value
     _gpio_pin_read_logic
     _gpio_pin_write_logic
   _lcd_4bit_clear
     _lcd_4bit_send_command
   _lcd_4bit_send_string_pos
   _lcd_write
     _lcd_4bit_send_char_data
   _loading_screen
     _lcd_4bit_send_char_data_pos
       _lcd_4bit_send_char_data
       _lcd_4bit_set_cursor
     _lcd_4bit_send_string_pos

 _InterruptManager (ROOT)
   _ADC_ISR
   _CCP1_ISR
   _CCP2_ISR
   _EUSART_RX_ISR
   _EUSART_TX_ISR
   _INT0_ISR
   _INT1_ISR
   _INT2_ISR
   _MSSP_I2C_BC_ISR
   _MSSP_I2C_ISR
   _MSSP_SPI_ISR
   _RB4_ISR
   _RB5_ISR
   _RB6_ISR
   _RB7_ISR
   _TMR0_ISR
   _TMR1_ISR
   _TMR2_ISR
   _TMR3_ISR

 Address spaces:
Name               Size   Autos  Total    Cost      Usage
BIGRAM             F7F      0       0      49        0.0%
EEDATA             400      0       0       0        0.0%
BITBANK14          100      0       0      33        0.0%
BANK14             100      0       0      34        0.0%
BITBANK13          100      0       0      31        0.0%
BANK13             100      0       0      32        0.0%
BITBANK12          100      0       0      29        0.0%
BANK12             100      0       0      30        0.0%
BITBANK11          100      0       0      27        0.0%
BANK11             100      0       0      28        0.0%
BITBANK10          100      0       0      25        0.0%
BANK10             100      0       0      26        0.0%
BITBANK9           100      0       0      23        0.0%
BANK9              100      0       0      24        0.0%
BITBANK8           100      0       0      21        0.0%
BANK8              100      0       0      22        0.0%
BITBANK7           100      0       0      19        0.0%
BANK7              100      0       0      20        0.0%
BITBANK6           100      0       0      17        0.0%
BANK6              100      0       0      18        0.0%
BITBANK5           100      0       0      15        0.0%
BANK5              100      0       0      16        0.0%
BITBANK4           100      0       0      13        0.0%
BANK4              100      0       0      14        0.0%
BITBANK3           100      0       0      10        0.0%
BANK3              100      0       0      11        0.0%
BITBANK2           100      0       0       8        0.0%
BANK2              100      0       0       9        0.0%
BITBANK1           100      0       0       6        0.0%
BANK1              100      0      2A       7       16.4%
BITBANK15           80      0       0      35        0.0%
BANK15              80      0       0      36        0.0%
BITBANK0            80      0       0       4        0.0%
BANK0               80      2      7F       5       99.2%
BITCOMRAM           7E      0       0       0        0.0%
COMRAM              7E     5F      7B       1       97.6%
BITBIGSFRhlhhhl     18      0       0      38        0.0%
BITBIGSFRhh          D      0       0      37        0.0%
BITBIGSFRlllhh       6      0       0      46        0.0%
BITBIGSFRhlhhhl      5      0       0      39        0.0%
BITBIGSFRllhllh      4      0       0      43        0.0%
BITBIGSFRllllh       4      0       0      47        0.0%
BITBIGSFRllhllh      4      0       0      44        0.0%
BITBIGSFRlllll       4      0       0      48        0.0%
BITBIGSFRllhlh       2      0       0      41        0.0%
BITBIGSFRllhllh      1      0       0      42        0.0%
BITBIGSFRhlhhhl      1      0       0      40        0.0%
BITBIGSFRllhlll      1      0       0      45        0.0%
BIGSFR               0      0       0     200        0.0%
BITSFR               0      0       0     200        0.0%
SFR                  0      0       0     200        0.0%
STACK                0      0       0       2        0.0%
NULL                 0      0       0       0        0.0%
ABS                  0      0     124      12        0.0%
DATA                 0      0     124       3        0.0%
CODE                 0      0       0       0        0.0%


Microchip Technology PIC18 Macro Assembler V2.41 build 20230208172133 
Symbol Table                                                                                   Fri Nov 24 22:08:42 2023

                               ??_InterruptManager 0002                                    ?_lcd_send_4bits 000D  
                                      _SSPSTATbits 0FC7                                                 l74 290C  
                                               l84 2B8E                                                 l69 1FE4  
                                               l79 289A                                       ___awdiv@sign 0008  
                                 ??_loading_screen 0023                                  lcd_4bit_clear@lcd 0015  
                                lcd_4bit_clear@ret 0017                                                l100 26A0  
                                              l208 255C                                                l156 2D32  
                                              l253 27AE                                                l182 2A4A  
                                              l185 2C88                                                l179 2AAC  
                                              l267 2104                                                l701 1EBC  
                                              l349 2D4C                                                l722 2978  
                                              l708 2404                                                l682 1C64  
                             keypad_initialize@ret 0015                                                _abs 2C14  
                                              _pad 27B0                          _RB5_InterruptHandler_HIGH 00AC  
                                  __end_of_ADC_ISR 2E2A                __end_of_lcd_4bit_send_enable_signal 2C8A  
                      _lcd_4bit_send_enable_signal 2C54                                       ___awmod@sign 0008  
                                              prod 0FF3                                                wreg 0FE8  
                      lcd_send_4bits@_data_command 000F                          ?_convert_uint32_to_string 0057  
                                  __end_of_RB4_ISR 2DB6                                    __end_of_RB5_ISR 2D9C  
                                  __end_of_RB6_ISR 2D82                                    __end_of_RB7_ISR 2D68  
                                             ?_abs 0009                                               l2031 2292  
                                             l2044 24B4                                               l2520 2828  
                                             l1811 29D2                                               l1812 29E2  
                                             l2516 27D2                                               l2525 1704  
                                             l2527 170C                                               l2528 1752  
                                             l2552 2AFC                                               l2481 19C6  
                                             l6010 1F3C                                               l6002 1F00  
                                             l1834 2600                                               l2546 1D90  
                                             l2474 2CE0                                               l1827 25F0  
                                             l2571 21CE                                               l2539 1850  
                                             l1763 16B4                                               l6020 1F90  
                                             l6012 1F4C                                               l6004 1F1C  
                                             l2556 2C4A                                               l6100 2AFE  
                                             l1780 234C                                               l1773 2DFE  
                                             l6022 1FA0                                               l6014 1F6A  
                                             l6006 1F1E                                               l6030 1FE2  
                                             l2582 2E2A                                               l2494 2B48  
                                             l6102 2B0E                                               l1758 15C4  
                                             l2559 2C52                                               l6112 2730  
                                             l6024 1FB0                                               l6016 1F70  
                                             l6008 1F2E                                               l6104 2B16  
                                             l6040 2844                                               l1785 2C12  
                                             l6130 2778                                               l6114 2738  
                                             l6026 1FC0                                               l6018 1F80  
                                             l6106 2B1E                                               l6042 2898  
                                             l6034 282A                                               l6050 24C0  
                                             l2579 2BD2                                               l1795 1B20  
                                             l6140 279C                                               l6124 2756  
                                             l6116 274A                                               l6028 1FD0  
                                             l6108 2B3A                                               l6036 282A  
                                             l6052 24D8                                               l6060 255A  
                                             l6126 2766                                               l6142 27AC  
                                             l6118 2752                                               l6230 2A4C  
                                             l6038 283C                                               l6054 24F0  
                                             l6046 24B6                                               l6150 2364  
                                             ?_pad 0013                                               l6136 277C  
                                             l6128 2768                                               l6080 190A  
                                             l6072 1870                                               l6240 2AAA  
                                             l6232 2A50                                               l6056 2508  
                                             l6048 24BA                                               l6152 2376  
                                             l6138 279A                                               l6250 297A  
                                             l6090 196A                                               l6074 187C  
                                             l6234 2A62                                               l6058 2520  
                                             l6154 2398                                               l6146 234E  
                                             l6170 2B8C                                               l6162 2B4A  
                                             l6244 2D34                                               l6260 255E  
                                             l6252 298A                                               l6092 199E  
                                             l6084 1924                                               l6068 1852  
                                             l5700 2BB2                                               l6236 2A6A  
                                             l6180 261C                                               l6156 23A0  
                                             l6148 2352                                               l6340 2D1E  
                                             l6164 2B4A                                               l8100 15F2  
                                             l6246 2D34                                               l6270 25A6  
                                             l6262 256E                                               l6254 2998  
                                             l6094 19AA                                               l6086 1950  
                                             l6078 18B2                                               l5710 21EE  
                                             l5702 21D0                                               l6238 2A86  
                                             l6182 2636                                               l6174 2602  
                                             l6158 2402                                               l6350 201A  
                                             l6166 2B5C                                               l8110 1666  
                                             l8102 1602                                               l5800 1D92  
                                             l6248 2D40                                               l6280 25EA  
                                             l6272 25B0                                               l6264 2584  
                                             l6256 29A8                                               l6096 19B0  
                                             l5720 2222                                               l5712 21FC  
                                             l5704 21D4                                               l8200 2534  
                                             l6184 2668                                               l6176 2602  
                                             l6352 2022                                               l6344 1FE6  
                                             l6336 2D0E                                               l6168 2B64  
                                             l8112 166E                                               l8202 1EA4  
                                             l5810 1E34                                               l5802 1D96  
                                             l6610 2DFA                                               l6274 25CE  
                                             l6266 258C                                               l6258 29B2  
                                             l6098 19B4                                               l5730 225C  
                                             l5722 222A                                               l5714 2204  
                                             l5706 21E2                                               l6186 266C  
                                             l6178 2614                                               l6370 2050  
                                             l6346 1FF6                                               l6338 2D0E  
                                             l8114 1680                                               l8106 1650  
                                             l8204 1C4C                                               l5804 1DA8  
                                             l5900 29E4                                               l6276 25DE  
                                             l6268 2598                                               l5740 2282  
                                             l5732 2264                                               l5724 2232  
                                             l5716 2208                                               l5708 21EA  
                                             l6188 269E                                               l6380 2078  
                                             l6372 2064                                               l6364 202A  
                                             l6348 2008                                               l6612 2294  
                                             l8116 168C                                               l8108 1662  
                                             l8060 148C                                               l5814 1E90  
                                             l5806 1DCA                                               l5910 2C54  
                                             l5902 29FA                                               l6278 25E0  
                                             l5742 228A                                               l5734 2266  
                                             l5726 2240                                               l5718 2210  
                                             l5750 2418                                               l5830 16E8  
                                             l6390 20F0                                               l6382 209E  
                                             l6374 2074                                               l6366 203E  
                                             l6358 2026                                               l6630 22EC  
                                             l6614 22B0                                               l8070 14D6  
                                             l8062 1490                                               l5808 1DD2  
                                             l5816 1EBA                                               l5912 2C54  
                                             l5904 2A12                                               l6608 2DFA  
                                             l5736 226C                                               l5728 2246  
                                             l5760 244C                                               l5752 2420  
                                             l5680 2106                                               l5840 173A  
                                             l5832 16F8                                               l5824 16BC  
                                             l6392 20F2                                               l6384 20AE  
                                             l6368 2040                                               l6640 2330  
                                             l6632 22FE                                               l6624 22B8  
                                             l6616 22B0                                               l8080 152A  
                                             l8072 14E2                                               l8064 14AC  
                                             l5914 2C68                                               l5906 2A2C  
                                             l5738 2272                                               l5770 2488  
                                             l5762 2454                                               l5754 2424  
                                             l5746 2406                                               l5690 2188  
                                             l5682 2118                                               l5850 176A  
                                             l5842 1746                                               l5834 1714  
                                             l5826 16D0                                               l5930 1CAC  
                                             l5922 1C66                                               l6642 2CB6  
                                             l6386 20DE                                               l6394 2102  
                                             l6650 2BE8                                               l6634 231A  
                                             l6626 22BA                                               l6618 22B4  
                                             l8090 15B2                                               l8082 1574  
                                             l8066 14C6                                               l8058 148C  
                                             l5916 2C70                                               l5772 248E  
                                             l5764 245C                                               l5756 2432  
                                             l5748 240A                                               l5684 212A  
                                             l5860 17DE                                               l5852 179C  
                                             l5844 174E                                               l5836 1724  
                                             l5828 16E0                                               l5932 1CBC  
                                             l5924 1C8C                                               l6660 19EA  
                                             l6388 20E0                                               l6652 2BF8  
                                             l6636 231E                                               l6628 22D4  
                                             l8092 15C8                                               l8084 157C  
                                             l8076 14F6                                               l8068 14D2  
                                             l5918 2C86                                               l5766 246A  
                                             l5774 2494                                               l5758 243A  
                                             l5686 2134                                               l5694 2B90  
                                             l5790 27F2                                               l5782 27B0  
                                             l5870 1830                                               l5862 17F0  
                                             l5854 17A2                                               l5846 175A  
                                             l5838 172A                                               l5942 1D54  
                                             l5934 1CDA                                               l5926 1C9A  
                                             l6662 1A08                                               l6654 2BFC  
                                             l6646 2BD4                                               l6638 2320  
                                             l8086 158E                                               l8078 151A  
                                             l5880 1B5A                                               l5960 294A  
                                             l5952 290E                                               l5776 24A4  
                                             l5768 2480                                               l5688 2152  
                                             l5696 2B9C                                               l5792 27F6  
                                             l5784 27BE                                               l5864 180A  
                                             l5856 17A8                                               l5848 1764  
                                             l5936 1CF8                                               l5928 1CA8  
                                             l6672 1A76                                               l6664 1A40  
                                             l6656 19C8                                               l6648 2BD8  
                                             l8088 15A0                                               l5882 1B62  
                                             l5890 1C62                                               l5874 1B22  
                                             l5962 2976                                               l5954 290E  
                                             l5970 28AE                                               l5778 24AC  
                                             l5698 2BAE                                               l5794 2814  
                                             l5786 27CA                                               l5866 181A  
                                             l5858 17C4                                               l5938 1D3C  
                                             l5946 1D66                                               l6666 1A56  
                                             l6658 19CC                                               l6674 1AAE  
                                             l8098 15D0                                               l5884 1BC4  
                                             l5876 1B26                                               l5956 2920  
                                             l5972 28B6                                               l5796 2C14  
                                             l5788 27DE                                               l5868 1820  
                                             l5980 2ABA                                               l6676 1AE8  
                                             l5878 1B38                                               l5958 2942  
                                             l5974 290A                                               l5966 289C  
                                             l5990 1EC2                                               l5798 2C2E  
                                             l5982 2AD6                                               l6678 1B04  
                                             l8198 1AC2                                               l5888 1C20  
                                             l5968 289C                                               l5992 1ED4  
                                             l5984 2AF4                                               l5898 29E4  
                                             l5994 1EDC                                               l5978 2AAE  
                                             l5996 1EFC                                               l5988 1EBE  
                                             STR_1 1040                                               STR_3 1040  
                                             STR_4 1030                                               STR_5 1038  
                                             STR_6 1026                                               STR_7 1026  
                                             STR_8 1011                                               _LATA 0F89  
                                             _LATB 0F8A                                               _LATC 0F8B  
                                             u4000 2118                                               _LATD 0F8C  
                                             u4001 2114                                               _LATE 0F8D  
                                             u4010 212A                                               u4011 2126  
                                             u4100 2282                                               u4020 2152  
                                             u4101 227E                                               u4021 214E  
                                             u4110 2418                                               u4030 2188  
                                             u4111 2414                                               u4031 2184  
                                             u4200 1DA8                                               u4120 2432  
                                             u4040 2BD2                                               u5000 2CDA  
                                             u4201 1DA4                                               u4121 242E  
                                             u4041 2BCE                                               u5001 2CD4  
                                             u4210 1DCA                                               u4050 21E2  
                                             u4130 244C                                               u5010 2CDC  
                                             u4211 1DC6                                               u4051 21DE  
                                             u4131 2448                                               u4060 21FC  
                                             u4140 246A                                               u4300 17DE  
                                             u5020 2BE8                                               u4061 21F8  
                                             u4141 2466                                               u4301 17DA  
                                             u5021 2BE4                                               u4070 2222  
                                             u4150 2480                                               u4310 17F0  
                                             u5030 1A56                                               u4071 221E  
                                             u4151 247C                                               u4311 17EC  
                                             u5031 1A52                                               u4224 1DF2  
                                             u4080 2240                                               u4160 24A4  
                                             u4320 180A                                               u4240 16CC  
                                             u4400 1C8C                                               u4225 1DEE  
                                             u4081 223C                                               u4161 24A0  
                                             u4321 1806                                               u4241 16C6  
                                             u4401 1C88                                               u4234 1E54  
                                             u4090 225C                                               u4170 27BE  
                                             u4330 181A                                               u4250 16CE  
                                             u4410 1CDA                                               u4235 1E50  
                                             u4091 2258                                               u4171 27BA  
                                             u4331 1816                                               u4411 1CD6  
                                             u4340 1B38                                               u4500 186C  
                                             u4180 2814                                               u4260 16E0  
                                             u4420 1CF8                                               u4341 1B34  
                                             u4501 1868                                               u4181 2810  
                                             u4261 16DC                                               u4421 1CF4  
                                             u4350 1B5A                                               u4430 2920  
                                             u4510 18AE                                               u4190 2C2E  
                                             u4270 16F8                                               u4351 1B56  
                                             u4431 291C                                               u4511 18AA  
                                             u4191 2C2A                                               u4271 16F4  
                                             u4440 2942                                               u4520 1920  
                                             u4280 1724                                               u4600 2398  
                                             u7000 158E                                               u4441 293E  
                                             u4521 191C                                               u4281 1720  
                                             u4601 2394                                               u7001 158A  
                                             u4450 28AE                                               u4530 1966  
                                             u4290 173A                                               u7010 15A0  
                                             u4451 28AA                                               u4531 1962  
                                             u4291 1736                                               u7011 159C  
                                             u4380 1C38                                               u4364 1B82  
                                             u4540 19C6                                               u4460 2AF4  
                                             u4700 2A62                                               u4620 2B5C  
                                             u7020 15B2                                               u4381 1C32  
                                             u4365 1B7E                                               u4541 19C2  
                                             u4461 2AF0                                               u4701 2A5E  
                                             u4621 2B58                                               u7021 15AE  
                                             u4390 1C3A                                               u4374 1BE4  
                                             u4550 274A                                               u4470 1ED4  
                                             u4710 2998                                               u4630 2614  
                                             u4614 23EE                                               u7030 15C4  
                                             u4375 1BE0                                               u4551 2746  
                                             u4471 1ED0                                               u4711 2994  
                                             u4631 2610                                               u4615 23EA  
                                             u7031 15C0                                               u4560 2778  
                                             u4480 1F2E                                               u4720 29D2  
                                             u4640 2660                                               u7040 15F2  
                                             u4561 2774                                               u4481 1F2A  
                                             u4721 29CE                                               u7041 15EE  
                                             u4570 27AC                                               u4730 2584  
                                             u4490 283C                                               u4650 268E  
                                             u7050 1602                                               u4571 27A8  
                                             u4731 2580                                               u4491 2838  
                                             u7107 2C06                                               u7051 15FE  
                                             u4740 25A6                                               u4660 269E  
                                             u4580 2364                                               u4820 2008  
                                             u7060 1662                                               u4741 25A2  
                                             u4661 269A                                               u4581 2360  
                                             u7117 206A                                               u4821 2004  
                                             u7061 165E                                               u4750 25CE  
                                             u4590 2376                                               u4830 201A  
                                             u7070 1680                                               u7127 1F34  
                                             u4751 25CA                                               u4647 2656  
                                             u4591 2372                                               u4831 2016  
                                             u7071 167C                                               u4840 2050  
                                             u7137 1F52                                               u4657 2684  
                                             u4841 204C                                               u4850 20AE  
                                             u7147 1F6C                                               u4851 20AA  
                                             u4860 20F0                                               u7157 2C6A  
                                             u4861 20EC                                               u4870 2102  
                                             u4871 20FE                                               u7087 14B8  
                                             u7097 22DE                                               u4980 22FE  
                                             u4981 22FA                                               u4990 2330  
                                             u4991 232C                                               u6980 151A  
                                             u6981 1516                                               u6990 152A  
                                             u6991 1526                                               _TMR2 0FCC  
                    ??_lcd_4bit_send_enable_signal 000F                           _RB4_InterruptHandler_LOW 00AE  
                                             abs@a 0009                                               _dbuf 0100  
                   gpio_pin_read_logic@_pin_config 0003                                               _main 148C  
                                             _dtoa 16BC                                   __end_of_CCP1_ISR 2E26  
                                             _num1 0064                                               _num2 0060  
                                 __end_of_CCP2_ISR 2E22                                               _prec 008C  
                         _RB7_InterruptHandler_LOW 00A2                                               pad@i 001A  
                                             pad@p 0017                                               fsr0h 0FEA  
                                             fsr1h 0FE2                                               indf0 0FEF  
                                             fsr2h 0FDA                                               fsr0l 0FE9  
                                             indf2 0FDF                                               fsr1l 0FE1  
                                             pad@w 001C                                               fsr2l 0FD9  
                                             btemp 007C                  lcd_4bit_send_char_data_pos@column 001F  
                                             prodl 0FF3                                               start 000E  
                                     ___param_bank 0000                              _lcd_4bit_send_command 289C  
                                            ??_abs 000B                               _gpio_pin_write_logic 1D92  
                   lcd_4bit_send_string_pos@column 001F                                              ??_pad 0019  
                            lcd_4bit_intialize@lcd 0015                              lcd_4bit_intialize@ret 001A  
                                 __end_of_INT0_ISR 2E1A                                   __end_of_INT1_ISR 2E16  
                                 __end_of_INT2_ISR 2E12                                      _EUSART_RX_ISR 2CE2  
                                    _EUSART_TX_ISR 2E1A                                              ?_main 0001  
                                            ?_dtoa 001E                           ??_application_initialize 001B  
                                  __end_of___awdiv 2294                                              _EEADR 0FA9  
                                  __end_of___awmod 24B6                                    __end_of___lldiv 2602  
                                  ___awdiv@divisor 0005                                              i2l553 2E20  
                                            i2l475 2E28                                              i2l548 2E24  
                                            i2l903 2E08                                              i2l907 2E0C  
                                            i2l971 2E18                                    ___awdiv@counter 0007  
                                            i2l981 2E10                                              i2l976 2E14  
                                            i2l992 2DB4                                              _RCREG 0FAE  
                                     vfpfcnvrt@fmt 002D                                              _TMR0H 0FD7  
                                            _TMR1H 0FCF                                              _TMR0L 0FD6  
                                            _TMR1L 0FCE                                              _TMR3H 0FB3  
                                            _TMR3L 0FB2                                              _SPBRG 0FAF  
                                            _PORTA 0F80                                              _PORTB 0F81  
                                            _PORTC 0F82                                              _PORTD 0F83  
                                            _PORTE 0F84                                              _TRISA 0F92  
                                            _TRISB 0F93                                              _TRISC 0F94  
                                            _TRISD 0F95                                              _TRISE 0F96  
                                            _TXREG 0FAD                          lcd_4bit_set_cursor@coulmn 0018  
                              ___lmul@multiplicand 0007                           __end_of_keypad_get_value 2106  
                                 __end_of_TMR0_ISR 2DDC                                   __end_of_TMR1_ISR 2DD0  
                                 __end_of_TMR2_ISR 2DFA                                   __end_of_TMR3_ISR 2DC4  
                                            _lcd_1 00F7                                              _lcd_2 0120  
                                            _flags 006C                                              _fputc 2106  
                                            _fputs 2B90                                    __end_of_isdigit 2CE2  
                                            pad@fp 0013                                              _width 008A  
                                            _putch 2E2A                                              dtoa@d 0020  
                                            dtoa@i 0028                                              dtoa@p 0024  
                                            dtoa@s 002A                                              dtoa@w 0026  
                                            tablat 0FF5                                              ttemp5 007D  
                                            ttemp6 0080                                              ttemp7 0084  
                                            status 0FD8                                              wtemp8 007D  
                                  __end_of_sprintf 2B4A                  keypad_get_value@l_columns_counter 0017  
                                  __initialization 26A2                                keypad_get_value@ret 0013  
                                     __end_of_main 16BC                                       __end_of_dtoa 1852  
                            ?_gpio_pin_write_logic 0003                                          ??_ADC_ISR 0001  
                                   ?_EUSART_RX_ISR 0001                                     ?_EUSART_TX_ISR 0001  
                         gpio_pin_read_logic@logic 0005                                      _lat_registers 00DB  
                                           ??_main 00FD                                             ??_dtoa 0022  
                                    __activetblptr 0003                              _TMR3_InterruptHandler 0098  
                                        ??_RB4_ISR 0001                                          ??_RB5_ISR 0001  
                                        ??_RB6_ISR 0001                                          ??_RB7_ISR 0001  
                       _EUSART_OverrunErrorHandler 008E                                             ?_fputc 0003  
                                           ?_fputs 000C                                             _ADRESH 0FC4  
                                           _EEADRH 0FAA                                             _ADRESL 0FC3  
                                           _EEDATA 0FA8                                             _CCPR1H 0FBF  
                                           _CCPR1L 0FBE                                             _EECON2 0FA7  
                                 ___awdiv@dividend 0003                                             ?_putch 0001  
                                           i2l1003 2D9A                                             i2l1014 2D80  
                                           i2l1025 2D66                                             i2l1210 112E  
                                           i2l1202 1066                                             i2l1220 1282  
                                           i2l1212 1172                                             i2l1204 1086  
                                           i2l1230 1346                                             i2l1222 12C6  
                                           i2l1214 11B6                                             i2l1206 10A6  
                                           i2l1240 1412                                             i2l1232 1366  
                                           i2l1224 12E6                                             i2l1216 11FA  
                                           i2l1208 10EA                                             i2l1242 1448  
                                           i2l1234 1386                                             i2l1226 1306  
                                           i2l1218 123E                                             i2l1324 2E04  
                                           i2l1244 1468                                             i2l1236 13A6  
                                           i2l1228 1326                                             i2l1510 2DF8  
                                           i2l1238 13DC                                             i2l1247 1488  
                                           i2l1702 2D0C                                             i2l1390 2DDA  
                                           i2l1554 2DC2                                             i2l1459 2DCE  
                                           i2l1693 2E1C                                             i2l6500 2D52  
                                           i2l6414 2E26                                             i2l6430 2E06  
                                           i2l6424 2E1E                                             i2l6600 2D0A  
                                           i2l6418 2E22                                             i2l6450 2E0E  
                                           i2l6434 2E0A                                             i2l6506 2D66  
                                           i2l6444 2E12                                             i2l6604 2E00  
                                           i2l7500 118E                                             i2l6438 2E16  
                                           i2l6470 2D84                                             i2l7510 11D2  
                                           i2l7502 119C                                             i2l6464 2DB4  
                                           i2l6456 2D9E                                             i2l6472 2D86  
                                           i2l7600 1484                                             i2l7520 1216  
                                           i2l7512 11E0                                             i2l7504 11AC  
                                           i2l6458 2DA0                                             i2l6554 2DD0  
                                           i2l6562 2DC4                                             i2l6570 2DF2  
                                           i2l7530 125A                                             i2l7522 1224  
                                           i2l7514 11F0                                             i2l7506 11B0  
                                           i2l6492 2D80                                             i2l6484 2D6A  
                                           i2l6556 2DD2                                             i2l6564 2DC6  
                                           i2l7540 129E                                             i2l7532 1268  
                                           i2l7524 1234                                             i2l7516 11F4  
                                           i2l7508 11C4                                             i2l7460 1074  
                                           i2l6582 2E1A                                             i2l6478 2D9A  
                                           i2l6486 2D6C                                             i2l6558 2DD6  
                                           i2l6566 2DCA                                             i2l6574 2DB6  
                                           i2l7550 12E2                                             i2l7542 12AC  
                                           i2l7534 1278                                             i2l7526 1238  
                                           i2l7518 1208                                             i2l7470 10C2  
                                           i2l7462 1082                                             i2l7454 1046  
                                           i2l6592 2CE2                                             i2l6576 2DB8  
                                           i2l7560 1334                                             i2l7552 12F4  
                                           i2l7544 12BC                                             i2l7536 127C  
                                           i2l7528 124C                                             i2l7480 1106  
                                           i2l7472 10D0                                             i2l7464 1094  
                                           i2l7456 1054                                             i2l6594 2CF6  
                                           i2l6498 2D50                                             i2l6578 2DBE  
                                           i2l7570 1382                                             i2l7562 1342  
                                           i2l7554 1302                                             i2l7546 12C0  
                                           i2l7538 1290                                             i2l7490 114A  
                                           i2l7482 1114                                             i2l7474 10E0  
                                           i2l7466 10A2                                             i2l7458 1062  
                                           i2l6588 2CE2                                             i2l7580 13D8  
                                           i2l7572 1394                                             i2l7564 1354  
                                           i2l7556 1314                                             i2l7548 12D4  
                                           i2l7492 1158                                             i2l7484 1124  
                                           i2l7476 10E4                                             i2l7468 10B4  
                                           i2l6598 2CF8                                             i2l7590 142E  
                                           i2l7582 13EA                                             i2l7574 13A2  
                                           i2l7566 1362                                             i2l7558 1322  
                                           i2l7494 1168                                             i2l7486 1128  
                                           i2l7478 10F8                                             i2l7592 1444  
                                           i2l7584 13F8                                             i2l7576 13B4  
                                           i2l7568 1374                                             i2l7496 116C  
                                           i2l7488 113C                                             i2l7594 1456  
                                           i2l7586 140E                                             i2l7578 13C2  
                                           i2l7498 1180                                             i2l7596 1464  
                                           i2l7588 1420                                             i2l7598 1476  
                                           _SPBRGH 0FB0                                             _SSPADD 0FC8  
                                           _SSPBUF 0FC9                          keypad_get_value@l_counter 0015  
                 __end_of_lcd_4bit_send_string_pos 26A2                             ?_lcd_4bit_send_command 0011  
                                     vfprintf@cfmt 003F                                             ___lmul 297A  
                                        ??___awdiv 0007                                          ??___awmod 0007  
                                        ??___lldiv 000B                                             _memset 1852  
                                           clear_0 2708                                             clear_1 2714  
                                           clear_2 2720                                   ___awdiv@quotient 0009  
                                  ___awmod@divisor 0005                                             isa$std 0001  
                                           _result 0086                                    ___awmod@counter 0007  
                                           pad@buf 0015                                             dtoa@fp 001E  
          gpio_pin_direction_intialize@_pin_config 0003        _I2C_Report_Receive_Overflow_InterruptHandle 00B8  
                                           fputc@c 0003                                          ?_CCP1_ISR 0001  
                                           fputs@c 0010                                             fputs@i 0011  
                                     __pdataCOMRAM 0071                                          ?_CCP2_ISR 0001  
                                           fputs@s 000C                                          ??_isdigit 0005  
                                     __mediumconst 0000                                             tblptrh 0FF7  
                                           tblptrl 0FF6                                             tblptru 0FF8  
                                           putch@c 0001                                   __end_of_vfprintf 2AFE  
                                        ??_sprintf 0049                                         __accesstop 0080  
                          __end_of__initialization 2726                                          ?_INT0_ISR 0001  
                                        ?_INT1_ISR 0001                                          ?_INT2_ISR 0001  
                                    ___rparam_used 0001                                   ??_lcd_send_4bits 0010  
                          _lcd_4bit_send_char_data 282A                                  RB5_ISR@RB5_Source 0001  
                           ??_gpio_pin_write_logic 0006                                     __pcstackCOMRAM 0001  
                       _I2C_DefaultInterruptHandle 00BA                                       __pidataBANK0 2C8A  
                                     __pidataBANK1 2DE7                                          ?_TMR0_ISR 0001  
                                  ??_EUSART_RX_ISR 0001                                          ?_TMR1_ISR 0001  
                                        ?_TMR2_ISR 0001                                          ?_TMR3_ISR 0001  
                                  ??_EUSART_TX_ISR 0001                                      __end_of_fputc 21D0  
                                    __end_of_fputs 2BD4                                      __end_of_putch 2E2C  
                         lcd_4bit_send_command@lcd 0011                           lcd_4bit_send_command@ret 0014  
                                       ??_CCP1_ISR 0001                                         ??_CCP2_ISR 0001  
                     ?_lcd_4bit_send_char_data_pos 001C                                            ??_fputc 0007  
                                          ??_fputs 0010                                            ??_putch 0003  
                                       __pbssBANK0 0080                                         __pbssBANK1 0100  
                            _INT0_InterruptHandler 00B6                                         ??_INT0_ISR 0001  
                                       ??_INT1_ISR 0001                                         ??_INT2_ISR 0001  
                           _application_initialize 2DFA                                            ?___lmul 0003  
                                       ??_TMR0_ISR 0001                                         ??_TMR1_ISR 0001  
                                       ??_TMR2_ISR 0001                                         ??_TMR3_ISR 0001  
                      convert_uint32_to_string@ret 005D                                            _ADC_ISR 2E26  
                      convert_uint32_to_string@str 005B                                            ?_memset 0003  
                                   ___lmul@product 000B                                  RB7_ISR@RB7_Source 0001  
                                   _lcd_4bit_clear 2D0E                                            _RB4_ISR 2D9C  
                                          _RB5_ISR 2D82                                            _RB6_ISR 2D68  
                                          _RB7_ISR 2D4E                          ?_lcd_4bit_send_string_pos 001C  
                        _RB6_InterruptHandler_HIGH 00A8                                      ?_MSSP_I2C_ISR 0001  
                                ?_keypad_get_value 000D                                  __end_of_calculate 1B22  
                               ??_keypad_get_value 0011                                         _btn_values 1001  
                                   _tris_registers 00E5                           _RB6_InterruptHandler_LOW 00A6  
                        ??_lcd_4bit_send_char_data 0014                                      ?_MSSP_SPI_ISR 0001  
                                ??_MSSP_I2C_BC_ISR 0001                               _ADC_InterruptHandler 00C4  
                                          __Hparam 0000                                            __Lparam 0000  
                             _SPI_InterruptHandler 00A0                                            ___awdiv 21D0  
                              _gpio_pin_read_logic 234E                                            ___awmod 2406  
                                __end_of_lcd_write 2C14                                            ___lldiv 255E  
                                        ?_vfprintf 0039                   keypad_initialize@columns_counter 0017  
                                     __psmallconst 1000                             __end_of_lcd_4bit_clear 2D34  
                       __end_of_gpio_pin_intialize 297A                                            __pcinit 26A2  
                                          __ramtop 1000                                            __ptext0 148C  
                                          __ptext1 2294                                            __ptext2 2B4A  
                                          __ptext3 2BD4                                            __ptext4 2D0E  
                                          __ptext5 1FE6                                            __ptext6 234E  
                                          __ptext7 2CB6                                            __ptext8 19C8  
                                          __ptext9 2602                                          _T0CONbits 0FD5  
                                        _T1CONbits 0FCD                           _convert_uint32_to_string 2A4C  
                                   ??_MSSP_I2C_ISR 0001                                          _T2CONbits 0FCA  
                                          _keypad1 00EF                                            _isdigit 2CB6  
                                        _T3CONbits 0FB1                                   ___awmod@dividend 0003  
                             ?_gpio_pin_read_logic 0003                                            _sprintf 2AFE  
            lcd_4bit_intialize@l_data_pins_counter 0019                                     __pintcode_body 1044  
                             end_of_initialization 2726                                  lcd_send_4bits@lcd 000D  
                                lcd_send_4bits@ret 0010                                            fputc@fp 0005  
                                          memset@c 0005                                            memset@k 000B  
                                          memset@n 0007                                            memset@s 000D  
                                          int_func 1044                                            fputs@fp 000E  
                                   ??_MSSP_SPI_ISR 0001                         __end_of_lcd_4bit_intialize 1FE6  
                          ??_lcd_4bit_send_command 0014                                    ___lldiv@divisor 0007  
                            gpio_pin_intialize@ret 0010                                    ___lldiv@counter 000F  
                                __end_of_vfpfcnvrt 1D92                                          _RCSTAbits 0FAB  
                                          postdec1 0FE5                                            postdec2 0FDD  
                                          postinc0 0FEE                                            postinc1 0FE6  
                                          postinc2 0FDE                                   vfpfcnvrt@convarg 0033  
                                       ??_vfprintf 003F                                     _ecu_layer_init 2D34  
                                  ?_lcd_4bit_clear 0015                                         _result_txt 00C6  
                  __end_of_lcd_4bit_send_char_data 289C                              _INT1_InterruptHandler 00B4  
                                        _PORTBbits 0F81                                   _InterruptManager 0008  
                    gpio_pin_intialize@_pin_config 000D                       keypad_get_value@column_logic 0014  
                       lcd_4bit_send_char_data@lcd 0011                         lcd_4bit_send_char_data@ret 0014  
             __end_of_gpio_pin_direction_intialize 1C66                       _gpio_pin_direction_intialize 1B22  
                                        _TRISCbits 0F94                              ??_gpio_pin_read_logic 0007  
                  lcd_4bit_send_char_data_pos@data 0020                                        _CCP1CONbits 0FBD  
                                      _CCP2CONbits 0FBA                                          _TXSTAbits 0FAC  
                              _lcd_4bit_set_cursor 24B6                        lcd_4bit_send_string_pos@lcd 001C  
                      lcd_4bit_send_string_pos@ret 0022                        lcd_4bit_send_string_pos@row 001E  
                      lcd_4bit_send_string_pos@str 0020                             __end_of_ecu_layer_init 2D4E  
                            keypad_get_value@value 000F                      convert_uint16_to_string@F3702 0080  
                                   __end_of___lmul 29E4                                        vfpfcnvrt@ap 002F  
                                      vfpfcnvrt@cp 0037                                        vfpfcnvrt@fp 002B  
                                      _BAUDCONbits 0FB8                                      __pidataCOMRAM 2DDC  
                                   _timer0_preload 006A                                     __end_of_memset 19C8  
                                   _timer1_preload 0068                                     _timer2_preload 006F  
                              start_initialization 26A2                                     _timer3_preload 0096  
                     ?_lcd_4bit_send_enable_signal 000D                               ?_lcd_4bit_set_cursor 0015  
                    convert_uint32_to_string@value 0057                                        __end_of_abs 2C54  
MSSP_SPI_Msster_Mode_GPIO_PIN_Configurations@F3600 0075   MSSP_SPI_Slave_Mode_GPIO_PIN_Configurations@F3611 0071  
 MSSP_SPI_Slave_Mode_GPIO_PIN_Configurations@F3605 0074   MSSP_SPI_Slave_Mode_GPIO_PIN_Configurations@F3607 0073  
 MSSP_SPI_Slave_Mode_GPIO_PIN_Configurations@F3609 0072                                        __end_of_pad 282A  
MSSP_SPI_Msster_Mode_GPIO_PIN_Configurations@F3596 0077  MSSP_SPI_Msster_Mode_GPIO_PIN_Configurations@F3598 0076  
                    ?_gpio_pin_direction_intialize 0003                            ?_application_initialize 0001  
                        _EUSART_RxInterruptHandler 0092                               __end_of_MSSP_I2C_ISR 2E0A  
                                      vfprintf@fmt 003B                  CCP1_Capture_Mode_Read_Value@F3598 00BE  
                       _EUSART_FramingErrorHandler 0090                                           ??___lmul 000B  
                                  ?_ecu_layer_init 0001                                        __pdataBANK0 00D1  
                                      __pdataBANK1 0120                                           ?_ADC_ISR 0001  
                                         ??_memset 0009                              __end_of_EUSART_RX_ISR 2D0E  
                            __end_of_EUSART_TX_ISR 2E1E                                         memset@dest 0003  
                     lcd_4bit_send_command@command 0013                               __end_of_MSSP_SPI_ISR 2E06  
                                         ?_RB4_ISR 0001                                           ?_RB5_ISR 0001  
                                         ?_RB6_ISR 0001                                           ?_RB7_ISR 0001  
                                      __pbssCOMRAM 0060                              ??_lcd_4bit_set_cursor 0019  
      _I2C_Report_Write_Collision_InterruptHandler 00BC                                      __pcstackBANK0 00FD  
                   __end_of_application_initialize 2E00                                     _loading_screen 2294  
                                  _MSSP_I2C_BC_ISR 2E0A                              _INT2_InterruptHandler 00B2  
                                        _calculate 19C8                    gpio_pin_direction_intialize@ret 000B  
                            _TMR0_InterruptHandler 009E                      keypad_initialize@rows_counter 0016  
                                        _dtoa$4951 0022                                          __pintcode 0008  
                       ??_convert_uint32_to_string 005D                    gpio_pin_write_logic@_pin_config 0003  
                                         ?___awdiv 0003                                           ?___awmod 0003  
                                         ?___lldiv 0003                          gpio_pin_write_logic@logic 0005  
                                     _keypad_value 0070                                          _lcd_write 2BD4  
                                      __smallconst 1000                          _RB4_InterruptHandler_HIGH 00B0  
                                         _CCP1_ISR 2E22                                           _CCP2_ISR 2E1E  
                                         ?_isdigit 0003                             __end_of_loading_screen 234E  
                        _RB7_InterruptHandler_HIGH 00A4                                           ?_sprintf 0041  
                               _gpio_pin_intialize 290E                                          _num2_flag 006D  
                   ??_gpio_pin_direction_intialize 0005                           _RB5_InterruptHandler_LOW 00AA  
                                         _INT0_ISR 2E16                                           _INT1_ISR 2E12  
                                         _INT2_ISR 2E0E                                         ?_calculate 0001  
                                         _RB4_Flag 007B                                           _RB5_Flag 007A  
                                         _RB6_Flag 0079                                           _RB7_Flag 0078  
                                RB4_ISR@RB4_Source 0001                                ?_gpio_pin_intialize 000D  
                         __end_of_InterruptManager 148C                                           _PIE1bits 0F9D  
                                         _PIE2bits 0FA0                      __end_of_lcd_4bit_send_command 290E  
                                         i2u600_40 1158                                           i2u600_41 1154  
                                         i2u601_40 1168                                           i2u601_41 1164  
                                         _PIR1bits 0F9E                                           i2u610_40 1208  
                                         i2u602_40 1180                                           i2u610_41 1204  
                                         i2u602_41 117C                                           i2u611_40 1216  
                                         i2u603_40 118E                                           i2u611_41 1212  
                                         i2u603_41 118A                                           _PIR2bits 0FA1  
                                         i2u620_40 12AC                                           i2u612_40 1224  
                                         i2u604_40 119C                                           i2u620_41 12A8  
                                         i2u612_41 1220                                           i2u604_41 1198  
                                         i2u621_40 12BC                                           i2u613_40 1234  
                                         i2u605_40 11AC                                           i2u621_41 12B8  
                                         i2u613_41 1230                                           i2u605_41 11A8  
                                         i2u630_40 1354                                           i2u622_40 12D4  
                                         i2u614_40 124C                                           i2u606_40 11C4  
                                         i2u630_41 1350                                           i2u622_41 12D0  
                                         i2u614_41 1248                                           i2u606_41 11C0  
                                         i2u631_40 1362                                           i2u623_40 12E2  
                                         i2u615_40 125A                                           i2u607_40 11D2  
                                         i2u631_41 135E                                           i2u623_41 12DE  
                                         i2u615_41 1256                                           i2u607_41 11CE  
                                         i2u640_40 13F8                                           i2u632_40 1374  
                                         i2u624_40 12F4                                           i2u616_40 1268  
                                         i2u608_40 11E0                                           i2u640_41 13F4  
                                         i2u632_41 1370                                           i2u624_41 12F0  
                                         i2u616_41 1264                                           i2u608_41 11DC  
                                         i2u641_40 140E                                           i2u633_40 1382  
                                         i2u625_40 1302                                           i2u617_40 1278  
                                         i2u609_40 11F0                                           i2u641_41 140A  
                                         i2u633_41 137E                                           i2u625_41 12FE  
                                         i2u617_41 1274                                           i2u609_41 11EC  
                                         i2u490_40 2D96                                           i2u642_40 1420  
                                         i2u634_40 1394                                           i2u626_40 1314  
                                         i2u618_40 1290                                           i2u490_41 2D92  
                                         i2u642_41 141C                                           i2u634_41 1390  
                                         i2u626_41 1310                                           i2u618_41 128C  
                                         i2u491_40 2D7C                                           i2u643_40 142E  
                                         i2u635_40 13A2                                           i2u627_40 1322  
                                         i2u619_40 129E                                           i2u491_41 2D78  
                                         i2u643_41 142A                                           i2u635_41 139E  
                                         i2u627_41 131E                                           i2u619_41 129A  
                                         i2u492_40 2D62                                           i2u644_40 1444  
                                         i2u636_40 13B4                                           i2u628_40 1334  
                                         i2u492_41 2D5E                                           i2u644_41 1440  
                                         i2u636_41 13B0                                           i2u628_41 1330  
                                         i2u645_40 1456                                           i2u637_40 13C2  
                                         i2u629_40 1342                                           i2u645_41 1452  
                                         i2u637_41 13BE                                           i2u629_41 133E  
                                         i2u646_40 1464                                           i2u638_40 13D8  
                                         i2u590_40 10B4                                           i2u646_41 1460  
                                         i2u638_41 13D4                                           i2u590_41 10B0  
                                         i2u647_40 1476                                           i2u639_40 13EA  
                                         i2u591_40 10C2                                           i2u647_41 1472  
                                         i2u639_41 13E6                                           i2u591_41 10BE  
                                         i2u496_40 2CF6                                           i2u648_40 1484  
                                         i2u592_40 10D0                                           i2u584_40 1054  
                                         i2u496_41 2CF2                                           i2u648_41 1480  
                                         i2u592_41 10CC                                           i2u584_41 1050  
                                 ??_lcd_4bit_clear 0017                                           i2u497_40 2D0A  
                                         i2u489_40 2DB0                                           i2u593_40 10E0  
                                         i2u585_40 1062                                           i2u497_41 2D06  
                                         i2u489_41 2DAC                                           i2u593_41 10DC  
                                         i2u585_41 105E                                           i2u594_40 10F8  
                                         i2u586_40 1074                                           i2u594_41 10F4  
                                         i2u586_41 1070                                           i2u595_40 1106  
                                         i2u587_40 1082                                           i2u595_41 1102  
                                         i2u587_41 107E                                           i2u596_40 1114  
                                         i2u588_40 1094                                           i2u596_41 1110  
                                         i2u588_41 1090                                           i2u597_40 1124  
                                         i2u589_40 10A2                                           i2u597_41 1120  
                                         i2u589_41 109E                                           i2u598_40 113C  
                                         i2u598_41 1138                                           i2u599_40 114A  
                                         i2u599_41 1146                                           _TMR0_ISR 2DD0  
                                         _TMR1_ISR 2DC4                                           _TMR2_ISR 2DF2  
                                         _TMR3_ISR 2DB6                       loading_screen@l_lcd1_counter 0026  
                               _lcd_4bit_intialize 1EBE                                          _vfpfcnvrt 1C66  
                         _lcd_4bit_send_string_pos 2602                                         _ADCON0bits 0FC2  
                                       _ADCON1bits 0FC1                                         _ADCON2bits 0FC0  
                                       ?_lcd_write 0001                            __end_of_MSSP_I2C_BC_ISR 2E0E  
                             ??_gpio_pin_intialize 000F                     lcd_4bit_send_char_data_pos@lcd 001C  
                   lcd_4bit_send_char_data_pos@ret 0021                     lcd_4bit_send_char_data_pos@row 001E  
                                  ?_loading_screen 0001                                ?_lcd_4bit_intialize 0015  
              __end_of_lcd_4bit_send_char_data_pos 2B90                        _lcd_4bit_send_char_data_pos 2B4A  
                          gpio_pin_write_logic@ret 000C                                  ___lmul@multiplier 0003  
                                      _INTCON2bits 0FF1                                        _INTCON3bits 0FF0  
                         ?_lcd_4bit_send_char_data 0011                                          copy_data0 26B6  
                                        copy_data1 26D6                                          copy_data2 26F6  
                                _keypad_initialize 2730                                 ?_keypad_initialize 0011  
                           gpio_pin_read_logic@ret 000C                      ??_lcd_4bit_send_char_data_pos 0021  
                                       _EECON1bits 0FA6                               ??_lcd_4bit_intialize 0017  
                                         __Hrparam 0000                                         vfprintf@ap 003D  
                                         __Lrparam 0000                                         vfprintf@fp 0039  
                              ??_keypad_initialize 0013                                  RB6_ISR@RB6_Source 0001  
                            _CCP1_InterruptHandler 00C2                             lcd_4bit_set_cursor@lcd 0015  
                           lcd_4bit_set_cursor@ret 001B                                         ?_vfpfcnvrt 002B  
                           lcd_4bit_set_cursor@row 0017                               lcd_write@not_pressed 0017  
                               __end_of_btn_values 1011                        __end_of_gpio_pin_read_logic 2406  
                            _TMR1_InterruptHandler 009C                        keypad_get_value@_keypad_obj 000D  
                                       sprintf@fmt 0043                                       _MSSP_I2C_ISR 2E06  
                        __end_of_keypad_initialize 27B0                                           __ptext10 24B6  
                                         __ptext11 282A                                           __ptext20 2E2A  
                                         __ptext12 2A4C                                           __ptext21 2C14  
                                         __ptext13 2AFE                                           __ptext30 289C  
                                         __ptext22 2406                                           __ptext14 2AAE  
                                         __ptext31 29E4                                           __ptext23 21D0  
                                         __ptext15 1C66                                           __ptext40 2DC4  
                                         __ptext32 2C54                                           __ptext24 1852  
                                         __ptext16 16BC                                           __ptext41 2DD0  
                                         __ptext33 2730                                           __ptext25 297A  
                                         __ptext17 27B0                                           __ptext50 2E12  
                                         __ptext42 2D4E                                           __ptext34 290E  
                                         __ptext26 255E                                           __ptext18 2B90  
                                         __ptext51 2E16                                           __ptext43 2D68  
                                         __ptext35 1D92                                           __ptext27 2DFA  
                                         __ptext19 2106                                           __ptext52 2E1A  
                                         __ptext44 2D82                                           __ptext36 1B22  
                                         __ptext28 2D34                                           __ptext53 2CE2  
                                         __ptext45 2D9C                                           __ptext29 1EBE  
                                         __ptext54 2E1E                                           __ptext46 2E00  
                                         __ptext38 2DB6                                           __ptext55 2E22  
                                         __ptext47 2E06                                           __ptext39 2DF2  
                                         __ptext56 2E26                                           __ptext48 2E0A  
                                         __ptext49 2E0E                                        ??_calculate 005E  
                                     _MSSP_SPI_ISR 2E00                                   ??_ecu_layer_init 001B  
                                 _keypad_get_value 1FE6                                           _operator 006E  
                 __end_of_convert_uint32_to_string 2AAE                                           isa$xinst 0000  
                                         int$flags 007C                                           _vfprintf 2AAE  
                                   _lcd_send_4bits 29E4                                        ??_lcd_write 0015  
                                 ?_MSSP_I2C_BC_ISR 0001                                         _INTCONbits 0FF2  
                   keypad_get_value@l_rows_counter 0016                                           isdigit@c 0003  
                     __end_of_gpio_pin_write_logic 1EBE                                           intlevel2 0000  
                                        sprintf@ap 0049                     lcd_4bit_send_enable_signal@lcd 000D  
                   lcd_4bit_send_enable_signal@ret 000F                          _EUSART_TxInterruptHandler 0094  
                                 ___lldiv@dividend 0003                       keypad_initialize@_keypad_obj 0011  
                            loading_screen@counter 0025                             __end_of_lcd_send_4bits 2A4C  
                                      ??_vfpfcnvrt 0031                        __end_of_lcd_4bit_set_cursor 255E  
                                         sprintf@f 004B                                           sprintf@s 0041  
                                 ___lldiv@quotient 000B                                     _port_registers 00D1  
                                      _SSPCON1bits 0FC6                                        _SSPCON2bits 0FC5  
                            _CCP2_InterruptHandler 00C0                        lcd_4bit_send_char_data@data 0013  
                            _TMR2_InterruptHandler 009A                                  ?_InterruptManager 0001  
                       ??_lcd_4bit_send_string_pos 0022  
