

Microchip MPLAB XC8 Assembler V2.41 build 20230208172133 
                                                                                               Tue Nov 28 11:40:30 2023

Microchip MPLAB XC8 C Compiler v2.41 (Free license) build 20230208172133 Og1 
     1                           	processor	18F4620
     2                           	fnconf	rparam,??,?,0
     3                           	pagewidth 120
     4                           	opt	flic
     5                           	psect	idataCOMRAM,global,class=CODE,delta=1,noexec
     6                           	psect	idataBANK0,global,class=CODE,delta=1,noexec
     7                           	psect	idataBANK1,global,class=CODE,delta=1,noexec
     8                           	psect	smallconst,global,reloc=2,class=SMALLCONST,delta=1,noexec
     9                           	psect	cinit,global,reloc=2,class=CODE,delta=1
    10                           	psect	bssCOMRAM,global,class=COMRAM,space=1,delta=1,lowdata,noexec
    11                           	psect	dataCOMRAM,global,class=COMRAM,space=1,delta=1,lowdata,noexec
    12                           	psect	bssBANK0,global,class=BANK0,space=1,delta=1,lowdata,noexec
    13                           	psect	dataBANK0,global,class=BANK0,space=1,delta=1,lowdata,noexec
    14                           	psect	bssBANK1,global,class=BANK1,space=1,delta=1,lowdata,noexec
    15                           	psect	dataBANK1,global,class=BANK1,space=1,delta=1,lowdata,noexec
    16                           	psect	cstackBANK0,global,class=BANK0,space=1,delta=1,lowdata,noexec
    17                           	psect	cstackCOMRAM,global,class=COMRAM,space=1,delta=1,lowdata,noexec
    18                           	psect	text0,global,reloc=2,class=CODE,delta=1
    19                           	psect	text1,global,reloc=2,class=CODE,delta=1
    20                           	psect	text2,global,reloc=2,class=CODE,delta=1
    21                           	psect	text3,global,reloc=2,class=CODE,delta=1
    22                           	psect	text4,global,reloc=2,class=CODE,delta=1
    23                           	psect	text5,global,reloc=2,class=CODE,delta=1
    24                           	psect	text6,global,reloc=2,class=CODE,delta=1
    25                           	psect	text7,global,reloc=2,class=CODE,delta=1,group=3
    26                           	psect	text8,global,reloc=2,class=CODE,delta=1
    27                           	psect	text9,global,reloc=2,class=CODE,delta=1
    28                           	psect	text10,global,reloc=2,class=CODE,delta=1
    29                           	psect	text11,global,reloc=2,class=CODE,delta=1
    30                           	psect	text12,global,reloc=2,class=CODE,delta=1
    31                           	psect	text13,global,reloc=2,class=CODE,delta=1,group=3
    32                           	psect	text14,global,reloc=2,class=CODE,delta=1,group=1
    33                           	psect	text15,global,reloc=2,class=CODE,delta=1,group=1
    34                           	psect	text16,global,reloc=2,class=CODE,delta=1,group=1
    35                           	psect	text17,global,reloc=2,class=CODE,delta=1,group=1
    36                           	psect	text18,global,reloc=2,class=CODE,delta=1,group=3
    37                           	psect	text19,global,reloc=2,class=CODE,delta=1,group=3
    38                           	psect	text20,global,reloc=2,class=CODE,delta=1,group=3
    39                           	psect	text21,global,reloc=2,class=CODE,delta=1,group=3
    40                           	psect	text22,global,reloc=2,class=CODE,delta=1,group=2
    41                           	psect	text23,global,reloc=2,class=CODE,delta=1,group=2
    42                           	psect	text24,global,reloc=2,class=CODE,delta=1,group=3
    43                           	psect	text25,global,reloc=2,class=CODE,delta=1,group=2
    44                           	psect	text26,global,reloc=2,class=CODE,delta=1,group=2
    45                           	psect	text27,global,reloc=2,class=CODE,delta=1
    46                           	psect	text28,global,reloc=2,class=CODE,delta=1
    47                           	psect	text29,global,reloc=2,class=CODE,delta=1
    48                           	psect	text30,global,reloc=2,class=CODE,delta=1
    49                           	psect	text31,global,reloc=2,class=CODE,delta=1
    50                           	psect	text32,global,reloc=2,class=CODE,delta=1
    51                           	psect	text33,global,reloc=2,class=CODE,delta=1
    52                           	psect	text34,global,reloc=2,class=CODE,delta=1
    53                           	psect	text35,global,reloc=2,class=CODE,delta=1
    54                           	psect	text36,global,reloc=2,class=CODE,delta=1
    55                           	psect	intcode,global,reloc=2,class=CODE,delta=1
    56                           	psect	intcode_body,global,reloc=2,class=CODE,delta=1
    57                           	psect	text38,global,reloc=2,class=CODE,delta=1
    58                           	psect	text39,global,reloc=2,class=CODE,delta=1
    59                           	psect	text40,global,reloc=2,class=CODE,delta=1
    60                           	psect	text41,global,reloc=2,class=CODE,delta=1
    61                           	psect	text42,global,reloc=2,class=CODE,delta=1
    62                           	psect	text43,global,reloc=2,class=CODE,delta=1
    63                           	psect	text44,global,reloc=2,class=CODE,delta=1
    64                           	psect	text45,global,reloc=2,class=CODE,delta=1
    65                           	psect	text46,global,reloc=2,class=CODE,delta=1
    66                           	psect	text47,global,reloc=2,class=CODE,delta=1
    67                           	psect	text48,global,reloc=2,class=CODE,delta=1
    68                           	psect	text49,global,reloc=2,class=CODE,delta=1
    69                           	psect	text50,global,reloc=2,class=CODE,delta=1
    70                           	psect	text51,global,reloc=2,class=CODE,delta=1
    71                           	psect	text52,global,reloc=2,class=CODE,delta=1
    72                           	psect	text53,global,reloc=2,class=CODE,delta=1
    73                           	psect	text54,global,reloc=2,class=CODE,delta=1
    74                           	psect	text55,global,reloc=2,class=CODE,delta=1
    75                           	psect	text56,global,reloc=2,class=CODE,delta=1
    76                           	psect	intsave_regs,global,class=BIGRAM,space=1,delta=1,noexec
    77                           	psect	rparam,global,class=COMRAM,space=1,delta=1,noexec
    78                           	psect	temp,global,ovrld,common,class=COMRAM,space=1,delta=1
    79                           	psect	idloc,global,abs,ovrld,class=IDLOC,space=5,delta=1,noexec
    80                           	psect	config,global,abs,ovrld,class=CONFIG,space=4,delta=1,noexec
    81   000000                     
    82                           ; Generated 23/03/2023 GMT
    83                           ; 
    84                           ; Copyright © 2023, Microchip Technology Inc. and its subsidiaries ("Microchip")
    85                           ; All rights reserved.
    86                           ; 
    87                           ; This software is developed by Microchip Technology Inc. and its subsidiaries ("Microch
      +                          ip").
    88                           ; 
    89                           ; Redistribution and use in source and binary forms, with or without modification, are
    90                           ; permitted provided that the following conditions are met:
    91                           ; 
    92                           ;     1. Redistributions of source code must retain the above copyright notice, this lis
      +                          t of
    93                           ;        conditions and the following disclaimer.
    94                           ; 
    95                           ;     2. Redistributions in binary form must reproduce the above copyright notice, this 
      +                          list
    96                           ;        of conditions and the following disclaimer in the documentation and/or other
    97                           ;        materials provided with the distribution. Publication is not required when
    98                           ;        this file is used in an embedded application.
    99                           ; 
   100                           ;     3. Microchip's name may not be used to endorse or promote products derived from th
      +                          is
   101                           ;        software without specific prior written permission.
   102                           ; 
   103                           ; THIS SOFTWARE IS PROVIDED BY MICROCHIP "AS IS" AND ANY EXPRESS OR IMPLIED WARRANTIES,
   104                           ; INCLUDING, BUT NOT LIMITED TO, THE IMPLIED WARRANTIES OF MERCHANTABILITY AND FITNESS F
      +                          OR
   105                           ; PURPOSE ARE DISCLAIMED.  IN NO EVENT SHALL MICROCHIP BE LIABLE FOR ANY DIRECT, INDIREC
      +                          T,
   106                           ; INCIDENTAL, SPECIAL, EXEMPLARY, OR CONSEQUENTIAL DAMAGES (INCLUDING BUT NOT LIMITED TO
   107                           ; PROCUREMENT OF SUBSTITUTE GOODS OR SERVICES; LOSS OF USE, DATA OR PROFITS; OR BUSINESS
   108                           ; INTERRUPTION) HOWSOEVER CAUSED AND ON ANY THEORY OF LIABILITY, WHETHER IN CONTRACT, ST
      +                          RICT
   109                           ; LIABILITY, OR TORT (INCLUDING NEGLIGENCE OR OTHERWISE) ARISING IN ANY WAY OUT OF THE U
      +                          SE OF
   110                           ; THIS SOFTWARE, EVEN IF ADVISED OF THE POSSIBILITY OF SUCH DAMAGE.
   111                           ; 
   112                           ; 
   113                           ; Code-generator required, PIC18F4620 Definitions
   114                           ; 
   115                           ; SFR Addresses
   116   000000                     
   117                           	psect	idataCOMRAM
   118   002DE6                     __pidataCOMRAM:
   119                           	callstack 0
   120                           
   121                           ;initializer for MSSP_SPI_Slave_Mode_GPIO_PIN_Configurations@F3611
   122   002DE6  68                 	db	104
   123                           
   124                           ;initializer for MSSP_SPI_Slave_Mode_GPIO_PIN_Configurations@F3609
   125   002DE7  5A                 	db	90
   126                           
   127                           ;initializer for MSSP_SPI_Slave_Mode_GPIO_PIN_Configurations@F3607
   128   002DE8  62                 	db	98
   129                           
   130                           ;initializer for MSSP_SPI_Slave_Mode_GPIO_PIN_Configurations@F3605
   131   002DE9  2A                 	db	42
   132                           
   133                           ;initializer for MSSP_SPI_Msster_Mode_GPIO_PIN_Configurations@F3600
   134   002DEA  1A                 	db	26
   135                           
   136                           ;initializer for MSSP_SPI_Msster_Mode_GPIO_PIN_Configurations@F3598
   137   002DEB  62                 	db	98
   138                           
   139                           ;initializer for MSSP_SPI_Msster_Mode_GPIO_PIN_Configurations@F3596
   140   002DEC  2A                 	db	42
   141                           
   142                           ;initializer for _RB7_Flag
   143   002DED  01                 	db	1
   144                           
   145                           ;initializer for _RB6_Flag
   146   002DEE  01                 	db	1
   147                           
   148                           ;initializer for _RB5_Flag
   149   002DEF  01                 	db	1
   150                           
   151                           ;initializer for _RB4_Flag
   152   002DF0  01                 	db	1
   153                           
   154                           	psect	idataBANK0
   155   002C8A                     __pidataBANK0:
   156                           	callstack 0
   157                           
   158                           ;initializer for _port_registers
   159   002C8A  80                 	db	128
   160   002C8B  0F                 	db	15
   161   002C8C  81                 	db	129
   162   002C8D  0F                 	db	15
   163   002C8E  82                 	db	130
   164   002C8F  0F                 	db	15
   165   002C90  83                 	db	131
   166   002C91  0F                 	db	15
   167   002C92  84                 	db	132
   168   002C93  0F                 	db	15
   169                           
   170                           ;initializer for _lat_registers
   171   002C94  89                 	db	137
   172   002C95  0F                 	db	15
   173   002C96  8A                 	db	138
   174   002C97  0F                 	db	15
   175   002C98  8B                 	db	139
   176   002C99  0F                 	db	15
   177   002C9A  8C                 	db	140
   178   002C9B  0F                 	db	15
   179   002C9C  8D                 	db	141
   180   002C9D  0F                 	db	15
   181                           
   182                           ;initializer for _tris_registers
   183   002C9E  92                 	db	146
   184   002C9F  0F                 	db	15
   185   002CA0  93                 	db	147
   186   002CA1  0F                 	db	15
   187   002CA2  94                 	db	148
   188   002CA3  0F                 	db	15
   189   002CA4  95                 	db	149
   190   002CA5  0F                 	db	15
   191   002CA6  96                 	db	150
   192   002CA7  0F                 	db	15
   193                           
   194                           ;initializer for _seg1
   195   002CA8  02                 	db	2
   196   002CA9  0A                 	db	10
   197   002CAA  12                 	db	18
   198   002CAB  1A                 	db	26
   199   002CAC  01                 	db	1
   200                           
   201                           ;initializer for _dc_motor_2
   202   002CAD  13                 	db	19
   203   002CAE  1B                 	db	27
   204                           
   205                           ;initializer for _dc_motor_1
   206   002CAF  1A                 	db	26
   207   002CB0  22                 	db	34
   208                           
   209                           ;initializer for _keypad1
   210   002CB1  32                 	db	50
   211   002CB2  3A                 	db	58
   212   002CB3  03                 	db	3
   213   002CB4  0B                 	db	11
   214   002CB5  53                 	db	83
   215   002CB6  5B                 	db	91
   216   002CB7  63                 	db	99
   217   002CB8  6B                 	db	107
   218                           
   219                           ;initializer for _lcd_1
   220   002CB9  02                 	db	2
   221   002CBA  0A                 	db	10
   222   002CBB  12                 	db	18
   223   002CBC  1A                 	db	26
   224   002CBD  22                 	db	34
   225   002CBE  2A                 	db	42
   226                           
   227                           	psect	idataBANK1
   228   002DF1                     __pidataBANK1:
   229                           	callstack 0
   230                           
   231                           ;initializer for _lcd_2
   232   002DF1  32                 	db	50
   233   002DF2  3A                 	db	58
   234   002DF3  03                 	db	3
   235   002DF4  0B                 	db	11
   236   002DF5  13                 	db	19
   237   002DF6  1B                 	db	27
   238   002DF7  23                 	db	35
   239   002DF8  2B                 	db	43
   240   002DF9  33                 	db	51
   241   002DFA  3B                 	db	59
   242                           
   243                           	psect	smallconst
   244   001000                     __psmallconst:
   245                           	callstack 0
   246   001000  00                 	db	0
   247   001001                     _btn_values:
   248                           	callstack 0
   249   001001  37                 	db	55
   250   001002  38                 	db	56
   251   001003  39                 	db	57
   252   001004  2F                 	db	47
   253   001005  34                 	db	52
   254   001006  35                 	db	53
   255   001007  36                 	db	54
   256   001008  2A                 	db	42
   257   001009  31                 	db	49
   258   00100A  32                 	db	50
   259   00100B  33                 	db	51
   260   00100C  2D                 	db	45
   261   00100D  23                 	db	35
   262   00100E  30                 	db	48
   263   00100F  3D                 	db	61
   264   001010  2B                 	db	43
   265   001011                     __end_of_btn_values:
   266                           	callstack 0
   267   000000                     _SPBRGH	set	4016
   268   000000                     _SPBRG	set	4015
   269   000000                     _TXREG	set	4013
   270   000000                     _TXSTAbits	set	4012
   271   000000                     _RCREG	set	4014
   272   000000                     _RCSTAbits	set	4011
   273   000000                     _TMR3L	set	4018
   274   000000                     _TMR3H	set	4019
   275   000000                     _TMR2	set	4044
   276   000000                     _T2CONbits	set	4042
   277   000000                     _TMR1L	set	4046
   278   000000                     _TMR1H	set	4047
   279   000000                     _T1CONbits	set	4045
   280   000000                     _TMR0L	set	4054
   281   000000                     _TMR0H	set	4055
   282   000000                     _T0CONbits	set	4053
   283   000000                     _INTCON2bits	set	4081
   284   000000                     _INTCON3bits	set	4080
   285   000000                     _SSPBUF	set	4041
   286   000000                     _SSPSTATbits	set	4039
   287   000000                     _SSPADD	set	4040
   288   000000                     _SSPCON2bits	set	4037
   289   000000                     _SSPCON1bits	set	4038
   290   000000                     _EECON2	set	4007
   291   000000                     _ADCON1bits	set	4033
   292   000000                     _ADRESL	set	4035
   293   000000                     _ADRESH	set	4036
   294   000000                     _INTCONbits	set	4082
   295   000000                     _TRISD	set	3989
   296   000000                     _TRISC	set	3988
   297   000000                     _PR2	set	4043
   298   000000                     _TRISB	set	3987
   299   000000                     _TRISE	set	3990
   300   000000                     _PORTBbits	set	3969
   301   000000                     _TRISCbits	set	3988
   302   000000                     _PIE1bits	set	3997
   303   000000                     _ADCON2bits	set	4032
   304   000000                     _ADCON0bits	set	4034
   305   000000                     _PORTE	set	3972
   306   000000                     _PORTD	set	3971
   307   000000                     _PORTC	set	3970
   308   000000                     _PORTB	set	3969
   309   000000                     _PORTA	set	3968
   310   000000                     _LATA	set	3977
   311   000000                     _TRISA	set	3986
   312   000000                     _PIE2bits	set	4000
   313   000000                     _CCP2CONbits	set	4026
   314   000000                     _CCP1CONbits	set	4029
   315   000000                     _PIR1bits	set	3998
   316   000000                     _CCPR1L	set	4030
   317   000000                     _CCPR2L	set	4027
   318   000000                     _EECON1bits	set	4006
   319   000000                     _EEDATA	set	4008
   320   000000                     _EEADR	set	4009
   321   000000                     _EEADRH	set	4010
   322   000000                     _T3CONbits	set	4017
   323   000000                     _PIR2bits	set	4001
   324   000000                     _LATE	set	3981
   325   000000                     _LATD	set	3980
   326   000000                     _LATC	set	3979
   327   000000                     _LATB	set	3978
   328   000000                     _BAUDCONbits	set	4024
   329   001011                     STR_8:
   330   001011  43                 	db	67	;'C'
   331   001012  41                 	db	65	;'A'
   332   001013  4E                 	db	78	;'N'
   333   001014  60                 	db	96	;'`'
   334   001015  54                 	db	84	;'T'
   335   001016  20                 	db	32
   336   001017  44                 	db	68	;'D'
   337   001018  49                 	db	73	;'I'
   338   001019  56                 	db	86	;'V'
   339   00101A  49                 	db	73	;'I'
   340   00101B  44                 	db	68	;'D'
   341   00101C  45                 	db	69	;'E'
   342   00101D  20                 	db	32
   343   00101E  42                 	db	66	;'B'
   344   00101F  59                 	db	89	;'Y'
   345   001020  20                 	db	32
   346   001021  5A                 	db	90	;'Z'
   347   001022  45                 	db	69	;'E'
   348   001023  52                 	db	82	;'R'
   349   001024  4F                 	db	79	;'O'
   350   001025  00                 	db	0
   351   001026                     STR_6:
   352   001026  20                 	db	32
   353   001027  20                 	db	32
   354   001028  20                 	db	32
   355   001029  20                 	db	32
   356   00102A  20                 	db	32
   357   00102B  20                 	db	32
   358   00102C  20                 	db	32
   359   00102D  20                 	db	32
   360   00102E  20                 	db	32
   361   00102F  00                 	db	0
   362   001030                     STR_4:
   363   001030  57                 	db	87	;'W'
   364   001031  45                 	db	69	;'E'
   365   001032  4C                 	db	76	;'L'
   366   001033  43                 	db	67	;'C'
   367   001034  4F                 	db	79	;'O'
   368   001035  4D                 	db	77	;'M'
   369   001036  45                 	db	69	;'E'
   370   001037  00                 	db	0
   371   001038                     STR_5:
   372   001038  4C                 	db	76	;'L'
   373   001039  6F                 	db	111	;'o'
   374   00103A  61                 	db	97	;'a'
   375   00103B  64                 	db	100	;'d'
   376   00103C  69                 	db	105	;'i'
   377   00103D  6E                 	db	110	;'n'
   378   00103E  67                 	db	103	;'g'
   379   00103F  00                 	db	0
   380   001040                     STR_1:
   381   001040  25                 	db	37
   382   001041  69                 	db	105	;'i'
   383   001042  00                 	db	0
   384   001043  00                 	db	0	; dummy byte at the end
   385   000000                     
   386                           ; #config settings
   387                           
   388                           	psect	cinit
   389   0026A2                     __pcinit:
   390                           	callstack 0
   391   0026A2                     start_initialization:
   392                           	callstack 0
   393   0026A2                     __initialization:
   394                           	callstack 0
   395                           
   396                           ; Initialize objects allocated to BANK1 (10 bytes)
   397                           ; load TBLPTR registers with __pidataBANK1
   398   0026A2  0EF1               	movlw	low __pidataBANK1
   399   0026A4  6EF6               	movwf	tblptrl,c
   400   0026A6  0E2D               	movlw	high __pidataBANK1
   401   0026A8  6EF7               	movwf	tblptrh,c
   402   0026AA  0E00               	movlw	low (__pidataBANK1 shr (0+16))
   403   0026AC  6EF8               	movwf	tblptru,c
   404   0026AE  EE01  F02B         	lfsr	0,__pdataBANK1
   405   0026B2  EE10 F00A          	lfsr	1,10
   406   0026B6                     copy_data0:
   407   0026B6  0009               	tblrd		*+
   408   0026B8  CFF5 FFEE          	movff	tablat,postinc0
   409   0026BC  50E5               	movf	postdec1,w,c
   410   0026BE  50E1               	movf	fsr1l,w,c
   411   0026C0  E1FA               	bnz	copy_data0
   412                           
   413                           ; Initialize objects allocated to BANK0 (53 bytes)
   414                           ; load TBLPTR registers with __pidataBANK0
   415   0026C2  0E8A               	movlw	low __pidataBANK0
   416   0026C4  6EF6               	movwf	tblptrl,c
   417   0026C6  0E2C               	movlw	high __pidataBANK0
   418   0026C8  6EF7               	movwf	tblptrh,c
   419   0026CA  0E00               	movlw	low (__pidataBANK0 shr (0+16))
   420   0026CC  6EF8               	movwf	tblptru,c
   421   0026CE  EE00  F0C4         	lfsr	0,__pdataBANK0
   422   0026D2  EE10 F035          	lfsr	1,53
   423   0026D6                     copy_data1:
   424   0026D6  0009               	tblrd		*+
   425   0026D8  CFF5 FFEE          	movff	tablat,postinc0
   426   0026DC  50E5               	movf	postdec1,w,c
   427   0026DE  50E1               	movf	fsr1l,w,c
   428   0026E0  E1FA               	bnz	copy_data1
   429                           
   430                           ; Initialize objects allocated to COMRAM (11 bytes)
   431                           ; load TBLPTR registers with __pidataCOMRAM
   432   0026E2  0EE6               	movlw	low __pidataCOMRAM
   433   0026E4  6EF6               	movwf	tblptrl,c
   434   0026E6  0E2D               	movlw	high __pidataCOMRAM
   435   0026E8  6EF7               	movwf	tblptrh,c
   436   0026EA  0E00               	movlw	low (__pidataCOMRAM shr (0+16))
   437   0026EC  6EF8               	movwf	tblptru,c
   438   0026EE  EE00  F071         	lfsr	0,__pdataCOMRAM
   439   0026F2  EE10 F00B          	lfsr	1,11
   440   0026F6                     copy_data2:
   441   0026F6  0009               	tblrd		*+
   442   0026F8  CFF5 FFEE          	movff	tablat,postinc0
   443   0026FC  50E5               	movf	postdec1,w,c
   444   0026FE  50E1               	movf	fsr1l,w,c
   445   002700  E1FA               	bnz	copy_data2
   446                           
   447                           ; Clear objects allocated to BANK1 (43 bytes)
   448   002702  EE01  F000         	lfsr	0,__pbssBANK1
   449   002706  0E2B               	movlw	43
   450   002708                     clear_0:
   451   002708  6AEE               	clrf	postinc0,c
   452   00270A  06E8               	decf	wreg,f,c
   453   00270C  E1FD               	bnz	clear_0
   454                           
   455                           ; Clear objects allocated to BANK0 (68 bytes)
   456   00270E  EE00  F080         	lfsr	0,__pbssBANK0
   457   002712  0E44               	movlw	68
   458   002714                     clear_1:
   459   002714  6AEE               	clrf	postinc0,c
   460   002716  06E8               	decf	wreg,f,c
   461   002718  E1FD               	bnz	clear_1
   462                           
   463                           ; Clear objects allocated to COMRAM (17 bytes)
   464   00271A  EE00  F060         	lfsr	0,__pbssCOMRAM
   465   00271E  0E11               	movlw	17
   466   002720                     clear_2:
   467   002720  6AEE               	clrf	postinc0,c
   468   002722  06E8               	decf	wreg,f,c
   469   002724  E1FD               	bnz	clear_2
   470   002726                     end_of_initialization:
   471                           	callstack 0
   472   002726                     __end_of__initialization:
   473                           	callstack 0
   474   002726  907C               	bcf	int$flags,0,c	;clear compiler interrupt flag (level 1)
   475   002728  927C               	bcf	int$flags,1,c	;clear compiler interrupt flag (level 2)
   476   00272A  0100               	movlb	0
   477   00272C  EF46  F00A         	goto	_main	;jump to C main() function
   478                           
   479                           	psect	bssCOMRAM
   480   000060                     __pbssCOMRAM:
   481                           	callstack 0
   482   000060                     _num2:
   483                           	callstack 0
   484   000060                     	ds	4
   485   000064                     _num1:
   486                           	callstack 0
   487   000064                     	ds	4
   488   000068                     _timer1_preload:
   489                           	callstack 0
   490   000068                     	ds	2
   491   00006A                     _timer0_preload:
   492                           	callstack 0
   493   00006A                     	ds	2
   494   00006C                     _flags:
   495                           	callstack 0
   496   00006C                     	ds	1
   497   00006D                     _num2_flag:
   498                           	callstack 0
   499   00006D                     	ds	1
   500   00006E                     _operator:
   501                           	callstack 0
   502   00006E                     	ds	1
   503   00006F                     _timer2_preload:
   504                           	callstack 0
   505   00006F                     	ds	1
   506   000070                     _keypad_value:
   507                           	callstack 0
   508   000070                     	ds	1
   509                           
   510                           	psect	dataCOMRAM
   511   000071                     __pdataCOMRAM:
   512                           	callstack 0
   513   000071                     MSSP_SPI_Slave_Mode_GPIO_PIN_Configurations@F3611:
   514                           	callstack 0
   515   000071                     	ds	1
   516   000072                     MSSP_SPI_Slave_Mode_GPIO_PIN_Configurations@F3609:
   517                           	callstack 0
   518   000072                     	ds	1
   519   000073                     MSSP_SPI_Slave_Mode_GPIO_PIN_Configurations@F3607:
   520                           	callstack 0
   521   000073                     	ds	1
   522   000074                     MSSP_SPI_Slave_Mode_GPIO_PIN_Configurations@F3605:
   523                           	callstack 0
   524   000074                     	ds	1
   525   000075                     MSSP_SPI_Msster_Mode_GPIO_PIN_Configurations@F3600:
   526                           	callstack 0
   527   000075                     	ds	1
   528   000076                     MSSP_SPI_Msster_Mode_GPIO_PIN_Configurations@F3598:
   529                           	callstack 0
   530   000076                     	ds	1
   531   000077                     MSSP_SPI_Msster_Mode_GPIO_PIN_Configurations@F3596:
   532                           	callstack 0
   533   000077                     	ds	1
   534   000078                     _RB7_Flag:
   535                           	callstack 0
   536   000078                     	ds	1
   537   000079                     _RB6_Flag:
   538                           	callstack 0
   539   000079                     	ds	1
   540   00007A                     _RB5_Flag:
   541                           	callstack 0
   542   00007A                     	ds	1
   543   00007B                     _RB4_Flag:
   544                           	callstack 0
   545   00007B                     	ds	1
   546                           
   547                           	psect	bssBANK0
   548   000080                     __pbssBANK0:
   549                           	callstack 0
   550   000080                     	ds	6
   551   000086                     _result:
   552                           	callstack 0
   553   000086                     	ds	4
   554   00008A                     _width:
   555                           	callstack 0
   556   00008A                     	ds	2
   557   00008C                     _prec:
   558                           	callstack 0
   559   00008C                     	ds	2
   560   00008E                     _EUSART_OverrunErrorHandler:
   561                           	callstack 0
   562   00008E                     	ds	2
   563   000090                     _EUSART_FramingErrorHandler:
   564                           	callstack 0
   565   000090                     	ds	2
   566   000092                     _EUSART_RxInterruptHandler:
   567                           	callstack 0
   568   000092                     	ds	2
   569   000094                     _EUSART_TxInterruptHandler:
   570                           	callstack 0
   571   000094                     	ds	2
   572   000096                     _timer3_preload:
   573                           	callstack 0
   574   000096                     	ds	2
   575   000098                     _TMR3_InterruptHandler:
   576                           	callstack 0
   577   000098                     	ds	2
   578   00009A                     _TMR2_InterruptHandler:
   579                           	callstack 0
   580   00009A                     	ds	2
   581   00009C                     _TMR1_InterruptHandler:
   582                           	callstack 0
   583   00009C                     	ds	2
   584   00009E                     _TMR0_InterruptHandler:
   585                           	callstack 0
   586   00009E                     	ds	2
   587   0000A0                     _SPI_InterruptHandler:
   588                           	callstack 0
   589   0000A0                     	ds	2
   590   0000A2                     _RB7_InterruptHandler_LOW:
   591                           	callstack 0
   592   0000A2                     	ds	2
   593   0000A4                     _RB7_InterruptHandler_HIGH:
   594                           	callstack 0
   595   0000A4                     	ds	2
   596   0000A6                     _RB6_InterruptHandler_LOW:
   597                           	callstack 0
   598   0000A6                     	ds	2
   599   0000A8                     _RB6_InterruptHandler_HIGH:
   600                           	callstack 0
   601   0000A8                     	ds	2
   602   0000AA                     _RB5_InterruptHandler_LOW:
   603                           	callstack 0
   604   0000AA                     	ds	2
   605   0000AC                     _RB5_InterruptHandler_HIGH:
   606                           	callstack 0
   607   0000AC                     	ds	2
   608   0000AE                     _RB4_InterruptHandler_LOW:
   609                           	callstack 0
   610   0000AE                     	ds	2
   611   0000B0                     _RB4_InterruptHandler_HIGH:
   612                           	callstack 0
   613   0000B0                     	ds	2
   614   0000B2                     _INT2_InterruptHandler:
   615                           	callstack 0
   616   0000B2                     	ds	2
   617   0000B4                     _INT1_InterruptHandler:
   618                           	callstack 0
   619   0000B4                     	ds	2
   620   0000B6                     _INT0_InterruptHandler:
   621                           	callstack 0
   622   0000B6                     	ds	2
   623   0000B8                     _I2C_Report_Receive_Overflow_InterruptHandle:
   624                           	callstack 0
   625   0000B8                     	ds	2
   626   0000BA                     _I2C_DefaultInterruptHandle:
   627                           	callstack 0
   628   0000BA                     	ds	2
   629   0000BC                     _I2C_Report_Write_Collision_InterruptHandler:
   630                           	callstack 0
   631   0000BC                     	ds	2
   632   0000BE                     _CCP2_InterruptHandler:
   633                           	callstack 0
   634   0000BE                     	ds	2
   635   0000C0                     _CCP1_InterruptHandler:
   636                           	callstack 0
   637   0000C0                     	ds	2
   638   0000C2                     _ADC_InterruptHandler:
   639                           	callstack 0
   640   0000C2                     	ds	2
   641                           
   642                           	psect	dataBANK0
   643   0000C4                     __pdataBANK0:
   644                           	callstack 0
   645   0000C4                     _port_registers:
   646                           	callstack 0
   647   0000C4                     	ds	10
   648   0000CE                     _lat_registers:
   649                           	callstack 0
   650   0000CE                     	ds	10
   651   0000D8                     _tris_registers:
   652                           	callstack 0
   653   0000D8                     	ds	10
   654   0000E2                     _seg1:
   655                           	callstack 0
   656   0000E2                     	ds	5
   657   0000E7                     _dc_motor_2:
   658                           	callstack 0
   659   0000E7                     	ds	2
   660   0000E9                     _dc_motor_1:
   661                           	callstack 0
   662   0000E9                     	ds	2
   663   0000EB                     _keypad1:
   664                           	callstack 0
   665   0000EB                     	ds	8
   666   0000F3                     _lcd_1:
   667                           	callstack 0
   668   0000F3                     	ds	6
   669                           
   670                           	psect	bssBANK1
   671   000100                     __pbssBANK1:
   672                           	callstack 0
   673   000100                     _dbuf:
   674                           	callstack 0
   675   000100                     	ds	32
   676   000120                     _result_txt:
   677                           	callstack 0
   678   000120                     	ds	11
   679                           
   680                           	psect	dataBANK1
   681   00012B                     __pdataBANK1:
   682                           	callstack 0
   683   00012B                     _lcd_2:
   684                           	callstack 0
   685   00012B                     	ds	10
   686                           
   687                           	psect	cstackBANK0
   688   0000F9                     __pcstackBANK0:
   689                           	callstack 0
   690   0000F9                     ??_main:
   691                           
   692                           ; 1 bytes @ 0x0
   693   0000F9                     	ds	2
   694                           
   695                           	psect	cstackCOMRAM
   696   000001                     __pcstackCOMRAM:
   697                           	callstack 0
   698   000001                     RB4_ISR@RB4_Source:
   699                           	callstack 0
   700   000001                     RB5_ISR@RB5_Source:
   701                           	callstack 0
   702   000001                     RB6_ISR@RB6_Source:
   703                           	callstack 0
   704   000001                     RB7_ISR@RB7_Source:
   705                           	callstack 0
   706   000001                     
   707                           ; 1 bytes @ 0x0
   708   000001                     	ds	1
   709   000002                     ??_InterruptManager:
   710                           
   711                           ; 1 bytes @ 0x1
   712   000002                     	ds	1
   713   000003                     ?_isdigit:
   714                           	callstack 0
   715   000003                     ?___awdiv:
   716                           	callstack 0
   717   000003                     ?___awmod:
   718                           	callstack 0
   719   000003                     ?___lmul:
   720                           	callstack 0
   721   000003                     ?___lldiv:
   722                           	callstack 0
   723   000003                     gpio_pin_direction_intialize@_pin_config:
   724                           	callstack 0
   725   000003                     gpio_pin_write_logic@_pin_config:
   726                           	callstack 0
   727   000003                     gpio_pin_read_logic@_pin_config:
   728                           	callstack 0
   729   000003                     ___awdiv@dividend:
   730                           	callstack 0
   731   000003                     ___awmod@dividend:
   732                           	callstack 0
   733   000003                     isdigit@c:
   734                           	callstack 0
   735   000003                     memset@dest:
   736                           	callstack 0
   737   000003                     fputc@c:
   738                           	callstack 0
   739   000003                     ___lmul@multiplier:
   740                           	callstack 0
   741   000003                     ___lldiv@dividend:
   742                           	callstack 0
   743                           
   744                           ; 4 bytes @ 0x2
   745   000003                     	ds	2
   746   000005                     ??_gpio_pin_direction_intialize:
   747   000005                     ??_isdigit:
   748   000005                     gpio_pin_write_logic@logic:
   749                           	callstack 0
   750   000005                     gpio_pin_read_logic@logic:
   751                           	callstack 0
   752   000005                     ___awdiv@divisor:
   753                           	callstack 0
   754   000005                     ___awmod@divisor:
   755                           	callstack 0
   756   000005                     memset@c:
   757                           	callstack 0
   758   000005                     fputc@fp:
   759                           	callstack 0
   760                           
   761                           ; 2 bytes @ 0x4
   762   000005                     	ds	1
   763   000006                     ??_gpio_pin_write_logic:
   764                           
   765                           ; 1 bytes @ 0x5
   766   000006                     	ds	1
   767   000007                     ??_gpio_pin_read_logic:
   768   000007                     ??_fputc:
   769   000007                     ___awdiv@counter:
   770                           	callstack 0
   771   000007                     ___awmod@counter:
   772                           	callstack 0
   773   000007                     memset@n:
   774                           	callstack 0
   775   000007                     ___lmul@multiplicand:
   776                           	callstack 0
   777   000007                     ___lldiv@divisor:
   778                           	callstack 0
   779                           
   780                           ; 4 bytes @ 0x6
   781   000007                     	ds	1
   782   000008                     ___awdiv@sign:
   783                           	callstack 0
   784   000008                     ___awmod@sign:
   785                           	callstack 0
   786                           
   787                           ; 1 bytes @ 0x7
   788   000008                     	ds	1
   789   000009                     ??_memset:
   790   000009                     ?_abs:
   791                           	callstack 0
   792   000009                     ___awdiv@quotient:
   793                           	callstack 0
   794   000009                     abs@a:
   795                           	callstack 0
   796                           
   797                           ; 2 bytes @ 0x8
   798   000009                     	ds	2
   799   00000B                     ??_abs:
   800   00000B                     gpio_pin_direction_intialize@ret:
   801                           	callstack 0
   802   00000B                     memset@k:
   803                           	callstack 0
   804   00000B                     ___lmul@product:
   805                           	callstack 0
   806   00000B                     ___lldiv@quotient:
   807                           	callstack 0
   808                           
   809                           ; 4 bytes @ 0xA
   810   00000B                     	ds	1
   811   00000C                     gpio_pin_write_logic@ret:
   812                           	callstack 0
   813   00000C                     gpio_pin_read_logic@ret:
   814                           	callstack 0
   815   00000C                     fputs@s:
   816                           	callstack 0
   817                           
   818                           ; 2 bytes @ 0xB
   819   00000C                     	ds	1
   820   00000D                     lcd_send_4bits@lcd:
   821                           	callstack 0
   822   00000D                     lcd_4bit_send_enable_signal@lcd:
   823                           	callstack 0
   824   00000D                     keypad_get_value@_keypad_obj:
   825                           	callstack 0
   826   00000D                     gpio_pin_intialize@_pin_config:
   827                           	callstack 0
   828   00000D                     memset@s:
   829                           	callstack 0
   830                           
   831                           ; 2 bytes @ 0xC
   832   00000D                     	ds	1
   833   00000E                     fputs@fp:
   834                           	callstack 0
   835                           
   836                           ; 2 bytes @ 0xD
   837   00000E                     	ds	1
   838   00000F                     ??_gpio_pin_intialize:
   839   00000F                     lcd_send_4bits@_data_command:
   840                           	callstack 0
   841   00000F                     lcd_4bit_send_enable_signal@ret:
   842                           	callstack 0
   843   00000F                     ___lldiv@counter:
   844                           	callstack 0
   845   00000F                     keypad_get_value@value:
   846                           	callstack 0
   847                           
   848                           ; 2 bytes @ 0xE
   849   00000F                     	ds	1
   850   000010                     lcd_send_4bits@ret:
   851                           	callstack 0
   852   000010                     gpio_pin_intialize@ret:
   853                           	callstack 0
   854   000010                     fputs@c:
   855                           	callstack 0
   856                           
   857                           ; 1 bytes @ 0xF
   858   000010                     	ds	1
   859   000011                     ??_keypad_get_value:
   860   000011                     lcd_4bit_send_command@lcd:
   861                           	callstack 0
   862   000011                     lcd_4bit_send_char_data@lcd:
   863                           	callstack 0
   864   000011                     keypad_initialize@_keypad_obj:
   865                           	callstack 0
   866   000011                     fputs@i:
   867                           	callstack 0
   868                           
   869                           ; 2 bytes @ 0x10
   870   000011                     	ds	2
   871   000013                     ??_keypad_initialize:
   872   000013                     lcd_4bit_send_command@command:
   873                           	callstack 0
   874   000013                     lcd_4bit_send_char_data@data:
   875                           	callstack 0
   876   000013                     keypad_get_value@ret:
   877                           	callstack 0
   878   000013                     pad@fp:
   879                           	callstack 0
   880                           
   881                           ; 2 bytes @ 0x12
   882   000013                     	ds	1
   883   000014                     lcd_4bit_send_command@ret:
   884                           	callstack 0
   885   000014                     lcd_4bit_send_char_data@ret:
   886                           	callstack 0
   887   000014                     keypad_get_value@column_logic:
   888                           	callstack 0
   889                           
   890                           ; 1 bytes @ 0x13
   891   000014                     	ds	1
   892   000015                     ??_lcd_write:
   893   000015                     keypad_initialize@ret:
   894                           	callstack 0
   895   000015                     keypad_get_value@l_counter:
   896                           	callstack 0
   897   000015                     lcd_4bit_intialize@lcd:
   898                           	callstack 0
   899   000015                     lcd_4bit_clear@lcd:
   900                           	callstack 0
   901   000015                     lcd_4bit_set_cursor@lcd:
   902                           	callstack 0
   903   000015                     pad@buf:
   904                           	callstack 0
   905                           
   906                           ; 2 bytes @ 0x14
   907   000015                     	ds	1
   908   000016                     keypad_initialize@rows_counter:
   909                           	callstack 0
   910   000016                     keypad_get_value@l_rows_counter:
   911                           	callstack 0
   912                           
   913                           ; 1 bytes @ 0x15
   914   000016                     	ds	1
   915   000017                     ??_lcd_4bit_intialize:
   916   000017                     lcd_4bit_clear@ret:
   917                           	callstack 0
   918   000017                     lcd_4bit_set_cursor@row:
   919                           	callstack 0
   920   000017                     keypad_initialize@columns_counter:
   921                           	callstack 0
   922   000017                     keypad_get_value@l_columns_counter:
   923                           	callstack 0
   924   000017                     lcd_write@not_pressed:
   925                           	callstack 0
   926   000017                     pad@p:
   927                           	callstack 0
   928                           
   929                           ; 2 bytes @ 0x16
   930   000017                     	ds	1
   931   000018                     lcd_4bit_set_cursor@coulmn:
   932                           	callstack 0
   933                           
   934                           ; 1 bytes @ 0x17
   935   000018                     	ds	1
   936   000019                     ??_lcd_4bit_set_cursor:
   937   000019                     ??_pad:
   938   000019                     lcd_4bit_intialize@l_data_pins_counter:
   939                           	callstack 0
   940                           
   941                           ; 1 bytes @ 0x18
   942   000019                     	ds	1
   943   00001A                     lcd_4bit_intialize@ret:
   944                           	callstack 0
   945   00001A                     pad@i:
   946                           	callstack 0
   947                           
   948                           ; 2 bytes @ 0x19
   949   00001A                     	ds	1
   950   00001B                     lcd_4bit_set_cursor@ret:
   951                           	callstack 0
   952                           
   953                           ; 1 bytes @ 0x1A
   954   00001B                     	ds	1
   955   00001C                     lcd_4bit_send_char_data_pos@lcd:
   956                           	callstack 0
   957   00001C                     lcd_4bit_send_string_pos@lcd:
   958                           	callstack 0
   959   00001C                     pad@w:
   960                           	callstack 0
   961                           
   962                           ; 2 bytes @ 0x1B
   963   00001C                     	ds	2
   964   00001E                     lcd_4bit_send_char_data_pos@row:
   965                           	callstack 0
   966   00001E                     lcd_4bit_send_string_pos@row:
   967                           	callstack 0
   968   00001E                     dtoa@fp:
   969                           	callstack 0
   970                           
   971                           ; 2 bytes @ 0x1D
   972   00001E                     	ds	1
   973   00001F                     lcd_4bit_send_char_data_pos@column:
   974                           	callstack 0
   975   00001F                     lcd_4bit_send_string_pos@column:
   976                           	callstack 0
   977                           
   978                           ; 1 bytes @ 0x1E
   979   00001F                     	ds	1
   980   000020                     lcd_4bit_send_char_data_pos@data:
   981                           	callstack 0
   982   000020                     lcd_4bit_send_string_pos@str:
   983                           	callstack 0
   984   000020                     dtoa@d:
   985                           	callstack 0
   986                           
   987                           ; 2 bytes @ 0x1F
   988   000020                     	ds	1
   989   000021                     lcd_4bit_send_char_data_pos@ret:
   990                           	callstack 0
   991                           
   992                           ; 1 bytes @ 0x20
   993   000021                     	ds	1
   994   000022                     lcd_4bit_send_string_pos@ret:
   995                           	callstack 0
   996   000022                     _dtoa$5060:
   997                           	callstack 0
   998                           
   999                           ; 2 bytes @ 0x21
  1000   000022                     	ds	1
  1001   000023                     ??_loading_screen:
  1002                           
  1003                           ; 1 bytes @ 0x22
  1004   000023                     	ds	1
  1005   000024                     dtoa@p:
  1006                           	callstack 0
  1007                           
  1008                           ; 2 bytes @ 0x23
  1009   000024                     	ds	1
  1010   000025                     loading_screen@counter:
  1011                           	callstack 0
  1012                           
  1013                           ; 1 bytes @ 0x24
  1014   000025                     	ds	1
  1015   000026                     loading_screen@l_lcd1_counter:
  1016                           	callstack 0
  1017   000026                     dtoa@w:
  1018                           	callstack 0
  1019                           
  1020                           ; 2 bytes @ 0x25
  1021   000026                     	ds	2
  1022   000028                     dtoa@i:
  1023                           	callstack 0
  1024                           
  1025                           ; 2 bytes @ 0x27
  1026   000028                     	ds	2
  1027   00002A                     dtoa@s:
  1028                           	callstack 0
  1029                           
  1030                           ; 1 bytes @ 0x29
  1031   00002A                     	ds	1
  1032   00002B                     vfpfcnvrt@fp:
  1033                           	callstack 0
  1034                           
  1035                           ; 2 bytes @ 0x2A
  1036   00002B                     	ds	2
  1037   00002D                     vfpfcnvrt@fmt:
  1038                           	callstack 0
  1039                           
  1040                           ; 2 bytes @ 0x2C
  1041   00002D                     	ds	2
  1042   00002F                     vfpfcnvrt@ap:
  1043                           	callstack 0
  1044                           
  1045                           ; 2 bytes @ 0x2E
  1046   00002F                     	ds	2
  1047   000031                     ??_vfpfcnvrt:
  1048                           
  1049                           ; 1 bytes @ 0x30
  1050   000031                     	ds	2
  1051   000033                     vfpfcnvrt@convarg:
  1052                           	callstack 0
  1053                           
  1054                           ; 4 bytes @ 0x32
  1055   000033                     	ds	4
  1056   000037                     vfpfcnvrt@cp:
  1057                           	callstack 0
  1058                           
  1059                           ; 2 bytes @ 0x36
  1060   000037                     	ds	2
  1061   000039                     ?_vfprintf:
  1062                           	callstack 0
  1063   000039                     vfprintf@fp:
  1064                           	callstack 0
  1065                           
  1066                           ; 2 bytes @ 0x38
  1067   000039                     	ds	2
  1068   00003B                     vfprintf@fmt:
  1069                           	callstack 0
  1070                           
  1071                           ; 2 bytes @ 0x3A
  1072   00003B                     	ds	2
  1073   00003D                     vfprintf@ap:
  1074                           	callstack 0
  1075                           
  1076                           ; 2 bytes @ 0x3C
  1077   00003D                     	ds	2
  1078   00003F                     vfprintf@cfmt:
  1079                           	callstack 0
  1080                           
  1081                           ; 2 bytes @ 0x3E
  1082   00003F                     	ds	2
  1083   000041                     ?_sprintf:
  1084                           	callstack 0
  1085   000041                     sprintf@s:
  1086                           	callstack 0
  1087                           
  1088                           ; 2 bytes @ 0x40
  1089   000041                     	ds	2
  1090   000043                     sprintf@fmt:
  1091                           	callstack 0
  1092                           
  1093                           ; 2 bytes @ 0x42
  1094   000043                     	ds	6
  1095   000049                     sprintf@ap:
  1096                           	callstack 0
  1097                           
  1098                           ; 2 bytes @ 0x48
  1099   000049                     	ds	2
  1100   00004B                     sprintf@f:
  1101                           	callstack 0
  1102                           
  1103                           ; 12 bytes @ 0x4A
  1104   00004B                     	ds	12
  1105   000057                     convert_uint32_to_string@value:
  1106                           	callstack 0
  1107                           
  1108                           ; 4 bytes @ 0x56
  1109   000057                     	ds	4
  1110   00005B                     convert_uint32_to_string@str:
  1111                           	callstack 0
  1112                           
  1113                           ; 2 bytes @ 0x5A
  1114   00005B                     	ds	2
  1115   00005D                     convert_uint32_to_string@ret:
  1116                           	callstack 0
  1117                           
  1118                           ; 1 bytes @ 0x5C
  1119   00005D                     	ds	1
  1120   00005E                     ??_calculate:
  1121                           
  1122                           ; 1 bytes @ 0x5D
  1123   00005E                     	ds	2
  1124                           
  1125 ;;
  1126 ;;Main: autosize = 0, tempsize = 2, incstack = 0, save=0
  1127 ;;
  1128 ;; *************** function _main *****************
  1129 ;; Defined at:
  1130 ;;		line 22 in file "application.c"
  1131 ;; Parameters:    Size  Location     Type
  1132 ;;		None
  1133 ;; Auto vars:     Size  Location     Type
  1134 ;;  ret             1    0        unsigned char 
  1135 ;; Return value:  Size  Location     Type
  1136 ;;                  2  1802[None  ] int 
  1137 ;; Registers used:
  1138 ;;		wreg, fsr0l, fsr0h, fsr1l, fsr1h, fsr2l, fsr2h, status,2, status,0, tblptrl, tblptrh, tblptru, prodl, prodh, cstack
  1139 ;; Tracked objects:
  1140 ;;		On entry : 0/0
  1141 ;;		On exit  : 0/0
  1142 ;;		Unchanged: 0/0
  1143 ;; Data sizes:     COMRAM   BANK0   BANK1   BANK2   BANK3   BANK4   BANK5   BANK6   BANK7   BANK8   BANK9  BANK10  BANK1
      +1  BANK12  BANK13  BANK14  BANK15
  1144 ;;      Params:         0       0       0       0       0       0       0       0       0       0       0       0       
      +0       0       0       0       0
  1145 ;;      Locals:         0       0       0       0       0       0       0       0       0       0       0       0       
      +0       0       0       0       0
  1146 ;;      Temps:          0       2       0       0       0       0       0       0       0       0       0       0       
      +0       0       0       0       0
  1147 ;;      Totals:         0       2       0       0       0       0       0       0       0       0       0       0       
      +0       0       0       0       0
  1148 ;;Total ram usage:        2 bytes
  1149 ;; Hardware stack levels required when called: 12
  1150 ;; This function calls:
  1151 ;;		___lmul
  1152 ;;		_application_initialize
  1153 ;;		_calculate
  1154 ;;		_isdigit
  1155 ;;		_keypad_get_value
  1156 ;;		_lcd_4bit_clear
  1157 ;;		_lcd_4bit_send_string_pos
  1158 ;;		_lcd_write
  1159 ;;		_loading_screen
  1160 ;; This function is called by:
  1161 ;;		Startup code after reset
  1162 ;; This function uses a non-reentrant model
  1163 ;;
  1164                           
  1165                           	psect	text0
  1166   00148C                     __ptext0:
  1167                           	callstack 0
  1168   00148C                     _main:
  1169                           	callstack 19
  1170   00148C                     
  1171                           ;application.c: 24:     application_initialize();
  1172   00148C  EC02  F017         	call	_application_initialize	;wreg free
  1173   001490                     
  1174                           ;application.c: 25:     lcd_4bit_send_string_pos(&lcd_1, 2, 6, "WELCOME");
  1175   001490  0EF3               	movlw	low _lcd_1
  1176   001492  6E1C               	movwf	lcd_4bit_send_string_pos@lcd^0,c
  1177   001494  0E00               	movlw	high _lcd_1
  1178   001496  6E1D               	movwf	(lcd_4bit_send_string_pos@lcd+1)^0,c
  1179   001498  0E02               	movlw	2
  1180   00149A  6E1E               	movwf	lcd_4bit_send_string_pos@row^0,c
  1181   00149C  0E06               	movlw	6
  1182   00149E  6E1F               	movwf	lcd_4bit_send_string_pos@column^0,c
  1183   0014A0  0E30               	movlw	low STR_4
  1184   0014A2  6E20               	movwf	lcd_4bit_send_string_pos@str^0,c
  1185   0014A4  0E10               	movlw	high STR_4
  1186   0014A6  6E21               	movwf	(lcd_4bit_send_string_pos@str+1)^0,c
  1187   0014A8  EC01  F013         	call	_lcd_4bit_send_string_pos	;wreg free
  1188   0014AC                     
  1189                           ;application.c: 26:     _delay((unsigned long)((2000)*(8000000UL/4000.0)));
  1190   0014AC  0E15               	movlw	21
  1191   0014AE  0100               	movlb	0	; () banked
  1192   0014B0  6FFA               	movwf	(??_main+1)& (0+255),b
  1193   0014B2  0E4B               	movlw	75
  1194   0014B4  6FF9               	movwf	??_main& (0+255),b
  1195   0014B6  0EBE               	movlw	190
  1196   0014B8                     u7247:
  1197   0014B8  2EE8               	decfsz	wreg,f,c
  1198   0014BA  D7FE               	bra	u7247
  1199   0014BC  2FF9               	decfsz	??_main& (0+255),f,b
  1200   0014BE  D7FC               	bra	u7247
  1201   0014C0  2FFA               	decfsz	(??_main+1)& (0+255),f,b
  1202   0014C2  D7FA               	bra	u7247
  1203   0014C4  F000               	nop	
  1204   0014C6  0EF3               	movlw	low _lcd_1
  1205   0014C8  6E15               	movwf	lcd_4bit_clear@lcd^0,c
  1206   0014CA  0E00               	movlw	high _lcd_1
  1207   0014CC  6E16               	movwf	(lcd_4bit_clear@lcd+1)^0,c
  1208   0014CE  EC8C  F016         	call	_lcd_4bit_clear	;wreg free
  1209   0014D2                     
  1210                           ;application.c: 28:     loading_screen();
  1211   0014D2  EC4A  F011         	call	_loading_screen	;wreg free
  1212   0014D6  0EF3               	movlw	low _lcd_1
  1213   0014D8  6E15               	movwf	lcd_4bit_clear@lcd^0,c
  1214   0014DA  0E00               	movlw	high _lcd_1
  1215   0014DC  6E16               	movwf	(lcd_4bit_clear@lcd+1)^0,c
  1216   0014DE  EC8C  F016         	call	_lcd_4bit_clear	;wreg free
  1217   0014E2                     l8210:
  1218   0014E2  0EEB               	movlw	low _keypad1
  1219   0014E4  6E0D               	movwf	keypad_get_value@_keypad_obj^0,c
  1220   0014E6  0E00               	movlw	high _keypad1
  1221   0014E8  6E0E               	movwf	(keypad_get_value@_keypad_obj+1)^0,c
  1222   0014EA  0E70               	movlw	low _keypad_value
  1223   0014EC  6E0F               	movwf	keypad_get_value@value^0,c
  1224   0014EE  0E00               	movlw	high _keypad_value
  1225   0014F0  6E10               	movwf	(keypad_get_value@value+1)^0,c
  1226   0014F2  ECF3  F00F         	call	_keypad_get_value	;wreg free
  1227   0014F6  0ED0               	movlw	208
  1228   0014F8  2470               	addwf	_keypad_value^0,w,c
  1229   0014FA  0100               	movlb	0	; () banked
  1230   0014FC  6FF9               	movwf	??_main& (0+255),b
  1231   0014FE  6BFA               	clrf	(??_main+1)& (0+255),b
  1232   001500  0EFF               	movlw	255
  1233   001502  23FA               	addwfc	(??_main+1)& (0+255),f,b
  1234   001504  51FA               	movf	(??_main+1)& (0+255),w,b
  1235   001506  E107               	bnz	u7141
  1236   001508  0E0A               	movlw	10
  1237   00150A  5DF9               	subwf	??_main& (0+255),w,b
  1238   00150C  B0D8               	btfsc	status,0,c
  1239   00150E  EF8B  F00A         	goto	u7141
  1240   001512  EF8D  F00A         	goto	u7140
  1241   001516                     u7141:
  1242   001516  EFBE  F00A         	goto	l8222
  1243   00151A                     u7140:
  1244   00151A                     
  1245                           ; BSR set to: 0
  1246   00151A  506D               	movf	_num2_flag^0,w,c
  1247   00151C  A4D8               	btfss	status,2,c
  1248   00151E  EF93  F00A         	goto	u7151
  1249   001522  EF95  F00A         	goto	u7150
  1250   001526                     u7151:
  1251   001526  EFBE  F00A         	goto	l8222
  1252   00152A                     u7150:
  1253   00152A                     
  1254                           ; BSR set to: 0
  1255                           ;application.c: 34:             num1 = (num1*10)+(keypad_value-'0');
  1256   00152A  0ED0               	movlw	208
  1257   00152C  2470               	addwf	_keypad_value^0,w,c
  1258   00152E  6FF9               	movwf	??_main& (0+255),b
  1259   001530  6BFA               	clrf	(??_main+1)& (0+255),b
  1260   001532  0EFF               	movlw	255
  1261   001534  23FA               	addwfc	(??_main+1)& (0+255),f,b
  1262   001536  C064  F003         	movff	_num1,___lmul@multiplier
  1263   00153A  C065  F004         	movff	_num1+1,___lmul@multiplier+1
  1264   00153E  C066  F005         	movff	_num1+2,___lmul@multiplier+2
  1265   001542  C067  F006         	movff	_num1+3,___lmul@multiplier+3
  1266   001546  0E0A               	movlw	10
  1267   001548  6E07               	movwf	___lmul@multiplicand^0,c
  1268   00154A  0E00               	movlw	0
  1269   00154C  6E08               	movwf	(___lmul@multiplicand+1)^0,c
  1270   00154E  0E00               	movlw	0
  1271   001550  6E09               	movwf	(___lmul@multiplicand+2)^0,c
  1272   001552  0E00               	movlw	0
  1273   001554  6E0A               	movwf	(___lmul@multiplicand+3)^0,c
  1274   001556  ECBD  F014         	call	___lmul	;wreg free
  1275   00155A  0100               	movlb	0	; () banked
  1276   00155C  51F9               	movf	??_main& (0+255),w,b
  1277   00155E  2403               	addwf	?___lmul^0,w,c
  1278   001560  6E64               	movwf	_num1^0,c
  1279   001562  51FA               	movf	(??_main+1)& (0+255),w,b
  1280   001564  2004               	addwfc	(?___lmul+1)^0,w,c
  1281   001566  6E65               	movwf	(_num1+1)^0,c
  1282   001568  0E00               	movlw	0
  1283   00156A  2005               	addwfc	(?___lmul+2)^0,w,c
  1284   00156C  6E66               	movwf	(_num1+2)^0,c
  1285   00156E  0E00               	movlw	0
  1286   001570  2006               	addwfc	(?___lmul+3)^0,w,c
  1287   001572  6E67               	movwf	(_num1+3)^0,c
  1288   001574                     l8220:
  1289                           
  1290                           ; BSR set to: 0
  1291                           ;application.c: 35:             lcd_write();
  1292   001574  ECEA  F015         	call	_lcd_write	;wreg free
  1293                           
  1294                           ;application.c: 36:         }
  1295   001578  EF71  F00A         	goto	l8210
  1296   00157C                     l8222:
  1297                           
  1298                           ; BSR set to: 0
  1299   00157C  0E2B               	movlw	43
  1300   00157E  1870               	xorwf	_keypad_value^0,w,c
  1301   001580  B4D8               	btfsc	status,2,c
  1302   001582  EFC5  F00A         	goto	u7161
  1303   001586  EFC7  F00A         	goto	u7160
  1304   00158A                     u7161:
  1305   00158A  EFE2  F00A         	goto	l1810
  1306   00158E                     u7160:
  1307   00158E                     
  1308                           ; BSR set to: 0
  1309   00158E  0E2D               	movlw	45
  1310   001590  1870               	xorwf	_keypad_value^0,w,c
  1311   001592  B4D8               	btfsc	status,2,c
  1312   001594  EFCE  F00A         	goto	u7171
  1313   001598  EFD0  F00A         	goto	u7170
  1314   00159C                     u7171:
  1315   00159C  EFE2  F00A         	goto	l1810
  1316   0015A0                     u7170:
  1317   0015A0                     
  1318                           ; BSR set to: 0
  1319   0015A0  0E2A               	movlw	42
  1320   0015A2  1870               	xorwf	_keypad_value^0,w,c
  1321   0015A4  B4D8               	btfsc	status,2,c
  1322   0015A6  EFD7  F00A         	goto	u7181
  1323   0015AA  EFD9  F00A         	goto	u7180
  1324   0015AE                     u7181:
  1325   0015AE  EFE2  F00A         	goto	l1810
  1326   0015B2                     u7180:
  1327   0015B2                     
  1328                           ; BSR set to: 0
  1329   0015B2  0E2F               	movlw	47
  1330   0015B4  1870               	xorwf	_keypad_value^0,w,c
  1331   0015B6  A4D8               	btfss	status,2,c
  1332   0015B8  EFE0  F00A         	goto	u7191
  1333   0015BC  EFE2  F00A         	goto	u7190
  1334   0015C0                     u7191:
  1335   0015C0  EFE8  F00A         	goto	l8236
  1336   0015C4                     u7190:
  1337   0015C4                     l1810:
  1338                           
  1339                           ; BSR set to: 0
  1340                           ;application.c: 38:            operator = keypad_value;
  1341   0015C4  C070  F06E         	movff	_keypad_value,_operator
  1342   0015C8                     
  1343                           ; BSR set to: 0
  1344                           ;application.c: 39:            num2_flag =1;
  1345   0015C8  0E01               	movlw	1
  1346   0015CA  6E6D               	movwf	_num2_flag^0,c
  1347   0015CC  EFBA  F00A         	goto	l8220
  1348   0015D0                     l8236:
  1349                           
  1350                           ; BSR set to: 0
  1351   0015D0  0ED0               	movlw	208
  1352   0015D2  2470               	addwf	_keypad_value^0,w,c
  1353   0015D4  6FF9               	movwf	??_main& (0+255),b
  1354   0015D6  6BFA               	clrf	(??_main+1)& (0+255),b
  1355   0015D8  0EFF               	movlw	255
  1356   0015DA  23FA               	addwfc	(??_main+1)& (0+255),f,b
  1357   0015DC  51FA               	movf	(??_main+1)& (0+255),w,b
  1358   0015DE  E107               	bnz	u7201
  1359   0015E0  0E0A               	movlw	10
  1360   0015E2  5DF9               	subwf	??_main& (0+255),w,b
  1361   0015E4  B0D8               	btfsc	status,0,c
  1362   0015E6  EFF7  F00A         	goto	u7201
  1363   0015EA  EFF9  F00A         	goto	u7200
  1364   0015EE                     u7201:
  1365   0015EE  EF28  F00B         	goto	l8244
  1366   0015F2                     u7200:
  1367   0015F2                     
  1368                           ; BSR set to: 0
  1369   0015F2  506D               	movf	_num2_flag^0,w,c
  1370   0015F4  B4D8               	btfsc	status,2,c
  1371   0015F6  EFFF  F00A         	goto	u7211
  1372   0015FA  EF01  F00B         	goto	u7210
  1373   0015FE                     u7211:
  1374   0015FE  EF28  F00B         	goto	l8244
  1375   001602                     u7210:
  1376   001602                     
  1377                           ; BSR set to: 0
  1378                           ;application.c: 43:                num2 = (num2*10)+(keypad_value-'0');
  1379   001602  0ED0               	movlw	208
  1380   001604  2470               	addwf	_keypad_value^0,w,c
  1381   001606  6FF9               	movwf	??_main& (0+255),b
  1382   001608  6BFA               	clrf	(??_main+1)& (0+255),b
  1383   00160A  0EFF               	movlw	255
  1384   00160C  23FA               	addwfc	(??_main+1)& (0+255),f,b
  1385   00160E  C060  F003         	movff	_num2,___lmul@multiplier
  1386   001612  C061  F004         	movff	_num2+1,___lmul@multiplier+1
  1387   001616  C062  F005         	movff	_num2+2,___lmul@multiplier+2
  1388   00161A  C063  F006         	movff	_num2+3,___lmul@multiplier+3
  1389   00161E  0E0A               	movlw	10
  1390   001620  6E07               	movwf	___lmul@multiplicand^0,c
  1391   001622  0E00               	movlw	0
  1392   001624  6E08               	movwf	(___lmul@multiplicand+1)^0,c
  1393   001626  0E00               	movlw	0
  1394   001628  6E09               	movwf	(___lmul@multiplicand+2)^0,c
  1395   00162A  0E00               	movlw	0
  1396   00162C  6E0A               	movwf	(___lmul@multiplicand+3)^0,c
  1397   00162E  ECBD  F014         	call	___lmul	;wreg free
  1398   001632  0100               	movlb	0	; () banked
  1399   001634  51F9               	movf	??_main& (0+255),w,b
  1400   001636  2403               	addwf	?___lmul^0,w,c
  1401   001638  6E60               	movwf	_num2^0,c
  1402   00163A  51FA               	movf	(??_main+1)& (0+255),w,b
  1403   00163C  2004               	addwfc	(?___lmul+1)^0,w,c
  1404   00163E  6E61               	movwf	(_num2+1)^0,c
  1405   001640  0E00               	movlw	0
  1406   001642  2005               	addwfc	(?___lmul+2)^0,w,c
  1407   001644  6E62               	movwf	(_num2+2)^0,c
  1408   001646  0E00               	movlw	0
  1409   001648  2006               	addwfc	(?___lmul+3)^0,w,c
  1410   00164A  6E63               	movwf	(_num2+3)^0,c
  1411   00164C  EFBA  F00A         	goto	l8220
  1412   001650                     l8244:
  1413                           
  1414                           ; BSR set to: 0
  1415   001650  0E3D               	movlw	61
  1416   001652  1870               	xorwf	_keypad_value^0,w,c
  1417   001654  A4D8               	btfss	status,2,c
  1418   001656  EF2F  F00B         	goto	u7221
  1419   00165A  EF31  F00B         	goto	u7220
  1420   00165E                     u7221:
  1421   00165E  EF37  F00B         	goto	l8250
  1422   001662                     u7220:
  1423   001662                     
  1424                           ; BSR set to: 0
  1425                           ;application.c: 47:            lcd_write();
  1426   001662  ECEA  F015         	call	_lcd_write	;wreg free
  1427   001666                     
  1428                           ;application.c: 48:            calculate();
  1429   001666  ECE4  F00C         	call	_calculate	;wreg free
  1430                           
  1431                           ;application.c: 49:         }
  1432   00166A  EF71  F00A         	goto	l8210
  1433   00166E                     l8250:
  1434                           
  1435                           ; BSR set to: 0
  1436   00166E  0E23               	movlw	35
  1437   001670  1870               	xorwf	_keypad_value^0,w,c
  1438   001672  A4D8               	btfss	status,2,c
  1439   001674  EF3E  F00B         	goto	u7231
  1440   001678  EF40  F00B         	goto	u7230
  1441   00167C                     u7231:
  1442   00167C  EF5A  F00B         	goto	l1815
  1443   001680                     u7230:
  1444   001680                     
  1445                           ; BSR set to: 0
  1446   001680  0EF3               	movlw	low _lcd_1
  1447   001682  6E15               	movwf	lcd_4bit_clear@lcd^0,c
  1448   001684  0E00               	movlw	high _lcd_1
  1449   001686  6E16               	movwf	(lcd_4bit_clear@lcd+1)^0,c
  1450   001688  EC8C  F016         	call	_lcd_4bit_clear	;wreg free
  1451   00168C                     
  1452                           ;application.c: 52:            num2_flag = num1 = num2 = 0;
  1453   00168C  0E00               	movlw	0
  1454   00168E  6E60               	movwf	_num2^0,c
  1455   001690  0E00               	movlw	0
  1456   001692  6E61               	movwf	(_num2+1)^0,c
  1457   001694  0E00               	movlw	0
  1458   001696  6E62               	movwf	(_num2+2)^0,c
  1459   001698  0E00               	movlw	0
  1460   00169A  6E63               	movwf	(_num2+3)^0,c
  1461   00169C  C060  F064         	movff	_num2,_num1
  1462   0016A0  C061  F065         	movff	_num2+1,_num1+1
  1463   0016A4  C062  F066         	movff	_num2+2,_num1+2
  1464   0016A8  C063  F067         	movff	_num2+3,_num1+3
  1465   0016AC  C064  F06D         	movff	_num1,_num2_flag
  1466                           
  1467                           ;application.c: 54:          }else{ }
  1468   0016B0  EF71  F00A         	goto	l8210
  1469   0016B4                     l1815:
  1470                           
  1471                           ; BSR set to: 0
  1472   0016B4  EF71  F00A         	goto	l8210
  1473   0016B8  EF07  F000         	goto	start
  1474   0016BC                     __end_of_main:
  1475                           	callstack 0
  1476                           
  1477 ;; *************** function _loading_screen *****************
  1478 ;; Defined at:
  1479 ;;		line 66 in file "application.c"
  1480 ;; Parameters:    Size  Location     Type
  1481 ;;		None
  1482 ;; Auto vars:     Size  Location     Type
  1483 ;;  l_lcd1_count    1   37[COMRAM] unsigned char 
  1484 ;;  counter         1   36[COMRAM] unsigned char 
  1485 ;; Return value:  Size  Location     Type
  1486 ;;                  1    wreg      void 
  1487 ;; Registers used:
  1488 ;;		wreg, fsr0l, fsr0h, fsr2l, fsr2h, status,2, status,0, tblptrl, tblptrh, tblptru, prodl, prodh, cstack
  1489 ;; Tracked objects:
  1490 ;;		On entry : 0/0
  1491 ;;		On exit  : 0/0
  1492 ;;		Unchanged: 0/0
  1493 ;; Data sizes:     COMRAM   BANK0   BANK1   BANK2   BANK3   BANK4   BANK5   BANK6   BANK7   BANK8   BANK9  BANK10  BANK1
      +1  BANK12  BANK13  BANK14  BANK15
  1494 ;;      Params:         0       0       0       0       0       0       0       0       0       0       0       0       
      +0       0       0       0       0
  1495 ;;      Locals:         2       0       0       0       0       0       0       0       0       0       0       0       
      +0       0       0       0       0
  1496 ;;      Temps:          2       0       0       0       0       0       0       0       0       0       0       0       
      +0       0       0       0       0
  1497 ;;      Totals:         4       0       0       0       0       0       0       0       0       0       0       0       
      +0       0       0       0       0
  1498 ;;Total ram usage:        4 bytes
  1499 ;; Hardware stack levels used: 1
  1500 ;; Hardware stack levels required when called: 7
  1501 ;; This function calls:
  1502 ;;		_lcd_4bit_send_char_data_pos
  1503 ;;		_lcd_4bit_send_string_pos
  1504 ;; This function is called by:
  1505 ;;		_main
  1506 ;; This function uses a non-reentrant model
  1507 ;;
  1508                           
  1509                           	psect	text1
  1510   002294                     __ptext1:
  1511                           	callstack 0
  1512   002294                     _loading_screen:
  1513                           	callstack 23
  1514   002294                     
  1515                           ;application.c: 67:     lcd_4bit_send_string_pos(&lcd_1, 1, 1, "Loading");
  1516   002294  0EF3               	movlw	low _lcd_1
  1517   002296  6E1C               	movwf	lcd_4bit_send_string_pos@lcd^0,c
  1518   002298  0E00               	movlw	high _lcd_1
  1519   00229A  6E1D               	movwf	(lcd_4bit_send_string_pos@lcd+1)^0,c
  1520   00229C  0E01               	movlw	1
  1521   00229E  6E1E               	movwf	lcd_4bit_send_string_pos@row^0,c
  1522   0022A0  0E01               	movlw	1
  1523   0022A2  6E1F               	movwf	lcd_4bit_send_string_pos@column^0,c
  1524   0022A4  0E38               	movlw	low STR_5
  1525   0022A6  6E20               	movwf	lcd_4bit_send_string_pos@str^0,c
  1526   0022A8  0E10               	movlw	high STR_5
  1527   0022AA  6E21               	movwf	(lcd_4bit_send_string_pos@str+1)^0,c
  1528   0022AC  EC01  F013         	call	_lcd_4bit_send_string_pos	;wreg free
  1529   0022B0                     
  1530                           ;application.c: 69:     uint8 l_lcd1_counter = 0;
  1531   0022B0  0E00               	movlw	0
  1532   0022B2  6E26               	movwf	loading_screen@l_lcd1_counter^0,c
  1533   0022B4                     
  1534                           ;application.c: 70:     for(counter=8; counter<=15*2; ++counter){
  1535   0022B4  0E08               	movlw	8
  1536   0022B6  6E25               	movwf	loading_screen@counter^0,c
  1537   0022B8                     l6772:
  1538                           
  1539                           ;application.c: 71:         l_lcd1_counter++;
  1540   0022B8  2A26               	incf	loading_screen@l_lcd1_counter^0,f,c
  1541   0022BA                     
  1542                           ;application.c: 72:         lcd_4bit_send_char_data_pos(&lcd_1, 1, 8+l_lcd1_counter, '.'
      +                          );
  1543   0022BA  0EF3               	movlw	low _lcd_1
  1544   0022BC  6E1C               	movwf	lcd_4bit_send_char_data_pos@lcd^0,c
  1545   0022BE  0E00               	movlw	high _lcd_1
  1546   0022C0  6E1D               	movwf	(lcd_4bit_send_char_data_pos@lcd+1)^0,c
  1547   0022C2  0E01               	movlw	1
  1548   0022C4  6E1E               	movwf	lcd_4bit_send_char_data_pos@row^0,c
  1549   0022C6  5026               	movf	loading_screen@l_lcd1_counter^0,w,c
  1550   0022C8  0F08               	addlw	8
  1551   0022CA  6E1F               	movwf	lcd_4bit_send_char_data_pos@column^0,c
  1552   0022CC  0E2E               	movlw	46
  1553   0022CE  6E20               	movwf	lcd_4bit_send_char_data_pos@data^0,c
  1554   0022D0  ECA5  F015         	call	_lcd_4bit_send_char_data_pos	;wreg free
  1555   0022D4                     
  1556                           ;application.c: 73:         _delay((unsigned long)((100)*(8000000UL/4000.0)));
  1557   0022D4  0E02               	movlw	2
  1558   0022D6  6E24               	movwf	(??_loading_screen+1)^0,c
  1559   0022D8  0E04               	movlw	4
  1560   0022DA  6E23               	movwf	??_loading_screen^0,c
  1561   0022DC  0EBA               	movlw	186
  1562   0022DE                     u7257:
  1563   0022DE  2EE8               	decfsz	wreg,f,c
  1564   0022E0  D7FE               	bra	u7257
  1565   0022E2  2E23               	decfsz	??_loading_screen^0,f,c
  1566   0022E4  D7FC               	bra	u7257
  1567   0022E6  2E24               	decfsz	(??_loading_screen+1)^0,f,c
  1568   0022E8  D7FA               	bra	u7257
  1569   0022EA  D000               	nop2	
  1570   0022EC                     
  1571                           ;application.c: 74:         if(7 == l_lcd1_counter ){
  1572   0022EC  0E07               	movlw	7
  1573   0022EE  1826               	xorwf	loading_screen@l_lcd1_counter^0,w,c
  1574   0022F0  A4D8               	btfss	status,2,c
  1575   0022F2  EF7D  F011         	goto	u5141
  1576   0022F6  EF7F  F011         	goto	u5140
  1577   0022FA                     u5141:
  1578   0022FA  EF8F  F011         	goto	l6784
  1579   0022FE                     u5140:
  1580   0022FE                     
  1581                           ;application.c: 75:             lcd_4bit_send_string_pos(&lcd_1, 1, 8, "         ");
  1582   0022FE  0EF3               	movlw	low _lcd_1
  1583   002300  6E1C               	movwf	lcd_4bit_send_string_pos@lcd^0,c
  1584   002302  0E00               	movlw	high _lcd_1
  1585   002304  6E1D               	movwf	(lcd_4bit_send_string_pos@lcd+1)^0,c
  1586   002306  0E01               	movlw	1
  1587   002308  6E1E               	movwf	lcd_4bit_send_string_pos@row^0,c
  1588   00230A  0E08               	movlw	8
  1589   00230C  6E1F               	movwf	lcd_4bit_send_string_pos@column^0,c
  1590   00230E  0E26               	movlw	low STR_6
  1591   002310  6E20               	movwf	lcd_4bit_send_string_pos@str^0,c
  1592   002312  0E10               	movlw	high STR_6
  1593   002314  6E21               	movwf	(lcd_4bit_send_string_pos@str+1)^0,c
  1594   002316  EC01  F013         	call	_lcd_4bit_send_string_pos	;wreg free
  1595   00231A                     
  1596                           ;application.c: 76:             l_lcd1_counter =0;
  1597   00231A  0E00               	movlw	0
  1598   00231C  6E26               	movwf	loading_screen@l_lcd1_counter^0,c
  1599   00231E                     l6784:
  1600                           
  1601                           ;application.c: 78:     }
  1602   00231E  2A25               	incf	loading_screen@counter^0,f,c
  1603   002320  0E1E               	movlw	30
  1604   002322  6425               	cpfsgt	loading_screen@counter^0,c
  1605   002324  EF96  F011         	goto	u5151
  1606   002328  EF98  F011         	goto	u5150
  1607   00232C                     u5151:
  1608   00232C  EF5C  F011         	goto	l6772
  1609   002330                     u5150:
  1610   002330                     
  1611                           ;application.c: 79:     lcd_4bit_send_string_pos(&lcd_1, 1, 8, "         ");
  1612   002330  0EF3               	movlw	low _lcd_1
  1613   002332  6E1C               	movwf	lcd_4bit_send_string_pos@lcd^0,c
  1614   002334  0E00               	movlw	high _lcd_1
  1615   002336  6E1D               	movwf	(lcd_4bit_send_string_pos@lcd+1)^0,c
  1616   002338  0E01               	movlw	1
  1617   00233A  6E1E               	movwf	lcd_4bit_send_string_pos@row^0,c
  1618   00233C  0E08               	movlw	8
  1619   00233E  6E1F               	movwf	lcd_4bit_send_string_pos@column^0,c
  1620   002340  0E26               	movlw	low STR_6
  1621   002342  6E20               	movwf	lcd_4bit_send_string_pos@str^0,c
  1622   002344  0E10               	movlw	high STR_6
  1623   002346  6E21               	movwf	(lcd_4bit_send_string_pos@str+1)^0,c
  1624   002348  EC01  F013         	call	_lcd_4bit_send_string_pos	;wreg free
  1625   00234C  0012               	return		;funcret
  1626   00234E                     __end_of_loading_screen:
  1627                           	callstack 0
  1628                           
  1629 ;; *************** function _lcd_4bit_send_char_data_pos *****************
  1630 ;; Defined at:
  1631 ;;		line 120 in file "ECU_Layer/Chr_LCD/ecu_chr_lcd.c"
  1632 ;; Parameters:    Size  Location     Type
  1633 ;;  lcd             2   27[COMRAM] PTR const struct .
  1634 ;;		 -> lcd_1(6), 
  1635 ;;  row             1   29[COMRAM] unsigned char 
  1636 ;;  column          1   30[COMRAM] unsigned char 
  1637 ;;  data            1   31[COMRAM] unsigned char 
  1638 ;; Auto vars:     Size  Location     Type
  1639 ;;  ret             1   32[COMRAM] unsigned char 
  1640 ;; Return value:  Size  Location     Type
  1641 ;;                  1    wreg      unsigned char 
  1642 ;; Registers used:
  1643 ;;		wreg, fsr2l, fsr2h, status,2, status,0, prodl, prodh, cstack
  1644 ;; Tracked objects:
  1645 ;;		On entry : 0/0
  1646 ;;		On exit  : 0/0
  1647 ;;		Unchanged: 0/0
  1648 ;; Data sizes:     COMRAM   BANK0   BANK1   BANK2   BANK3   BANK4   BANK5   BANK6   BANK7   BANK8   BANK9  BANK10  BANK1
      +1  BANK12  BANK13  BANK14  BANK15
  1649 ;;      Params:         5       0       0       0       0       0       0       0       0       0       0       0       
      +0       0       0       0       0
  1650 ;;      Locals:         1       0       0       0       0       0       0       0       0       0       0       0       
      +0       0       0       0       0
  1651 ;;      Temps:          0       0       0       0       0       0       0       0       0       0       0       0       
      +0       0       0       0       0
  1652 ;;      Totals:         6       0       0       0       0       0       0       0       0       0       0       0       
      +0       0       0       0       0
  1653 ;;Total ram usage:        6 bytes
  1654 ;; Hardware stack levels used: 1
  1655 ;; Hardware stack levels required when called: 6
  1656 ;; This function calls:
  1657 ;;		_lcd_4bit_send_char_data
  1658 ;;		_lcd_4bit_set_cursor
  1659 ;; This function is called by:
  1660 ;;		_loading_screen
  1661 ;;		_lcd_4bit_send_custom_char
  1662 ;; This function uses a non-reentrant model
  1663 ;;
  1664                           
  1665                           	psect	text2
  1666   002B4A                     __ptext2:
  1667                           	callstack 0
  1668   002B4A                     _lcd_4bit_send_char_data_pos:
  1669                           	callstack 23
  1670   002B4A                     
  1671                           ;ECU_Layer/Chr_LCD/ecu_chr_lcd.c: 122:     if(((void*)0) == lcd){
  1672   002B4A  501C               	movf	lcd_4bit_send_char_data_pos@lcd^0,w,c
  1673   002B4C  101D               	iorwf	(lcd_4bit_send_char_data_pos@lcd+1)^0,w,c
  1674   002B4E  A4D8               	btfss	status,2,c
  1675   002B50  EFAC  F015         	goto	u4781
  1676   002B54  EFAE  F015         	goto	u4780
  1677   002B58                     u4781:
  1678   002B58  EFB2  F015         	goto	l6316
  1679   002B5C                     u4780:
  1680   002B5C                     
  1681                           ;ECU_Layer/Chr_LCD/ecu_chr_lcd.c: 123:         ret = (Std_ReturnType)0x00;
  1682   002B5C  0E00               	movlw	0
  1683   002B5E  6E21               	movwf	lcd_4bit_send_char_data_pos@ret^0,c
  1684                           
  1685                           ;ECU_Layer/Chr_LCD/ecu_chr_lcd.c: 124:     }
  1686   002B60  EFC6  F015         	goto	l6318
  1687   002B64                     l6316:
  1688                           
  1689                           ;ECU_Layer/Chr_LCD/ecu_chr_lcd.c: 126:         ret = lcd_4bit_set_cursor(lcd, row, colum
      +                          n);
  1690   002B64  C01C  F015         	movff	lcd_4bit_send_char_data_pos@lcd,lcd_4bit_set_cursor@lcd
  1691   002B68  C01D  F016         	movff	lcd_4bit_send_char_data_pos@lcd+1,lcd_4bit_set_cursor@lcd+1
  1692   002B6C  C01E  F017         	movff	lcd_4bit_send_char_data_pos@row,lcd_4bit_set_cursor@row
  1693   002B70  C01F  F018         	movff	lcd_4bit_send_char_data_pos@column,lcd_4bit_set_cursor@coulmn
  1694   002B74  EC5B  F012         	call	_lcd_4bit_set_cursor	;wreg free
  1695   002B78  6E21               	movwf	lcd_4bit_send_char_data_pos@ret^0,c
  1696                           
  1697                           ;ECU_Layer/Chr_LCD/ecu_chr_lcd.c: 127:         ret = lcd_4bit_send_char_data(lcd, data);
  1698   002B7A  C01C  F011         	movff	lcd_4bit_send_char_data_pos@lcd,lcd_4bit_send_char_data@lcd
  1699   002B7E  C01D  F012         	movff	lcd_4bit_send_char_data_pos@lcd+1,lcd_4bit_send_char_data@lcd+1
  1700   002B82  C020  F013         	movff	lcd_4bit_send_char_data_pos@data,lcd_4bit_send_char_data@data
  1701   002B86  EC15  F014         	call	_lcd_4bit_send_char_data	;wreg free
  1702   002B8A  6E21               	movwf	lcd_4bit_send_char_data_pos@ret^0,c
  1703   002B8C                     l6318:
  1704                           
  1705                           ;ECU_Layer/Chr_LCD/ecu_chr_lcd.c: 129:     return ret;
  1706   002B8C  5021               	movf	lcd_4bit_send_char_data_pos@ret^0,w,c
  1707   002B8E  0012               	return		;funcret
  1708   002B90                     __end_of_lcd_4bit_send_char_data_pos:
  1709                           	callstack 0
  1710                           
  1711 ;; *************** function _lcd_write *****************
  1712 ;; Defined at:
  1713 ;;		line 82 in file "application.c"
  1714 ;; Parameters:    Size  Location     Type
  1715 ;;		None
  1716 ;; Auto vars:     Size  Location     Type
  1717 ;;  not_pressed     1   22[COMRAM] unsigned char 
  1718 ;;  ret             1    0        unsigned char 
  1719 ;; Return value:  Size  Location     Type
  1720 ;;                  1    wreg      void 
  1721 ;; Registers used:
  1722 ;;		wreg, fsr2l, fsr2h, status,2, status,0, prodl, prodh, cstack
  1723 ;; Tracked objects:
  1724 ;;		On entry : 0/0
  1725 ;;		On exit  : 0/0
  1726 ;;		Unchanged: 0/0
  1727 ;; Data sizes:     COMRAM   BANK0   BANK1   BANK2   BANK3   BANK4   BANK5   BANK6   BANK7   BANK8   BANK9  BANK10  BANK1
      +1  BANK12  BANK13  BANK14  BANK15
  1728 ;;      Params:         0       0       0       0       0       0       0       0       0       0       0       0       
      +0       0       0       0       0
  1729 ;;      Locals:         1       0       0       0       0       0       0       0       0       0       0       0       
      +0       0       0       0       0
  1730 ;;      Temps:          2       0       0       0       0       0       0       0       0       0       0       0       
      +0       0       0       0       0
  1731 ;;      Totals:         3       0       0       0       0       0       0       0       0       0       0       0       
      +0       0       0       0       0
  1732 ;;Total ram usage:        3 bytes
  1733 ;; Hardware stack levels used: 1
  1734 ;; Hardware stack levels required when called: 5
  1735 ;; This function calls:
  1736 ;;		_lcd_4bit_send_char_data
  1737 ;; This function is called by:
  1738 ;;		_main
  1739 ;; This function uses a non-reentrant model
  1740 ;;
  1741                           
  1742                           	psect	text3
  1743   002BD4                     __ptext3:
  1744                           	callstack 0
  1745   002BD4                     _lcd_write:
  1746                           	callstack 25
  1747   002BD4                     
  1748                           ;application.c: 84:     uint8 not_pressed = '\0';
  1749   002BD4  0E00               	movlw	0
  1750   002BD6  6E17               	movwf	lcd_write@not_pressed^0,c
  1751   002BD8                     
  1752                           ;application.c: 85:     if(not_pressed != keypad_value){
  1753   002BD8  5070               	movf	_keypad_value^0,w,c
  1754   002BDA  B4D8               	btfsc	status,2,c
  1755   002BDC  EFF2  F015         	goto	u5181
  1756   002BE0  EFF4  F015         	goto	u5180
  1757   002BE4                     u5181:
  1758   002BE4  EF09  F016         	goto	l1837
  1759   002BE8                     u5180:
  1760   002BE8  0EF3               	movlw	low _lcd_1
  1761   002BEA  6E11               	movwf	lcd_4bit_send_char_data@lcd^0,c
  1762   002BEC  0E00               	movlw	high _lcd_1
  1763   002BEE  6E12               	movwf	(lcd_4bit_send_char_data@lcd+1)^0,c
  1764   002BF0  C070  F013         	movff	_keypad_value,lcd_4bit_send_char_data@data
  1765   002BF4  EC15  F014         	call	_lcd_4bit_send_char_data	;wreg free
  1766   002BF8                     
  1767                           ;application.c: 87:         keypad_value = not_pressed;
  1768   002BF8  0E00               	movlw	0
  1769   002BFA  6E70               	movwf	_keypad_value^0,c
  1770   002BFC                     
  1771                           ;application.c: 88:         _delay((unsigned long)((500)*(8000000UL/4000.0)));
  1772   002BFC  0E06               	movlw	6
  1773   002BFE  6E16               	movwf	(??_lcd_write+1)^0,c
  1774   002C00  0E13               	movlw	19
  1775   002C02  6E15               	movwf	??_lcd_write^0,c
  1776   002C04  0EAE               	movlw	174
  1777   002C06                     u7267:
  1778   002C06  2EE8               	decfsz	wreg,f,c
  1779   002C08  D7FE               	bra	u7267
  1780   002C0A  2E15               	decfsz	??_lcd_write^0,f,c
  1781   002C0C  D7FC               	bra	u7267
  1782   002C0E  2E16               	decfsz	(??_lcd_write+1)^0,f,c
  1783   002C10  D7FA               	bra	u7267
  1784   002C12                     l1837:
  1785   002C12  0012               	return		;funcret
  1786   002C14                     __end_of_lcd_write:
  1787                           	callstack 0
  1788                           
  1789 ;; *************** function _lcd_4bit_clear *****************
  1790 ;; Defined at:
  1791 ;;		line 391 in file "ECU_Layer/Chr_LCD/ecu_chr_lcd.c"
  1792 ;; Parameters:    Size  Location     Type
  1793 ;;  lcd             2   20[COMRAM] PTR const struct .
  1794 ;;		 -> lcd_1(6), 
  1795 ;; Auto vars:     Size  Location     Type
  1796 ;;  ret             1   22[COMRAM] unsigned char 
  1797 ;; Return value:  Size  Location     Type
  1798 ;;                  1    wreg      unsigned char 
  1799 ;; Registers used:
  1800 ;;		wreg, fsr2l, fsr2h, status,2, status,0, prodl, prodh, cstack
  1801 ;; Tracked objects:
  1802 ;;		On entry : 0/0
  1803 ;;		On exit  : 0/0
  1804 ;;		Unchanged: 0/0
  1805 ;; Data sizes:     COMRAM   BANK0   BANK1   BANK2   BANK3   BANK4   BANK5   BANK6   BANK7   BANK8   BANK9  BANK10  BANK1
      +1  BANK12  BANK13  BANK14  BANK15
  1806 ;;      Params:         2       0       0       0       0       0       0       0       0       0       0       0       
      +0       0       0       0       0
  1807 ;;      Locals:         1       0       0       0       0       0       0       0       0       0       0       0       
      +0       0       0       0       0
  1808 ;;      Temps:          0       0       0       0       0       0       0       0       0       0       0       0       
      +0       0       0       0       0
  1809 ;;      Totals:         3       0       0       0       0       0       0       0       0       0       0       0       
      +0       0       0       0       0
  1810 ;;Total ram usage:        3 bytes
  1811 ;; Hardware stack levels used: 1
  1812 ;; Hardware stack levels required when called: 5
  1813 ;; This function calls:
  1814 ;;		_lcd_4bit_send_command
  1815 ;; This function is called by:
  1816 ;;		_main
  1817 ;; This function uses a non-reentrant model
  1818 ;;
  1819                           
  1820                           	psect	text4
  1821   002D18                     __ptext4:
  1822                           	callstack 0
  1823   002D18                     _lcd_4bit_clear:
  1824                           	callstack 25
  1825   002D18  C015  F011         	movff	lcd_4bit_clear@lcd,lcd_4bit_send_command@lcd
  1826   002D1C  C016  F012         	movff	lcd_4bit_clear@lcd+1,lcd_4bit_send_command@lcd+1
  1827   002D20  0E01               	movlw	1
  1828   002D22  6E13               	movwf	lcd_4bit_send_command@command^0,c
  1829   002D24  EC4E  F014         	call	_lcd_4bit_send_command	;wreg free
  1830   002D28                     
  1831                           ;ECU_Layer/Chr_LCD/ecu_chr_lcd.c: 394:     ret = lcd_4bit_send_command(lcd, 0x02);
  1832   002D28  C015  F011         	movff	lcd_4bit_clear@lcd,lcd_4bit_send_command@lcd
  1833   002D2C  C016  F012         	movff	lcd_4bit_clear@lcd+1,lcd_4bit_send_command@lcd+1
  1834   002D30  0E02               	movlw	2
  1835   002D32  6E13               	movwf	lcd_4bit_send_command@command^0,c
  1836   002D34  EC4E  F014         	call	_lcd_4bit_send_command	;wreg free
  1837   002D38  6E17               	movwf	lcd_4bit_clear@ret^0,c
  1838                           
  1839                           ;ECU_Layer/Chr_LCD/ecu_chr_lcd.c: 395:     return ret;
  1840   002D3A  5017               	movf	lcd_4bit_clear@ret^0,w,c
  1841   002D3C  0012               	return		;funcret
  1842   002D3E                     __end_of_lcd_4bit_clear:
  1843                           	callstack 0
  1844                           
  1845 ;; *************** function _keypad_get_value *****************
  1846 ;; Defined at:
  1847 ;;		line 49 in file "ECU_Layer/KeyPad/ecu_keypad.c"
  1848 ;; Parameters:    Size  Location     Type
  1849 ;;  _keypad_obj     2   12[COMRAM] PTR const struct .
  1850 ;;		 -> keypad1(8), 
  1851 ;;  value           2   14[COMRAM] PTR unsigned char 
  1852 ;;		 -> keypad_value(1), 
  1853 ;; Auto vars:     Size  Location     Type
  1854 ;;  l_columns_co    1   22[COMRAM] unsigned char 
  1855 ;;  l_rows_count    1   21[COMRAM] unsigned char 
  1856 ;;  l_counter       1   20[COMRAM] unsigned char 
  1857 ;;  column_logic    1   19[COMRAM] unsigned char 
  1858 ;;  ret             1   18[COMRAM] unsigned char 
  1859 ;; Return value:  Size  Location     Type
  1860 ;;                  1    wreg      unsigned char 
  1861 ;; Registers used:
  1862 ;;		wreg, fsr2l, fsr2h, status,2, status,0, tblptrl, tblptrh, tblptru, prodl, prodh, cstack
  1863 ;; Tracked objects:
  1864 ;;		On entry : 0/0
  1865 ;;		On exit  : 0/0
  1866 ;;		Unchanged: 0/0
  1867 ;; Data sizes:     COMRAM   BANK0   BANK1   BANK2   BANK3   BANK4   BANK5   BANK6   BANK7   BANK8   BANK9  BANK10  BANK1
      +1  BANK12  BANK13  BANK14  BANK15
  1868 ;;      Params:         4       0       0       0       0       0       0       0       0       0       0       0       
      +0       0       0       0       0
  1869 ;;      Locals:         5       0       0       0       0       0       0       0       0       0       0       0       
      +0       0       0       0       0
  1870 ;;      Temps:          2       0       0       0       0       0       0       0       0       0       0       0       
      +0       0       0       0       0
  1871 ;;      Totals:        11       0       0       0       0       0       0       0       0       0       0       0       
      +0       0       0       0       0
  1872 ;;Total ram usage:       11 bytes
  1873 ;; Hardware stack levels used: 1
  1874 ;; Hardware stack levels required when called: 3
  1875 ;; This function calls:
  1876 ;;		_gpio_pin_read_logic
  1877 ;;		_gpio_pin_write_logic
  1878 ;; This function is called by:
  1879 ;;		_main
  1880 ;; This function uses a non-reentrant model
  1881 ;;
  1882                           
  1883                           	psect	text5
  1884   001FE6                     __ptext5:
  1885                           	callstack 0
  1886   001FE6                     _keypad_get_value:
  1887                           	callstack 27
  1888   001FE6                     
  1889                           ;ECU_Layer/KeyPad/ecu_keypad.c: 51:     uint8 l_rows_counter = 0, l_columns_counter = 0,
      +                           l_counter = 0;
  1890   001FE6  0E00               	movlw	0
  1891   001FE8  6E16               	movwf	keypad_get_value@l_rows_counter^0,c
  1892   001FEA  0E00               	movlw	0
  1893   001FEC  6E17               	movwf	keypad_get_value@l_columns_counter^0,c
  1894   001FEE  0E00               	movlw	0
  1895   001FF0  6E15               	movwf	keypad_get_value@l_counter^0,c
  1896                           
  1897                           ;ECU_Layer/KeyPad/ecu_keypad.c: 52:     uint8 column_logic = 0;
  1898   001FF2  0E00               	movlw	0
  1899   001FF4  6E14               	movwf	keypad_get_value@column_logic^0,c
  1900   001FF6                     
  1901                           ;ECU_Layer/KeyPad/ecu_keypad.c: 53:     if((((void*)0) == _keypad_obj) || (((void*)0) ==
      +                           value)){
  1902   001FF6  500D               	movf	keypad_get_value@_keypad_obj^0,w,c
  1903   001FF8  100E               	iorwf	(keypad_get_value@_keypad_obj+1)^0,w,c
  1904   001FFA  B4D8               	btfsc	status,2,c
  1905   001FFC  EF02  F010         	goto	u4981
  1906   002000  EF04  F010         	goto	u4980
  1907   002004                     u4981:
  1908   002004  EF0D  F010         	goto	l6498
  1909   002008                     u4980:
  1910   002008  500F               	movf	keypad_get_value@value^0,w,c
  1911   00200A  1010               	iorwf	(keypad_get_value@value+1)^0,w,c
  1912   00200C  A4D8               	btfss	status,2,c
  1913   00200E  EF0B  F010         	goto	u4991
  1914   002012  EF0D  F010         	goto	u4990
  1915   002016                     u4991:
  1916   002016  EF11  F010         	goto	l6500
  1917   00201A                     u4990:
  1918   00201A                     l6498:
  1919                           
  1920                           ;ECU_Layer/KeyPad/ecu_keypad.c: 54:         ret = (Std_ReturnType)0x00;
  1921   00201A  0E00               	movlw	0
  1922   00201C  6E13               	movwf	keypad_get_value@ret^0,c
  1923                           
  1924                           ;ECU_Layer/KeyPad/ecu_keypad.c: 55:     }
  1925   00201E  EF81  F010         	goto	l6542
  1926   002022                     l6500:
  1927                           
  1928                           ;ECU_Layer/KeyPad/ecu_keypad.c: 57:         for(l_rows_counter=0; l_rows_counter<4; l_ro
      +                          ws_counter++){
  1929   002022  0E00               	movlw	0
  1930   002024  6E16               	movwf	keypad_get_value@l_rows_counter^0,c
  1931   002026                     l6506:
  1932                           
  1933                           ;ECU_Layer/KeyPad/ecu_keypad.c: 58:             for(l_counter=0; l_counter<4; l_counter+
      +                          +){
  1934   002026  0E00               	movlw	0
  1935   002028  6E15               	movwf	keypad_get_value@l_counter^0,c
  1936   00202A                     l6512:
  1937   00202A  5015               	movf	keypad_get_value@l_counter^0,w,c
  1938   00202C  240D               	addwf	keypad_get_value@_keypad_obj^0,w,c
  1939   00202E  6E03               	movwf	gpio_pin_write_logic@_pin_config^0,c
  1940   002030  0E00               	movlw	0
  1941   002032  200E               	addwfc	(keypad_get_value@_keypad_obj+1)^0,w,c
  1942   002034  6E04               	movwf	(gpio_pin_write_logic@_pin_config+1)^0,c
  1943   002036  0E00               	movlw	0
  1944   002038  6E05               	movwf	gpio_pin_write_logic@logic^0,c
  1945   00203A  ECC9  F00E         	call	_gpio_pin_write_logic	;wreg free
  1946   00203E                     
  1947                           ;ECU_Layer/KeyPad/ecu_keypad.c: 60:             }
  1948   00203E  2A15               	incf	keypad_get_value@l_counter^0,f,c
  1949   002040  0E03               	movlw	3
  1950   002042  6415               	cpfsgt	keypad_get_value@l_counter^0,c
  1951   002044  EF26  F010         	goto	u5001
  1952   002048  EF28  F010         	goto	u5000
  1953   00204C                     u5001:
  1954   00204C  EF15  F010         	goto	l6512
  1955   002050                     u5000:
  1956   002050                     
  1957                           ;ECU_Layer/KeyPad/ecu_keypad.c: 61:             gpio_pin_write_logic(&(_keypad_obj->keyp
      +                          ad_row_pins[l_rows_counter]), GPIO_HIGH);
  1958   002050  5016               	movf	keypad_get_value@l_rows_counter^0,w,c
  1959   002052  240D               	addwf	keypad_get_value@_keypad_obj^0,w,c
  1960   002054  6E03               	movwf	gpio_pin_write_logic@_pin_config^0,c
  1961   002056  0E00               	movlw	0
  1962   002058  200E               	addwfc	(keypad_get_value@_keypad_obj+1)^0,w,c
  1963   00205A  6E04               	movwf	(gpio_pin_write_logic@_pin_config+1)^0,c
  1964   00205C  0E01               	movlw	1
  1965   00205E  6E05               	movwf	gpio_pin_write_logic@logic^0,c
  1966   002060  ECC9  F00E         	call	_gpio_pin_write_logic	;wreg free
  1967   002064                     
  1968                           ;ECU_Layer/KeyPad/ecu_keypad.c: 62:             _delay((unsigned long)((10)*(8000000UL/4
      +                          000.0)));
  1969   002064  0E1A               	movlw	26
  1970   002066  6E11               	movwf	??_keypad_get_value^0,c
  1971   002068  0EF8               	movlw	248
  1972   00206A                     u7277:
  1973   00206A  2EE8               	decfsz	wreg,f,c
  1974   00206C  D7FE               	bra	u7277
  1975   00206E  2E11               	decfsz	??_keypad_get_value^0,f,c
  1976   002070  D7FC               	bra	u7277
  1977   002072  D000               	nop2	
  1978   002074                     
  1979                           ;ECU_Layer/KeyPad/ecu_keypad.c: 63:             for(l_columns_counter=0; l_columns_count
      +                          er<4; l_columns_counter++){
  1980   002074  0E00               	movlw	0
  1981   002076  6E17               	movwf	keypad_get_value@l_columns_counter^0,c
  1982   002078                     l6528:
  1983                           
  1984                           ;ECU_Layer/KeyPad/ecu_keypad.c: 64:                 ret = gpio_pin_read_logic(&(_keypad_
      +                          obj->keypad_columns_pins[l_columns_counter]), &column_logic);
  1985   002078  5017               	movf	keypad_get_value@l_columns_counter^0,w,c
  1986   00207A  240D               	addwf	keypad_get_value@_keypad_obj^0,w,c
  1987   00207C  6E11               	movwf	??_keypad_get_value^0,c
  1988   00207E  0E00               	movlw	0
  1989   002080  200E               	addwfc	(keypad_get_value@_keypad_obj+1)^0,w,c
  1990   002082  6E12               	movwf	(??_keypad_get_value+1)^0,c
  1991   002084  0E04               	movlw	4
  1992   002086  2411               	addwf	??_keypad_get_value^0,w,c
  1993   002088  6E03               	movwf	gpio_pin_read_logic@_pin_config^0,c
  1994   00208A  0E00               	movlw	0
  1995   00208C  2012               	addwfc	(??_keypad_get_value+1)^0,w,c
  1996   00208E  6E04               	movwf	(gpio_pin_read_logic@_pin_config+1)^0,c
  1997   002090  0E14               	movlw	low keypad_get_value@column_logic
  1998   002092  6E05               	movwf	gpio_pin_read_logic@logic^0,c
  1999   002094  0E00               	movlw	high keypad_get_value@column_logic
  2000   002096  6E06               	movwf	(gpio_pin_read_logic@logic+1)^0,c
  2001   002098  ECA7  F011         	call	_gpio_pin_read_logic	;wreg free
  2002   00209C  6E13               	movwf	keypad_get_value@ret^0,c
  2003   00209E                     
  2004                           ;ECU_Layer/KeyPad/ecu_keypad.c: 65:                 if(GPIO_HIGH == column_logic){
  2005   00209E  0414               	decf	keypad_get_value@column_logic^0,w,c
  2006   0020A0  A4D8               	btfss	status,2,c
  2007   0020A2  EF55  F010         	goto	u5011
  2008   0020A6  EF57  F010         	goto	u5010
  2009   0020AA                     u5011:
  2010   0020AA  EF6F  F010         	goto	l6534
  2011   0020AE                     u5010:
  2012   0020AE                     
  2013                           ;ECU_Layer/KeyPad/ecu_keypad.c: 66:                     *value = btn_values[l_rows_count
      +                          er][l_columns_counter];
  2014   0020AE  5016               	movf	keypad_get_value@l_rows_counter^0,w,c
  2015   0020B0  0D04               	mullw	4
  2016   0020B2  0E01               	movlw	low _btn_values
  2017   0020B4  24F3               	addwf	243,w,c
  2018   0020B6  6E11               	movwf	??_keypad_get_value^0,c
  2019   0020B8  0E10               	movlw	high _btn_values
  2020   0020BA  20F4               	addwfc	prodh,w,c
  2021   0020BC  6E12               	movwf	(??_keypad_get_value+1)^0,c
  2022   0020BE  5017               	movf	keypad_get_value@l_columns_counter^0,w,c
  2023   0020C0  2611               	addwf	??_keypad_get_value^0,f,c
  2024   0020C2  0E00               	movlw	0
  2025   0020C4  2212               	addwfc	(??_keypad_get_value+1)^0,f,c
  2026   0020C6  C011  FFF6         	movff	??_keypad_get_value,tblptrl
  2027   0020CA  C012  FFF7         	movff	??_keypad_get_value+1,tblptrh
  2028   0020CE                     	if	1	;Program memory is < 0x10000, tblptru is always zero
  2029   0020CE  6AF8               	clrf	tblptru,c
  2030   0020D0                     	endif
  2031   0020D0                     	if	0	;tblptru may be non-zero
  2032   0020D0                     	endif
  2033   0020D0  C00F  FFD9         	movff	keypad_get_value@value,fsr2l
  2034   0020D4  C010  FFDA         	movff	keypad_get_value@value+1,fsr2h
  2035   0020D8  0008               	tblrd		*
  2036   0020DA  CFF5 FFDF          	movff	tablat,indf2
  2037   0020DE                     l6534:
  2038                           
  2039                           ;ECU_Layer/KeyPad/ecu_keypad.c: 68:             }
  2040   0020DE  2A17               	incf	keypad_get_value@l_columns_counter^0,f,c
  2041   0020E0  0E03               	movlw	3
  2042   0020E2  6417               	cpfsgt	keypad_get_value@l_columns_counter^0,c
  2043   0020E4  EF76  F010         	goto	u5021
  2044   0020E8  EF78  F010         	goto	u5020
  2045   0020EC                     u5021:
  2046   0020EC  EF3C  F010         	goto	l6528
  2047   0020F0                     u5020:
  2048   0020F0                     
  2049                           ;ECU_Layer/KeyPad/ecu_keypad.c: 69:         }
  2050   0020F0  2A16               	incf	keypad_get_value@l_rows_counter^0,f,c
  2051   0020F2  0E03               	movlw	3
  2052   0020F4  6416               	cpfsgt	keypad_get_value@l_rows_counter^0,c
  2053   0020F6  EF7F  F010         	goto	u5031
  2054   0020FA  EF81  F010         	goto	u5030
  2055   0020FE                     u5031:
  2056   0020FE  EF13  F010         	goto	l6506
  2057   002102                     u5030:
  2058   002102                     l6542:
  2059                           
  2060                           ;ECU_Layer/KeyPad/ecu_keypad.c: 71:     return ret;
  2061   002102  5013               	movf	keypad_get_value@ret^0,w,c
  2062   002104  0012               	return		;funcret
  2063   002106                     __end_of_keypad_get_value:
  2064                           	callstack 0
  2065                           
  2066 ;; *************** function _gpio_pin_read_logic *****************
  2067 ;; Defined at:
  2068 ;;		line 104 in file "MCAL_Layer/GPIO/hal_gpio.c"
  2069 ;; Parameters:    Size  Location     Type
  2070 ;;  _pin_config     2    2[COMRAM] PTR const struct .
  2071 ;;		 -> keypad1.keypad_columns_pins(4), keypad1(8), 
  2072 ;;  logic           2    4[COMRAM] PTR enum E3462
  2073 ;;		 -> Ultrasonic_Calculate_Distance@EchoPinLogic(1), keypad_get_value@column_logic(1), button_read_state@Pin_Logic_Sta
      +tus(1), 
  2074 ;; Auto vars:     Size  Location     Type
  2075 ;;  ret             1   11[COMRAM] unsigned char 
  2076 ;; Return value:  Size  Location     Type
  2077 ;;                  1    wreg      unsigned char 
  2078 ;; Registers used:
  2079 ;;		wreg, fsr2l, fsr2h, status,2, status,0, prodl, prodh
  2080 ;; Tracked objects:
  2081 ;;		On entry : 0/0
  2082 ;;		On exit  : 0/0
  2083 ;;		Unchanged: 0/0
  2084 ;; Data sizes:     COMRAM   BANK0   BANK1   BANK2   BANK3   BANK4   BANK5   BANK6   BANK7   BANK8   BANK9  BANK10  BANK1
      +1  BANK12  BANK13  BANK14  BANK15
  2085 ;;      Params:         4       0       0       0       0       0       0       0       0       0       0       0       
      +0       0       0       0       0
  2086 ;;      Locals:         1       0       0       0       0       0       0       0       0       0       0       0       
      +0       0       0       0       0
  2087 ;;      Temps:          5       0       0       0       0       0       0       0       0       0       0       0       
      +0       0       0       0       0
  2088 ;;      Totals:        10       0       0       0       0       0       0       0       0       0       0       0       
      +0       0       0       0       0
  2089 ;;Total ram usage:       10 bytes
  2090 ;; Hardware stack levels used: 1
  2091 ;; Hardware stack levels required when called: 2
  2092 ;; This function calls:
  2093 ;;		Nothing
  2094 ;; This function is called by:
  2095 ;;		_keypad_get_value
  2096 ;;		_button_read_state
  2097 ;;		_Ultrasonic_Calculate_Distance
  2098 ;; This function uses a non-reentrant model
  2099 ;;
  2100                           
  2101                           	psect	text6
  2102   00234E                     __ptext6:
  2103                           	callstack 0
  2104   00234E                     _gpio_pin_read_logic:
  2105                           	callstack 27
  2106   00234E                     
  2107                           ;MCAL_Layer/GPIO/hal_gpio.c: 105:     Std_ReturnType ret = (Std_ReturnType)0x01;
  2108   00234E  0E01               	movlw	1
  2109   002350  6E0C               	movwf	gpio_pin_read_logic@ret^0,c
  2110   002352                     
  2111                           ;MCAL_Layer/GPIO/hal_gpio.c: 106:     if(((void*)0) == _pin_config || ((void*)0) == logi
      +                          c || _pin_config->pin > 8 -1){
  2112   002352  5003               	movf	gpio_pin_read_logic@_pin_config^0,w,c
  2113   002354  1004               	iorwf	(gpio_pin_read_logic@_pin_config+1)^0,w,c
  2114   002356  B4D8               	btfsc	status,2,c
  2115   002358  EFB0  F011         	goto	u4741
  2116   00235C  EFB2  F011         	goto	u4740
  2117   002360                     u4741:
  2118   002360  EFCC  F011         	goto	l6302
  2119   002364                     u4740:
  2120   002364  5005               	movf	gpio_pin_read_logic@logic^0,w,c
  2121   002366  1006               	iorwf	(gpio_pin_read_logic@logic+1)^0,w,c
  2122   002368  B4D8               	btfsc	status,2,c
  2123   00236A  EFB9  F011         	goto	u4751
  2124   00236E  EFBB  F011         	goto	u4750
  2125   002372                     u4751:
  2126   002372  EFCC  F011         	goto	l6302
  2127   002376                     u4750:
  2128   002376  C003  FFD9         	movff	gpio_pin_read_logic@_pin_config,fsr2l
  2129   00237A  C004  FFDA         	movff	gpio_pin_read_logic@_pin_config+1,fsr2h
  2130   00237E  30DF               	rrcf	223,w,c
  2131   002380  32E8               	rrcf	wreg,f,c
  2132   002382  32E8               	rrcf	wreg,f,c
  2133   002384  0B07               	andlw	7
  2134   002386  6E07               	movwf	??_gpio_pin_read_logic^0,c
  2135   002388  0E07               	movlw	7
  2136   00238A  6407               	cpfsgt	??_gpio_pin_read_logic^0,c
  2137   00238C  EFCA  F011         	goto	u4761
  2138   002390  EFCC  F011         	goto	u4760
  2139   002394                     u4761:
  2140   002394  EFD0  F011         	goto	l6304
  2141   002398                     u4760:
  2142   002398                     l6302:
  2143                           
  2144                           ;MCAL_Layer/GPIO/hal_gpio.c: 107:         ret = (Std_ReturnType)0x00;
  2145   002398  0E00               	movlw	0
  2146   00239A  6E0C               	movwf	gpio_pin_read_logic@ret^0,c
  2147                           
  2148                           ;MCAL_Layer/GPIO/hal_gpio.c: 108:     }
  2149   00239C  EF01  F012         	goto	l6306
  2150   0023A0                     l6304:
  2151                           
  2152                           ;MCAL_Layer/GPIO/hal_gpio.c: 110:         *logic = ((*port_registers[_pin_config->port] 
      +                          >> _pin_config->pin) & (uint8)1);
  2153   0023A0  C003  FFD9         	movff	gpio_pin_read_logic@_pin_config,fsr2l
  2154   0023A4  C004  FFDA         	movff	gpio_pin_read_logic@_pin_config+1,fsr2h
  2155   0023A8  30DF               	rrcf	223,w,c
  2156   0023AA  32E8               	rrcf	wreg,f,c
  2157   0023AC  32E8               	rrcf	wreg,f,c
  2158   0023AE  0B07               	andlw	7
  2159   0023B0  6E07               	movwf	??_gpio_pin_read_logic^0,c
  2160   0023B2  C003  FFD9         	movff	gpio_pin_read_logic@_pin_config,fsr2l
  2161   0023B6  C004  FFDA         	movff	gpio_pin_read_logic@_pin_config+1,fsr2h
  2162   0023BA  50DF               	movf	223,w,c
  2163   0023BC  0B07               	andlw	7
  2164   0023BE  6E08               	movwf	(??_gpio_pin_read_logic+1)^0,c
  2165   0023C0  5008               	movf	(??_gpio_pin_read_logic+1)^0,w,c
  2166   0023C2  0D02               	mullw	2
  2167   0023C4  0EC4               	movlw	low _port_registers
  2168   0023C6  24F3               	addwf	243,w,c
  2169   0023C8  6ED9               	movwf	fsr2l,c
  2170   0023CA  0E00               	movlw	high _port_registers
  2171   0023CC  20F4               	addwfc	prodh,w,c
  2172   0023CE  6EDA               	movwf	fsr2h,c
  2173   0023D0  CFDE F009          	movff	postinc2,??_gpio_pin_read_logic+2
  2174   0023D4  CFDD F00A          	movff	postdec2,??_gpio_pin_read_logic+3
  2175   0023D8  C009  FFD9         	movff	??_gpio_pin_read_logic+2,fsr2l
  2176   0023DC  C00A  FFDA         	movff	??_gpio_pin_read_logic+3,fsr2h
  2177   0023E0  50DF               	movf	indf2,w,c
  2178   0023E2  6E0B               	movwf	(??_gpio_pin_read_logic+4)^0,c
  2179   0023E4  2A07               	incf	??_gpio_pin_read_logic^0,f,c
  2180   0023E6  EFF7  F011         	goto	u4774
  2181   0023EA                     u4775:
  2182   0023EA  90D8               	bcf	status,0,c
  2183   0023EC  320B               	rrcf	(??_gpio_pin_read_logic+4)^0,f,c
  2184   0023EE                     u4774:
  2185   0023EE  2E07               	decfsz	??_gpio_pin_read_logic^0,f,c
  2186   0023F0  EFF5  F011         	goto	u4775
  2187   0023F4  500B               	movf	(??_gpio_pin_read_logic+4)^0,w,c
  2188   0023F6  0B01               	andlw	1
  2189   0023F8  C005  FFD9         	movff	gpio_pin_read_logic@logic,fsr2l
  2190   0023FC  C006  FFDA         	movff	gpio_pin_read_logic@logic+1,fsr2h
  2191   002400  6EDF               	movwf	indf2,c
  2192   002402                     l6306:
  2193                           
  2194                           ;MCAL_Layer/GPIO/hal_gpio.c: 112:     return ret;
  2195   002402  500C               	movf	gpio_pin_read_logic@ret^0,w,c
  2196   002404  0012               	return		;funcret
  2197   002406                     __end_of_gpio_pin_read_logic:
  2198                           	callstack 0
  2199                           
  2200 ;; *************** function _isdigit *****************
  2201 ;; Defined at:
  2202 ;;		line 5 in file "C:\Program Files\Microchip\xc8\v2.41\pic\sources\c99\common\isdigit.c"
  2203 ;; Parameters:    Size  Location     Type
  2204 ;;  c               2    2[COMRAM] int 
  2205 ;; Auto vars:     Size  Location     Type
  2206 ;;		None
  2207 ;; Return value:  Size  Location     Type
  2208 ;;                  2    2[COMRAM] int 
  2209 ;; Registers used:
  2210 ;;		wreg, status,2, status,0
  2211 ;; Tracked objects:
  2212 ;;		On entry : 0/0
  2213 ;;		On exit  : 0/0
  2214 ;;		Unchanged: 0/0
  2215 ;; Data sizes:     COMRAM   BANK0   BANK1   BANK2   BANK3   BANK4   BANK5   BANK6   BANK7   BANK8   BANK9  BANK10  BANK1
      +1  BANK12  BANK13  BANK14  BANK15
  2216 ;;      Params:         2       0       0       0       0       0       0       0       0       0       0       0       
      +0       0       0       0       0
  2217 ;;      Locals:         0       0       0       0       0       0       0       0       0       0       0       0       
      +0       0       0       0       0
  2218 ;;      Temps:          2       0       0       0       0       0       0       0       0       0       0       0       
      +0       0       0       0       0
  2219 ;;      Totals:         4       0       0       0       0       0       0       0       0       0       0       0       
      +0       0       0       0       0
  2220 ;;Total ram usage:        4 bytes
  2221 ;; Hardware stack levels used: 1
  2222 ;; Hardware stack levels required when called: 2
  2223 ;; This function calls:
  2224 ;;		Nothing
  2225 ;; This function is called by:
  2226 ;;		_main
  2227 ;; This function uses a non-reentrant model
  2228 ;;
  2229                           
  2230                           	psect	text7
  2231   002CC0                     __ptext7:
  2232                           	callstack 0
  2233   002CC0                     _isdigit:
  2234                           	callstack 28
  2235   002CC0  0ED0               	movlw	208
  2236   002CC2  2403               	addwf	isdigit@c^0,w,c
  2237   002CC4  6E05               	movwf	??_isdigit^0,c
  2238   002CC6  0EFF               	movlw	255
  2239   002CC8  2004               	addwfc	(isdigit@c+1)^0,w,c
  2240   002CCA  6E06               	movwf	(??_isdigit+1)^0,c
  2241   002CCC  5006               	movf	(??_isdigit+1)^0,w,c
  2242   002CCE  E10A               	bnz	u5160
  2243   002CD0  0E0A               	movlw	10
  2244   002CD2  5C05               	subwf	??_isdigit^0,w,c
  2245   002CD4  A0D8               	btfss	status,0,c
  2246   002CD6  EF6F  F016         	goto	u5161
  2247   002CDA  EF72  F016         	goto	u5160
  2248   002CDE                     u5161:
  2249   002CDE  0E01               	movlw	1
  2250   002CE0  EF73  F016         	goto	u5170
  2251   002CE4                     u5160:
  2252   002CE4  0E00               	movlw	0
  2253   002CE6                     u5170:
  2254   002CE6  6E03               	movwf	?_isdigit^0,c
  2255   002CE8  6A04               	clrf	(?_isdigit+1)^0,c
  2256   002CEA  0012               	return		;funcret
  2257   002CEC                     __end_of_isdigit:
  2258                           	callstack 0
  2259                           
  2260 ;; *************** function _calculate *****************
  2261 ;; Defined at:
  2262 ;;		line 92 in file "application.c"
  2263 ;; Parameters:    Size  Location     Type
  2264 ;;		None
  2265 ;; Auto vars:     Size  Location     Type
  2266 ;;  ret             1    0        unsigned char 
  2267 ;; Return value:  Size  Location     Type
  2268 ;;                  1    wreg      void 
  2269 ;; Registers used:
  2270 ;;		wreg, fsr0l, fsr0h, fsr1l, fsr1h, fsr2l, fsr2h, status,2, status,0, tblptrl, tblptrh, tblptru, prodl, prodh, cstack
  2271 ;; Tracked objects:
  2272 ;;		On entry : 0/0
  2273 ;;		On exit  : 0/0
  2274 ;;		Unchanged: 0/0
  2275 ;; Data sizes:     COMRAM   BANK0   BANK1   BANK2   BANK3   BANK4   BANK5   BANK6   BANK7   BANK8   BANK9  BANK10  BANK1
      +1  BANK12  BANK13  BANK14  BANK15
  2276 ;;      Params:         0       0       0       0       0       0       0       0       0       0       0       0       
      +0       0       0       0       0
  2277 ;;      Locals:         0       0       0       0       0       0       0       0       0       0       0       0       
      +0       0       0       0       0
  2278 ;;      Temps:          2       0       0       0       0       0       0       0       0       0       0       0       
      +0       0       0       0       0
  2279 ;;      Totals:         2       0       0       0       0       0       0       0       0       0       0       0       
      +0       0       0       0       0
  2280 ;;Total ram usage:        2 bytes
  2281 ;; Hardware stack levels used: 1
  2282 ;; Hardware stack levels required when called: 11
  2283 ;; This function calls:
  2284 ;;		___lldiv
  2285 ;;		___lmul
  2286 ;;		_convert_uint32_to_string
  2287 ;;		_lcd_4bit_send_string_pos
  2288 ;; This function is called by:
  2289 ;;		_main
  2290 ;; This function uses a non-reentrant model
  2291 ;;
  2292                           
  2293                           	psect	text8
  2294   0019C8                     __ptext8:
  2295                           	callstack 0
  2296   0019C8                     _calculate:
  2297                           	callstack 19
  2298   0019C8                     
  2299                           ;application.c: 94:     switch(operator){
  2300   0019C8  EF57  F00D         	goto	l6822
  2301   0019CC                     l6806:
  2302   0019CC  5060               	movf	_num2^0,w,c
  2303   0019CE  2464               	addwf	_num1^0,w,c
  2304   0019D0  0100               	movlb	0	; () banked
  2305   0019D2  6F86               	movwf	_result& (0+255),b
  2306   0019D4  5061               	movf	(_num2+1)^0,w,c
  2307   0019D6  2065               	addwfc	(_num1+1)^0,w,c
  2308   0019D8  6F87               	movwf	(_result+1)& (0+255),b
  2309   0019DA  5062               	movf	(_num2+2)^0,w,c
  2310   0019DC  2066               	addwfc	(_num1+2)^0,w,c
  2311   0019DE  6F88               	movwf	(_result+2)& (0+255),b
  2312   0019E0  5063               	movf	(_num2+3)^0,w,c
  2313   0019E2  2067               	addwfc	(_num1+3)^0,w,c
  2314   0019E4  6F89               	movwf	(_result+3)& (0+255),b
  2315   0019E6  EF74  F00D         	goto	l6824
  2316   0019EA                     l6808:
  2317   0019EA  5060               	movf	_num2^0,w,c
  2318   0019EC  5C64               	subwf	_num1^0,w,c
  2319   0019EE  0100               	movlb	0	; () banked
  2320   0019F0  6F86               	movwf	_result& (0+255),b
  2321   0019F2  5061               	movf	(_num2+1)^0,w,c
  2322   0019F4  5865               	subwfb	(_num1+1)^0,w,c
  2323   0019F6  6F87               	movwf	(_result+1)& (0+255),b
  2324   0019F8  5062               	movf	(_num2+2)^0,w,c
  2325   0019FA  5866               	subwfb	(_num1+2)^0,w,c
  2326   0019FC  6F88               	movwf	(_result+2)& (0+255),b
  2327   0019FE  5063               	movf	(_num2+3)^0,w,c
  2328   001A00  5867               	subwfb	(_num1+3)^0,w,c
  2329   001A02  6F89               	movwf	(_result+3)& (0+255),b
  2330   001A04  EF74  F00D         	goto	l6824
  2331   001A08                     l6810:
  2332   001A08  C064  F003         	movff	_num1,___lmul@multiplier
  2333   001A0C  C065  F004         	movff	_num1+1,___lmul@multiplier+1
  2334   001A10  C066  F005         	movff	_num1+2,___lmul@multiplier+2
  2335   001A14  C067  F006         	movff	_num1+3,___lmul@multiplier+3
  2336   001A18  C060  F007         	movff	_num2,___lmul@multiplicand
  2337   001A1C  C061  F008         	movff	_num2+1,___lmul@multiplicand+1
  2338   001A20  C062  F009         	movff	_num2+2,___lmul@multiplicand+2
  2339   001A24  C063  F00A         	movff	_num2+3,___lmul@multiplicand+3
  2340   001A28  ECBD  F014         	call	___lmul	;wreg free
  2341   001A2C  C003  F086         	movff	?___lmul,_result
  2342   001A30  C004  F087         	movff	?___lmul+1,_result+1
  2343   001A34  C005  F088         	movff	?___lmul+2,_result+2
  2344   001A38  C006  F089         	movff	?___lmul+3,_result+3
  2345   001A3C  EF74  F00D         	goto	l6824
  2346   001A40                     l6812:
  2347                           
  2348                           ;application.c: 99:             if(0 == num2){
  2349   001A40  5060               	movf	_num2^0,w,c
  2350   001A42  1061               	iorwf	(_num2+1)^0,w,c
  2351   001A44  1062               	iorwf	(_num2+2)^0,w,c
  2352   001A46  1063               	iorwf	(_num2+3)^0,w,c
  2353   001A48  A4D8               	btfss	status,2,c
  2354   001A4A  EF29  F00D         	goto	u5191
  2355   001A4E  EF2B  F00D         	goto	u5190
  2356   001A52                     u5191:
  2357   001A52  EF3B  F00D         	goto	l6820
  2358   001A56                     u5190:
  2359   001A56  0EF3               	movlw	low _lcd_1
  2360   001A58  6E1C               	movwf	lcd_4bit_send_string_pos@lcd^0,c
  2361   001A5A  0E00               	movlw	high _lcd_1
  2362   001A5C  6E1D               	movwf	(lcd_4bit_send_string_pos@lcd+1)^0,c
  2363   001A5E  0E04               	movlw	4
  2364   001A60  6E1E               	movwf	lcd_4bit_send_string_pos@row^0,c
  2365   001A62  0E01               	movlw	1
  2366   001A64  6E1F               	movwf	lcd_4bit_send_string_pos@column^0,c
  2367   001A66  0E11               	movlw	low STR_8
  2368   001A68  6E20               	movwf	lcd_4bit_send_string_pos@str^0,c
  2369   001A6A  0E10               	movlw	high STR_8
  2370   001A6C  6E21               	movwf	(lcd_4bit_send_string_pos@str+1)^0,c
  2371   001A6E  EC01  F013         	call	_lcd_4bit_send_string_pos	;wreg free
  2372   001A72  EF90  F00D         	goto	l1847
  2373   001A76                     l6820:
  2374                           
  2375                           ;application.c: 103:             result = num1 / num2;
  2376   001A76  C064  F003         	movff	_num1,___lldiv@dividend
  2377   001A7A  C065  F004         	movff	_num1+1,___lldiv@dividend+1
  2378   001A7E  C066  F005         	movff	_num1+2,___lldiv@dividend+2
  2379   001A82  C067  F006         	movff	_num1+3,___lldiv@dividend+3
  2380   001A86  C060  F007         	movff	_num2,___lldiv@divisor
  2381   001A8A  C061  F008         	movff	_num2+1,___lldiv@divisor+1
  2382   001A8E  C062  F009         	movff	_num2+2,___lldiv@divisor+2
  2383   001A92  C063  F00A         	movff	_num2+3,___lldiv@divisor+3
  2384   001A96  ECAF  F012         	call	___lldiv	;wreg free
  2385   001A9A  C003  F086         	movff	?___lldiv,_result
  2386   001A9E  C004  F087         	movff	?___lldiv+1,_result+1
  2387   001AA2  C005  F088         	movff	?___lldiv+2,_result+2
  2388   001AA6  C006  F089         	movff	?___lldiv+3,_result+3
  2389   001AAA  EF74  F00D         	goto	l6824
  2390   001AAE                     l6822:
  2391   001AAE  506E               	movf	_operator^0,w,c
  2392   001AB0  6E5E               	movwf	??_calculate^0,c
  2393   001AB2  6A5F               	clrf	(??_calculate+1)^0,c
  2394                           
  2395                           ; Switch on 2 bytes has been partitioned into a top level switch of size 1, and 1 sub-sw
      +                          itches
  2396                           ; Switch size 1, requested type "simple"
  2397                           ; Number of cases is 1, Range of values is 0 to 0
  2398                           ; switch strategies available:
  2399                           ; Name         Instructions Cycles
  2400                           ; simple_byte            4     3 (average)
  2401                           ;	Chosen strategy is simple_byte
  2402   001AB4  505F               	movf	(??_calculate+1)^0,w,c
  2403   001AB6  0A00               	xorlw	0	; case 0
  2404   001AB8  B4D8               	btfsc	status,2,c
  2405   001ABA  EF61  F00D         	goto	l8336
  2406   001ABE  EF74  F00D         	goto	l6824
  2407   001AC2                     l8336:
  2408                           
  2409                           ; Switch size 1, requested type "simple"
  2410                           ; Number of cases is 4, Range of values is 42 to 47
  2411                           ; switch strategies available:
  2412                           ; Name         Instructions Cycles
  2413                           ; simple_byte           13     7 (average)
  2414                           ;	Chosen strategy is simple_byte
  2415   001AC2  505E               	movf	??_calculate^0,w,c
  2416   001AC4  0A2A               	xorlw	42	; case 42
  2417   001AC6  B4D8               	btfsc	status,2,c
  2418   001AC8  EF04  F00D         	goto	l6810
  2419   001ACC  0A01               	xorlw	1	; case 43
  2420   001ACE  B4D8               	btfsc	status,2,c
  2421   001AD0  EFE6  F00C         	goto	l6806
  2422   001AD4  0A06               	xorlw	6	; case 45
  2423   001AD6  B4D8               	btfsc	status,2,c
  2424   001AD8  EFF5  F00C         	goto	l6808
  2425   001ADC  0A02               	xorlw	2	; case 47
  2426   001ADE  B4D8               	btfsc	status,2,c
  2427   001AE0  EF20  F00D         	goto	l6812
  2428   001AE4  EF74  F00D         	goto	l6824
  2429   001AE8                     l6824:
  2430   001AE8  C086  F057         	movff	_result,convert_uint32_to_string@value
  2431   001AEC  C087  F058         	movff	_result+1,convert_uint32_to_string@value+1
  2432   001AF0  C088  F059         	movff	_result+2,convert_uint32_to_string@value+2
  2433   001AF4  C089  F05A         	movff	_result+3,convert_uint32_to_string@value+3
  2434   001AF8  0E20               	movlw	low _result_txt
  2435   001AFA  6E5B               	movwf	convert_uint32_to_string@str^0,c
  2436   001AFC  0E01               	movlw	high _result_txt
  2437   001AFE  6E5C               	movwf	(convert_uint32_to_string@str+1)^0,c
  2438   001B00  EC26  F015         	call	_convert_uint32_to_string	;wreg free
  2439   001B04  0EF3               	movlw	low _lcd_1
  2440   001B06  6E1C               	movwf	lcd_4bit_send_string_pos@lcd^0,c
  2441   001B08  0E00               	movlw	high _lcd_1
  2442   001B0A  6E1D               	movwf	(lcd_4bit_send_string_pos@lcd+1)^0,c
  2443   001B0C  0E04               	movlw	4
  2444   001B0E  6E1E               	movwf	lcd_4bit_send_string_pos@row^0,c
  2445   001B10  0E0F               	movlw	15
  2446   001B12  6E1F               	movwf	lcd_4bit_send_string_pos@column^0,c
  2447   001B14  0E20               	movlw	low _result_txt
  2448   001B16  6E20               	movwf	lcd_4bit_send_string_pos@str^0,c
  2449   001B18  0E01               	movlw	high _result_txt
  2450   001B1A  6E21               	movwf	(lcd_4bit_send_string_pos@str+1)^0,c
  2451   001B1C  EC01  F013         	call	_lcd_4bit_send_string_pos	;wreg free
  2452   001B20                     l1847:
  2453   001B20  0012               	return		;funcret
  2454   001B22                     __end_of_calculate:
  2455                           	callstack 0
  2456                           
  2457 ;; *************** function _lcd_4bit_send_string_pos *****************
  2458 ;; Defined at:
  2459 ;;		line 163 in file "ECU_Layer/Chr_LCD/ecu_chr_lcd.c"
  2460 ;; Parameters:    Size  Location     Type
  2461 ;;  lcd             2   27[COMRAM] PTR const struct .
  2462 ;;		 -> lcd_1(6), 
  2463 ;;  row             1   29[COMRAM] unsigned char 
  2464 ;;  column          1   30[COMRAM] unsigned char 
  2465 ;;  str             2   31[COMRAM] PTR unsigned char 
  2466 ;;		 -> result_txt(11), STR_8(21), STR_7(10), STR_6(10), 
  2467 ;;		 -> STR_5(8), STR_4(8), 
  2468 ;; Auto vars:     Size  Location     Type
  2469 ;;  ret             1   33[COMRAM] unsigned char 
  2470 ;; Return value:  Size  Location     Type
  2471 ;;                  1    wreg      unsigned char 
  2472 ;; Registers used:
  2473 ;;		wreg, fsr0l, fsr0h, fsr2l, fsr2h, status,2, status,0, tblptrl, tblptrh, tblptru, prodl, prodh, cstack
  2474 ;; Tracked objects:
  2475 ;;		On entry : 0/0
  2476 ;;		On exit  : 0/0
  2477 ;;		Unchanged: 0/0
  2478 ;; Data sizes:     COMRAM   BANK0   BANK1   BANK2   BANK3   BANK4   BANK5   BANK6   BANK7   BANK8   BANK9  BANK10  BANK1
      +1  BANK12  BANK13  BANK14  BANK15
  2479 ;;      Params:         6       0       0       0       0       0       0       0       0       0       0       0       
      +0       0       0       0       0
  2480 ;;      Locals:         1       0       0       0       0       0       0       0       0       0       0       0       
      +0       0       0       0       0
  2481 ;;      Temps:          0       0       0       0       0       0       0       0       0       0       0       0       
      +0       0       0       0       0
  2482 ;;      Totals:         7       0       0       0       0       0       0       0       0       0       0       0       
      +0       0       0       0       0
  2483 ;;Total ram usage:        7 bytes
  2484 ;; Hardware stack levels used: 1
  2485 ;; Hardware stack levels required when called: 6
  2486 ;; This function calls:
  2487 ;;		_lcd_4bit_send_char_data
  2488 ;;		_lcd_4bit_set_cursor
  2489 ;; This function is called by:
  2490 ;;		_main
  2491 ;;		_loading_screen
  2492 ;;		_calculate
  2493 ;; This function uses a non-reentrant model
  2494 ;;
  2495                           
  2496                           	psect	text9
  2497   002602                     __ptext9:
  2498                           	callstack 0
  2499   002602                     _lcd_4bit_send_string_pos:
  2500                           	callstack 23
  2501   002602                     
  2502                           ;ECU_Layer/Chr_LCD/ecu_chr_lcd.c: 165:     if(((void*)0) == lcd){
  2503   002602  501C               	movf	lcd_4bit_send_string_pos@lcd^0,w,c
  2504   002604  101D               	iorwf	(lcd_4bit_send_string_pos@lcd+1)^0,w,c
  2505   002606  A4D8               	btfss	status,2,c
  2506   002608  EF08  F013         	goto	u4791
  2507   00260C  EF0A  F013         	goto	u4790
  2508   002610                     u4791:
  2509   002610  EF0E  F013         	goto	l6328
  2510   002614                     u4790:
  2511   002614                     
  2512                           ;ECU_Layer/Chr_LCD/ecu_chr_lcd.c: 166:         ret = (Std_ReturnType)0x00;
  2513   002614  0E00               	movlw	0
  2514   002616  6E22               	movwf	lcd_4bit_send_string_pos@ret^0,c
  2515                           
  2516                           ;ECU_Layer/Chr_LCD/ecu_chr_lcd.c: 167:     }
  2517   002618  EF4F  F013         	goto	l6336
  2518   00261C                     l6328:
  2519                           
  2520                           ;ECU_Layer/Chr_LCD/ecu_chr_lcd.c: 169:         ret = lcd_4bit_set_cursor(lcd, row, colum
      +                          n);
  2521   00261C  C01C  F015         	movff	lcd_4bit_send_string_pos@lcd,lcd_4bit_set_cursor@lcd
  2522   002620  C01D  F016         	movff	lcd_4bit_send_string_pos@lcd+1,lcd_4bit_set_cursor@lcd+1
  2523   002624  C01E  F017         	movff	lcd_4bit_send_string_pos@row,lcd_4bit_set_cursor@row
  2524   002628  C01F  F018         	movff	lcd_4bit_send_string_pos@column,lcd_4bit_set_cursor@coulmn
  2525   00262C  EC5B  F012         	call	_lcd_4bit_set_cursor	;wreg free
  2526   002630  6E22               	movwf	lcd_4bit_send_string_pos@ret^0,c
  2527                           
  2528                           ;ECU_Layer/Chr_LCD/ecu_chr_lcd.c: 170:         while(*str){
  2529   002632  EF36  F013         	goto	l6334
  2530   002636                     l6330:
  2531                           
  2532                           ;ECU_Layer/Chr_LCD/ecu_chr_lcd.c: 171:             ret = lcd_4bit_send_char_data(lcd, *s
      +                          tr++);
  2533   002636  C01C  F011         	movff	lcd_4bit_send_string_pos@lcd,lcd_4bit_send_char_data@lcd
  2534   00263A  C01D  F012         	movff	lcd_4bit_send_string_pos@lcd+1,lcd_4bit_send_char_data@lcd+1
  2535   00263E  C020  FFF6         	movff	lcd_4bit_send_string_pos@str,tblptrl
  2536   002642  C021  FFF7         	movff	lcd_4bit_send_string_pos@str+1,tblptrh
  2537   002646  0E00               	movlw	low (__smallconst shr (0+16))
  2538   002648  6EF8               	movwf	tblptru,c
  2539   00264A  0E0F               	movlw	(high __ramtop+-1)
  2540   00264C  64F7               	cpfsgt	tblptrh,c
  2541   00264E  D003               	bra	u4807
  2542   002650  0008               	tblrd		*
  2543   002652  50F5               	movf	tablat,w,c
  2544   002654  D005               	bra	u4800
  2545   002656                     u4807:
  2546   002656  CFF6 FFE9          	movff	tblptrl,fsr0l
  2547   00265A  CFF7 FFEA          	movff	tblptrh,fsr0h
  2548   00265E  50EF               	movf	indf0,w,c
  2549   002660                     u4800:
  2550   002660  6E13               	movwf	lcd_4bit_send_char_data@data^0,c
  2551   002662  EC15  F014         	call	_lcd_4bit_send_char_data	;wreg free
  2552   002666  6E22               	movwf	lcd_4bit_send_string_pos@ret^0,c
  2553   002668  4A20               	infsnz	lcd_4bit_send_string_pos@str^0,f,c
  2554   00266A  2A21               	incf	(lcd_4bit_send_string_pos@str+1)^0,f,c
  2555   00266C                     l6334:
  2556                           
  2557                           ;ECU_Layer/Chr_LCD/ecu_chr_lcd.c: 170:         while(*str){
  2558   00266C  C020  FFF6         	movff	lcd_4bit_send_string_pos@str,tblptrl
  2559   002670  C021  FFF7         	movff	lcd_4bit_send_string_pos@str+1,tblptrh
  2560   002674  0E00               	movlw	low (__smallconst shr (0+16))
  2561   002676  6EF8               	movwf	tblptru,c
  2562   002678  0E0F               	movlw	(high __ramtop+-1)
  2563   00267A  64F7               	cpfsgt	tblptrh,c
  2564   00267C  D003               	bra	u4817
  2565   00267E  0008               	tblrd		*
  2566   002680  50F5               	movf	tablat,w,c
  2567   002682  D005               	bra	u4810
  2568   002684                     u4817:
  2569   002684  CFF6 FFE9          	movff	tblptrl,fsr0l
  2570   002688  CFF7 FFEA          	movff	tblptrh,fsr0h
  2571   00268C  50EF               	movf	indf0,w,c
  2572   00268E                     u4810:
  2573   00268E  0900               	iorlw	0
  2574   002690  A4D8               	btfss	status,2,c
  2575   002692  EF4D  F013         	goto	u4821
  2576   002696  EF4F  F013         	goto	u4820
  2577   00269A                     u4821:
  2578   00269A  EF1B  F013         	goto	l6330
  2579   00269E                     u4820:
  2580   00269E                     l6336:
  2581                           
  2582                           ;ECU_Layer/Chr_LCD/ecu_chr_lcd.c: 174:     return ret;
  2583   00269E  5022               	movf	lcd_4bit_send_string_pos@ret^0,w,c
  2584   0026A0  0012               	return		;funcret
  2585   0026A2                     __end_of_lcd_4bit_send_string_pos:
  2586                           	callstack 0
  2587                           
  2588 ;; *************** function _lcd_4bit_set_cursor *****************
  2589 ;; Defined at:
  2590 ;;		line 549 in file "ECU_Layer/Chr_LCD/ecu_chr_lcd.c"
  2591 ;; Parameters:    Size  Location     Type
  2592 ;;  lcd             2   20[COMRAM] PTR const struct .
  2593 ;;		 -> lcd_1(6), 
  2594 ;;  row             1   22[COMRAM] unsigned char 
  2595 ;;  coulmn          1   23[COMRAM] unsigned char 
  2596 ;; Auto vars:     Size  Location     Type
  2597 ;;  ret             1   26[COMRAM] unsigned char 
  2598 ;; Return value:  Size  Location     Type
  2599 ;;                  1    wreg      unsigned char 
  2600 ;; Registers used:
  2601 ;;		wreg, fsr2l, fsr2h, status,2, status,0, prodl, prodh, cstack
  2602 ;; Tracked objects:
  2603 ;;		On entry : 0/0
  2604 ;;		On exit  : 0/0
  2605 ;;		Unchanged: 0/0
  2606 ;; Data sizes:     COMRAM   BANK0   BANK1   BANK2   BANK3   BANK4   BANK5   BANK6   BANK7   BANK8   BANK9  BANK10  BANK1
      +1  BANK12  BANK13  BANK14  BANK15
  2607 ;;      Params:         4       0       0       0       0       0       0       0       0       0       0       0       
      +0       0       0       0       0
  2608 ;;      Locals:         1       0       0       0       0       0       0       0       0       0       0       0       
      +0       0       0       0       0
  2609 ;;      Temps:          2       0       0       0       0       0       0       0       0       0       0       0       
      +0       0       0       0       0
  2610 ;;      Totals:         7       0       0       0       0       0       0       0       0       0       0       0       
      +0       0       0       0       0
  2611 ;;Total ram usage:        7 bytes
  2612 ;; Hardware stack levels used: 1
  2613 ;; Hardware stack levels required when called: 5
  2614 ;; This function calls:
  2615 ;;		_lcd_4bit_send_command
  2616 ;; This function is called by:
  2617 ;;		_lcd_4bit_send_char_data_pos
  2618 ;;		_lcd_4bit_send_string_pos
  2619 ;; This function uses a non-reentrant model
  2620 ;;
  2621                           
  2622                           	psect	text10
  2623   0024B6                     __ptext10:
  2624                           	callstack 0
  2625   0024B6                     _lcd_4bit_set_cursor:
  2626                           	callstack 23
  2627   0024B6                     
  2628                           ;ECU_Layer/Chr_LCD/ecu_chr_lcd.c: 550:     Std_ReturnType ret = (Std_ReturnType)0x01;
  2629   0024B6  0E01               	movlw	1
  2630   0024B8  6E1B               	movwf	lcd_4bit_set_cursor@ret^0,c
  2631   0024BA                     
  2632                           ;ECU_Layer/Chr_LCD/ecu_chr_lcd.c: 551:     coulmn--;
  2633   0024BA  0618               	decf	lcd_4bit_set_cursor@coulmn^0,f,c
  2634                           
  2635                           ;ECU_Layer/Chr_LCD/ecu_chr_lcd.c: 552:     switch(row){
  2636   0024BC  EF90  F012         	goto	l6206
  2637   0024C0                     l6198:
  2638   0024C0  C015  F011         	movff	lcd_4bit_set_cursor@lcd,lcd_4bit_send_command@lcd
  2639   0024C4  C016  F012         	movff	lcd_4bit_set_cursor@lcd+1,lcd_4bit_send_command@lcd+1
  2640   0024C8  5018               	movf	lcd_4bit_set_cursor@coulmn^0,w,c
  2641   0024CA  0F80               	addlw	128
  2642   0024CC  6E13               	movwf	lcd_4bit_send_command@command^0,c
  2643   0024CE  EC4E  F014         	call	_lcd_4bit_send_command	;wreg free
  2644   0024D2  6E1B               	movwf	lcd_4bit_set_cursor@ret^0,c
  2645   0024D4  EFAD  F012         	goto	l6208
  2646   0024D8                     l6200:
  2647   0024D8  C015  F011         	movff	lcd_4bit_set_cursor@lcd,lcd_4bit_send_command@lcd
  2648   0024DC  C016  F012         	movff	lcd_4bit_set_cursor@lcd+1,lcd_4bit_send_command@lcd+1
  2649   0024E0  5018               	movf	lcd_4bit_set_cursor@coulmn^0,w,c
  2650   0024E2  0FC0               	addlw	192
  2651   0024E4  6E13               	movwf	lcd_4bit_send_command@command^0,c
  2652   0024E6  EC4E  F014         	call	_lcd_4bit_send_command	;wreg free
  2653   0024EA  6E1B               	movwf	lcd_4bit_set_cursor@ret^0,c
  2654   0024EC  EFAD  F012         	goto	l6208
  2655   0024F0                     l6202:
  2656   0024F0  C015  F011         	movff	lcd_4bit_set_cursor@lcd,lcd_4bit_send_command@lcd
  2657   0024F4  C016  F012         	movff	lcd_4bit_set_cursor@lcd+1,lcd_4bit_send_command@lcd+1
  2658   0024F8  5018               	movf	lcd_4bit_set_cursor@coulmn^0,w,c
  2659   0024FA  0F94               	addlw	148
  2660   0024FC  6E13               	movwf	lcd_4bit_send_command@command^0,c
  2661   0024FE  EC4E  F014         	call	_lcd_4bit_send_command	;wreg free
  2662   002502  6E1B               	movwf	lcd_4bit_set_cursor@ret^0,c
  2663   002504  EFAD  F012         	goto	l6208
  2664   002508                     l6204:
  2665   002508  C015  F011         	movff	lcd_4bit_set_cursor@lcd,lcd_4bit_send_command@lcd
  2666   00250C  C016  F012         	movff	lcd_4bit_set_cursor@lcd+1,lcd_4bit_send_command@lcd+1
  2667   002510  5018               	movf	lcd_4bit_set_cursor@coulmn^0,w,c
  2668   002512  0FD4               	addlw	212
  2669   002514  6E13               	movwf	lcd_4bit_send_command@command^0,c
  2670   002516  EC4E  F014         	call	_lcd_4bit_send_command	;wreg free
  2671   00251A  6E1B               	movwf	lcd_4bit_set_cursor@ret^0,c
  2672   00251C  EFAD  F012         	goto	l6208
  2673   002520                     l6206:
  2674   002520  5017               	movf	lcd_4bit_set_cursor@row^0,w,c
  2675   002522  6E19               	movwf	??_lcd_4bit_set_cursor^0,c
  2676   002524  6A1A               	clrf	(??_lcd_4bit_set_cursor+1)^0,c
  2677                           
  2678                           ; Switch on 2 bytes has been partitioned into a top level switch of size 1, and 1 sub-sw
      +                          itches
  2679                           ; Switch size 1, requested type "simple"
  2680                           ; Number of cases is 1, Range of values is 0 to 0
  2681                           ; switch strategies available:
  2682                           ; Name         Instructions Cycles
  2683                           ; simple_byte            4     3 (average)
  2684                           ;	Chosen strategy is simple_byte
  2685   002526  501A               	movf	(??_lcd_4bit_set_cursor+1)^0,w,c
  2686   002528  0A00               	xorlw	0	; case 0
  2687   00252A  B4D8               	btfsc	status,2,c
  2688   00252C  EF9A  F012         	goto	l8338
  2689   002530  EFAD  F012         	goto	l6208
  2690   002534                     l8338:
  2691                           
  2692                           ; Switch size 1, requested type "simple"
  2693                           ; Number of cases is 4, Range of values is 1 to 4
  2694                           ; switch strategies available:
  2695                           ; Name         Instructions Cycles
  2696                           ; simple_byte           13     7 (average)
  2697                           ;	Chosen strategy is simple_byte
  2698   002534  5019               	movf	??_lcd_4bit_set_cursor^0,w,c
  2699   002536  0A01               	xorlw	1	; case 1
  2700   002538  B4D8               	btfsc	status,2,c
  2701   00253A  EF60  F012         	goto	l6198
  2702   00253E  0A03               	xorlw	3	; case 2
  2703   002540  B4D8               	btfsc	status,2,c
  2704   002542  EF6C  F012         	goto	l6200
  2705   002546  0A01               	xorlw	1	; case 3
  2706   002548  B4D8               	btfsc	status,2,c
  2707   00254A  EF78  F012         	goto	l6202
  2708   00254E  0A07               	xorlw	7	; case 4
  2709   002550  B4D8               	btfsc	status,2,c
  2710   002552  EF84  F012         	goto	l6204
  2711   002556  EFAD  F012         	goto	l6208
  2712   00255A                     l6208:
  2713                           
  2714                           ;ECU_Layer/Chr_LCD/ecu_chr_lcd.c: 559:     return ret;
  2715   00255A  501B               	movf	lcd_4bit_set_cursor@ret^0,w,c
  2716   00255C  0012               	return		;funcret
  2717   00255E                     __end_of_lcd_4bit_set_cursor:
  2718                           	callstack 0
  2719                           
  2720 ;; *************** function _lcd_4bit_send_char_data *****************
  2721 ;; Defined at:
  2722 ;;		line 89 in file "ECU_Layer/Chr_LCD/ecu_chr_lcd.c"
  2723 ;; Parameters:    Size  Location     Type
  2724 ;;  lcd             2   16[COMRAM] PTR const struct .
  2725 ;;		 -> lcd_1(6), 
  2726 ;;  data            1   18[COMRAM] unsigned char 
  2727 ;; Auto vars:     Size  Location     Type
  2728 ;;  ret             1   19[COMRAM] unsigned char 
  2729 ;; Return value:  Size  Location     Type
  2730 ;;                  1    wreg      unsigned char 
  2731 ;; Registers used:
  2732 ;;		wreg, fsr2l, fsr2h, status,2, status,0, prodl, prodh, cstack
  2733 ;; Tracked objects:
  2734 ;;		On entry : 0/0
  2735 ;;		On exit  : 0/0
  2736 ;;		Unchanged: 0/0
  2737 ;; Data sizes:     COMRAM   BANK0   BANK1   BANK2   BANK3   BANK4   BANK5   BANK6   BANK7   BANK8   BANK9  BANK10  BANK1
      +1  BANK12  BANK13  BANK14  BANK15
  2738 ;;      Params:         3       0       0       0       0       0       0       0       0       0       0       0       
      +0       0       0       0       0
  2739 ;;      Locals:         1       0       0       0       0       0       0       0       0       0       0       0       
      +0       0       0       0       0
  2740 ;;      Temps:          0       0       0       0       0       0       0       0       0       0       0       0       
      +0       0       0       0       0
  2741 ;;      Totals:         4       0       0       0       0       0       0       0       0       0       0       0       
      +0       0       0       0       0
  2742 ;;Total ram usage:        4 bytes
  2743 ;; Hardware stack levels used: 1
  2744 ;; Hardware stack levels required when called: 4
  2745 ;; This function calls:
  2746 ;;		_gpio_pin_write_logic
  2747 ;;		_lcd_4bit_send_enable_signal
  2748 ;;		_lcd_send_4bits
  2749 ;; This function is called by:
  2750 ;;		_lcd_4bit_send_char_data_pos
  2751 ;;		_lcd_4bit_send_string_pos
  2752 ;;		_lcd_write
  2753 ;;		_lcd_4bit_send_string
  2754 ;;		_lcd_4bit_send_custom_char
  2755 ;; This function uses a non-reentrant model
  2756 ;;
  2757                           
  2758                           	psect	text11
  2759   00282A                     __ptext11:
  2760                           	callstack 0
  2761   00282A                     _lcd_4bit_send_char_data:
  2762                           	callstack 24
  2763   00282A                     
  2764                           ;ECU_Layer/Chr_LCD/ecu_chr_lcd.c: 91:     if(((void*)0) == lcd){
  2765   00282A  5011               	movf	lcd_4bit_send_char_data@lcd^0,w,c
  2766   00282C  1012               	iorwf	(lcd_4bit_send_char_data@lcd+1)^0,w,c
  2767   00282E  A4D8               	btfss	status,2,c
  2768   002830  EF1C  F014         	goto	u4651
  2769   002834  EF1E  F014         	goto	u4650
  2770   002838                     u4651:
  2771   002838  EF22  F014         	goto	l6188
  2772   00283C                     u4650:
  2773   00283C                     
  2774                           ;ECU_Layer/Chr_LCD/ecu_chr_lcd.c: 92:         ret = (Std_ReturnType)0x00;
  2775   00283C  0E00               	movlw	0
  2776   00283E  6E14               	movwf	lcd_4bit_send_char_data@ret^0,c
  2777                           
  2778                           ;ECU_Layer/Chr_LCD/ecu_chr_lcd.c: 93:     }
  2779   002840  EF4C  F014         	goto	l6190
  2780   002844                     l6188:
  2781                           
  2782                           ;ECU_Layer/Chr_LCD/ecu_chr_lcd.c: 97:         ret = gpio_pin_write_logic(&(lcd->lcd_rs),
      +                           GPIO_HIGH);
  2783   002844  C011  F003         	movff	lcd_4bit_send_char_data@lcd,gpio_pin_write_logic@_pin_config
  2784   002848  C012  F004         	movff	lcd_4bit_send_char_data@lcd+1,gpio_pin_write_logic@_pin_config+1
  2785   00284C  0E01               	movlw	1
  2786   00284E  6E05               	movwf	gpio_pin_write_logic@logic^0,c
  2787   002850  ECC9  F00E         	call	_gpio_pin_write_logic	;wreg free
  2788   002854  6E14               	movwf	lcd_4bit_send_char_data@ret^0,c
  2789                           
  2790                           ;ECU_Layer/Chr_LCD/ecu_chr_lcd.c: 99:         ret = lcd_send_4bits(lcd, data >> 4);
  2791   002856  C011  F00D         	movff	lcd_4bit_send_char_data@lcd,lcd_send_4bits@lcd
  2792   00285A  C012  F00E         	movff	lcd_4bit_send_char_data@lcd+1,lcd_send_4bits@lcd+1
  2793   00285E  3813               	swapf	lcd_4bit_send_char_data@data^0,w,c
  2794   002860  0B0F               	andlw	15
  2795   002862  6E0F               	movwf	lcd_send_4bits@_data_command^0,c
  2796   002864  ECF2  F014         	call	_lcd_send_4bits	;wreg free
  2797   002868  6E14               	movwf	lcd_4bit_send_char_data@ret^0,c
  2798                           
  2799                           ;ECU_Layer/Chr_LCD/ecu_chr_lcd.c: 101:         ret = lcd_4bit_send_enable_signal(lcd);
  2800   00286A  C011  F00D         	movff	lcd_4bit_send_char_data@lcd,lcd_4bit_send_enable_signal@lcd
  2801   00286E  C012  F00E         	movff	lcd_4bit_send_char_data@lcd+1,lcd_4bit_send_enable_signal@lcd+1
  2802   002872  EC2A  F016         	call	_lcd_4bit_send_enable_signal	;wreg free
  2803   002876  6E14               	movwf	lcd_4bit_send_char_data@ret^0,c
  2804                           
  2805                           ;ECU_Layer/Chr_LCD/ecu_chr_lcd.c: 103:         ret = lcd_send_4bits(lcd, data);
  2806   002878  C011  F00D         	movff	lcd_4bit_send_char_data@lcd,lcd_send_4bits@lcd
  2807   00287C  C012  F00E         	movff	lcd_4bit_send_char_data@lcd+1,lcd_send_4bits@lcd+1
  2808   002880  C013  F00F         	movff	lcd_4bit_send_char_data@data,lcd_send_4bits@_data_command
  2809   002884  ECF2  F014         	call	_lcd_send_4bits	;wreg free
  2810   002888  6E14               	movwf	lcd_4bit_send_char_data@ret^0,c
  2811                           
  2812                           ;ECU_Layer/Chr_LCD/ecu_chr_lcd.c: 105:         ret = lcd_4bit_send_enable_signal(lcd);
  2813   00288A  C011  F00D         	movff	lcd_4bit_send_char_data@lcd,lcd_4bit_send_enable_signal@lcd
  2814   00288E  C012  F00E         	movff	lcd_4bit_send_char_data@lcd+1,lcd_4bit_send_enable_signal@lcd+1
  2815   002892  EC2A  F016         	call	_lcd_4bit_send_enable_signal	;wreg free
  2816   002896  6E14               	movwf	lcd_4bit_send_char_data@ret^0,c
  2817   002898                     l6190:
  2818                           
  2819                           ;ECU_Layer/Chr_LCD/ecu_chr_lcd.c: 107:     return ret;
  2820   002898  5014               	movf	lcd_4bit_send_char_data@ret^0,w,c
  2821   00289A  0012               	return		;funcret
  2822   00289C                     __end_of_lcd_4bit_send_char_data:
  2823                           	callstack 0
  2824                           
  2825 ;; *************** function _convert_uint32_to_string *****************
  2826 ;; Defined at:
  2827 ;;		line 459 in file "ECU_Layer/Chr_LCD/ecu_chr_lcd.c"
  2828 ;; Parameters:    Size  Location     Type
  2829 ;;  value           4   86[COMRAM] unsigned long 
  2830 ;;  str             2   90[COMRAM] PTR unsigned char 
  2831 ;;		 -> result_txt(11), 
  2832 ;; Auto vars:     Size  Location     Type
  2833 ;;  ret             1   92[COMRAM] unsigned char 
  2834 ;; Return value:  Size  Location     Type
  2835 ;;                  1    wreg      unsigned char 
  2836 ;; Registers used:
  2837 ;;		wreg, fsr1l, fsr1h, fsr2l, fsr2h, status,2, status,0, tblptrl, tblptrh, tblptru, cstack
  2838 ;; Tracked objects:
  2839 ;;		On entry : 0/0
  2840 ;;		On exit  : 0/0
  2841 ;;		Unchanged: 0/0
  2842 ;; Data sizes:     COMRAM   BANK0   BANK1   BANK2   BANK3   BANK4   BANK5   BANK6   BANK7   BANK8   BANK9  BANK10  BANK1
      +1  BANK12  BANK13  BANK14  BANK15
  2843 ;;      Params:         6       0       0       0       0       0       0       0       0       0       0       0       
      +0       0       0       0       0
  2844 ;;      Locals:         1       0       0       0       0       0       0       0       0       0       0       0       
      +0       0       0       0       0
  2845 ;;      Temps:          0       0       0       0       0       0       0       0       0       0       0       0       
      +0       0       0       0       0
  2846 ;;      Totals:         7       0       0       0       0       0       0       0       0       0       0       0       
      +0       0       0       0       0
  2847 ;;Total ram usage:        7 bytes
  2848 ;; Hardware stack levels used: 1
  2849 ;; Hardware stack levels required when called: 10
  2850 ;; This function calls:
  2851 ;;		_memset
  2852 ;;		_sprintf
  2853 ;; This function is called by:
  2854 ;;		_calculate
  2855 ;; This function uses a non-reentrant model
  2856 ;;
  2857                           
  2858                           	psect	text12
  2859   002A4C                     __ptext12:
  2860                           	callstack 0
  2861   002A4C                     _convert_uint32_to_string:
  2862                           	callstack 19
  2863   002A4C                     
  2864                           ;ECU_Layer/Chr_LCD/ecu_chr_lcd.c: 460:     Std_ReturnType ret = (Std_ReturnType)0x01;
  2865   002A4C  0E01               	movlw	1
  2866   002A4E  6E5D               	movwf	convert_uint32_to_string@ret^0,c
  2867   002A50                     
  2868                           ;ECU_Layer/Chr_LCD/ecu_chr_lcd.c: 461:     if(((void*)0) == str){
  2869   002A50  505B               	movf	convert_uint32_to_string@str^0,w,c
  2870   002A52  105C               	iorwf	(convert_uint32_to_string@str+1)^0,w,c
  2871   002A54  A4D8               	btfss	status,2,c
  2872   002A56  EF2F  F015         	goto	u4861
  2873   002A5A  EF31  F015         	goto	u4860
  2874   002A5E                     u4861:
  2875   002A5E  EF35  F015         	goto	l6384
  2876   002A62                     u4860:
  2877   002A62                     
  2878                           ;ECU_Layer/Chr_LCD/ecu_chr_lcd.c: 462:         ret = (Std_ReturnType)0x00;
  2879   002A62  0E00               	movlw	0
  2880   002A64  6E5D               	movwf	convert_uint32_to_string@ret^0,c
  2881                           
  2882                           ;ECU_Layer/Chr_LCD/ecu_chr_lcd.c: 463:     }
  2883   002A66  EF55  F015         	goto	l6388
  2884   002A6A                     l6384:
  2885                           
  2886                           ;ECU_Layer/Chr_LCD/ecu_chr_lcd.c: 465:         memset((char *)str, '\0', 11);
  2887   002A6A  C05B  F003         	movff	convert_uint32_to_string@str,memset@dest
  2888   002A6E  C05C  F004         	movff	convert_uint32_to_string@str+1,memset@dest+1
  2889   002A72  0E00               	movlw	0
  2890   002A74  6E06               	movwf	(memset@c+1)^0,c
  2891   002A76  0E00               	movlw	0
  2892   002A78  6E05               	movwf	memset@c^0,c
  2893   002A7A  0E00               	movlw	0
  2894   002A7C  6E08               	movwf	(memset@n+1)^0,c
  2895   002A7E  0E0B               	movlw	11
  2896   002A80  6E07               	movwf	memset@n^0,c
  2897   002A82  EC29  F00C         	call	_memset	;wreg free
  2898   002A86                     
  2899                           ;ECU_Layer/Chr_LCD/ecu_chr_lcd.c: 466:         sprintf(str, "%i", value);
  2900   002A86  C05B  F041         	movff	convert_uint32_to_string@str,sprintf@s
  2901   002A8A  C05C  F042         	movff	convert_uint32_to_string@str+1,sprintf@s+1
  2902   002A8E  0E40               	movlw	low STR_1
  2903   002A90  6E43               	movwf	sprintf@fmt^0,c
  2904   002A92  0E10               	movlw	high STR_1
  2905   002A94  6E44               	movwf	(sprintf@fmt+1)^0,c
  2906   002A96  C057  F045         	movff	convert_uint32_to_string@value,?_sprintf+4
  2907   002A9A  C058  F046         	movff	convert_uint32_to_string@value+1,?_sprintf+5
  2908   002A9E  C059  F047         	movff	convert_uint32_to_string@value+2,?_sprintf+6
  2909   002AA2  C05A  F048         	movff	convert_uint32_to_string@value+3,?_sprintf+7
  2910   002AA6  EC7F  F015         	call	_sprintf	;wreg free
  2911   002AAA                     l6388:
  2912                           
  2913                           ;ECU_Layer/Chr_LCD/ecu_chr_lcd.c: 468:     return ret;
  2914   002AAA  505D               	movf	convert_uint32_to_string@ret^0,w,c
  2915   002AAC  0012               	return		;funcret
  2916   002AAE                     __end_of_convert_uint32_to_string:
  2917                           	callstack 0
  2918                           
  2919 ;; *************** function _sprintf *****************
  2920 ;; Defined at:
  2921 ;;		line 9 in file "C:\Program Files\Microchip\xc8\v2.41\pic\sources\c99\common\nf_sprintf.c"
  2922 ;; Parameters:    Size  Location     Type
  2923 ;;  s               2   64[COMRAM] PTR unsigned char 
  2924 ;;		 -> result_txt(11), convert_uint16_to_string@Temp_String(6), 
  2925 ;;  fmt             2   66[COMRAM] PTR const unsigned char 
  2926 ;;		 -> STR_3(3), STR_2(3), STR_1(3), 
  2927 ;; Auto vars:     Size  Location     Type
  2928 ;;  f              12   74[COMRAM] struct _IO_FILE
  2929 ;;  ap              2   72[COMRAM] PTR void [1]
  2930 ;;		 -> ?_sprintf(2), 
  2931 ;;  ret             2    0        int 
  2932 ;; Return value:  Size  Location     Type
  2933 ;;                  2   64[COMRAM] int 
  2934 ;; Registers used:
  2935 ;;		wreg, fsr1l, fsr1h, fsr2l, fsr2h, status,2, status,0, tblptrl, tblptrh, tblptru, cstack
  2936 ;; Tracked objects:
  2937 ;;		On entry : 0/0
  2938 ;;		On exit  : 0/0
  2939 ;;		Unchanged: 0/0
  2940 ;; Data sizes:     COMRAM   BANK0   BANK1   BANK2   BANK3   BANK4   BANK5   BANK6   BANK7   BANK8   BANK9  BANK10  BANK1
      +1  BANK12  BANK13  BANK14  BANK15
  2941 ;;      Params:         8       0       0       0       0       0       0       0       0       0       0       0       
      +0       0       0       0       0
  2942 ;;      Locals:        14       0       0       0       0       0       0       0       0       0       0       0       
      +0       0       0       0       0
  2943 ;;      Temps:          0       0       0       0       0       0       0       0       0       0       0       0       
      +0       0       0       0       0
  2944 ;;      Totals:        22       0       0       0       0       0       0       0       0       0       0       0       
      +0       0       0       0       0
  2945 ;;Total ram usage:       22 bytes
  2946 ;; Hardware stack levels used: 1
  2947 ;; Hardware stack levels required when called: 9
  2948 ;; This function calls:
  2949 ;;		_vfprintf
  2950 ;; This function is called by:
  2951 ;;		_convert_uint32_to_string
  2952 ;;		_convert_uint8_to_string
  2953 ;;		_convert_uint16_to_string
  2954 ;; This function uses a non-reentrant model
  2955 ;;
  2956                           
  2957                           	psect	text13
  2958   002AFE                     __ptext13:
  2959                           	callstack 0
  2960   002AFE                     _sprintf:
  2961                           	callstack 19
  2962   002AFE  0E45               	movlw	low (?_sprintf+4)
  2963   002B00  6E49               	movwf	sprintf@ap^0,c
  2964   002B02  0E00               	movlw	high (?_sprintf+4)
  2965   002B04  6E4A               	movwf	(sprintf@ap+1)^0,c
  2966   002B06  C041  F04B         	movff	sprintf@s,sprintf@f
  2967   002B0A  C042  F04C         	movff	sprintf@s+1,sprintf@f+1
  2968   002B0E  0E00               	movlw	0
  2969   002B10  6E4F               	movwf	(sprintf@f+4)^0,c
  2970   002B12  0E00               	movlw	0
  2971   002B14  6E4E               	movwf	(sprintf@f+3)^0,c
  2972   002B16  0E00               	movlw	0
  2973   002B18  6E56               	movwf	(sprintf@f+11)^0,c
  2974   002B1A  0E00               	movlw	0
  2975   002B1C  6E55               	movwf	(sprintf@f+10)^0,c
  2976   002B1E  0E4B               	movlw	low sprintf@f
  2977   002B20  6E39               	movwf	vfprintf@fp^0,c
  2978   002B22  0E00               	movlw	high sprintf@f
  2979   002B24  6E3A               	movwf	(vfprintf@fp+1)^0,c
  2980   002B26  C043  F03B         	movff	sprintf@fmt,vfprintf@fmt
  2981   002B2A  C044  F03C         	movff	sprintf@fmt+1,vfprintf@fmt+1
  2982   002B2E  0E49               	movlw	low sprintf@ap
  2983   002B30  6E3D               	movwf	vfprintf@ap^0,c
  2984   002B32  0E00               	movlw	high sprintf@ap
  2985   002B34  6E3E               	movwf	(vfprintf@ap+1)^0,c
  2986   002B36  EC57  F015         	call	_vfprintf	;wreg free
  2987   002B3A  504E               	movf	(sprintf@f+3)^0,w,c
  2988   002B3C  2441               	addwf	sprintf@s^0,w,c
  2989   002B3E  6ED9               	movwf	fsr2l,c
  2990   002B40  504F               	movf	(sprintf@f+4)^0,w,c
  2991   002B42  2042               	addwfc	(sprintf@s+1)^0,w,c
  2992   002B44  6EDA               	movwf	fsr2h,c
  2993   002B46  6ADF               	clrf	indf2,c
  2994   002B48  0012               	return		;funcret
  2995   002B4A                     __end_of_sprintf:
  2996                           	callstack 0
  2997                           
  2998 ;; *************** function _vfprintf *****************
  2999 ;; Defined at:
  3000 ;;		line 1546 in file "C:\Program Files\Microchip\xc8\v2.41\pic\sources\c99\common\doprnt.c"
  3001 ;; Parameters:    Size  Location     Type
  3002 ;;  fp              2   56[COMRAM] PTR struct _IO_FILE
  3003 ;;		 -> sprintf@f(12), 
  3004 ;;  fmt             2   58[COMRAM] PTR const unsigned char 
  3005 ;;		 -> STR_3(3), STR_2(3), STR_1(3), 
  3006 ;;  ap              2   60[COMRAM] PTR PTR void 
  3007 ;;		 -> sprintf@ap(2), 
  3008 ;; Auto vars:     Size  Location     Type
  3009 ;;  cfmt            2   62[COMRAM] PTR unsigned char 
  3010 ;;		 -> STR_3(3), STR_2(3), STR_1(3), 
  3011 ;; Return value:  Size  Location     Type
  3012 ;;                  2   56[COMRAM] int 
  3013 ;; Registers used:
  3014 ;;		wreg, fsr1l, fsr1h, fsr2l, fsr2h, status,2, status,0, tblptrl, tblptrh, tblptru, cstack
  3015 ;; Tracked objects:
  3016 ;;		On entry : 0/0
  3017 ;;		On exit  : 0/0
  3018 ;;		Unchanged: 0/0
  3019 ;; Data sizes:     COMRAM   BANK0   BANK1   BANK2   BANK3   BANK4   BANK5   BANK6   BANK7   BANK8   BANK9  BANK10  BANK1
      +1  BANK12  BANK13  BANK14  BANK15
  3020 ;;      Params:         6       0       0       0       0       0       0       0       0       0       0       0       
      +0       0       0       0       0
  3021 ;;      Locals:         2       0       0       0       0       0       0       0       0       0       0       0       
      +0       0       0       0       0
  3022 ;;      Temps:          0       0       0       0       0       0       0       0       0       0       0       0       
      +0       0       0       0       0
  3023 ;;      Totals:         8       0       0       0       0       0       0       0       0       0       0       0       
      +0       0       0       0       0
  3024 ;;Total ram usage:        8 bytes
  3025 ;; Hardware stack levels used: 1
  3026 ;; Hardware stack levels required when called: 8
  3027 ;; This function calls:
  3028 ;;		_vfpfcnvrt
  3029 ;; This function is called by:
  3030 ;;		_sprintf
  3031 ;; This function uses a non-reentrant model
  3032 ;;
  3033                           
  3034                           	psect	text14
  3035   002AAE                     __ptext14:
  3036                           	callstack 0
  3037   002AAE                     _vfprintf:
  3038                           	callstack 19
  3039   002AAE                     
  3040                           ;C:\Program Files\Microchip\xc8\v2.41\pic\sources\c99\common\doprnt.c: 1546: int vfprint
      +                          f(FILE *fp, const char *fmt, va_list ap);C:\Program Files\Microchip\xc8\v2.41\pic\source
      +                          s\c99\common\doprnt.c: 1547: {;C:\Program Files\Microchip\xc8\v2.41\pic\sources\c99\comm
      +                          on\doprnt.c: 1549:     char *cfmt;;C:\Program Files\Microchip\xc8\v2.41\pic\sources\c99\
      +                          common\doprnt.c: 1551:     cfmt = (char *)fmt;
  3041   002AAE  C03B  F03F         	movff	vfprintf@fmt,vfprintf@cfmt
  3042   002AB2  C03C  F040         	movff	vfprintf@fmt+1,vfprintf@cfmt+1
  3043                           
  3044                           ;C:\Program Files\Microchip\xc8\v2.41\pic\sources\c99\common\doprnt.c: 1555:     while (
      +                          *cfmt) {
  3045   002AB6  EF6B  F015         	goto	l6130
  3046   002ABA                     l6128:
  3047                           
  3048                           ;C:\Program Files\Microchip\xc8\v2.41\pic\sources\c99\common\doprnt.c: 1559:    vfpfcnvr
      +                          t(fp, &cfmt, ap);
  3049   002ABA  C039  F02B         	movff	vfprintf@fp,vfpfcnvrt@fp
  3050   002ABE  C03A  F02C         	movff	vfprintf@fp+1,vfpfcnvrt@fp+1
  3051   002AC2  0E3F               	movlw	low vfprintf@cfmt
  3052   002AC4  6E2D               	movwf	vfpfcnvrt@fmt^0,c
  3053   002AC6  0E00               	movlw	high vfprintf@cfmt
  3054   002AC8  6E2E               	movwf	(vfpfcnvrt@fmt+1)^0,c
  3055   002ACA  C03D  F02F         	movff	vfprintf@ap,vfpfcnvrt@ap
  3056   002ACE  C03E  F030         	movff	vfprintf@ap+1,vfpfcnvrt@ap+1
  3057   002AD2  EC33  F00E         	call	_vfpfcnvrt	;wreg free
  3058   002AD6                     l6130:
  3059                           
  3060                           ;C:\Program Files\Microchip\xc8\v2.41\pic\sources\c99\common\doprnt.c: 1555:     while (
      +                          *cfmt) {
  3061   002AD6  C03F  FFF6         	movff	vfprintf@cfmt,tblptrl
  3062   002ADA  C040  FFF7         	movff	vfprintf@cfmt+1,tblptrh
  3063   002ADE                     	if	1	;Program memory is < 0x10000, tblptru is always zero
  3064   002ADE  6AF8               	clrf	tblptru,c
  3065   002AE0                     	endif
  3066   002AE0                     	if	0	;tblptru may be non-zero
  3067   002AE0                     	endif
  3068   002AE0  0008               	tblrd		*
  3069   002AE2  50F5               	movf	tablat,w,c
  3070   002AE4  0900               	iorlw	0
  3071   002AE6  A4D8               	btfss	status,2,c
  3072   002AE8  EF78  F015         	goto	u4621
  3073   002AEC  EF7A  F015         	goto	u4620
  3074   002AF0                     u4621:
  3075   002AF0  EF5D  F015         	goto	l6128
  3076   002AF4                     u4620:
  3077   002AF4                     
  3078                           ;C:\Program Files\Microchip\xc8\v2.41\pic\sources\c99\common\doprnt.c: 1564:  return 0;
  3079   002AF4  0E00               	movlw	0
  3080   002AF6  6E3A               	movwf	(?_vfprintf+1)^0,c
  3081   002AF8  0E00               	movlw	0
  3082   002AFA  6E39               	movwf	?_vfprintf^0,c
  3083   002AFC  0012               	return		;funcret
  3084   002AFE                     __end_of_vfprintf:
  3085                           	callstack 0
  3086                           
  3087 ;; *************** function _vfpfcnvrt *****************
  3088 ;; Defined at:
  3089 ;;		line 1048 in file "C:\Program Files\Microchip\xc8\v2.41\pic\sources\c99\common\doprnt.c"
  3090 ;; Parameters:    Size  Location     Type
  3091 ;;  fp              2   42[COMRAM] PTR struct _IO_FILE
  3092 ;;		 -> sprintf@f(12), 
  3093 ;;  fmt             2   44[COMRAM] PTR PTR unsigned char 
  3094 ;;		 -> vfprintf@cfmt(2), 
  3095 ;;  ap              2   46[COMRAM] PTR PTR void 
  3096 ;;		 -> sprintf@ap(2), 
  3097 ;; Auto vars:     Size  Location     Type
  3098 ;;  convarg         4   50[COMRAM] struct .
  3099 ;;  cp              2   54[COMRAM] PTR unsigned char 
  3100 ;;		 -> STR_3(3), STR_2(3), STR_1(3), 
  3101 ;;  i               2    0        int 
  3102 ;;  done            2    0        int 
  3103 ;;  c               1    0        unsigned char 
  3104 ;; Return value:  Size  Location     Type
  3105 ;;                  1    wreg      void 
  3106 ;; Registers used:
  3107 ;;		wreg, fsr1l, fsr1h, fsr2l, fsr2h, status,2, status,0, tblptrl, tblptrh, tblptru, cstack
  3108 ;; Tracked objects:
  3109 ;;		On entry : 0/0
  3110 ;;		On exit  : 0/0
  3111 ;;		Unchanged: 0/0
  3112 ;; Data sizes:     COMRAM   BANK0   BANK1   BANK2   BANK3   BANK4   BANK5   BANK6   BANK7   BANK8   BANK9  BANK10  BANK1
      +1  BANK12  BANK13  BANK14  BANK15
  3113 ;;      Params:         6       0       0       0       0       0       0       0       0       0       0       0       
      +0       0       0       0       0
  3114 ;;      Locals:         6       0       0       0       0       0       0       0       0       0       0       0       
      +0       0       0       0       0
  3115 ;;      Temps:          2       0       0       0       0       0       0       0       0       0       0       0       
      +0       0       0       0       0
  3116 ;;      Totals:        14       0       0       0       0       0       0       0       0       0       0       0       
      +0       0       0       0       0
  3117 ;;Total ram usage:       14 bytes
  3118 ;; Hardware stack levels used: 1
  3119 ;; Hardware stack levels required when called: 7
  3120 ;; This function calls:
  3121 ;;		_dtoa
  3122 ;;		_fputc
  3123 ;; This function is called by:
  3124 ;;		_vfprintf
  3125 ;; This function uses a non-reentrant model
  3126 ;;
  3127                           
  3128                           	psect	text15
  3129   001C66                     __ptext15:
  3130                           	callstack 0
  3131   001C66                     _vfpfcnvrt:
  3132                           	callstack 19
  3133   001C66                     
  3134                           ;C:\Program Files\Microchip\xc8\v2.41\pic\sources\c99\common\doprnt.c: 1048: vfpfcnvrt(F
      +                          ILE *fp, char *fmt[], va_list ap);C:\Program Files\Microchip\xc8\v2.41\pic\sources\c99\c
      +                          ommon\doprnt.c: 1049: {;C:\Program Files\Microchip\xc8\v2.41\pic\sources\c99\common\dopr
      +                          nt.c: 1050:     char c, *cp;;C:\Program Files\Microchip\xc8\v2.41\pic\sources\c99\common
      +                          \doprnt.c: 1051:     int done, i;;C:\Program Files\Microchip\xc8\v2.41\pic\sources\c99\c
      +                          ommon\doprnt.c: 1059:  } convarg;;C:\Program Files\Microchip\xc8\v2.41\pic\sources\c99\c
      +                          ommon\doprnt.c: 1062:     if ((*fmt)[0] == '%') {
  3135   001C66  C02D  FFD9         	movff	vfpfcnvrt@fmt,fsr2l
  3136   001C6A  C02E  FFDA         	movff	vfpfcnvrt@fmt+1,fsr2h
  3137   001C6E  CFDE FFF6          	movff	postinc2,tblptrl
  3138   001C72  CFDD FFF7          	movff	postdec2,tblptrh
  3139   001C76                     	if	1	;Program memory is < 0x10000, tblptru is always zero
  3140   001C76  6AF8               	clrf	tblptru,c
  3141   001C78                     	endif
  3142   001C78                     	if	0	;tblptru may be non-zero
  3143   001C78                     	endif
  3144   001C78  0008               	tblrd		*
  3145   001C7A  50F5               	movf	tablat,w,c
  3146   001C7C  0A25               	xorlw	37
  3147   001C7E  A4D8               	btfss	status,2,c
  3148   001C80  EF44  F00E         	goto	u4561
  3149   001C84  EF46  F00E         	goto	u4560
  3150   001C88                     u4561:
  3151   001C88  EFB3  F00E         	goto	l6094
  3152   001C8C                     u4560:
  3153   001C8C                     
  3154                           ;C:\Program Files\Microchip\xc8\v2.41\pic\sources\c99\common\doprnt.c: 1063:         ++*
      +                          fmt;
  3155   001C8C  C02D  FFD9         	movff	vfpfcnvrt@fmt,fsr2l
  3156   001C90  C02E  FFDA         	movff	vfpfcnvrt@fmt+1,fsr2h
  3157   001C94  2ADE               	incf	postinc2,f,c
  3158   001C96  0E00               	movlw	0
  3159   001C98  22DD               	addwfc	postdec2,f,c
  3160   001C9A                     
  3161                           ;C:\Program Files\Microchip\xc8\v2.41\pic\sources\c99\common\doprnt.c: 1065:         fla
      +                          gs = width = 0;
  3162   001C9A  0E00               	movlw	0
  3163   001C9C  0100               	movlb	0	; () banked
  3164   001C9E  6F8B               	movwf	(_width+1)& (0+255),b
  3165   001CA0  0E00               	movlw	0
  3166   001CA2  6F8A               	movwf	_width& (0+255),b
  3167   001CA4  C08A  F06C         	movff	_width,_flags
  3168   001CA8                     
  3169                           ; BSR set to: 0
  3170                           ;C:\Program Files\Microchip\xc8\v2.41\pic\sources\c99\common\doprnt.c: 1066:         pre
      +                          c = -1;
  3171   001CA8  698C               	setf	_prec& (0+255),b
  3172   001CAA  698D               	setf	(_prec+1)& (0+255),b
  3173   001CAC                     
  3174                           ; BSR set to: 0
  3175                           ;C:\Program Files\Microchip\xc8\v2.41\pic\sources\c99\common\doprnt.c: 1143:   cp = *fmt
      +                          ;
  3176   001CAC  C02D  FFD9         	movff	vfpfcnvrt@fmt,fsr2l
  3177   001CB0  C02E  FFDA         	movff	vfpfcnvrt@fmt+1,fsr2h
  3178   001CB4  CFDE F037          	movff	postinc2,vfpfcnvrt@cp
  3179   001CB8  CFDD F038          	movff	postdec2,vfpfcnvrt@cp+1
  3180   001CBC                     
  3181                           ; BSR set to: 0
  3182                           ;C:\Program Files\Microchip\xc8\v2.41\pic\sources\c99\common\doprnt.c: 1213:   if (*cp =
      +                          = 'd' || *cp == 'i') {
  3183   001CBC  C037  FFF6         	movff	vfpfcnvrt@cp,tblptrl
  3184   001CC0  C038  FFF7         	movff	vfpfcnvrt@cp+1,tblptrh
  3185   001CC4                     	if	1	;Program memory is < 0x10000, tblptru is always zero
  3186   001CC4  6AF8               	clrf	tblptru,c
  3187   001CC6                     	endif
  3188   001CC6                     	if	0	;tblptru may be non-zero
  3189   001CC6                     	endif
  3190   001CC6  0008               	tblrd		*
  3191   001CC8  50F5               	movf	tablat,w,c
  3192   001CCA  0A64               	xorlw	100
  3193   001CCC  B4D8               	btfsc	status,2,c
  3194   001CCE  EF6B  F00E         	goto	u4571
  3195   001CD2  EF6D  F00E         	goto	u4570
  3196   001CD6                     u4571:
  3197   001CD6  EF7C  F00E         	goto	l6084
  3198   001CDA                     u4570:
  3199   001CDA                     
  3200                           ; BSR set to: 0
  3201   001CDA  C037  FFF6         	movff	vfpfcnvrt@cp,tblptrl
  3202   001CDE  C038  FFF7         	movff	vfpfcnvrt@cp+1,tblptrh
  3203   001CE2                     	if	1	;Program memory is < 0x10000, tblptru is always zero
  3204   001CE2  6AF8               	clrf	tblptru,c
  3205   001CE4                     	endif
  3206   001CE4                     	if	0	;tblptru may be non-zero
  3207   001CE4                     	endif
  3208   001CE4  0008               	tblrd		*
  3209   001CE6  50F5               	movf	tablat,w,c
  3210   001CE8  0A69               	xorlw	105
  3211   001CEA  A4D8               	btfss	status,2,c
  3212   001CEC  EF7A  F00E         	goto	u4581
  3213   001CF0  EF7C  F00E         	goto	u4580
  3214   001CF4                     u4581:
  3215   001CF4  EFAA  F00E         	goto	l6090
  3216   001CF8                     u4580:
  3217   001CF8                     l6084:
  3218                           
  3219                           ; BSR set to: 0
  3220                           ;C:\Program Files\Microchip\xc8\v2.41\pic\sources\c99\common\doprnt.c: 1256:    convarg.
      +                          sint = (vfpf_sint_t)(int)(*(int *)__va_arg(*(int **)ap, (int)0));
  3221   001CF8  C02F  FFD9         	movff	vfpfcnvrt@ap,fsr2l
  3222   001CFC  C030  FFDA         	movff	vfpfcnvrt@ap+1,fsr2h
  3223   001D00  CFDF F031          	movff	indf2,??_vfpfcnvrt
  3224   001D04  0E02               	movlw	2
  3225   001D06  26DE               	addwf	postinc2,f,c
  3226   001D08  CFDF F032          	movff	indf2,??_vfpfcnvrt+1
  3227   001D0C  0E00               	movlw	0
  3228   001D0E  22DD               	addwfc	postdec2,f,c
  3229   001D10  C031  FFD9         	movff	??_vfpfcnvrt,fsr2l
  3230   001D14  C032  FFDA         	movff	??_vfpfcnvrt+1,fsr2h
  3231   001D18  CFDE F033          	movff	postinc2,vfpfcnvrt@convarg
  3232   001D1C  CFDD F034          	movff	postdec2,vfpfcnvrt@convarg+1
  3233                           
  3234                           ;C:\Program Files\Microchip\xc8\v2.41\pic\sources\c99\common\doprnt.c: 1258:    *fmt = c
      +                          p+1;
  3235   001D20  0E01               	movlw	1
  3236   001D22  2437               	addwf	vfpfcnvrt@cp^0,w,c
  3237   001D24  6E31               	movwf	??_vfpfcnvrt^0,c
  3238   001D26  0E00               	movlw	0
  3239   001D28  2038               	addwfc	(vfpfcnvrt@cp+1)^0,w,c
  3240   001D2A  6E32               	movwf	(??_vfpfcnvrt+1)^0,c
  3241   001D2C  C02D  FFD9         	movff	vfpfcnvrt@fmt,fsr2l
  3242   001D30  C02E  FFDA         	movff	vfpfcnvrt@fmt+1,fsr2h
  3243   001D34  C031  FFDE         	movff	??_vfpfcnvrt,postinc2
  3244   001D38  C032  FFDD         	movff	??_vfpfcnvrt+1,postdec2
  3245   001D3C                     
  3246                           ; BSR set to: 0
  3247                           ;C:\Program Files\Microchip\xc8\v2.41\pic\sources\c99\common\doprnt.c: 1259:    return (
      +                          void) dtoa(fp, convarg.sint);;	Return value of _vfpfcnvrt is never used
  3248   001D3C  C02B  F01E         	movff	vfpfcnvrt@fp,dtoa@fp
  3249   001D40  C02C  F01F         	movff	vfpfcnvrt@fp+1,dtoa@fp+1
  3250   001D44  C033  F020         	movff	vfpfcnvrt@convarg,dtoa@d
  3251   001D48  C034  F021         	movff	vfpfcnvrt@convarg+1,dtoa@d+1
  3252   001D4C  EC5E  F00B         	call	_dtoa	;wreg free
  3253   001D50  EFC8  F00E         	goto	l2598
  3254   001D54                     l6090:
  3255                           
  3256                           ;C:\Program Files\Microchip\xc8\v2.41\pic\sources\c99\common\doprnt.c: 1535:         ++*
      +                          fmt;
  3257   001D54  C02D  FFD9         	movff	vfpfcnvrt@fmt,fsr2l
  3258   001D58  C02E  FFDA         	movff	vfpfcnvrt@fmt+1,fsr2h
  3259   001D5C  2ADE               	incf	postinc2,f,c
  3260   001D5E  0E00               	movlw	0
  3261   001D60  22DD               	addwfc	postdec2,f,c
  3262   001D62  EFC8  F00E         	goto	l2598
  3263   001D66                     l6094:
  3264                           
  3265                           ;C:\Program Files\Microchip\xc8\v2.41\pic\sources\c99\common\doprnt.c: 1540:     fputc((
      +                          int)(*fmt)[0], fp);
  3266   001D66  C02D  FFD9         	movff	vfpfcnvrt@fmt,fsr2l
  3267   001D6A  C02E  FFDA         	movff	vfpfcnvrt@fmt+1,fsr2h
  3268   001D6E  CFDE FFF6          	movff	postinc2,tblptrl
  3269   001D72  CFDD FFF7          	movff	postdec2,tblptrh
  3270   001D76                     	if	1	;Program memory is < 0x10000, tblptru is always zero
  3271   001D76  6AF8               	clrf	tblptru,c
  3272   001D78                     	endif
  3273   001D78                     	if	0	;tblptru may be non-zero
  3274   001D78                     	endif
  3275   001D78  0008               	tblrd		*
  3276   001D7A  50F5               	movf	tablat,w,c
  3277   001D7C  6E03               	movwf	fputc@c^0,c
  3278   001D7E  6A04               	clrf	(fputc@c+1)^0,c
  3279   001D80  C02B  F005         	movff	vfpfcnvrt@fp,fputc@fp
  3280   001D84  C02C  F006         	movff	vfpfcnvrt@fp+1,fputc@fp+1
  3281   001D88  EC83  F010         	call	_fputc	;wreg free
  3282   001D8C  EFAA  F00E         	goto	l6090
  3283   001D90                     l2598:
  3284   001D90  0012               	return		;funcret
  3285   001D92                     __end_of_vfpfcnvrt:
  3286                           	callstack 0
  3287                           
  3288 ;; *************** function _dtoa *****************
  3289 ;; Defined at:
  3290 ;;		line 470 in file "C:\Program Files\Microchip\xc8\v2.41\pic\sources\c99\common\doprnt.c"
  3291 ;; Parameters:    Size  Location     Type
  3292 ;;  fp              2   29[COMRAM] PTR struct _IO_FILE
  3293 ;;		 -> sprintf@f(12), 
  3294 ;;  d               2   31[COMRAM] int 
  3295 ;; Auto vars:     Size  Location     Type
  3296 ;;  i               2   39[COMRAM] int 
  3297 ;;  w               2   37[COMRAM] int 
  3298 ;;  p               2   35[COMRAM] int 
  3299 ;;  s               1   41[COMRAM] unsigned char 
  3300 ;; Return value:  Size  Location     Type
  3301 ;;                  1    wreg      void 
  3302 ;; Registers used:
  3303 ;;		wreg, fsr1l, fsr1h, fsr2l, fsr2h, status,2, status,0, cstack
  3304 ;; Tracked objects:
  3305 ;;		On entry : 0/0
  3306 ;;		On exit  : 0/0
  3307 ;;		Unchanged: 0/0
  3308 ;; Data sizes:     COMRAM   BANK0   BANK1   BANK2   BANK3   BANK4   BANK5   BANK6   BANK7   BANK8   BANK9  BANK10  BANK1
      +1  BANK12  BANK13  BANK14  BANK15
  3309 ;;      Params:         4       0       0       0       0       0       0       0       0       0       0       0       
      +0       0       0       0       0
  3310 ;;      Locals:         9       0       0       0       0       0       0       0       0       0       0       0       
      +0       0       0       0       0
  3311 ;;      Temps:          0       0       0       0       0       0       0       0       0       0       0       0       
      +0       0       0       0       0
  3312 ;;      Totals:        13       0       0       0       0       0       0       0       0       0       0       0       
      +0       0       0       0       0
  3313 ;;Total ram usage:       13 bytes
  3314 ;; Hardware stack levels used: 1
  3315 ;; Hardware stack levels required when called: 6
  3316 ;; This function calls:
  3317 ;;		___awdiv
  3318 ;;		___awmod
  3319 ;;		_abs
  3320 ;;		_pad
  3321 ;; This function is called by:
  3322 ;;		_vfpfcnvrt
  3323 ;; This function uses a non-reentrant model
  3324 ;;
  3325                           
  3326                           	psect	text16
  3327   0016BC                     __ptext16:
  3328                           	callstack 0
  3329   0016BC                     _dtoa:
  3330                           	callstack 19
  3331   0016BC                     
  3332                           ;C:\Program Files\Microchip\xc8\v2.41\pic\sources\c99\common\doprnt.c: 470: static void 
      +                          dtoa(FILE *fp, vfpf_sint_t d);C:\Program Files\Microchip\xc8\v2.41\pic\sources\c99\commo
      +                          n\doprnt.c: 471: {;C:\Program Files\Microchip\xc8\v2.41\pic\sources\c99\common\doprnt.c:
      +                           472:  char s;;C:\Program Files\Microchip\xc8\v2.41\pic\sources\c99\common\doprnt.c: 473
      +                          :     int i, p, w;;C:\Program Files\Microchip\xc8\v2.41\pic\sources\c99\common\doprnt.c:
      +                           476:     s = d < 0 ? 1 : 0;
  3333   0016BC  BE21               	btfsc	(dtoa@d+1)^0,7,c
  3334   0016BE  EF63  F00B         	goto	u4401
  3335   0016C2  EF66  F00B         	goto	u4400
  3336   0016C6                     u4401:
  3337   0016C6  0E01               	movlw	1
  3338   0016C8  EF67  F00B         	goto	u4410
  3339   0016CC                     u4400:
  3340   0016CC  0E00               	movlw	0
  3341   0016CE                     u4410:
  3342   0016CE  6E2A               	movwf	dtoa@s^0,c
  3343   0016D0                     
  3344                           ;C:\Program Files\Microchip\xc8\v2.41\pic\sources\c99\common\doprnt.c: 477:     if (s) {
  3345   0016D0  502A               	movf	dtoa@s^0,w,c
  3346   0016D2  B4D8               	btfsc	status,2,c
  3347   0016D4  EF6E  F00B         	goto	u4421
  3348   0016D8  EF70  F00B         	goto	u4420
  3349   0016DC                     u4421:
  3350   0016DC  EF74  F00B         	goto	l5978
  3351   0016E0                     u4420:
  3352   0016E0                     
  3353                           ;C:\Program Files\Microchip\xc8\v2.41\pic\sources\c99\common\doprnt.c: 478:         d = 
      +                          -d;
  3354   0016E0  6C20               	negf	dtoa@d^0,c
  3355   0016E2  1E21               	comf	(dtoa@d+1)^0,f,c
  3356   0016E4  B0D8               	btfsc	status,0,c
  3357   0016E6  2A21               	incf	(dtoa@d+1)^0,f,c
  3358   0016E8                     l5978:
  3359                           
  3360                           ;C:\Program Files\Microchip\xc8\v2.41\pic\sources\c99\common\doprnt.c: 487:     p = (0 <
      +                          = prec) ? prec : 1;
  3361   0016E8  0100               	movlb	0	; () banked
  3362   0016EA  BF8D               	btfsc	(_prec+1)& (0+255),7,b
  3363   0016EC  EF7C  F00B         	goto	u4430
  3364   0016F0  EF7A  F00B         	goto	u4431
  3365   0016F4                     u4431:
  3366   0016F4  EF82  F00B         	goto	l2577
  3367   0016F8                     u4430:
  3368   0016F8                     
  3369                           ; BSR set to: 0
  3370   0016F8  0E00               	movlw	0
  3371   0016FA  6E25               	movwf	(dtoa@p+1)^0,c
  3372   0016FC  0E01               	movlw	1
  3373   0016FE  6E24               	movwf	dtoa@p^0,c
  3374   001700  EF86  F00B         	goto	l2579
  3375   001704                     l2577:
  3376                           
  3377                           ; BSR set to: 0
  3378   001704  C08C  F024         	movff	_prec,dtoa@p
  3379   001708  C08D  F025         	movff	_prec+1,dtoa@p+1
  3380   00170C                     l2579:
  3381                           
  3382                           ; BSR set to: 0
  3383                           ;C:\Program Files\Microchip\xc8\v2.41\pic\sources\c99\common\doprnt.c: 488:     w = widt
      +                          h;
  3384   00170C  C08A  F026         	movff	_width,dtoa@w
  3385   001710  C08B  F027         	movff	_width+1,dtoa@w+1
  3386   001714                     
  3387                           ; BSR set to: 0
  3388                           ;C:\Program Files\Microchip\xc8\v2.41\pic\sources\c99\common\doprnt.c: 489:     if (s
  3389   001714  502A               	movf	dtoa@s^0,w,c
  3390   001716  B4D8               	btfsc	status,2,c
  3391   001718  EF90  F00B         	goto	u4441
  3392   00171C  EF92  F00B         	goto	u4440
  3393   001720                     u4441:
  3394   001720  EFA9  F00B         	goto	l2580
  3395   001724                     u4440:
  3396   001724                     
  3397                           ; BSR set to: 0
  3398                           ;C:\Program Files\Microchip\xc8\v2.41\pic\sources\c99\common\doprnt.c: 493:     ) {;C:\P
      +                          rogram Files\Microchip\xc8\v2.41\pic\sources\c99\common\doprnt.c: 494:         --w;
  3399   001724  0626               	decf	dtoa@w^0,f,c
  3400   001726  A0D8               	btfss	status,0,c
  3401   001728  0627               	decf	(dtoa@w+1)^0,f,c
  3402   00172A                     
  3403                           ; BSR set to: 0
  3404                           ;C:\Program Files\Microchip\xc8\v2.41\pic\sources\c99\common\doprnt.c: 495:   s = s ? '-
      +                          ' : '+';
  3405   00172A  502A               	movf	dtoa@s^0,w,c
  3406   00172C  A4D8               	btfss	status,2,c
  3407   00172E  EF9B  F00B         	goto	u4451
  3408   001732  EF9D  F00B         	goto	u4450
  3409   001736                     u4451:
  3410   001736  EFA3  F00B         	goto	l5990
  3411   00173A                     u4450:
  3412   00173A                     
  3413                           ; BSR set to: 0
  3414   00173A  0E00               	movlw	0
  3415   00173C  6E23               	movwf	(_dtoa$5060+1)^0,c
  3416   00173E  0E2B               	movlw	43
  3417   001740  6E22               	movwf	_dtoa$5060^0,c
  3418   001742  EFA7  F00B         	goto	l5992
  3419   001746                     l5990:
  3420                           
  3421                           ; BSR set to: 0
  3422   001746  0E00               	movlw	0
  3423   001748  6E23               	movwf	(_dtoa$5060+1)^0,c
  3424   00174A  0E2D               	movlw	45
  3425   00174C  6E22               	movwf	_dtoa$5060^0,c
  3426   00174E                     l5992:
  3427                           
  3428                           ; BSR set to: 0
  3429   00174E  C022  F02A         	movff	_dtoa$5060,dtoa@s
  3430   001752                     l2580:
  3431                           
  3432                           ; BSR set to: 0
  3433                           ;C:\Program Files\Microchip\xc8\v2.41\pic\sources\c99\common\doprnt.c: 505:     i = size
      +                          of(dbuf) - 1;
  3434   001752  0E00               	movlw	0
  3435   001754  6E29               	movwf	(dtoa@i+1)^0,c
  3436   001756  0E1F               	movlw	31
  3437   001758  6E28               	movwf	dtoa@i^0,c
  3438   00175A                     
  3439                           ; BSR set to: 0
  3440                           ;C:\Program Files\Microchip\xc8\v2.41\pic\sources\c99\common\doprnt.c: 506:     dbuf[i] 
      +                          = '\0';
  3441   00175A  0E00               	movlw	0
  3442   00175C  0101               	movlb	1	; () banked
  3443   00175E  6F1F               	movwf	(_dbuf+31)& (0+255),b
  3444                           
  3445                           ;C:\Program Files\Microchip\xc8\v2.41\pic\sources\c99\common\doprnt.c: 507:     while (!
      +                          (i < 1) && (d || (0 < p)
  3446   001760  EFE2  F00B         	goto	l6006
  3447   001764                     l5996:
  3448                           
  3449                           ;C:\Program Files\Microchip\xc8\v2.41\pic\sources\c99\common\doprnt.c: 511:     )) {;C:\
      +                          Program Files\Microchip\xc8\v2.41\pic\sources\c99\common\doprnt.c: 512:         --i;
  3450   001764  0628               	decf	dtoa@i^0,f,c
  3451   001766  A0D8               	btfss	status,0,c
  3452   001768  0629               	decf	(dtoa@i+1)^0,f,c
  3453   00176A                     
  3454                           ;C:\Program Files\Microchip\xc8\v2.41\pic\sources\c99\common\doprnt.c: 513:         dbuf
      +                          [i] = (char)((int)'0' + abs(d % 10));
  3455   00176A  0E00               	movlw	low _dbuf
  3456   00176C  2428               	addwf	dtoa@i^0,w,c
  3457   00176E  6ED9               	movwf	fsr2l,c
  3458   001770  0E01               	movlw	high _dbuf
  3459   001772  2029               	addwfc	(dtoa@i+1)^0,w,c
  3460   001774  6EDA               	movwf	fsr2h,c
  3461   001776  C020  F003         	movff	dtoa@d,___awmod@dividend
  3462   00177A  C021  F004         	movff	dtoa@d+1,___awmod@dividend+1
  3463   00177E  0E00               	movlw	0
  3464   001780  6E06               	movwf	(___awmod@divisor+1)^0,c
  3465   001782  0E0A               	movlw	10
  3466   001784  6E05               	movwf	___awmod@divisor^0,c
  3467   001786  EC03  F012         	call	___awmod	;wreg free
  3468   00178A  C003  F009         	movff	?___awmod,abs@a
  3469   00178E  C004  F00A         	movff	?___awmod+1,abs@a+1
  3470   001792  EC0A  F016         	call	_abs	;wreg free
  3471   001796  5009               	movf	?_abs^0,w,c
  3472   001798  0F30               	addlw	48
  3473   00179A  6EDF               	movwf	indf2,c
  3474   00179C                     
  3475                           ;C:\Program Files\Microchip\xc8\v2.41\pic\sources\c99\common\doprnt.c: 514:         --p;
  3476   00179C  0624               	decf	dtoa@p^0,f,c
  3477   00179E  A0D8               	btfss	status,0,c
  3478   0017A0  0625               	decf	(dtoa@p+1)^0,f,c
  3479   0017A2                     
  3480                           ;C:\Program Files\Microchip\xc8\v2.41\pic\sources\c99\common\doprnt.c: 515:         --w;
  3481   0017A2  0626               	decf	dtoa@w^0,f,c
  3482   0017A4  A0D8               	btfss	status,0,c
  3483   0017A6  0627               	decf	(dtoa@w+1)^0,f,c
  3484   0017A8                     
  3485                           ;C:\Program Files\Microchip\xc8\v2.41\pic\sources\c99\common\doprnt.c: 516:         d = 
      +                          d / 10;
  3486   0017A8  C020  F003         	movff	dtoa@d,___awdiv@dividend
  3487   0017AC  C021  F004         	movff	dtoa@d+1,___awdiv@dividend+1
  3488   0017B0  0E00               	movlw	0
  3489   0017B2  6E06               	movwf	(___awdiv@divisor+1)^0,c
  3490   0017B4  0E0A               	movlw	10
  3491   0017B6  6E05               	movwf	___awdiv@divisor^0,c
  3492   0017B8  ECE8  F010         	call	___awdiv	;wreg free
  3493   0017BC  C003  F020         	movff	?___awdiv,dtoa@d
  3494   0017C0  C004  F021         	movff	?___awdiv+1,dtoa@d+1
  3495   0017C4                     l6006:
  3496                           
  3497                           ;C:\Program Files\Microchip\xc8\v2.41\pic\sources\c99\common\doprnt.c: 507:     while (!
      +                          (i < 1) && (d || (0 < p)
  3498   0017C4  BE29               	btfsc	(dtoa@i+1)^0,7,c
  3499   0017C6  EFED  F00B         	goto	u4461
  3500   0017CA  5029               	movf	(dtoa@i+1)^0,w,c
  3501   0017CC  E108               	bnz	u4460
  3502   0017CE  0428               	decf	dtoa@i^0,w,c
  3503   0017D0  A0D8               	btfss	status,0,c
  3504   0017D2  EFED  F00B         	goto	u4461
  3505   0017D6  EFEF  F00B         	goto	u4460
  3506   0017DA                     u4461:
  3507   0017DA  EF05  F00C         	goto	l6012
  3508   0017DE                     u4460:
  3509   0017DE  5020               	movf	dtoa@d^0,w,c
  3510   0017E0  1021               	iorwf	(dtoa@d+1)^0,w,c
  3511   0017E2  A4D8               	btfss	status,2,c
  3512   0017E4  EFF6  F00B         	goto	u4471
  3513   0017E8  EFF8  F00B         	goto	u4470
  3514   0017EC                     u4471:
  3515   0017EC  EFB2  F00B         	goto	l5996
  3516   0017F0                     u4470:
  3517   0017F0  BE25               	btfsc	(dtoa@p+1)^0,7,c
  3518   0017F2  EF05  F00C         	goto	u4480
  3519   0017F6  5025               	movf	(dtoa@p+1)^0,w,c
  3520   0017F8  E106               	bnz	u4481
  3521   0017FA  0424               	decf	dtoa@p^0,w,c
  3522   0017FC  B0D8               	btfsc	status,0,c
  3523   0017FE  EF03  F00C         	goto	u4481
  3524   001802  EF05  F00C         	goto	u4480
  3525   001806                     u4481:
  3526   001806  EFB2  F00B         	goto	l5996
  3527   00180A                     u4480:
  3528   00180A                     l6012:
  3529                           
  3530                           ;C:\Program Files\Microchip\xc8\v2.41\pic\sources\c99\common\doprnt.c: 520:     if (s !=
      +                           0) {
  3531   00180A  502A               	movf	dtoa@s^0,w,c
  3532   00180C  B4D8               	btfsc	status,2,c
  3533   00180E  EF0B  F00C         	goto	u4491
  3534   001812  EF0D  F00C         	goto	u4490
  3535   001816                     u4491:
  3536   001816  EF18  F00C         	goto	l6018
  3537   00181A                     u4490:
  3538   00181A                     
  3539                           ;C:\Program Files\Microchip\xc8\v2.41\pic\sources\c99\common\doprnt.c: 521:         --i;
  3540   00181A  0628               	decf	dtoa@i^0,f,c
  3541   00181C  A0D8               	btfss	status,0,c
  3542   00181E  0629               	decf	(dtoa@i+1)^0,f,c
  3543   001820                     
  3544                           ;C:\Program Files\Microchip\xc8\v2.41\pic\sources\c99\common\doprnt.c: 522:         dbuf
      +                          [i] = s;
  3545   001820  0E00               	movlw	low _dbuf
  3546   001822  2428               	addwf	dtoa@i^0,w,c
  3547   001824  6ED9               	movwf	fsr2l,c
  3548   001826  0E01               	movlw	high _dbuf
  3549   001828  2029               	addwfc	(dtoa@i+1)^0,w,c
  3550   00182A  6EDA               	movwf	fsr2h,c
  3551   00182C  C02A  FFDF         	movff	dtoa@s,indf2
  3552   001830                     l6018:
  3553                           
  3554                           ;C:\Program Files\Microchip\xc8\v2.41\pic\sources\c99\common\doprnt.c: 526:     return (
      +                          void) pad(fp, &dbuf[i], w);
  3555   001830  C01E  F013         	movff	dtoa@fp,pad@fp
  3556   001834  C01F  F014         	movff	dtoa@fp+1,pad@fp+1
  3557   001838  0E00               	movlw	low _dbuf
  3558   00183A  2428               	addwf	dtoa@i^0,w,c
  3559   00183C  6E15               	movwf	pad@buf^0,c
  3560   00183E  0E01               	movlw	high _dbuf
  3561   001840  2029               	addwfc	(dtoa@i+1)^0,w,c
  3562   001842  6E16               	movwf	(pad@buf+1)^0,c
  3563   001844  C026  F017         	movff	dtoa@w,pad@p
  3564   001848  C027  F018         	movff	dtoa@w+1,pad@p+1
  3565   00184C  ECD8  F013         	call	_pad	;wreg free
  3566   001850  0012               	return		;funcret
  3567   001852                     __end_of_dtoa:
  3568                           	callstack 0
  3569                           
  3570 ;; *************** function _pad *****************
  3571 ;; Defined at:
  3572 ;;		line 152 in file "C:\Program Files\Microchip\xc8\v2.41\pic\sources\c99\common\doprnt.c"
  3573 ;; Parameters:    Size  Location     Type
  3574 ;;  fp              2   18[COMRAM] PTR struct _IO_FILE
  3575 ;;		 -> sprintf@f(12), 
  3576 ;;  buf             2   20[COMRAM] PTR unsigned char 
  3577 ;;		 -> dbuf(32), 
  3578 ;;  p               2   22[COMRAM] int 
  3579 ;; Auto vars:     Size  Location     Type
  3580 ;;  w               2   27[COMRAM] int 
  3581 ;;  i               2   25[COMRAM] int 
  3582 ;; Return value:  Size  Location     Type
  3583 ;;                  1    wreg      void 
  3584 ;; Registers used:
  3585 ;;		wreg, fsr1l, fsr1h, fsr2l, fsr2h, status,2, status,0, cstack
  3586 ;; Tracked objects:
  3587 ;;		On entry : 0/0
  3588 ;;		On exit  : 0/0
  3589 ;;		Unchanged: 0/0
  3590 ;; Data sizes:     COMRAM   BANK0   BANK1   BANK2   BANK3   BANK4   BANK5   BANK6   BANK7   BANK8   BANK9  BANK10  BANK1
      +1  BANK12  BANK13  BANK14  BANK15
  3591 ;;      Params:         6       0       0       0       0       0       0       0       0       0       0       0       
      +0       0       0       0       0
  3592 ;;      Locals:         4       0       0       0       0       0       0       0       0       0       0       0       
      +0       0       0       0       0
  3593 ;;      Temps:          1       0       0       0       0       0       0       0       0       0       0       0       
      +0       0       0       0       0
  3594 ;;      Totals:        11       0       0       0       0       0       0       0       0       0       0       0       
      +0       0       0       0       0
  3595 ;;Total ram usage:       11 bytes
  3596 ;; Hardware stack levels used: 1
  3597 ;; Hardware stack levels required when called: 5
  3598 ;; This function calls:
  3599 ;;		_fputc
  3600 ;;		_fputs
  3601 ;; This function is called by:
  3602 ;;		_dtoa
  3603 ;; This function uses a non-reentrant model
  3604 ;;
  3605                           
  3606                           	psect	text17
  3607   0027B0                     __ptext17:
  3608                           	callstack 0
  3609   0027B0                     _pad:
  3610                           	callstack 19
  3611   0027B0                     
  3612                           ;C:\Program Files\Microchip\xc8\v2.41\pic\sources\c99\common\doprnt.c: 152: static void 
      +                          pad(FILE *fp, char *buf, int p);C:\Program Files\Microchip\xc8\v2.41\pic\sources\c99\com
      +                          mon\doprnt.c: 153: {;C:\Program Files\Microchip\xc8\v2.41\pic\sources\c99\common\doprnt.
      +                          c: 154:     int i, w;;C:\Program Files\Microchip\xc8\v2.41\pic\sources\c99\common\doprnt
      +                          .c: 164:     w = (p < 0) ? 0 : p;
  3613   0027B0  BE18               	btfsc	(pad@p+1)^0,7,c
  3614   0027B2  EFDD  F013         	goto	u4331
  3615   0027B6  EFDF  F013         	goto	u4330
  3616   0027BA                     u4331:
  3617   0027BA  EFE5  F013         	goto	l5934
  3618   0027BE                     u4330:
  3619   0027BE  C017  F01C         	movff	pad@p,pad@w
  3620   0027C2  C018  F01D         	movff	pad@p+1,pad@w+1
  3621   0027C6  EFE9  F013         	goto	l2568
  3622   0027CA                     l5934:
  3623   0027CA  0E00               	movlw	0
  3624   0027CC  6E1D               	movwf	(pad@w+1)^0,c
  3625   0027CE  0E00               	movlw	0
  3626   0027D0  6E1C               	movwf	pad@w^0,c
  3627   0027D2                     l2568:
  3628                           
  3629                           ;C:\Program Files\Microchip\xc8\v2.41\pic\sources\c99\common\doprnt.c: 165:     i = 0;
  3630   0027D2  0E00               	movlw	0
  3631   0027D4  6E1B               	movwf	(pad@i+1)^0,c
  3632   0027D6  0E00               	movlw	0
  3633   0027D8  6E1A               	movwf	pad@i^0,c
  3634                           
  3635                           ;C:\Program Files\Microchip\xc8\v2.41\pic\sources\c99\common\doprnt.c: 166:     while (i
      +                           < w) {
  3636   0027DA  EFFB  F013         	goto	l5940
  3637   0027DE                     l5936:
  3638                           
  3639                           ;C:\Program Files\Microchip\xc8\v2.41\pic\sources\c99\common\doprnt.c: 167:         fput
      +                          c(' ', fp);
  3640   0027DE  0E00               	movlw	0
  3641   0027E0  6E04               	movwf	(fputc@c+1)^0,c
  3642   0027E2  0E20               	movlw	32
  3643   0027E4  6E03               	movwf	fputc@c^0,c
  3644   0027E6  C013  F005         	movff	pad@fp,fputc@fp
  3645   0027EA  C014  F006         	movff	pad@fp+1,fputc@fp+1
  3646   0027EE  EC83  F010         	call	_fputc	;wreg free
  3647   0027F2                     
  3648                           ;C:\Program Files\Microchip\xc8\v2.41\pic\sources\c99\common\doprnt.c: 168:         ++i;
  3649   0027F2  4A1A               	infsnz	pad@i^0,f,c
  3650   0027F4  2A1B               	incf	(pad@i+1)^0,f,c
  3651   0027F6                     l5940:
  3652                           
  3653                           ;C:\Program Files\Microchip\xc8\v2.41\pic\sources\c99\common\doprnt.c: 166:     while (i
      +                           < w) {
  3654   0027F6  501C               	movf	pad@w^0,w,c
  3655   0027F8  5C1A               	subwf	pad@i^0,w,c
  3656   0027FA  501B               	movf	(pad@i+1)^0,w,c
  3657   0027FC  0A80               	xorlw	128
  3658   0027FE  6E19               	movwf	??_pad^0,c
  3659   002800  501D               	movf	(pad@w+1)^0,w,c
  3660   002802  0A80               	xorlw	128
  3661   002804  5819               	subwfb	??_pad^0,w,c
  3662   002806  A0D8               	btfss	status,0,c
  3663   002808  EF08  F014         	goto	u4341
  3664   00280C  EF0A  F014         	goto	u4340
  3665   002810                     u4341:
  3666   002810  EFEF  F013         	goto	l5936
  3667   002814                     u4340:
  3668   002814                     
  3669                           ;C:\Program Files\Microchip\xc8\v2.41\pic\sources\c99\common\doprnt.c: 175:         fput
      +                          s((const char *)buf, fp);
  3670   002814  C015  F00C         	movff	pad@buf,fputs@s
  3671   002818  C016  F00D         	movff	pad@buf+1,fputs@s+1
  3672   00281C  C013  F00E         	movff	pad@fp,fputs@fp
  3673   002820  C014  F00F         	movff	pad@fp+1,fputs@fp+1
  3674   002824  ECC8  F015         	call	_fputs	;wreg free
  3675   002828  0012               	return		;funcret
  3676   00282A                     __end_of_pad:
  3677                           	callstack 0
  3678                           
  3679 ;; *************** function _fputs *****************
  3680 ;; Defined at:
  3681 ;;		line 8 in file "C:\Program Files\Microchip\xc8\v2.41\pic\sources\c99\common\nf_fputs.c"
  3682 ;; Parameters:    Size  Location     Type
  3683 ;;  s               2   11[COMRAM] PTR const unsigned char 
  3684 ;;		 -> dbuf(32), 
  3685 ;;  fp              2   13[COMRAM] PTR struct _IO_FILE
  3686 ;;		 -> sprintf@f(12), 
  3687 ;; Auto vars:     Size  Location     Type
  3688 ;;  i               2   16[COMRAM] int 
  3689 ;;  c               1   15[COMRAM] unsigned char 
  3690 ;; Return value:  Size  Location     Type
  3691 ;;                  2   11[COMRAM] int 
  3692 ;; Registers used:
  3693 ;;		wreg, fsr1l, fsr1h, fsr2l, fsr2h, status,2, status,0, cstack
  3694 ;; Tracked objects:
  3695 ;;		On entry : 0/0
  3696 ;;		On exit  : 0/0
  3697 ;;		Unchanged: 0/0
  3698 ;; Data sizes:     COMRAM   BANK0   BANK1   BANK2   BANK3   BANK4   BANK5   BANK6   BANK7   BANK8   BANK9  BANK10  BANK1
      +1  BANK12  BANK13  BANK14  BANK15
  3699 ;;      Params:         4       0       0       0       0       0       0       0       0       0       0       0       
      +0       0       0       0       0
  3700 ;;      Locals:         3       0       0       0       0       0       0       0       0       0       0       0       
      +0       0       0       0       0
  3701 ;;      Temps:          0       0       0       0       0       0       0       0       0       0       0       0       
      +0       0       0       0       0
  3702 ;;      Totals:         7       0       0       0       0       0       0       0       0       0       0       0       
      +0       0       0       0       0
  3703 ;;Total ram usage:        7 bytes
  3704 ;; Hardware stack levels used: 1
  3705 ;; Hardware stack levels required when called: 4
  3706 ;; This function calls:
  3707 ;;		_fputc
  3708 ;; This function is called by:
  3709 ;;		_pad
  3710 ;; This function uses a non-reentrant model
  3711 ;;
  3712                           
  3713                           	psect	text18
  3714   002B90                     __ptext18:
  3715                           	callstack 0
  3716   002B90                     _fputs:
  3717                           	callstack 19
  3718   002B90  0E00               	movlw	0
  3719   002B92  6E12               	movwf	(fputs@i+1)^0,c
  3720   002B94  0E00               	movlw	0
  3721   002B96  6E11               	movwf	fputs@i^0,c
  3722   002B98  EFD9  F015         	goto	l5848
  3723   002B9C                     l5844:
  3724   002B9C  C010  F003         	movff	fputs@c,fputc@c
  3725   002BA0  6A04               	clrf	(fputc@c+1)^0,c
  3726   002BA2  C00E  F005         	movff	fputs@fp,fputc@fp
  3727   002BA6  C00F  F006         	movff	fputs@fp+1,fputc@fp+1
  3728   002BAA  EC83  F010         	call	_fputc	;wreg free
  3729   002BAE  4A11               	infsnz	fputs@i^0,f,c
  3730   002BB0  2A12               	incf	(fputs@i+1)^0,f,c
  3731   002BB2                     l5848:
  3732   002BB2  5011               	movf	fputs@i^0,w,c
  3733   002BB4  240C               	addwf	fputs@s^0,w,c
  3734   002BB6  6ED9               	movwf	fsr2l,c
  3735   002BB8  5012               	movf	(fputs@i+1)^0,w,c
  3736   002BBA  200D               	addwfc	(fputs@s+1)^0,w,c
  3737   002BBC  6EDA               	movwf	fsr2h,c
  3738   002BBE  50DF               	movf	indf2,w,c
  3739   002BC0  6E10               	movwf	fputs@c^0,c
  3740   002BC2  5010               	movf	fputs@c^0,w,c
  3741   002BC4  A4D8               	btfss	status,2,c
  3742   002BC6  EFE7  F015         	goto	u4201
  3743   002BCA  EFE9  F015         	goto	u4200
  3744   002BCE                     u4201:
  3745   002BCE  EFCE  F015         	goto	l5844
  3746   002BD2                     u4200:
  3747   002BD2  0012               	return		;funcret
  3748   002BD4                     __end_of_fputs:
  3749                           	callstack 0
  3750                           
  3751 ;; *************** function _fputc *****************
  3752 ;; Defined at:
  3753 ;;		line 8 in file "C:\Program Files\Microchip\xc8\v2.41\pic\sources\c99\common\nf_fputc.c"
  3754 ;; Parameters:    Size  Location     Type
  3755 ;;  c               2    2[COMRAM] int 
  3756 ;;  fp              2    4[COMRAM] PTR struct _IO_FILE
  3757 ;;		 -> sprintf@f(12), 
  3758 ;; Auto vars:     Size  Location     Type
  3759 ;;		None
  3760 ;; Return value:  Size  Location     Type
  3761 ;;                  2    2[COMRAM] int 
  3762 ;; Registers used:
  3763 ;;		wreg, fsr1l, fsr1h, fsr2l, fsr2h, status,2, status,0, cstack
  3764 ;; Tracked objects:
  3765 ;;		On entry : 0/0
  3766 ;;		On exit  : 0/0
  3767 ;;		Unchanged: 0/0
  3768 ;; Data sizes:     COMRAM   BANK0   BANK1   BANK2   BANK3   BANK4   BANK5   BANK6   BANK7   BANK8   BANK9  BANK10  BANK1
      +1  BANK12  BANK13  BANK14  BANK15
  3769 ;;      Params:         4       0       0       0       0       0       0       0       0       0       0       0       
      +0       0       0       0       0
  3770 ;;      Locals:         0       0       0       0       0       0       0       0       0       0       0       0       
      +0       0       0       0       0
  3771 ;;      Temps:          5       0       0       0       0       0       0       0       0       0       0       0       
      +0       0       0       0       0
  3772 ;;      Totals:         9       0       0       0       0       0       0       0       0       0       0       0       
      +0       0       0       0       0
  3773 ;;Total ram usage:        9 bytes
  3774 ;; Hardware stack levels used: 1
  3775 ;; Hardware stack levels required when called: 3
  3776 ;; This function calls:
  3777 ;;		_putch
  3778 ;; This function is called by:
  3779 ;;		_pad
  3780 ;;		_vfpfcnvrt
  3781 ;;		_fputs
  3782 ;; This function uses a non-reentrant model
  3783 ;;
  3784                           
  3785                           	psect	text19
  3786   002106                     __ptext19:
  3787                           	callstack 0
  3788   002106                     _fputc:
  3789                           	callstack 22
  3790   002106  5005               	movf	fputc@fp^0,w,c
  3791   002108  1006               	iorwf	(fputc@fp+1)^0,w,c
  3792   00210A  B4D8               	btfsc	status,2,c
  3793   00210C  EF8A  F010         	goto	u4161
  3794   002110  EF8C  F010         	goto	u4160
  3795   002114                     u4161:
  3796   002114  EF95  F010         	goto	l5832
  3797   002118                     u4160:
  3798   002118  5005               	movf	fputc@fp^0,w,c
  3799   00211A  1006               	iorwf	(fputc@fp+1)^0,w,c
  3800   00211C  A4D8               	btfss	status,2,c
  3801   00211E  EF93  F010         	goto	u4171
  3802   002122  EF95  F010         	goto	u4170
  3803   002126                     u4171:
  3804   002126  EF9A  F010         	goto	l5834
  3805   00212A                     u4170:
  3806   00212A                     l5832:
  3807   00212A  5003               	movf	fputc@c^0,w,c
  3808   00212C  EC1A  F017         	call	_putch
  3809   002130  EFE7  F010         	goto	l2623
  3810   002134                     l5834:
  3811   002134  EE20 F00A          	lfsr	2,10
  3812   002138  5005               	movf	fputc@fp^0,w,c
  3813   00213A  26D9               	addwf	fsr2l,f,c
  3814   00213C  5006               	movf	(fputc@fp+1)^0,w,c
  3815   00213E  22DA               	addwfc	fsr2h,f,c
  3816   002140  50DE               	movf	postinc2,w,c
  3817   002142  10DE               	iorwf	postinc2,w,c
  3818   002144  B4D8               	btfsc	status,2,c
  3819   002146  EFA7  F010         	goto	u4181
  3820   00214A  EFA9  F010         	goto	u4180
  3821   00214E                     u4181:
  3822   00214E  EFC4  F010         	goto	l5838
  3823   002152                     u4180:
  3824   002152  EE20 F00A          	lfsr	2,10
  3825   002156  5005               	movf	fputc@fp^0,w,c
  3826   002158  26D9               	addwf	fsr2l,f,c
  3827   00215A  5006               	movf	(fputc@fp+1)^0,w,c
  3828   00215C  22DA               	addwfc	fsr2h,f,c
  3829   00215E  EE10 F003          	lfsr	1,3
  3830   002162  5005               	movf	fputc@fp^0,w,c
  3831   002164  26E1               	addwf	fsr1l,f,c
  3832   002166  5006               	movf	(fputc@fp+1)^0,w,c
  3833   002168  22E2               	addwfc	fsr1h,f,c
  3834   00216A  50DE               	movf	postinc2,w,c
  3835   00216C  5CE6               	subwf	postinc1,w,c
  3836   00216E  50E6               	movf	postinc1,w,c
  3837   002170  0A80               	xorlw	128
  3838   002172  6E0B               	movwf	(??_fputc+4)^0,c
  3839   002174  50DE               	movf	postinc2,w,c
  3840   002176  0A80               	xorlw	128
  3841   002178  580B               	subwfb	(??_fputc+4)^0,w,c
  3842   00217A  B0D8               	btfsc	status,0,c
  3843   00217C  EFC2  F010         	goto	u4191
  3844   002180  EFC4  F010         	goto	u4190
  3845   002184                     u4191:
  3846   002184  EFE7  F010         	goto	l2623
  3847   002188                     u4190:
  3848   002188                     l5838:
  3849   002188  EE20 F003          	lfsr	2,3
  3850   00218C  5005               	movf	fputc@fp^0,w,c
  3851   00218E  26D9               	addwf	fsr2l,f,c
  3852   002190  5006               	movf	(fputc@fp+1)^0,w,c
  3853   002192  22DA               	addwfc	fsr2h,f,c
  3854   002194  CFDE F007          	movff	postinc2,??_fputc
  3855   002198  CFDD F008          	movff	postdec2,??_fputc+1
  3856   00219C  C005  FFD9         	movff	fputc@fp,fsr2l
  3857   0021A0  C006  FFDA         	movff	fputc@fp+1,fsr2h
  3858   0021A4  CFDE F009          	movff	postinc2,??_fputc+2
  3859   0021A8  CFDD F00A          	movff	postdec2,??_fputc+3
  3860   0021AC  5007               	movf	??_fputc^0,w,c
  3861   0021AE  2409               	addwf	(??_fputc+2)^0,w,c
  3862   0021B0  6ED9               	movwf	fsr2l,c
  3863   0021B2  5008               	movf	(??_fputc+1)^0,w,c
  3864   0021B4  200A               	addwfc	(??_fputc+3)^0,w,c
  3865   0021B6  6EDA               	movwf	fsr2h,c
  3866   0021B8  C003  FFDF         	movff	fputc@c,indf2
  3867   0021BC  EE20 F003          	lfsr	2,3
  3868   0021C0  5005               	movf	fputc@fp^0,w,c
  3869   0021C2  26D9               	addwf	fsr2l,f,c
  3870   0021C4  5006               	movf	(fputc@fp+1)^0,w,c
  3871   0021C6  22DA               	addwfc	fsr2h,f,c
  3872   0021C8  2ADE               	incf	postinc2,f,c
  3873   0021CA  0E00               	movlw	0
  3874   0021CC  22DD               	addwfc	postdec2,f,c
  3875   0021CE                     l2623:
  3876   0021CE  0012               	return		;funcret
  3877   0021D0                     __end_of_fputc:
  3878                           	callstack 0
  3879                           
  3880 ;; *************** function _putch *****************
  3881 ;; Defined at:
  3882 ;;		line 7 in file "C:\Program Files\Microchip\xc8\v2.41\pic\sources\c99\common\putch.c"
  3883 ;; Parameters:    Size  Location     Type
  3884 ;;  c               1    wreg     unsigned char 
  3885 ;; Auto vars:     Size  Location     Type
  3886 ;;  c               1    0[COMRAM] unsigned char 
  3887 ;; Return value:  Size  Location     Type
  3888 ;;                  1    wreg      void 
  3889 ;; Registers used:
  3890 ;;		wreg
  3891 ;; Tracked objects:
  3892 ;;		On entry : 0/0
  3893 ;;		On exit  : 0/0
  3894 ;;		Unchanged: 0/0
  3895 ;; Data sizes:     COMRAM   BANK0   BANK1   BANK2   BANK3   BANK4   BANK5   BANK6   BANK7   BANK8   BANK9  BANK10  BANK1
      +1  BANK12  BANK13  BANK14  BANK15
  3896 ;;      Params:         0       0       0       0       0       0       0       0       0       0       0       0       
      +0       0       0       0       0
  3897 ;;      Locals:         0       0       0       0       0       0       0       0       0       0       0       0       
      +0       0       0       0       0
  3898 ;;      Temps:          0       0       0       0       0       0       0       0       0       0       0       0       
      +0       0       0       0       0
  3899 ;;      Totals:         0       0       0       0       0       0       0       0       0       0       0       0       
      +0       0       0       0       0
  3900 ;;Total ram usage:        0 bytes
  3901 ;; Hardware stack levels used: 1
  3902 ;; Hardware stack levels required when called: 2
  3903 ;; This function calls:
  3904 ;;		Nothing
  3905 ;; This function is called by:
  3906 ;;		_fputc
  3907 ;; This function uses a non-reentrant model
  3908 ;;
  3909                           
  3910                           	psect	text20
  3911   002E34                     __ptext20:
  3912                           	callstack 0
  3913   002E34                     _putch:
  3914                           	callstack 22
  3915   002E34  0012               	return		;funcret
  3916   002E36                     __end_of_putch:
  3917                           	callstack 0
  3918                           
  3919 ;; *************** function _abs *****************
  3920 ;; Defined at:
  3921 ;;		line 1 in file "C:\Program Files\Microchip\xc8\v2.41\pic\sources\c99\common\abs.c"
  3922 ;; Parameters:    Size  Location     Type
  3923 ;;  a               2    8[COMRAM] int 
  3924 ;; Auto vars:     Size  Location     Type
  3925 ;;		None
  3926 ;; Return value:  Size  Location     Type
  3927 ;;                  2    8[COMRAM] int 
  3928 ;; Registers used:
  3929 ;;		wreg, status,2, status,0
  3930 ;; Tracked objects:
  3931 ;;		On entry : 0/0
  3932 ;;		On exit  : 0/0
  3933 ;;		Unchanged: 0/0
  3934 ;; Data sizes:     COMRAM   BANK0   BANK1   BANK2   BANK3   BANK4   BANK5   BANK6   BANK7   BANK8   BANK9  BANK10  BANK1
      +1  BANK12  BANK13  BANK14  BANK15
  3935 ;;      Params:         2       0       0       0       0       0       0       0       0       0       0       0       
      +0       0       0       0       0
  3936 ;;      Locals:         0       0       0       0       0       0       0       0       0       0       0       0       
      +0       0       0       0       0
  3937 ;;      Temps:          2       0       0       0       0       0       0       0       0       0       0       0       
      +0       0       0       0       0
  3938 ;;      Totals:         4       0       0       0       0       0       0       0       0       0       0       0       
      +0       0       0       0       0
  3939 ;;Total ram usage:        4 bytes
  3940 ;; Hardware stack levels used: 1
  3941 ;; Hardware stack levels required when called: 2
  3942 ;; This function calls:
  3943 ;;		Nothing
  3944 ;; This function is called by:
  3945 ;;		_dtoa
  3946 ;; This function uses a non-reentrant model
  3947 ;;
  3948                           
  3949                           	psect	text21
  3950   002C14                     __ptext21:
  3951                           	callstack 0
  3952   002C14                     _abs:
  3953                           	callstack 22
  3954   002C14  BE0A               	btfsc	(abs@a+1)^0,7,c
  3955   002C16  EF17  F016         	goto	u4350
  3956   002C1A  500A               	movf	(abs@a+1)^0,w,c
  3957   002C1C  E106               	bnz	u4351
  3958   002C1E  0409               	decf	abs@a^0,w,c
  3959   002C20  B0D8               	btfsc	status,0,c
  3960   002C22  EF15  F016         	goto	u4351
  3961   002C26  EF17  F016         	goto	u4350
  3962   002C2A                     u4351:
  3963   002C2A  EF25  F016         	goto	l2608
  3964   002C2E                     u4350:
  3965   002C2E  C009  F00B         	movff	abs@a,??_abs
  3966   002C32  C00A  F00C         	movff	abs@a+1,??_abs+1
  3967   002C36  1E0B               	comf	??_abs^0,f,c
  3968   002C38  1E0C               	comf	(??_abs+1)^0,f,c
  3969   002C3A  4A0B               	infsnz	??_abs^0,f,c
  3970   002C3C  2A0C               	incf	(??_abs+1)^0,f,c
  3971   002C3E  C00B  F009         	movff	??_abs,?_abs
  3972   002C42  C00C  F00A         	movff	??_abs+1,?_abs+1
  3973   002C46  EF29  F016         	goto	l2611
  3974   002C4A                     l2608:
  3975   002C4A  C009  F009         	movff	abs@a,?_abs
  3976   002C4E  C00A  F00A         	movff	abs@a+1,?_abs+1
  3977   002C52                     l2611:
  3978   002C52  0012               	return		;funcret
  3979   002C54                     __end_of_abs:
  3980                           	callstack 0
  3981                           
  3982 ;; *************** function ___awmod *****************
  3983 ;; Defined at:
  3984 ;;		line 7 in file "C:\Program Files\Microchip\xc8\v2.41\pic\sources\c99\common\awmod.c"
  3985 ;; Parameters:    Size  Location     Type
  3986 ;;  dividend        2    2[COMRAM] int 
  3987 ;;  divisor         2    4[COMRAM] int 
  3988 ;; Auto vars:     Size  Location     Type
  3989 ;;  sign            1    7[COMRAM] unsigned char 
  3990 ;;  counter         1    6[COMRAM] unsigned char 
  3991 ;; Return value:  Size  Location     Type
  3992 ;;                  2    2[COMRAM] int 
  3993 ;; Registers used:
  3994 ;;		wreg, status,2, status,0
  3995 ;; Tracked objects:
  3996 ;;		On entry : 0/0
  3997 ;;		On exit  : 0/0
  3998 ;;		Unchanged: 0/0
  3999 ;; Data sizes:     COMRAM   BANK0   BANK1   BANK2   BANK3   BANK4   BANK5   BANK6   BANK7   BANK8   BANK9  BANK10  BANK1
      +1  BANK12  BANK13  BANK14  BANK15
  4000 ;;      Params:         4       0       0       0       0       0       0       0       0       0       0       0       
      +0       0       0       0       0
  4001 ;;      Locals:         2       0       0       0       0       0       0       0       0       0       0       0       
      +0       0       0       0       0
  4002 ;;      Temps:          0       0       0       0       0       0       0       0       0       0       0       0       
      +0       0       0       0       0
  4003 ;;      Totals:         6       0       0       0       0       0       0       0       0       0       0       0       
      +0       0       0       0       0
  4004 ;;Total ram usage:        6 bytes
  4005 ;; Hardware stack levels used: 1
  4006 ;; Hardware stack levels required when called: 2
  4007 ;; This function calls:
  4008 ;;		Nothing
  4009 ;; This function is called by:
  4010 ;;		_dtoa
  4011 ;; This function uses a non-reentrant model
  4012 ;;
  4013                           
  4014                           	psect	text22
  4015   002406                     __ptext22:
  4016                           	callstack 0
  4017   002406                     ___awmod:
  4018                           	callstack 22
  4019   002406  0E00               	movlw	0
  4020   002408  6E08               	movwf	___awmod@sign^0,c
  4021   00240A  BE04               	btfsc	(___awmod@dividend+1)^0,7,c
  4022   00240C  EF0C  F012         	goto	u4270
  4023   002410  EF0A  F012         	goto	u4271
  4024   002414                     u4271:
  4025   002414  EF12  F012         	goto	l5902
  4026   002418                     u4270:
  4027   002418  6C03               	negf	___awmod@dividend^0,c
  4028   00241A  1E04               	comf	(___awmod@dividend+1)^0,f,c
  4029   00241C  B0D8               	btfsc	status,0,c
  4030   00241E  2A04               	incf	(___awmod@dividend+1)^0,f,c
  4031   002420  0E01               	movlw	1
  4032   002422  6E08               	movwf	___awmod@sign^0,c
  4033   002424                     l5902:
  4034   002424  BE06               	btfsc	(___awmod@divisor+1)^0,7,c
  4035   002426  EF19  F012         	goto	u4280
  4036   00242A  EF17  F012         	goto	u4281
  4037   00242E                     u4281:
  4038   00242E  EF1D  F012         	goto	l5906
  4039   002432                     u4280:
  4040   002432  6C05               	negf	___awmod@divisor^0,c
  4041   002434  1E06               	comf	(___awmod@divisor+1)^0,f,c
  4042   002436  B0D8               	btfsc	status,0,c
  4043   002438  2A06               	incf	(___awmod@divisor+1)^0,f,c
  4044   00243A                     l5906:
  4045   00243A  5005               	movf	___awmod@divisor^0,w,c
  4046   00243C  1006               	iorwf	(___awmod@divisor+1)^0,w,c
  4047   00243E  B4D8               	btfsc	status,2,c
  4048   002440  EF24  F012         	goto	u4291
  4049   002444  EF26  F012         	goto	u4290
  4050   002448                     u4291:
  4051   002448  EF4A  F012         	goto	l5922
  4052   00244C                     u4290:
  4053   00244C  0E01               	movlw	1
  4054   00244E  6E07               	movwf	___awmod@counter^0,c
  4055   002450  EF2E  F012         	goto	l5912
  4056   002454                     l5910:
  4057   002454  90D8               	bcf	status,0,c
  4058   002456  3605               	rlcf	___awmod@divisor^0,f,c
  4059   002458  3606               	rlcf	(___awmod@divisor+1)^0,f,c
  4060   00245A  2A07               	incf	___awmod@counter^0,f,c
  4061   00245C                     l5912:
  4062   00245C  AE06               	btfss	(___awmod@divisor+1)^0,7,c
  4063   00245E  EF33  F012         	goto	u4301
  4064   002462  EF35  F012         	goto	u4300
  4065   002466                     u4301:
  4066   002466  EF2A  F012         	goto	l5910
  4067   00246A                     u4300:
  4068   00246A                     l5914:
  4069   00246A  5005               	movf	___awmod@divisor^0,w,c
  4070   00246C  5C03               	subwf	___awmod@dividend^0,w,c
  4071   00246E  5006               	movf	(___awmod@divisor+1)^0,w,c
  4072   002470  5804               	subwfb	(___awmod@dividend+1)^0,w,c
  4073   002472  A0D8               	btfss	status,0,c
  4074   002474  EF3E  F012         	goto	u4311
  4075   002478  EF40  F012         	goto	u4310
  4076   00247C                     u4311:
  4077   00247C  EF44  F012         	goto	l5918
  4078   002480                     u4310:
  4079   002480  5005               	movf	___awmod@divisor^0,w,c
  4080   002482  5E03               	subwf	___awmod@dividend^0,f,c
  4081   002484  5006               	movf	(___awmod@divisor+1)^0,w,c
  4082   002486  5A04               	subwfb	(___awmod@dividend+1)^0,f,c
  4083   002488                     l5918:
  4084   002488  90D8               	bcf	status,0,c
  4085   00248A  3206               	rrcf	(___awmod@divisor+1)^0,f,c
  4086   00248C  3205               	rrcf	___awmod@divisor^0,f,c
  4087   00248E  2E07               	decfsz	___awmod@counter^0,f,c
  4088   002490  EF35  F012         	goto	l5914
  4089   002494                     l5922:
  4090   002494  5008               	movf	___awmod@sign^0,w,c
  4091   002496  B4D8               	btfsc	status,2,c
  4092   002498  EF50  F012         	goto	u4321
  4093   00249C  EF52  F012         	goto	u4320
  4094   0024A0                     u4321:
  4095   0024A0  EF56  F012         	goto	l5926
  4096   0024A4                     u4320:
  4097   0024A4  6C03               	negf	___awmod@dividend^0,c
  4098   0024A6  1E04               	comf	(___awmod@dividend+1)^0,f,c
  4099   0024A8  B0D8               	btfsc	status,0,c
  4100   0024AA  2A04               	incf	(___awmod@dividend+1)^0,f,c
  4101   0024AC                     l5926:
  4102   0024AC  C003  F003         	movff	___awmod@dividend,?___awmod
  4103   0024B0  C004  F004         	movff	___awmod@dividend+1,?___awmod+1
  4104   0024B4  0012               	return		;funcret
  4105   0024B6                     __end_of___awmod:
  4106                           	callstack 0
  4107                           
  4108 ;; *************** function ___awdiv *****************
  4109 ;; Defined at:
  4110 ;;		line 7 in file "C:\Program Files\Microchip\xc8\v2.41\pic\sources\c99\common\awdiv.c"
  4111 ;; Parameters:    Size  Location     Type
  4112 ;;  dividend        2    2[COMRAM] int 
  4113 ;;  divisor         2    4[COMRAM] int 
  4114 ;; Auto vars:     Size  Location     Type
  4115 ;;  quotient        2    8[COMRAM] int 
  4116 ;;  sign            1    7[COMRAM] unsigned char 
  4117 ;;  counter         1    6[COMRAM] unsigned char 
  4118 ;; Return value:  Size  Location     Type
  4119 ;;                  2    2[COMRAM] int 
  4120 ;; Registers used:
  4121 ;;		wreg, status,2, status,0
  4122 ;; Tracked objects:
  4123 ;;		On entry : 0/0
  4124 ;;		On exit  : 0/0
  4125 ;;		Unchanged: 0/0
  4126 ;; Data sizes:     COMRAM   BANK0   BANK1   BANK2   BANK3   BANK4   BANK5   BANK6   BANK7   BANK8   BANK9  BANK10  BANK1
      +1  BANK12  BANK13  BANK14  BANK15
  4127 ;;      Params:         4       0       0       0       0       0       0       0       0       0       0       0       
      +0       0       0       0       0
  4128 ;;      Locals:         4       0       0       0       0       0       0       0       0       0       0       0       
      +0       0       0       0       0
  4129 ;;      Temps:          0       0       0       0       0       0       0       0       0       0       0       0       
      +0       0       0       0       0
  4130 ;;      Totals:         8       0       0       0       0       0       0       0       0       0       0       0       
      +0       0       0       0       0
  4131 ;;Total ram usage:        8 bytes
  4132 ;; Hardware stack levels used: 1
  4133 ;; Hardware stack levels required when called: 2
  4134 ;; This function calls:
  4135 ;;		Nothing
  4136 ;; This function is called by:
  4137 ;;		_dtoa
  4138 ;; This function uses a non-reentrant model
  4139 ;;
  4140                           
  4141                           	psect	text23
  4142   0021D0                     __ptext23:
  4143                           	callstack 0
  4144   0021D0                     ___awdiv:
  4145                           	callstack 22
  4146   0021D0  0E00               	movlw	0
  4147   0021D2  6E08               	movwf	___awdiv@sign^0,c
  4148   0021D4  BE06               	btfsc	(___awdiv@divisor+1)^0,7,c
  4149   0021D6  EFF1  F010         	goto	u4210
  4150   0021DA  EFEF  F010         	goto	u4211
  4151   0021DE                     u4211:
  4152   0021DE  EFF7  F010         	goto	l5858
  4153   0021E2                     u4210:
  4154   0021E2  6C05               	negf	___awdiv@divisor^0,c
  4155   0021E4  1E06               	comf	(___awdiv@divisor+1)^0,f,c
  4156   0021E6  B0D8               	btfsc	status,0,c
  4157   0021E8  2A06               	incf	(___awdiv@divisor+1)^0,f,c
  4158   0021EA  0E01               	movlw	1
  4159   0021EC  6E08               	movwf	___awdiv@sign^0,c
  4160   0021EE                     l5858:
  4161   0021EE  BE04               	btfsc	(___awdiv@dividend+1)^0,7,c
  4162   0021F0  EFFE  F010         	goto	u4220
  4163   0021F4  EFFC  F010         	goto	u4221
  4164   0021F8                     u4221:
  4165   0021F8  EF04  F011         	goto	l5864
  4166   0021FC                     u4220:
  4167   0021FC  6C03               	negf	___awdiv@dividend^0,c
  4168   0021FE  1E04               	comf	(___awdiv@dividend+1)^0,f,c
  4169   002200  B0D8               	btfsc	status,0,c
  4170   002202  2A04               	incf	(___awdiv@dividend+1)^0,f,c
  4171   002204  0E01               	movlw	1
  4172   002206  1A08               	xorwf	___awdiv@sign^0,f,c
  4173   002208                     l5864:
  4174   002208  0E00               	movlw	0
  4175   00220A  6E0A               	movwf	(___awdiv@quotient+1)^0,c
  4176   00220C  0E00               	movlw	0
  4177   00220E  6E09               	movwf	___awdiv@quotient^0,c
  4178   002210  5005               	movf	___awdiv@divisor^0,w,c
  4179   002212  1006               	iorwf	(___awdiv@divisor+1)^0,w,c
  4180   002214  B4D8               	btfsc	status,2,c
  4181   002216  EF0F  F011         	goto	u4231
  4182   00221A  EF11  F011         	goto	u4230
  4183   00221E                     u4231:
  4184   00221E  EF39  F011         	goto	l5886
  4185   002222                     u4230:
  4186   002222  0E01               	movlw	1
  4187   002224  6E07               	movwf	___awdiv@counter^0,c
  4188   002226  EF19  F011         	goto	l5872
  4189   00222A                     l5870:
  4190   00222A  90D8               	bcf	status,0,c
  4191   00222C  3605               	rlcf	___awdiv@divisor^0,f,c
  4192   00222E  3606               	rlcf	(___awdiv@divisor+1)^0,f,c
  4193   002230  2A07               	incf	___awdiv@counter^0,f,c
  4194   002232                     l5872:
  4195   002232  AE06               	btfss	(___awdiv@divisor+1)^0,7,c
  4196   002234  EF1E  F011         	goto	u4241
  4197   002238  EF20  F011         	goto	u4240
  4198   00223C                     u4241:
  4199   00223C  EF15  F011         	goto	l5870
  4200   002240                     u4240:
  4201   002240                     l5874:
  4202   002240  90D8               	bcf	status,0,c
  4203   002242  3609               	rlcf	___awdiv@quotient^0,f,c
  4204   002244  360A               	rlcf	(___awdiv@quotient+1)^0,f,c
  4205   002246  5005               	movf	___awdiv@divisor^0,w,c
  4206   002248  5C03               	subwf	___awdiv@dividend^0,w,c
  4207   00224A  5006               	movf	(___awdiv@divisor+1)^0,w,c
  4208   00224C  5804               	subwfb	(___awdiv@dividend+1)^0,w,c
  4209   00224E  A0D8               	btfss	status,0,c
  4210   002250  EF2C  F011         	goto	u4251
  4211   002254  EF2E  F011         	goto	u4250
  4212   002258                     u4251:
  4213   002258  EF33  F011         	goto	l5882
  4214   00225C                     u4250:
  4215   00225C  5005               	movf	___awdiv@divisor^0,w,c
  4216   00225E  5E03               	subwf	___awdiv@dividend^0,f,c
  4217   002260  5006               	movf	(___awdiv@divisor+1)^0,w,c
  4218   002262  5A04               	subwfb	(___awdiv@dividend+1)^0,f,c
  4219   002264  8009               	bsf	___awdiv@quotient^0,0,c
  4220   002266                     l5882:
  4221   002266  90D8               	bcf	status,0,c
  4222   002268  3206               	rrcf	(___awdiv@divisor+1)^0,f,c
  4223   00226A  3205               	rrcf	___awdiv@divisor^0,f,c
  4224   00226C  2E07               	decfsz	___awdiv@counter^0,f,c
  4225   00226E  EF20  F011         	goto	l5874
  4226   002272                     l5886:
  4227   002272  5008               	movf	___awdiv@sign^0,w,c
  4228   002274  B4D8               	btfsc	status,2,c
  4229   002276  EF3F  F011         	goto	u4261
  4230   00227A  EF41  F011         	goto	u4260
  4231   00227E                     u4261:
  4232   00227E  EF45  F011         	goto	l5890
  4233   002282                     u4260:
  4234   002282  6C09               	negf	___awdiv@quotient^0,c
  4235   002284  1E0A               	comf	(___awdiv@quotient+1)^0,f,c
  4236   002286  B0D8               	btfsc	status,0,c
  4237   002288  2A0A               	incf	(___awdiv@quotient+1)^0,f,c
  4238   00228A                     l5890:
  4239   00228A  C009  F003         	movff	___awdiv@quotient,?___awdiv
  4240   00228E  C00A  F004         	movff	___awdiv@quotient+1,?___awdiv+1
  4241   002292  0012               	return		;funcret
  4242   002294                     __end_of___awdiv:
  4243                           	callstack 0
  4244                           
  4245 ;; *************** function _memset *****************
  4246 ;; Defined at:
  4247 ;;		line 4 in file "C:\Program Files\Microchip\xc8\v2.41\pic\sources\c99\common\memset.c"
  4248 ;; Parameters:    Size  Location     Type
  4249 ;;  dest            2    2[COMRAM] PTR void 
  4250 ;;		 -> result_txt(11), 
  4251 ;;  c               2    4[COMRAM] int 
  4252 ;;  n               2    6[COMRAM] unsigned int 
  4253 ;; Auto vars:     Size  Location     Type
  4254 ;;  s               2   12[COMRAM] PTR unsigned char 
  4255 ;;		 -> result_txt(11), 
  4256 ;;  k               2   10[COMRAM] unsigned int 
  4257 ;; Return value:  Size  Location     Type
  4258 ;;                  2    2[COMRAM] PTR void 
  4259 ;; Registers used:
  4260 ;;		wreg, fsr2l, fsr2h, status,2, status,0
  4261 ;; Tracked objects:
  4262 ;;		On entry : 0/0
  4263 ;;		On exit  : 0/0
  4264 ;;		Unchanged: 0/0
  4265 ;; Data sizes:     COMRAM   BANK0   BANK1   BANK2   BANK3   BANK4   BANK5   BANK6   BANK7   BANK8   BANK9  BANK10  BANK1
      +1  BANK12  BANK13  BANK14  BANK15
  4266 ;;      Params:         6       0       0       0       0       0       0       0       0       0       0       0       
      +0       0       0       0       0
  4267 ;;      Locals:         4       0       0       0       0       0       0       0       0       0       0       0       
      +0       0       0       0       0
  4268 ;;      Temps:          2       0       0       0       0       0       0       0       0       0       0       0       
      +0       0       0       0       0
  4269 ;;      Totals:        12       0       0       0       0       0       0       0       0       0       0       0       
      +0       0       0       0       0
  4270 ;;Total ram usage:       12 bytes
  4271 ;; Hardware stack levels used: 1
  4272 ;; Hardware stack levels required when called: 2
  4273 ;; This function calls:
  4274 ;;		Nothing
  4275 ;; This function is called by:
  4276 ;;		_convert_uint32_to_string
  4277 ;;		_convert_uint8_to_string
  4278 ;;		_convert_uint16_to_string
  4279 ;; This function uses a non-reentrant model
  4280 ;;
  4281                           
  4282                           	psect	text24
  4283   001852                     __ptext24:
  4284                           	callstack 0
  4285   001852                     _memset:
  4286                           	callstack 26
  4287   001852  C003  F00D         	movff	memset@dest,memset@s
  4288   001856  C004  F00E         	movff	memset@dest+1,memset@s+1
  4289   00185A  5007               	movf	memset@n^0,w,c
  4290   00185C  1008               	iorwf	(memset@n+1)^0,w,c
  4291   00185E  A4D8               	btfss	status,2,c
  4292   001860  EF34  F00C         	goto	u4661
  4293   001864  EF36  F00C         	goto	u4660
  4294   001868                     u4661:
  4295   001868  EF38  F00C         	goto	l6220
  4296   00186C                     u4660:
  4297   00186C  EFE3  F00C         	goto	l2533
  4298   001870                     l6220:
  4299   001870  C00D  FFD9         	movff	memset@s,fsr2l
  4300   001874  C00E  FFDA         	movff	memset@s+1,fsr2h
  4301   001878  C005  FFDF         	movff	memset@c,indf2
  4302   00187C  5007               	movf	memset@n^0,w,c
  4303   00187E  240D               	addwf	memset@s^0,w,c
  4304   001880  6E09               	movwf	??_memset^0,c
  4305   001882  5008               	movf	(memset@n+1)^0,w,c
  4306   001884  200E               	addwfc	(memset@s+1)^0,w,c
  4307   001886  6E0A               	movwf	(??_memset+1)^0,c
  4308   001888  0EFF               	movlw	255
  4309   00188A  2409               	addwf	??_memset^0,w,c
  4310   00188C  6ED9               	movwf	fsr2l,c
  4311   00188E  0EFF               	movlw	255
  4312   001890  200A               	addwfc	(??_memset+1)^0,w,c
  4313   001892  6EDA               	movwf	fsr2h,c
  4314   001894  C005  FFDF         	movff	memset@c,indf2
  4315   001898  5008               	movf	(memset@n+1)^0,w,c
  4316   00189A  E107               	bnz	u4671
  4317   00189C  0E03               	movlw	3
  4318   00189E  5C07               	subwf	memset@n^0,w,c
  4319   0018A0  B0D8               	btfsc	status,0,c
  4320   0018A2  EF55  F00C         	goto	u4671
  4321   0018A6  EF57  F00C         	goto	u4670
  4322   0018AA                     u4671:
  4323   0018AA  EF59  F00C         	goto	l6226
  4324   0018AE                     u4670:
  4325   0018AE  EFE3  F00C         	goto	l2533
  4326   0018B2                     l6226:
  4327   0018B2  EE20 F001          	lfsr	2,1
  4328   0018B6  500D               	movf	memset@s^0,w,c
  4329   0018B8  26D9               	addwf	fsr2l,f,c
  4330   0018BA  500E               	movf	(memset@s+1)^0,w,c
  4331   0018BC  22DA               	addwfc	fsr2h,f,c
  4332   0018BE  C005  FFDF         	movff	memset@c,indf2
  4333   0018C2  EE20 F002          	lfsr	2,2
  4334   0018C6  500D               	movf	memset@s^0,w,c
  4335   0018C8  26D9               	addwf	fsr2l,f,c
  4336   0018CA  500E               	movf	(memset@s+1)^0,w,c
  4337   0018CC  22DA               	addwfc	fsr2h,f,c
  4338   0018CE  C005  FFDF         	movff	memset@c,indf2
  4339   0018D2  5007               	movf	memset@n^0,w,c
  4340   0018D4  240D               	addwf	memset@s^0,w,c
  4341   0018D6  6E09               	movwf	??_memset^0,c
  4342   0018D8  5008               	movf	(memset@n+1)^0,w,c
  4343   0018DA  200E               	addwfc	(memset@s+1)^0,w,c
  4344   0018DC  6E0A               	movwf	(??_memset+1)^0,c
  4345   0018DE  0EFE               	movlw	254
  4346   0018E0  2409               	addwf	??_memset^0,w,c
  4347   0018E2  6ED9               	movwf	fsr2l,c
  4348   0018E4  0EFF               	movlw	255
  4349   0018E6  200A               	addwfc	(??_memset+1)^0,w,c
  4350   0018E8  6EDA               	movwf	fsr2h,c
  4351   0018EA  C005  FFDF         	movff	memset@c,indf2
  4352   0018EE  5007               	movf	memset@n^0,w,c
  4353   0018F0  240D               	addwf	memset@s^0,w,c
  4354   0018F2  6E09               	movwf	??_memset^0,c
  4355   0018F4  5008               	movf	(memset@n+1)^0,w,c
  4356   0018F6  200E               	addwfc	(memset@s+1)^0,w,c
  4357   0018F8  6E0A               	movwf	(??_memset+1)^0,c
  4358   0018FA  0EFD               	movlw	253
  4359   0018FC  2409               	addwf	??_memset^0,w,c
  4360   0018FE  6ED9               	movwf	fsr2l,c
  4361   001900  0EFF               	movlw	255
  4362   001902  200A               	addwfc	(??_memset+1)^0,w,c
  4363   001904  6EDA               	movwf	fsr2h,c
  4364   001906  C005  FFDF         	movff	memset@c,indf2
  4365   00190A  5008               	movf	(memset@n+1)^0,w,c
  4366   00190C  E107               	bnz	u4681
  4367   00190E  0E07               	movlw	7
  4368   001910  5C07               	subwf	memset@n^0,w,c
  4369   001912  B0D8               	btfsc	status,0,c
  4370   001914  EF8E  F00C         	goto	u4681
  4371   001918  EF90  F00C         	goto	u4680
  4372   00191C                     u4681:
  4373   00191C  EF92  F00C         	goto	l6232
  4374   001920                     u4680:
  4375   001920  EFE3  F00C         	goto	l2533
  4376   001924                     l6232:
  4377   001924  EE20 F003          	lfsr	2,3
  4378   001928  500D               	movf	memset@s^0,w,c
  4379   00192A  26D9               	addwf	fsr2l,f,c
  4380   00192C  500E               	movf	(memset@s+1)^0,w,c
  4381   00192E  22DA               	addwfc	fsr2h,f,c
  4382   001930  C005  FFDF         	movff	memset@c,indf2
  4383   001934  5007               	movf	memset@n^0,w,c
  4384   001936  240D               	addwf	memset@s^0,w,c
  4385   001938  6E09               	movwf	??_memset^0,c
  4386   00193A  5008               	movf	(memset@n+1)^0,w,c
  4387   00193C  200E               	addwfc	(memset@s+1)^0,w,c
  4388   00193E  6E0A               	movwf	(??_memset+1)^0,c
  4389   001940  0EFC               	movlw	252
  4390   001942  2409               	addwf	??_memset^0,w,c
  4391   001944  6ED9               	movwf	fsr2l,c
  4392   001946  0EFF               	movlw	255
  4393   001948  200A               	addwfc	(??_memset+1)^0,w,c
  4394   00194A  6EDA               	movwf	fsr2h,c
  4395   00194C  C005  FFDF         	movff	memset@c,indf2
  4396   001950  5008               	movf	(memset@n+1)^0,w,c
  4397   001952  E107               	bnz	u4691
  4398   001954  0E09               	movlw	9
  4399   001956  5C07               	subwf	memset@n^0,w,c
  4400   001958  B0D8               	btfsc	status,0,c
  4401   00195A  EFB1  F00C         	goto	u4691
  4402   00195E  EFB3  F00C         	goto	u4690
  4403   001962                     u4691:
  4404   001962  EFB5  F00C         	goto	l6238
  4405   001966                     u4690:
  4406   001966  EFE3  F00C         	goto	l2533
  4407   00196A                     l6238:
  4408   00196A  C00D  F009         	movff	memset@s,??_memset
  4409   00196E  C00E  F00A         	movff	memset@s+1,??_memset+1
  4410   001972  1E09               	comf	??_memset^0,f,c
  4411   001974  1E0A               	comf	(??_memset+1)^0,f,c
  4412   001976  4A09               	infsnz	??_memset^0,f,c
  4413   001978  2A0A               	incf	(??_memset+1)^0,f,c
  4414   00197A  0E03               	movlw	3
  4415   00197C  1409               	andwf	??_memset^0,w,c
  4416   00197E  6E0B               	movwf	memset@k^0,c
  4417   001980  6A0C               	clrf	(memset@k+1)^0,c
  4418   001982  500B               	movf	memset@k^0,w,c
  4419   001984  260D               	addwf	memset@s^0,f,c
  4420   001986  500C               	movf	(memset@k+1)^0,w,c
  4421   001988  220E               	addwfc	(memset@s+1)^0,f,c
  4422   00198A  500B               	movf	memset@k^0,w,c
  4423   00198C  5E07               	subwf	memset@n^0,f,c
  4424   00198E  500C               	movf	(memset@k+1)^0,w,c
  4425   001990  5A08               	subwfb	(memset@n+1)^0,f,c
  4426   001992  0EFC               	movlw	252
  4427   001994  1607               	andwf	memset@n^0,f,c
  4428   001996  0EFF               	movlw	255
  4429   001998  1608               	andwf	(memset@n+1)^0,f,c
  4430   00199A  EFDA  F00C         	goto	l6246
  4431   00199E                     l6240:
  4432   00199E  C00D  FFD9         	movff	memset@s,fsr2l
  4433   0019A2  C00E  FFDA         	movff	memset@s+1,fsr2h
  4434   0019A6  C005  FFDF         	movff	memset@c,indf2
  4435   0019AA  0607               	decf	memset@n^0,f,c
  4436   0019AC  A0D8               	btfss	status,0,c
  4437   0019AE  0608               	decf	(memset@n+1)^0,f,c
  4438   0019B0  4A0D               	infsnz	memset@s^0,f,c
  4439   0019B2  2A0E               	incf	(memset@s+1)^0,f,c
  4440   0019B4                     l6246:
  4441   0019B4  5007               	movf	memset@n^0,w,c
  4442   0019B6  1008               	iorwf	(memset@n+1)^0,w,c
  4443   0019B8  A4D8               	btfss	status,2,c
  4444   0019BA  EFE1  F00C         	goto	u4701
  4445   0019BE  EFE3  F00C         	goto	u4700
  4446   0019C2                     u4701:
  4447   0019C2  EFCF  F00C         	goto	l6240
  4448   0019C6                     u4700:
  4449   0019C6                     l2533:
  4450   0019C6  0012               	return		;funcret
  4451   0019C8                     __end_of_memset:
  4452                           	callstack 0
  4453                           
  4454 ;; *************** function ___lmul *****************
  4455 ;; Defined at:
  4456 ;;		line 15 in file "C:\Program Files\Microchip\xc8\v2.41\pic\sources\c99\common\Umul32.c"
  4457 ;; Parameters:    Size  Location     Type
  4458 ;;  multiplier      4    2[COMRAM] unsigned long 
  4459 ;;  multiplicand    4    6[COMRAM] unsigned long 
  4460 ;; Auto vars:     Size  Location     Type
  4461 ;;  product         4   10[COMRAM] unsigned long 
  4462 ;; Return value:  Size  Location     Type
  4463 ;;                  4    2[COMRAM] unsigned long 
  4464 ;; Registers used:
  4465 ;;		wreg, status,2, status,0
  4466 ;; Tracked objects:
  4467 ;;		On entry : 0/0
  4468 ;;		On exit  : 0/0
  4469 ;;		Unchanged: 0/0
  4470 ;; Data sizes:     COMRAM   BANK0   BANK1   BANK2   BANK3   BANK4   BANK5   BANK6   BANK7   BANK8   BANK9  BANK10  BANK1
      +1  BANK12  BANK13  BANK14  BANK15
  4471 ;;      Params:         8       0       0       0       0       0       0       0       0       0       0       0       
      +0       0       0       0       0
  4472 ;;      Locals:         4       0       0       0       0       0       0       0       0       0       0       0       
      +0       0       0       0       0
  4473 ;;      Temps:          0       0       0       0       0       0       0       0       0       0       0       0       
      +0       0       0       0       0
  4474 ;;      Totals:        12       0       0       0       0       0       0       0       0       0       0       0       
      +0       0       0       0       0
  4475 ;;Total ram usage:       12 bytes
  4476 ;; Hardware stack levels used: 1
  4477 ;; Hardware stack levels required when called: 2
  4478 ;; This function calls:
  4479 ;;		Nothing
  4480 ;; This function is called by:
  4481 ;;		_main
  4482 ;;		_calculate
  4483 ;; This function uses a non-reentrant model
  4484 ;;
  4485                           
  4486                           	psect	text25
  4487   00297A                     __ptext25:
  4488                           	callstack 0
  4489   00297A                     ___lmul:
  4490                           	callstack 27
  4491   00297A  0E00               	movlw	0
  4492   00297C  6E0B               	movwf	___lmul@product^0,c
  4493   00297E  0E00               	movlw	0
  4494   002980  6E0C               	movwf	(___lmul@product+1)^0,c
  4495   002982  0E00               	movlw	0
  4496   002984  6E0D               	movwf	(___lmul@product+2)^0,c
  4497   002986  0E00               	movlw	0
  4498   002988  6E0E               	movwf	(___lmul@product+3)^0,c
  4499   00298A                     l6400:
  4500   00298A  A003               	btfss	___lmul@multiplier^0,0,c
  4501   00298C  EFCA  F014         	goto	u4871
  4502   002990  EFCC  F014         	goto	u4870
  4503   002994                     u4871:
  4504   002994  EFD4  F014         	goto	l6404
  4505   002998                     u4870:
  4506   002998  5007               	movf	___lmul@multiplicand^0,w,c
  4507   00299A  260B               	addwf	___lmul@product^0,f,c
  4508   00299C  5008               	movf	(___lmul@multiplicand+1)^0,w,c
  4509   00299E  220C               	addwfc	(___lmul@product+1)^0,f,c
  4510   0029A0  5009               	movf	(___lmul@multiplicand+2)^0,w,c
  4511   0029A2  220D               	addwfc	(___lmul@product+2)^0,f,c
  4512   0029A4  500A               	movf	(___lmul@multiplicand+3)^0,w,c
  4513   0029A6  220E               	addwfc	(___lmul@product+3)^0,f,c
  4514   0029A8                     l6404:
  4515   0029A8  90D8               	bcf	status,0,c
  4516   0029AA  3607               	rlcf	___lmul@multiplicand^0,f,c
  4517   0029AC  3608               	rlcf	(___lmul@multiplicand+1)^0,f,c
  4518   0029AE  3609               	rlcf	(___lmul@multiplicand+2)^0,f,c
  4519   0029B0  360A               	rlcf	(___lmul@multiplicand+3)^0,f,c
  4520   0029B2  90D8               	bcf	status,0,c
  4521   0029B4  3206               	rrcf	(___lmul@multiplier+3)^0,f,c
  4522   0029B6  3205               	rrcf	(___lmul@multiplier+2)^0,f,c
  4523   0029B8  3204               	rrcf	(___lmul@multiplier+1)^0,f,c
  4524   0029BA  3203               	rrcf	___lmul@multiplier^0,f,c
  4525   0029BC  5003               	movf	___lmul@multiplier^0,w,c
  4526   0029BE  1004               	iorwf	(___lmul@multiplier+1)^0,w,c
  4527   0029C0  1005               	iorwf	(___lmul@multiplier+2)^0,w,c
  4528   0029C2  1006               	iorwf	(___lmul@multiplier+3)^0,w,c
  4529   0029C4  A4D8               	btfss	status,2,c
  4530   0029C6  EFE7  F014         	goto	u4881
  4531   0029CA  EFE9  F014         	goto	u4880
  4532   0029CE                     u4881:
  4533   0029CE  EFC5  F014         	goto	l6400
  4534   0029D2                     u4880:
  4535   0029D2  C00B  F003         	movff	___lmul@product,?___lmul
  4536   0029D6  C00C  F004         	movff	___lmul@product+1,?___lmul+1
  4537   0029DA  C00D  F005         	movff	___lmul@product+2,?___lmul+2
  4538   0029DE  C00E  F006         	movff	___lmul@product+3,?___lmul+3
  4539   0029E2  0012               	return		;funcret
  4540   0029E4                     __end_of___lmul:
  4541                           	callstack 0
  4542                           
  4543 ;; *************** function ___lldiv *****************
  4544 ;; Defined at:
  4545 ;;		line 7 in file "C:\Program Files\Microchip\xc8\v2.41\pic\sources\c99\common\__lldiv.c"
  4546 ;; Parameters:    Size  Location     Type
  4547 ;;  dividend        4    2[COMRAM] unsigned long 
  4548 ;;  divisor         4    6[COMRAM] unsigned long 
  4549 ;; Auto vars:     Size  Location     Type
  4550 ;;  quotient        4   10[COMRAM] unsigned long 
  4551 ;;  counter         1   14[COMRAM] unsigned char 
  4552 ;; Return value:  Size  Location     Type
  4553 ;;                  4    2[COMRAM] unsigned long 
  4554 ;; Registers used:
  4555 ;;		wreg, status,2, status,0
  4556 ;; Tracked objects:
  4557 ;;		On entry : 0/0
  4558 ;;		On exit  : 0/0
  4559 ;;		Unchanged: 0/0
  4560 ;; Data sizes:     COMRAM   BANK0   BANK1   BANK2   BANK3   BANK4   BANK5   BANK6   BANK7   BANK8   BANK9  BANK10  BANK1
      +1  BANK12  BANK13  BANK14  BANK15
  4561 ;;      Params:         8       0       0       0       0       0       0       0       0       0       0       0       
      +0       0       0       0       0
  4562 ;;      Locals:         5       0       0       0       0       0       0       0       0       0       0       0       
      +0       0       0       0       0
  4563 ;;      Temps:          0       0       0       0       0       0       0       0       0       0       0       0       
      +0       0       0       0       0
  4564 ;;      Totals:        13       0       0       0       0       0       0       0       0       0       0       0       
      +0       0       0       0       0
  4565 ;;Total ram usage:       13 bytes
  4566 ;; Hardware stack levels used: 1
  4567 ;; Hardware stack levels required when called: 2
  4568 ;; This function calls:
  4569 ;;		Nothing
  4570 ;; This function is called by:
  4571 ;;		_calculate
  4572 ;; This function uses a non-reentrant model
  4573 ;;
  4574                           
  4575                           	psect	text26
  4576   00255E                     __ptext26:
  4577                           	callstack 0
  4578   00255E                     ___lldiv:
  4579                           	callstack 27
  4580   00255E  0E00               	movlw	0
  4581   002560  6E0B               	movwf	___lldiv@quotient^0,c
  4582   002562  0E00               	movlw	0
  4583   002564  6E0C               	movwf	(___lldiv@quotient+1)^0,c
  4584   002566  0E00               	movlw	0
  4585   002568  6E0D               	movwf	(___lldiv@quotient+2)^0,c
  4586   00256A  0E00               	movlw	0
  4587   00256C  6E0E               	movwf	(___lldiv@quotient+3)^0,c
  4588   00256E  5007               	movf	___lldiv@divisor^0,w,c
  4589   002570  1008               	iorwf	(___lldiv@divisor+1)^0,w,c
  4590   002572  1009               	iorwf	(___lldiv@divisor+2)^0,w,c
  4591   002574  100A               	iorwf	(___lldiv@divisor+3)^0,w,c
  4592   002576  B4D8               	btfsc	status,2,c
  4593   002578  EFC0  F012         	goto	u4891
  4594   00257C  EFC2  F012         	goto	u4890
  4595   002580                     u4891:
  4596   002580  EFF8  F012         	goto	l1879
  4597   002584                     u4890:
  4598   002584  0E01               	movlw	1
  4599   002586  6E0F               	movwf	___lldiv@counter^0,c
  4600   002588  EFCC  F012         	goto	l6416
  4601   00258C                     l6414:
  4602   00258C  90D8               	bcf	status,0,c
  4603   00258E  3607               	rlcf	___lldiv@divisor^0,f,c
  4604   002590  3608               	rlcf	(___lldiv@divisor+1)^0,f,c
  4605   002592  3609               	rlcf	(___lldiv@divisor+2)^0,f,c
  4606   002594  360A               	rlcf	(___lldiv@divisor+3)^0,f,c
  4607   002596  2A0F               	incf	___lldiv@counter^0,f,c
  4608   002598                     l6416:
  4609   002598  AE0A               	btfss	(___lldiv@divisor+3)^0,7,c
  4610   00259A  EFD1  F012         	goto	u4901
  4611   00259E  EFD3  F012         	goto	u4900
  4612   0025A2                     u4901:
  4613   0025A2  EFC6  F012         	goto	l6414
  4614   0025A6                     u4900:
  4615   0025A6                     l6418:
  4616   0025A6  90D8               	bcf	status,0,c
  4617   0025A8  360B               	rlcf	___lldiv@quotient^0,f,c
  4618   0025AA  360C               	rlcf	(___lldiv@quotient+1)^0,f,c
  4619   0025AC  360D               	rlcf	(___lldiv@quotient+2)^0,f,c
  4620   0025AE  360E               	rlcf	(___lldiv@quotient+3)^0,f,c
  4621   0025B0  5007               	movf	___lldiv@divisor^0,w,c
  4622   0025B2  5C03               	subwf	___lldiv@dividend^0,w,c
  4623   0025B4  5008               	movf	(___lldiv@divisor+1)^0,w,c
  4624   0025B6  5804               	subwfb	(___lldiv@dividend+1)^0,w,c
  4625   0025B8  5009               	movf	(___lldiv@divisor+2)^0,w,c
  4626   0025BA  5805               	subwfb	(___lldiv@dividend+2)^0,w,c
  4627   0025BC  500A               	movf	(___lldiv@divisor+3)^0,w,c
  4628   0025BE  5806               	subwfb	(___lldiv@dividend+3)^0,w,c
  4629   0025C0  A0D8               	btfss	status,0,c
  4630   0025C2  EFE5  F012         	goto	u4911
  4631   0025C6  EFE7  F012         	goto	u4910
  4632   0025CA                     u4911:
  4633   0025CA  EFF0  F012         	goto	l6426
  4634   0025CE                     u4910:
  4635   0025CE  5007               	movf	___lldiv@divisor^0,w,c
  4636   0025D0  5E03               	subwf	___lldiv@dividend^0,f,c
  4637   0025D2  5008               	movf	(___lldiv@divisor+1)^0,w,c
  4638   0025D4  5A04               	subwfb	(___lldiv@dividend+1)^0,f,c
  4639   0025D6  5009               	movf	(___lldiv@divisor+2)^0,w,c
  4640   0025D8  5A05               	subwfb	(___lldiv@dividend+2)^0,f,c
  4641   0025DA  500A               	movf	(___lldiv@divisor+3)^0,w,c
  4642   0025DC  5A06               	subwfb	(___lldiv@dividend+3)^0,f,c
  4643   0025DE  800B               	bsf	___lldiv@quotient^0,0,c
  4644   0025E0                     l6426:
  4645   0025E0  90D8               	bcf	status,0,c
  4646   0025E2  320A               	rrcf	(___lldiv@divisor+3)^0,f,c
  4647   0025E4  3209               	rrcf	(___lldiv@divisor+2)^0,f,c
  4648   0025E6  3208               	rrcf	(___lldiv@divisor+1)^0,f,c
  4649   0025E8  3207               	rrcf	___lldiv@divisor^0,f,c
  4650   0025EA  2E0F               	decfsz	___lldiv@counter^0,f,c
  4651   0025EC  EFD3  F012         	goto	l6418
  4652   0025F0                     l1879:
  4653   0025F0  C00B  F003         	movff	___lldiv@quotient,?___lldiv
  4654   0025F4  C00C  F004         	movff	___lldiv@quotient+1,?___lldiv+1
  4655   0025F8  C00D  F005         	movff	___lldiv@quotient+2,?___lldiv+2
  4656   0025FC  C00E  F006         	movff	___lldiv@quotient+3,?___lldiv+3
  4657   002600  0012               	return		;funcret
  4658   002602                     __end_of___lldiv:
  4659                           	callstack 0
  4660                           
  4661 ;; *************** function _application_initialize *****************
  4662 ;; Defined at:
  4663 ;;		line 61 in file "application.c"
  4664 ;; Parameters:    Size  Location     Type
  4665 ;;		None
  4666 ;; Auto vars:     Size  Location     Type
  4667 ;;  ret             1    0        unsigned char 
  4668 ;; Return value:  Size  Location     Type
  4669 ;;                  1    wreg      void 
  4670 ;; Registers used:
  4671 ;;		wreg, fsr2l, fsr2h, status,2, status,0, prodl, prodh, cstack
  4672 ;; Tracked objects:
  4673 ;;		On entry : 0/0
  4674 ;;		On exit  : 0/0
  4675 ;;		Unchanged: 0/0
  4676 ;; Data sizes:     COMRAM   BANK0   BANK1   BANK2   BANK3   BANK4   BANK5   BANK6   BANK7   BANK8   BANK9  BANK10  BANK1
      +1  BANK12  BANK13  BANK14  BANK15
  4677 ;;      Params:         0       0       0       0       0       0       0       0       0       0       0       0       
      +0       0       0       0       0
  4678 ;;      Locals:         0       0       0       0       0       0       0       0       0       0       0       0       
      +0       0       0       0       0
  4679 ;;      Temps:          0       0       0       0       0       0       0       0       0       0       0       0       
      +0       0       0       0       0
  4680 ;;      Totals:         0       0       0       0       0       0       0       0       0       0       0       0       
      +0       0       0       0       0
  4681 ;;Total ram usage:        0 bytes
  4682 ;; Hardware stack levels used: 1
  4683 ;; Hardware stack levels required when called: 7
  4684 ;; This function calls:
  4685 ;;		_ecu_layer_init
  4686 ;; This function is called by:
  4687 ;;		_main
  4688 ;; This function uses a non-reentrant model
  4689 ;;
  4690                           
  4691                           	psect	text27
  4692   002E04                     __ptext27:
  4693                           	callstack 0
  4694   002E04                     _application_initialize:
  4695                           	callstack 23
  4696   002E04                     
  4697                           ;application.c: 63:     ecu_layer_init();
  4698   002E04  EC9F  F016         	call	_ecu_layer_init	;wreg free
  4699   002E08  0012               	return		;funcret
  4700   002E0A                     __end_of_application_initialize:
  4701                           	callstack 0
  4702                           
  4703 ;; *************** function _ecu_layer_init *****************
  4704 ;; Defined at:
  4705 ;;		line 219 in file "ECU_Layer/ecu_layer_init.c"
  4706 ;; Parameters:    Size  Location     Type
  4707 ;;		None
  4708 ;; Auto vars:     Size  Location     Type
  4709 ;;  ret             1    0        unsigned char 
  4710 ;; Return value:  Size  Location     Type
  4711 ;;                  1    wreg      void 
  4712 ;; Registers used:
  4713 ;;		wreg, fsr2l, fsr2h, status,2, status,0, prodl, prodh, cstack
  4714 ;; Tracked objects:
  4715 ;;		On entry : 0/0
  4716 ;;		On exit  : 0/0
  4717 ;;		Unchanged: 0/0
  4718 ;; Data sizes:     COMRAM   BANK0   BANK1   BANK2   BANK3   BANK4   BANK5   BANK6   BANK7   BANK8   BANK9  BANK10  BANK1
      +1  BANK12  BANK13  BANK14  BANK15
  4719 ;;      Params:         0       0       0       0       0       0       0       0       0       0       0       0       
      +0       0       0       0       0
  4720 ;;      Locals:         0       0       0       0       0       0       0       0       0       0       0       0       
      +0       0       0       0       0
  4721 ;;      Temps:          0       0       0       0       0       0       0       0       0       0       0       0       
      +0       0       0       0       0
  4722 ;;      Totals:         0       0       0       0       0       0       0       0       0       0       0       0       
      +0       0       0       0       0
  4723 ;;Total ram usage:        0 bytes
  4724 ;; Hardware stack levels used: 1
  4725 ;; Hardware stack levels required when called: 6
  4726 ;; This function calls:
  4727 ;;		_keypad_initialize
  4728 ;;		_lcd_4bit_intialize
  4729 ;; This function is called by:
  4730 ;;		_application_initialize
  4731 ;; This function uses a non-reentrant model
  4732 ;;
  4733                           
  4734                           	psect	text28
  4735   002D3E                     __ptext28:
  4736                           	callstack 0
  4737   002D3E                     _ecu_layer_init:
  4738                           	callstack 23
  4739   002D3E  0EF3               	movlw	low _lcd_1
  4740   002D40  6E15               	movwf	lcd_4bit_intialize@lcd^0,c
  4741   002D42  0E00               	movlw	high _lcd_1
  4742   002D44  6E16               	movwf	(lcd_4bit_intialize@lcd+1)^0,c
  4743   002D46  EC5F  F00F         	call	_lcd_4bit_intialize	;wreg free
  4744   002D4A  0EEB               	movlw	low _keypad1
  4745   002D4C  6E11               	movwf	keypad_initialize@_keypad_obj^0,c
  4746   002D4E  0E00               	movlw	high _keypad1
  4747   002D50  6E12               	movwf	(keypad_initialize@_keypad_obj+1)^0,c
  4748   002D52  EC98  F013         	call	_keypad_initialize	;wreg free
  4749   002D56  0012               	return		;funcret
  4750   002D58                     __end_of_ecu_layer_init:
  4751                           	callstack 0
  4752                           
  4753 ;; *************** function _lcd_4bit_intialize *****************
  4754 ;; Defined at:
  4755 ;;		line 23 in file "ECU_Layer/Chr_LCD/ecu_chr_lcd.c"
  4756 ;; Parameters:    Size  Location     Type
  4757 ;;  lcd             2   20[COMRAM] PTR const struct .
  4758 ;;		 -> lcd_1(6), 
  4759 ;; Auto vars:     Size  Location     Type
  4760 ;;  ret             1   25[COMRAM] unsigned char 
  4761 ;;  l_data_pins_    1   24[COMRAM] unsigned char 
  4762 ;; Return value:  Size  Location     Type
  4763 ;;                  1    wreg      unsigned char 
  4764 ;; Registers used:
  4765 ;;		wreg, fsr2l, fsr2h, status,2, status,0, prodl, prodh, cstack
  4766 ;; Tracked objects:
  4767 ;;		On entry : 0/0
  4768 ;;		On exit  : 0/0
  4769 ;;		Unchanged: 0/0
  4770 ;; Data sizes:     COMRAM   BANK0   BANK1   BANK2   BANK3   BANK4   BANK5   BANK6   BANK7   BANK8   BANK9  BANK10  BANK1
      +1  BANK12  BANK13  BANK14  BANK15
  4771 ;;      Params:         2       0       0       0       0       0       0       0       0       0       0       0       
      +0       0       0       0       0
  4772 ;;      Locals:         2       0       0       0       0       0       0       0       0       0       0       0       
      +0       0       0       0       0
  4773 ;;      Temps:          2       0       0       0       0       0       0       0       0       0       0       0       
      +0       0       0       0       0
  4774 ;;      Totals:         6       0       0       0       0       0       0       0       0       0       0       0       
      +0       0       0       0       0
  4775 ;;Total ram usage:        6 bytes
  4776 ;; Hardware stack levels used: 1
  4777 ;; Hardware stack levels required when called: 5
  4778 ;; This function calls:
  4779 ;;		_gpio_pin_intialize
  4780 ;;		_lcd_4bit_send_command
  4781 ;; This function is called by:
  4782 ;;		_ecu_layer_init
  4783 ;; This function uses a non-reentrant model
  4784 ;;
  4785                           
  4786                           	psect	text29
  4787   001EBE                     __ptext29:
  4788                           	callstack 0
  4789   001EBE                     _lcd_4bit_intialize:
  4790                           	callstack 23
  4791   001EBE                     
  4792                           ;ECU_Layer/Chr_LCD/ecu_chr_lcd.c: 25:     uint8 l_data_pins_counter = 0;
  4793   001EBE  0E00               	movlw	0
  4794   001EC0  6E19               	movwf	lcd_4bit_intialize@l_data_pins_counter^0,c
  4795   001EC2                     
  4796                           ;ECU_Layer/Chr_LCD/ecu_chr_lcd.c: 26:     if(((void*)0) == lcd){
  4797   001EC2  5015               	movf	lcd_4bit_intialize@lcd^0,w,c
  4798   001EC4  1016               	iorwf	(lcd_4bit_intialize@lcd+1)^0,w,c
  4799   001EC6  A4D8               	btfss	status,2,c
  4800   001EC8  EF68  F00F         	goto	u4631
  4801   001ECC  EF6A  F00F         	goto	u4630
  4802   001ED0                     u4631:
  4803   001ED0  EF6E  F00F         	goto	l6142
  4804   001ED4                     u4630:
  4805   001ED4                     
  4806                           ;ECU_Layer/Chr_LCD/ecu_chr_lcd.c: 27:         ret = (Std_ReturnType)0x00;
  4807   001ED4  0E00               	movlw	0
  4808   001ED6  6E1A               	movwf	lcd_4bit_intialize@ret^0,c
  4809                           
  4810                           ;ECU_Layer/Chr_LCD/ecu_chr_lcd.c: 28:     }
  4811   001ED8  EFF1  F00F         	goto	l6178
  4812   001EDC                     l6142:
  4813                           
  4814                           ;ECU_Layer/Chr_LCD/ecu_chr_lcd.c: 30:         ret = gpio_pin_intialize(&(lcd->lcd_rs));
  4815   001EDC  C015  F00D         	movff	lcd_4bit_intialize@lcd,gpio_pin_intialize@_pin_config
  4816   001EE0  C016  F00E         	movff	lcd_4bit_intialize@lcd+1,gpio_pin_intialize@_pin_config+1
  4817   001EE4  EC87  F014         	call	_gpio_pin_intialize	;wreg free
  4818   001EE8  6E1A               	movwf	lcd_4bit_intialize@ret^0,c
  4819                           
  4820                           ;ECU_Layer/Chr_LCD/ecu_chr_lcd.c: 31:         ret = gpio_pin_intialize(&(lcd->lcd_en));
  4821   001EEA  0E01               	movlw	1
  4822   001EEC  2415               	addwf	lcd_4bit_intialize@lcd^0,w,c
  4823   001EEE  6E0D               	movwf	gpio_pin_intialize@_pin_config^0,c
  4824   001EF0  0E00               	movlw	0
  4825   001EF2  2016               	addwfc	(lcd_4bit_intialize@lcd+1)^0,w,c
  4826   001EF4  6E0E               	movwf	(gpio_pin_intialize@_pin_config+1)^0,c
  4827   001EF6  EC87  F014         	call	_gpio_pin_intialize	;wreg free
  4828   001EFA  6E1A               	movwf	lcd_4bit_intialize@ret^0,c
  4829   001EFC                     
  4830                           ;ECU_Layer/Chr_LCD/ecu_chr_lcd.c: 32:         for(l_data_pins_counter=0; l_data_pins_cou
      +                          nter<4; l_data_pins_counter++){
  4831   001EFC  0E00               	movlw	0
  4832   001EFE  6E19               	movwf	lcd_4bit_intialize@l_data_pins_counter^0,c
  4833   001F00                     l6150:
  4834   001F00  5019               	movf	lcd_4bit_intialize@l_data_pins_counter^0,w,c
  4835   001F02  2415               	addwf	lcd_4bit_intialize@lcd^0,w,c
  4836   001F04  6E17               	movwf	??_lcd_4bit_intialize^0,c
  4837   001F06  0E00               	movlw	0
  4838   001F08  2016               	addwfc	(lcd_4bit_intialize@lcd+1)^0,w,c
  4839   001F0A  6E18               	movwf	(??_lcd_4bit_intialize+1)^0,c
  4840   001F0C  0E02               	movlw	2
  4841   001F0E  2417               	addwf	??_lcd_4bit_intialize^0,w,c
  4842   001F10  6E0D               	movwf	gpio_pin_intialize@_pin_config^0,c
  4843   001F12  0E00               	movlw	0
  4844   001F14  2018               	addwfc	(??_lcd_4bit_intialize+1)^0,w,c
  4845   001F16  6E0E               	movwf	(gpio_pin_intialize@_pin_config+1)^0,c
  4846   001F18  EC87  F014         	call	_gpio_pin_intialize	;wreg free
  4847   001F1C                     
  4848                           ;ECU_Layer/Chr_LCD/ecu_chr_lcd.c: 34:         }
  4849   001F1C  2A19               	incf	lcd_4bit_intialize@l_data_pins_counter^0,f,c
  4850   001F1E  0E03               	movlw	3
  4851   001F20  6419               	cpfsgt	lcd_4bit_intialize@l_data_pins_counter^0,c
  4852   001F22  EF95  F00F         	goto	u4641
  4853   001F26  EF97  F00F         	goto	u4640
  4854   001F2A                     u4641:
  4855   001F2A  EF80  F00F         	goto	l6150
  4856   001F2E                     u4640:
  4857   001F2E                     
  4858                           ;ECU_Layer/Chr_LCD/ecu_chr_lcd.c: 35:         _delay((unsigned long)((20)*(8000000UL/400
      +                          0.0)));
  4859   001F2E  0E34               	movlw	52
  4860   001F30  6E17               	movwf	??_lcd_4bit_intialize^0,c
  4861   001F32  0EF2               	movlw	242
  4862   001F34                     u7287:
  4863   001F34  2EE8               	decfsz	wreg,f,c
  4864   001F36  D7FE               	bra	u7287
  4865   001F38  2E17               	decfsz	??_lcd_4bit_intialize^0,f,c
  4866   001F3A  D7FC               	bra	u7287
  4867   001F3C  C015  F011         	movff	lcd_4bit_intialize@lcd,lcd_4bit_send_command@lcd
  4868   001F40  C016  F012         	movff	lcd_4bit_intialize@lcd+1,lcd_4bit_send_command@lcd+1
  4869   001F44  0E38               	movlw	56
  4870   001F46  6E13               	movwf	lcd_4bit_send_command@command^0,c
  4871   001F48  EC4E  F014         	call	_lcd_4bit_send_command	;wreg free
  4872   001F4C                     
  4873                           ;ECU_Layer/Chr_LCD/ecu_chr_lcd.c: 37:         _delay((unsigned long)((5)*(8000000UL/4000
      +                          .0)));
  4874   001F4C  0E0D               	movlw	13
  4875   001F4E  6E17               	movwf	??_lcd_4bit_intialize^0,c
  4876   001F50  0EFC               	movlw	252
  4877   001F52                     u7297:
  4878   001F52  2EE8               	decfsz	wreg,f,c
  4879   001F54  D7FE               	bra	u7297
  4880   001F56  2E17               	decfsz	??_lcd_4bit_intialize^0,f,c
  4881   001F58  D7FC               	bra	u7297
  4882   001F5A  C015  F011         	movff	lcd_4bit_intialize@lcd,lcd_4bit_send_command@lcd
  4883   001F5E  C016  F012         	movff	lcd_4bit_intialize@lcd+1,lcd_4bit_send_command@lcd+1
  4884   001F62  0E38               	movlw	56
  4885   001F64  6E13               	movwf	lcd_4bit_send_command@command^0,c
  4886   001F66  EC4E  F014         	call	_lcd_4bit_send_command	;wreg free
  4887   001F6A                     
  4888                           ;ECU_Layer/Chr_LCD/ecu_chr_lcd.c: 39:         _delay((unsigned long)((150)*(8000000UL/40
      +                          00000.0)));
  4889   001F6A  0E64               	movlw	100
  4890   001F6C                     u7307:
  4891   001F6C  2EE8               	decfsz	wreg,f,c
  4892   001F6E  D7FE               	bra	u7307
  4893   001F70  C015  F011         	movff	lcd_4bit_intialize@lcd,lcd_4bit_send_command@lcd
  4894   001F74  C016  F012         	movff	lcd_4bit_intialize@lcd+1,lcd_4bit_send_command@lcd+1
  4895   001F78  0E38               	movlw	56
  4896   001F7A  6E13               	movwf	lcd_4bit_send_command@command^0,c
  4897   001F7C  EC4E  F014         	call	_lcd_4bit_send_command	;wreg free
  4898   001F80  C015  F011         	movff	lcd_4bit_intialize@lcd,lcd_4bit_send_command@lcd
  4899   001F84  C016  F012         	movff	lcd_4bit_intialize@lcd+1,lcd_4bit_send_command@lcd+1
  4900   001F88  0E01               	movlw	1
  4901   001F8A  6E13               	movwf	lcd_4bit_send_command@command^0,c
  4902   001F8C  EC4E  F014         	call	_lcd_4bit_send_command	;wreg free
  4903   001F90  C015  F011         	movff	lcd_4bit_intialize@lcd,lcd_4bit_send_command@lcd
  4904   001F94  C016  F012         	movff	lcd_4bit_intialize@lcd+1,lcd_4bit_send_command@lcd+1
  4905   001F98  0E02               	movlw	2
  4906   001F9A  6E13               	movwf	lcd_4bit_send_command@command^0,c
  4907   001F9C  EC4E  F014         	call	_lcd_4bit_send_command	;wreg free
  4908   001FA0  C015  F011         	movff	lcd_4bit_intialize@lcd,lcd_4bit_send_command@lcd
  4909   001FA4  C016  F012         	movff	lcd_4bit_intialize@lcd+1,lcd_4bit_send_command@lcd+1
  4910   001FA8  0E06               	movlw	6
  4911   001FAA  6E13               	movwf	lcd_4bit_send_command@command^0,c
  4912   001FAC  EC4E  F014         	call	_lcd_4bit_send_command	;wreg free
  4913   001FB0  C015  F011         	movff	lcd_4bit_intialize@lcd,lcd_4bit_send_command@lcd
  4914   001FB4  C016  F012         	movff	lcd_4bit_intialize@lcd+1,lcd_4bit_send_command@lcd+1
  4915   001FB8  0E0C               	movlw	12
  4916   001FBA  6E13               	movwf	lcd_4bit_send_command@command^0,c
  4917   001FBC  EC4E  F014         	call	_lcd_4bit_send_command	;wreg free
  4918   001FC0  C015  F011         	movff	lcd_4bit_intialize@lcd,lcd_4bit_send_command@lcd
  4919   001FC4  C016  F012         	movff	lcd_4bit_intialize@lcd+1,lcd_4bit_send_command@lcd+1
  4920   001FC8  0E28               	movlw	40
  4921   001FCA  6E13               	movwf	lcd_4bit_send_command@command^0,c
  4922   001FCC  EC4E  F014         	call	_lcd_4bit_send_command	;wreg free
  4923   001FD0                     
  4924                           ;ECU_Layer/Chr_LCD/ecu_chr_lcd.c: 47:         ret = lcd_4bit_send_command(lcd, 0x80);
  4925   001FD0  C015  F011         	movff	lcd_4bit_intialize@lcd,lcd_4bit_send_command@lcd
  4926   001FD4  C016  F012         	movff	lcd_4bit_intialize@lcd+1,lcd_4bit_send_command@lcd+1
  4927   001FD8  0E80               	movlw	128
  4928   001FDA  6E13               	movwf	lcd_4bit_send_command@command^0,c
  4929   001FDC  EC4E  F014         	call	_lcd_4bit_send_command	;wreg free
  4930   001FE0  6E1A               	movwf	lcd_4bit_intialize@ret^0,c
  4931   001FE2                     l6178:
  4932                           
  4933                           ;ECU_Layer/Chr_LCD/ecu_chr_lcd.c: 49:     return ret;
  4934   001FE2  501A               	movf	lcd_4bit_intialize@ret^0,w,c
  4935   001FE4  0012               	return		;funcret
  4936   001FE6                     __end_of_lcd_4bit_intialize:
  4937                           	callstack 0
  4938                           
  4939 ;; *************** function _lcd_4bit_send_command *****************
  4940 ;; Defined at:
  4941 ;;		line 60 in file "ECU_Layer/Chr_LCD/ecu_chr_lcd.c"
  4942 ;; Parameters:    Size  Location     Type
  4943 ;;  lcd             2   16[COMRAM] PTR const struct .
  4944 ;;		 -> lcd_1(6), 
  4945 ;;  command         1   18[COMRAM] unsigned char 
  4946 ;; Auto vars:     Size  Location     Type
  4947 ;;  ret             1   19[COMRAM] unsigned char 
  4948 ;; Return value:  Size  Location     Type
  4949 ;;                  1    wreg      unsigned char 
  4950 ;; Registers used:
  4951 ;;		wreg, fsr2l, fsr2h, status,2, status,0, prodl, prodh, cstack
  4952 ;; Tracked objects:
  4953 ;;		On entry : 0/0
  4954 ;;		On exit  : 0/0
  4955 ;;		Unchanged: 0/0
  4956 ;; Data sizes:     COMRAM   BANK0   BANK1   BANK2   BANK3   BANK4   BANK5   BANK6   BANK7   BANK8   BANK9  BANK10  BANK1
      +1  BANK12  BANK13  BANK14  BANK15
  4957 ;;      Params:         3       0       0       0       0       0       0       0       0       0       0       0       
      +0       0       0       0       0
  4958 ;;      Locals:         1       0       0       0       0       0       0       0       0       0       0       0       
      +0       0       0       0       0
  4959 ;;      Temps:          0       0       0       0       0       0       0       0       0       0       0       0       
      +0       0       0       0       0
  4960 ;;      Totals:         4       0       0       0       0       0       0       0       0       0       0       0       
      +0       0       0       0       0
  4961 ;;Total ram usage:        4 bytes
  4962 ;; Hardware stack levels used: 1
  4963 ;; Hardware stack levels required when called: 4
  4964 ;; This function calls:
  4965 ;;		_gpio_pin_write_logic
  4966 ;;		_lcd_4bit_send_enable_signal
  4967 ;;		_lcd_send_4bits
  4968 ;; This function is called by:
  4969 ;;		_lcd_4bit_intialize
  4970 ;;		_lcd_4bit_clear
  4971 ;;		_lcd_4bit_set_cursor
  4972 ;;		_lcd_4bit_send_custom_char
  4973 ;;		_lcd_8bit_clear
  4974 ;; This function uses a non-reentrant model
  4975 ;;
  4976                           
  4977                           	psect	text30
  4978   00289C                     __ptext30:
  4979                           	callstack 0
  4980   00289C                     _lcd_4bit_send_command:
  4981                           	callstack 23
  4982   00289C                     
  4983                           ;ECU_Layer/Chr_LCD/ecu_chr_lcd.c: 62:     if(((void*)0) == lcd){
  4984   00289C  5011               	movf	lcd_4bit_send_command@lcd^0,w,c
  4985   00289E  1012               	iorwf	(lcd_4bit_send_command@lcd+1)^0,w,c
  4986   0028A0  A4D8               	btfss	status,2,c
  4987   0028A2  EF55  F014         	goto	u4611
  4988   0028A6  EF57  F014         	goto	u4610
  4989   0028AA                     u4611:
  4990   0028AA  EF5B  F014         	goto	l6120
  4991   0028AE                     u4610:
  4992   0028AE                     
  4993                           ;ECU_Layer/Chr_LCD/ecu_chr_lcd.c: 63:         ret = (Std_ReturnType)0x00;
  4994   0028AE  0E00               	movlw	0
  4995   0028B0  6E14               	movwf	lcd_4bit_send_command@ret^0,c
  4996                           
  4997                           ;ECU_Layer/Chr_LCD/ecu_chr_lcd.c: 64:     }
  4998   0028B2  EF85  F014         	goto	l6122
  4999   0028B6                     l6120:
  5000                           
  5001                           ;ECU_Layer/Chr_LCD/ecu_chr_lcd.c: 68:         ret = gpio_pin_write_logic(&(lcd->lcd_rs),
      +                           GPIO_LOW);
  5002   0028B6  C011  F003         	movff	lcd_4bit_send_command@lcd,gpio_pin_write_logic@_pin_config
  5003   0028BA  C012  F004         	movff	lcd_4bit_send_command@lcd+1,gpio_pin_write_logic@_pin_config+1
  5004   0028BE  0E00               	movlw	0
  5005   0028C0  6E05               	movwf	gpio_pin_write_logic@logic^0,c
  5006   0028C2  ECC9  F00E         	call	_gpio_pin_write_logic	;wreg free
  5007   0028C6  6E14               	movwf	lcd_4bit_send_command@ret^0,c
  5008                           
  5009                           ;ECU_Layer/Chr_LCD/ecu_chr_lcd.c: 70:         ret = lcd_send_4bits(lcd, command >> 4);
  5010   0028C8  C011  F00D         	movff	lcd_4bit_send_command@lcd,lcd_send_4bits@lcd
  5011   0028CC  C012  F00E         	movff	lcd_4bit_send_command@lcd+1,lcd_send_4bits@lcd+1
  5012   0028D0  3813               	swapf	lcd_4bit_send_command@command^0,w,c
  5013   0028D2  0B0F               	andlw	15
  5014   0028D4  6E0F               	movwf	lcd_send_4bits@_data_command^0,c
  5015   0028D6  ECF2  F014         	call	_lcd_send_4bits	;wreg free
  5016   0028DA  6E14               	movwf	lcd_4bit_send_command@ret^0,c
  5017                           
  5018                           ;ECU_Layer/Chr_LCD/ecu_chr_lcd.c: 72:         ret = lcd_4bit_send_enable_signal(lcd);
  5019   0028DC  C011  F00D         	movff	lcd_4bit_send_command@lcd,lcd_4bit_send_enable_signal@lcd
  5020   0028E0  C012  F00E         	movff	lcd_4bit_send_command@lcd+1,lcd_4bit_send_enable_signal@lcd+1
  5021   0028E4  EC2A  F016         	call	_lcd_4bit_send_enable_signal	;wreg free
  5022   0028E8  6E14               	movwf	lcd_4bit_send_command@ret^0,c
  5023                           
  5024                           ;ECU_Layer/Chr_LCD/ecu_chr_lcd.c: 74:         ret = lcd_send_4bits(lcd, command);
  5025   0028EA  C011  F00D         	movff	lcd_4bit_send_command@lcd,lcd_send_4bits@lcd
  5026   0028EE  C012  F00E         	movff	lcd_4bit_send_command@lcd+1,lcd_send_4bits@lcd+1
  5027   0028F2  C013  F00F         	movff	lcd_4bit_send_command@command,lcd_send_4bits@_data_command
  5028   0028F6  ECF2  F014         	call	_lcd_send_4bits	;wreg free
  5029   0028FA  6E14               	movwf	lcd_4bit_send_command@ret^0,c
  5030                           
  5031                           ;ECU_Layer/Chr_LCD/ecu_chr_lcd.c: 76:         ret = lcd_4bit_send_enable_signal(lcd);
  5032   0028FC  C011  F00D         	movff	lcd_4bit_send_command@lcd,lcd_4bit_send_enable_signal@lcd
  5033   002900  C012  F00E         	movff	lcd_4bit_send_command@lcd+1,lcd_4bit_send_enable_signal@lcd+1
  5034   002904  EC2A  F016         	call	_lcd_4bit_send_enable_signal	;wreg free
  5035   002908  6E14               	movwf	lcd_4bit_send_command@ret^0,c
  5036   00290A                     l6122:
  5037                           
  5038                           ;ECU_Layer/Chr_LCD/ecu_chr_lcd.c: 78:     return ret;
  5039   00290A  5014               	movf	lcd_4bit_send_command@ret^0,w,c
  5040   00290C  0012               	return		;funcret
  5041   00290E                     __end_of_lcd_4bit_send_command:
  5042                           	callstack 0
  5043                           
  5044 ;; *************** function _lcd_send_4bits *****************
  5045 ;; Defined at:
  5046 ;;		line 479 in file "ECU_Layer/Chr_LCD/ecu_chr_lcd.c"
  5047 ;; Parameters:    Size  Location     Type
  5048 ;;  lcd             2   12[COMRAM] PTR const struct .
  5049 ;;		 -> lcd_1(6), 
  5050 ;;  _data_comman    1   14[COMRAM] unsigned char 
  5051 ;; Auto vars:     Size  Location     Type
  5052 ;;  ret             1   15[COMRAM] unsigned char 
  5053 ;; Return value:  Size  Location     Type
  5054 ;;                  1    wreg      unsigned char 
  5055 ;; Registers used:
  5056 ;;		wreg, fsr2l, fsr2h, status,2, status,0, prodl, prodh, cstack
  5057 ;; Tracked objects:
  5058 ;;		On entry : 0/0
  5059 ;;		On exit  : 0/0
  5060 ;;		Unchanged: 0/0
  5061 ;; Data sizes:     COMRAM   BANK0   BANK1   BANK2   BANK3   BANK4   BANK5   BANK6   BANK7   BANK8   BANK9  BANK10  BANK1
      +1  BANK12  BANK13  BANK14  BANK15
  5062 ;;      Params:         3       0       0       0       0       0       0       0       0       0       0       0       
      +0       0       0       0       0
  5063 ;;      Locals:         1       0       0       0       0       0       0       0       0       0       0       0       
      +0       0       0       0       0
  5064 ;;      Temps:          0       0       0       0       0       0       0       0       0       0       0       0       
      +0       0       0       0       0
  5065 ;;      Totals:         4       0       0       0       0       0       0       0       0       0       0       0       
      +0       0       0       0       0
  5066 ;;Total ram usage:        4 bytes
  5067 ;; Hardware stack levels used: 1
  5068 ;; Hardware stack levels required when called: 3
  5069 ;; This function calls:
  5070 ;;		_gpio_pin_write_logic
  5071 ;; This function is called by:
  5072 ;;		_lcd_4bit_send_command
  5073 ;;		_lcd_4bit_send_char_data
  5074 ;; This function uses a non-reentrant model
  5075 ;;
  5076                           
  5077                           	psect	text31
  5078   0029E4                     __ptext31:
  5079                           	callstack 0
  5080   0029E4                     _lcd_send_4bits:
  5081                           	callstack 23
  5082   0029E4  0E02               	movlw	2
  5083   0029E6  240D               	addwf	lcd_send_4bits@lcd^0,w,c
  5084   0029E8  6E03               	movwf	gpio_pin_write_logic@_pin_config^0,c
  5085   0029EA  0E00               	movlw	0
  5086   0029EC  200E               	addwfc	(lcd_send_4bits@lcd+1)^0,w,c
  5087   0029EE  6E04               	movwf	(gpio_pin_write_logic@_pin_config+1)^0,c
  5088   0029F0  500F               	movf	lcd_send_4bits@_data_command^0,w,c
  5089   0029F2  0B01               	andlw	1
  5090   0029F4  6E05               	movwf	gpio_pin_write_logic@logic^0,c
  5091   0029F6  ECC9  F00E         	call	_gpio_pin_write_logic	;wreg free
  5092   0029FA  0E03               	movlw	3
  5093   0029FC  240D               	addwf	lcd_send_4bits@lcd^0,w,c
  5094   0029FE  6E03               	movwf	gpio_pin_write_logic@_pin_config^0,c
  5095   002A00  0E00               	movlw	0
  5096   002A02  200E               	addwfc	(lcd_send_4bits@lcd+1)^0,w,c
  5097   002A04  6E04               	movwf	(gpio_pin_write_logic@_pin_config+1)^0,c
  5098   002A06  90D8               	bcf	status,0,c
  5099   002A08  300F               	rrcf	lcd_send_4bits@_data_command^0,w,c
  5100   002A0A  0B01               	andlw	1
  5101   002A0C  6E05               	movwf	gpio_pin_write_logic@logic^0,c
  5102   002A0E  ECC9  F00E         	call	_gpio_pin_write_logic	;wreg free
  5103   002A12  0E04               	movlw	4
  5104   002A14  240D               	addwf	lcd_send_4bits@lcd^0,w,c
  5105   002A16  6E03               	movwf	gpio_pin_write_logic@_pin_config^0,c
  5106   002A18  0E00               	movlw	0
  5107   002A1A  200E               	addwfc	(lcd_send_4bits@lcd+1)^0,w,c
  5108   002A1C  6E04               	movwf	(gpio_pin_write_logic@_pin_config+1)^0,c
  5109   002A1E  400F               	rrncf	lcd_send_4bits@_data_command^0,w,c
  5110   002A20  42E8               	rrncf	wreg,f,c
  5111   002A22  0B3F               	andlw	63
  5112   002A24  0B01               	andlw	1
  5113   002A26  6E05               	movwf	gpio_pin_write_logic@logic^0,c
  5114   002A28  ECC9  F00E         	call	_gpio_pin_write_logic	;wreg free
  5115   002A2C                     
  5116                           ;ECU_Layer/Chr_LCD/ecu_chr_lcd.c: 484:     ret = gpio_pin_write_logic(&(lcd->lcd_data[3]
      +                          ), (_data_command >> 3) & (uint8)0x01);
  5117   002A2C  0E05               	movlw	5
  5118   002A2E  240D               	addwf	lcd_send_4bits@lcd^0,w,c
  5119   002A30  6E03               	movwf	gpio_pin_write_logic@_pin_config^0,c
  5120   002A32  0E00               	movlw	0
  5121   002A34  200E               	addwfc	(lcd_send_4bits@lcd+1)^0,w,c
  5122   002A36  6E04               	movwf	(gpio_pin_write_logic@_pin_config+1)^0,c
  5123   002A38  380F               	swapf	lcd_send_4bits@_data_command^0,w,c
  5124   002A3A  46E8               	rlncf	wreg,f,c
  5125   002A3C  0B1F               	andlw	31
  5126   002A3E  0B01               	andlw	1
  5127   002A40  6E05               	movwf	gpio_pin_write_logic@logic^0,c
  5128   002A42  ECC9  F00E         	call	_gpio_pin_write_logic	;wreg free
  5129   002A46  6E10               	movwf	lcd_send_4bits@ret^0,c
  5130                           
  5131                           ;ECU_Layer/Chr_LCD/ecu_chr_lcd.c: 485:     return ret;
  5132   002A48  5010               	movf	lcd_send_4bits@ret^0,w,c
  5133   002A4A  0012               	return		;funcret
  5134   002A4C                     __end_of_lcd_send_4bits:
  5135                           	callstack 0
  5136                           
  5137 ;; *************** function _lcd_4bit_send_enable_signal *****************
  5138 ;; Defined at:
  5139 ;;		line 495 in file "ECU_Layer/Chr_LCD/ecu_chr_lcd.c"
  5140 ;; Parameters:    Size  Location     Type
  5141 ;;  lcd             2   12[COMRAM] PTR const struct .
  5142 ;;		 -> lcd_1(6), 
  5143 ;; Auto vars:     Size  Location     Type
  5144 ;;  ret             1   14[COMRAM] unsigned char 
  5145 ;; Return value:  Size  Location     Type
  5146 ;;                  1    wreg      unsigned char 
  5147 ;; Registers used:
  5148 ;;		wreg, fsr2l, fsr2h, status,2, status,0, prodl, prodh, cstack
  5149 ;; Tracked objects:
  5150 ;;		On entry : 0/0
  5151 ;;		On exit  : 0/0
  5152 ;;		Unchanged: 0/0
  5153 ;; Data sizes:     COMRAM   BANK0   BANK1   BANK2   BANK3   BANK4   BANK5   BANK6   BANK7   BANK8   BANK9  BANK10  BANK1
      +1  BANK12  BANK13  BANK14  BANK15
  5154 ;;      Params:         2       0       0       0       0       0       0       0       0       0       0       0       
      +0       0       0       0       0
  5155 ;;      Locals:         1       0       0       0       0       0       0       0       0       0       0       0       
      +0       0       0       0       0
  5156 ;;      Temps:          0       0       0       0       0       0       0       0       0       0       0       0       
      +0       0       0       0       0
  5157 ;;      Totals:         3       0       0       0       0       0       0       0       0       0       0       0       
      +0       0       0       0       0
  5158 ;;Total ram usage:        3 bytes
  5159 ;; Hardware stack levels used: 1
  5160 ;; Hardware stack levels required when called: 3
  5161 ;; This function calls:
  5162 ;;		_gpio_pin_write_logic
  5163 ;; This function is called by:
  5164 ;;		_lcd_4bit_send_command
  5165 ;;		_lcd_4bit_send_char_data
  5166 ;; This function uses a non-reentrant model
  5167 ;;
  5168                           
  5169                           	psect	text32
  5170   002C54                     __ptext32:
  5171                           	callstack 0
  5172   002C54                     _lcd_4bit_send_enable_signal:
  5173                           	callstack 23
  5174   002C54  0E01               	movlw	1
  5175   002C56  240D               	addwf	lcd_4bit_send_enable_signal@lcd^0,w,c
  5176   002C58  6E03               	movwf	gpio_pin_write_logic@_pin_config^0,c
  5177   002C5A  0E00               	movlw	0
  5178   002C5C  200E               	addwfc	(lcd_4bit_send_enable_signal@lcd+1)^0,w,c
  5179   002C5E  6E04               	movwf	(gpio_pin_write_logic@_pin_config+1)^0,c
  5180   002C60  0E01               	movlw	1
  5181   002C62  6E05               	movwf	gpio_pin_write_logic@logic^0,c
  5182   002C64  ECC9  F00E         	call	_gpio_pin_write_logic	;wreg free
  5183   002C68                     
  5184                           ;ECU_Layer/Chr_LCD/ecu_chr_lcd.c: 498:     _delay((unsigned long)((5)*(8000000UL/4000000
      +                          .0)));
  5185   002C68  0E03               	movlw	3
  5186   002C6A                     u7317:
  5187   002C6A  2EE8               	decfsz	wreg,f,c
  5188   002C6C  D7FE               	bra	u7317
  5189   002C6E  F000               	nop	
  5190   002C70                     
  5191                           ;ECU_Layer/Chr_LCD/ecu_chr_lcd.c: 499:     ret = gpio_pin_write_logic(&(lcd->lcd_en), GP
      +                          IO_LOW);
  5192   002C70  0E01               	movlw	1
  5193   002C72  240D               	addwf	lcd_4bit_send_enable_signal@lcd^0,w,c
  5194   002C74  6E03               	movwf	gpio_pin_write_logic@_pin_config^0,c
  5195   002C76  0E00               	movlw	0
  5196   002C78  200E               	addwfc	(lcd_4bit_send_enable_signal@lcd+1)^0,w,c
  5197   002C7A  6E04               	movwf	(gpio_pin_write_logic@_pin_config+1)^0,c
  5198   002C7C  0E00               	movlw	0
  5199   002C7E  6E05               	movwf	gpio_pin_write_logic@logic^0,c
  5200   002C80  ECC9  F00E         	call	_gpio_pin_write_logic	;wreg free
  5201   002C84  6E0F               	movwf	lcd_4bit_send_enable_signal@ret^0,c
  5202   002C86                     
  5203                           ;ECU_Layer/Chr_LCD/ecu_chr_lcd.c: 500:     return ret;
  5204   002C86  500F               	movf	lcd_4bit_send_enable_signal@ret^0,w,c
  5205   002C88  0012               	return		;funcret
  5206   002C8A                     __end_of_lcd_4bit_send_enable_signal:
  5207                           	callstack 0
  5208                           
  5209 ;; *************** function _keypad_initialize *****************
  5210 ;; Defined at:
  5211 ;;		line 24 in file "ECU_Layer/KeyPad/ecu_keypad.c"
  5212 ;; Parameters:    Size  Location     Type
  5213 ;;  _keypad_obj     2   16[COMRAM] PTR const struct .
  5214 ;;		 -> keypad1(8), 
  5215 ;; Auto vars:     Size  Location     Type
  5216 ;;  columns_coun    1   22[COMRAM] unsigned char 
  5217 ;;  rows_counter    1   21[COMRAM] unsigned char 
  5218 ;;  ret             1   20[COMRAM] unsigned char 
  5219 ;; Return value:  Size  Location     Type
  5220 ;;                  1    wreg      unsigned char 
  5221 ;; Registers used:
  5222 ;;		wreg, fsr2l, fsr2h, status,2, status,0, prodl, prodh, cstack
  5223 ;; Tracked objects:
  5224 ;;		On entry : 0/0
  5225 ;;		On exit  : 0/0
  5226 ;;		Unchanged: 0/0
  5227 ;; Data sizes:     COMRAM   BANK0   BANK1   BANK2   BANK3   BANK4   BANK5   BANK6   BANK7   BANK8   BANK9  BANK10  BANK1
      +1  BANK12  BANK13  BANK14  BANK15
  5228 ;;      Params:         2       0       0       0       0       0       0       0       0       0       0       0       
      +0       0       0       0       0
  5229 ;;      Locals:         3       0       0       0       0       0       0       0       0       0       0       0       
      +0       0       0       0       0
  5230 ;;      Temps:          2       0       0       0       0       0       0       0       0       0       0       0       
      +0       0       0       0       0
  5231 ;;      Totals:         7       0       0       0       0       0       0       0       0       0       0       0       
      +0       0       0       0       0
  5232 ;;Total ram usage:        7 bytes
  5233 ;; Hardware stack levels used: 1
  5234 ;; Hardware stack levels required when called: 4
  5235 ;; This function calls:
  5236 ;;		_gpio_pin_direction_intialize
  5237 ;;		_gpio_pin_intialize
  5238 ;; This function is called by:
  5239 ;;		_ecu_layer_init
  5240 ;; This function uses a non-reentrant model
  5241 ;;
  5242                           
  5243                           	psect	text33
  5244   002730                     __ptext33:
  5245                           	callstack 0
  5246   002730                     _keypad_initialize:
  5247                           	callstack 24
  5248   002730                     
  5249                           ;ECU_Layer/KeyPad/ecu_keypad.c: 26:     uint8 rows_counter = 0, columns_counter = 0;
  5250   002730  0E00               	movlw	0
  5251   002732  6E16               	movwf	keypad_initialize@rows_counter^0,c
  5252   002734  0E00               	movlw	0
  5253   002736  6E17               	movwf	keypad_initialize@columns_counter^0,c
  5254   002738                     
  5255                           ;ECU_Layer/KeyPad/ecu_keypad.c: 27:     if(((void*)0) == _keypad_obj){
  5256   002738  5011               	movf	keypad_initialize@_keypad_obj^0,w,c
  5257   00273A  1012               	iorwf	(keypad_initialize@_keypad_obj+1)^0,w,c
  5258   00273C  A4D8               	btfss	status,2,c
  5259   00273E  EFA3  F013         	goto	u4711
  5260   002742  EFA5  F013         	goto	u4710
  5261   002746                     u4711:
  5262   002746  EFA9  F013         	goto	l6266
  5263   00274A                     u4710:
  5264   00274A                     
  5265                           ;ECU_Layer/KeyPad/ecu_keypad.c: 28:         ret = (Std_ReturnType)0x00;
  5266   00274A  0E00               	movlw	0
  5267   00274C  6E15               	movwf	keypad_initialize@ret^0,c
  5268                           
  5269                           ;ECU_Layer/KeyPad/ecu_keypad.c: 29:     }
  5270   00274E  EFD6  F013         	goto	l6290
  5271   002752                     l6266:
  5272                           
  5273                           ;ECU_Layer/KeyPad/ecu_keypad.c: 31:         for(rows_counter=0; rows_counter<4; rows_cou
      +                          nter++){
  5274   002752  0E00               	movlw	0
  5275   002754  6E16               	movwf	keypad_initialize@rows_counter^0,c
  5276   002756                     l6272:
  5277   002756  5016               	movf	keypad_initialize@rows_counter^0,w,c
  5278   002758  2411               	addwf	keypad_initialize@_keypad_obj^0,w,c
  5279   00275A  6E0D               	movwf	gpio_pin_intialize@_pin_config^0,c
  5280   00275C  0E00               	movlw	0
  5281   00275E  2012               	addwfc	(keypad_initialize@_keypad_obj+1)^0,w,c
  5282   002760  6E0E               	movwf	(gpio_pin_intialize@_pin_config+1)^0,c
  5283   002762  EC87  F014         	call	_gpio_pin_intialize	;wreg free
  5284   002766                     
  5285                           ;ECU_Layer/KeyPad/ecu_keypad.c: 33:         }
  5286   002766  2A16               	incf	keypad_initialize@rows_counter^0,f,c
  5287   002768  0E03               	movlw	3
  5288   00276A  6416               	cpfsgt	keypad_initialize@rows_counter^0,c
  5289   00276C  EFBA  F013         	goto	u4721
  5290   002770  EFBC  F013         	goto	u4720
  5291   002774                     u4721:
  5292   002774  EFAB  F013         	goto	l6272
  5293   002778                     u4720:
  5294   002778                     
  5295                           ;ECU_Layer/KeyPad/ecu_keypad.c: 34:         for(columns_counter=0; columns_counter<4; co
      +                          lumns_counter++){
  5296   002778  0E00               	movlw	0
  5297   00277A  6E17               	movwf	keypad_initialize@columns_counter^0,c
  5298   00277C                     l6284:
  5299                           
  5300                           ;ECU_Layer/KeyPad/ecu_keypad.c: 35:             ret = gpio_pin_direction_intialize(&(_ke
      +                          ypad_obj->keypad_columns_pins[columns_counter]));
  5301   00277C  5017               	movf	keypad_initialize@columns_counter^0,w,c
  5302   00277E  2411               	addwf	keypad_initialize@_keypad_obj^0,w,c
  5303   002780  6E13               	movwf	??_keypad_initialize^0,c
  5304   002782  0E00               	movlw	0
  5305   002784  2012               	addwfc	(keypad_initialize@_keypad_obj+1)^0,w,c
  5306   002786  6E14               	movwf	(??_keypad_initialize+1)^0,c
  5307   002788  0E04               	movlw	4
  5308   00278A  2413               	addwf	??_keypad_initialize^0,w,c
  5309   00278C  6E03               	movwf	gpio_pin_direction_intialize@_pin_config^0,c
  5310   00278E  0E00               	movlw	0
  5311   002790  2014               	addwfc	(??_keypad_initialize+1)^0,w,c
  5312   002792  6E04               	movwf	(gpio_pin_direction_intialize@_pin_config+1)^0,c
  5313   002794  EC91  F00D         	call	_gpio_pin_direction_intialize	;wreg free
  5314   002798  6E15               	movwf	keypad_initialize@ret^0,c
  5315   00279A                     
  5316                           ;ECU_Layer/KeyPad/ecu_keypad.c: 36:         }
  5317   00279A  2A17               	incf	keypad_initialize@columns_counter^0,f,c
  5318   00279C  0E03               	movlw	3
  5319   00279E  6417               	cpfsgt	keypad_initialize@columns_counter^0,c
  5320   0027A0  EFD4  F013         	goto	u4731
  5321   0027A4  EFD6  F013         	goto	u4730
  5322   0027A8                     u4731:
  5323   0027A8  EFBE  F013         	goto	l6284
  5324   0027AC                     u4730:
  5325   0027AC                     l6290:
  5326                           
  5327                           ;ECU_Layer/KeyPad/ecu_keypad.c: 38:     return ret;
  5328   0027AC  5015               	movf	keypad_initialize@ret^0,w,c
  5329   0027AE  0012               	return		;funcret
  5330   0027B0                     __end_of_keypad_initialize:
  5331                           	callstack 0
  5332                           
  5333 ;; *************** function _gpio_pin_intialize *****************
  5334 ;; Defined at:
  5335 ;;		line 144 in file "MCAL_Layer/GPIO/hal_gpio.c"
  5336 ;; Parameters:    Size  Location     Type
  5337 ;;  _pin_config     2   12[COMRAM] PTR const struct .
  5338 ;;		 -> keypad1.keypad_row_pins(4), keypad1(8), lcd_1.lcd_data(4), lcd_1(6), 
  5339 ;; Auto vars:     Size  Location     Type
  5340 ;;  ret             1   15[COMRAM] unsigned char 
  5341 ;; Return value:  Size  Location     Type
  5342 ;;                  1    wreg      unsigned char 
  5343 ;; Registers used:
  5344 ;;		wreg, fsr2l, fsr2h, status,2, status,0, prodl, prodh, cstack
  5345 ;; Tracked objects:
  5346 ;;		On entry : 0/0
  5347 ;;		On exit  : 0/0
  5348 ;;		Unchanged: 0/0
  5349 ;; Data sizes:     COMRAM   BANK0   BANK1   BANK2   BANK3   BANK4   BANK5   BANK6   BANK7   BANK8   BANK9  BANK10  BANK1
      +1  BANK12  BANK13  BANK14  BANK15
  5350 ;;      Params:         2       0       0       0       0       0       0       0       0       0       0       0       
      +0       0       0       0       0
  5351 ;;      Locals:         1       0       0       0       0       0       0       0       0       0       0       0       
      +0       0       0       0       0
  5352 ;;      Temps:          1       0       0       0       0       0       0       0       0       0       0       0       
      +0       0       0       0       0
  5353 ;;      Totals:         4       0       0       0       0       0       0       0       0       0       0       0       
      +0       0       0       0       0
  5354 ;;Total ram usage:        4 bytes
  5355 ;; Hardware stack levels used: 1
  5356 ;; Hardware stack levels required when called: 3
  5357 ;; This function calls:
  5358 ;;		_gpio_pin_direction_intialize
  5359 ;;		_gpio_pin_write_logic
  5360 ;; This function is called by:
  5361 ;;		_lcd_4bit_intialize
  5362 ;;		_keypad_initialize
  5363 ;;		_seven_segement_intialize
  5364 ;;		_lcd_8bit_intialize
  5365 ;;		_dc_motor_initialize
  5366 ;;		_led_initialize
  5367 ;;		_relay_initialize
  5368 ;;		_Ultrasonic_Init
  5369 ;;		_CCP_Init
  5370 ;; This function uses a non-reentrant model
  5371 ;;
  5372                           
  5373                           	psect	text34
  5374   00290E                     __ptext34:
  5375                           	callstack 0
  5376   00290E                     _gpio_pin_intialize:
  5377                           	callstack 24
  5378   00290E                     
  5379                           ;MCAL_Layer/GPIO/hal_gpio.c: 146:     if(((void*)0) == _pin_config || _pin_config->pin >
      +                           8 -1){
  5380   00290E  500D               	movf	gpio_pin_intialize@_pin_config^0,w,c
  5381   002910  100E               	iorwf	(gpio_pin_intialize@_pin_config+1)^0,w,c
  5382   002912  B4D8               	btfsc	status,2,c
  5383   002914  EF8E  F014         	goto	u4591
  5384   002918  EF90  F014         	goto	u4590
  5385   00291C                     u4591:
  5386   00291C  EFA1  F014         	goto	l6106
  5387   002920                     u4590:
  5388   002920  C00D  FFD9         	movff	gpio_pin_intialize@_pin_config,fsr2l
  5389   002924  C00E  FFDA         	movff	gpio_pin_intialize@_pin_config+1,fsr2h
  5390   002928  30DF               	rrcf	223,w,c
  5391   00292A  32E8               	rrcf	wreg,f,c
  5392   00292C  32E8               	rrcf	wreg,f,c
  5393   00292E  0B07               	andlw	7
  5394   002930  6E0F               	movwf	??_gpio_pin_intialize^0,c
  5395   002932  0E07               	movlw	7
  5396   002934  640F               	cpfsgt	??_gpio_pin_intialize^0,c
  5397   002936  EF9F  F014         	goto	u4601
  5398   00293A  EFA1  F014         	goto	u4600
  5399   00293E                     u4601:
  5400   00293E  EFA5  F014         	goto	l6108
  5401   002942                     u4600:
  5402   002942                     l6106:
  5403                           
  5404                           ;MCAL_Layer/GPIO/hal_gpio.c: 147:         ret = (Std_ReturnType)0x00;
  5405   002942  0E00               	movlw	0
  5406   002944  6E10               	movwf	gpio_pin_intialize@ret^0,c
  5407                           
  5408                           ;MCAL_Layer/GPIO/hal_gpio.c: 148:     }
  5409   002946  EFBB  F014         	goto	l6110
  5410   00294A                     l6108:
  5411                           
  5412                           ;MCAL_Layer/GPIO/hal_gpio.c: 150:         ret = gpio_pin_direction_intialize(_pin_config
      +                          );
  5413   00294A  C00D  F003         	movff	gpio_pin_intialize@_pin_config,gpio_pin_direction_intialize@_pin_config
  5414   00294E  C00E  F004         	movff	gpio_pin_intialize@_pin_config+1,gpio_pin_direction_intialize@_pin_config+1
  5415   002952  EC91  F00D         	call	_gpio_pin_direction_intialize	;wreg free
  5416   002956  6E10               	movwf	gpio_pin_intialize@ret^0,c
  5417                           
  5418                           ;MCAL_Layer/GPIO/hal_gpio.c: 151:         ret = gpio_pin_write_logic(_pin_config, _pin_c
      +                          onfig->logic);
  5419   002958  C00D  F003         	movff	gpio_pin_intialize@_pin_config,gpio_pin_write_logic@_pin_config
  5420   00295C  C00E  F004         	movff	gpio_pin_intialize@_pin_config+1,gpio_pin_write_logic@_pin_config+1
  5421   002960  C00D  FFD9         	movff	gpio_pin_intialize@_pin_config,fsr2l
  5422   002964  C00E  FFDA         	movff	gpio_pin_intialize@_pin_config+1,fsr2h
  5423   002968  0E00               	movlw	0
  5424   00296A  BEDF               	btfsc	indf2,7,c
  5425   00296C  0E01               	movlw	1
  5426   00296E  6E05               	movwf	gpio_pin_write_logic@logic^0,c
  5427   002970  ECC9  F00E         	call	_gpio_pin_write_logic	;wreg free
  5428   002974  6E10               	movwf	gpio_pin_intialize@ret^0,c
  5429   002976                     l6110:
  5430                           
  5431                           ;MCAL_Layer/GPIO/hal_gpio.c: 153:     return ret;
  5432   002976  5010               	movf	gpio_pin_intialize@ret^0,w,c
  5433   002978  0012               	return		;funcret
  5434   00297A                     __end_of_gpio_pin_intialize:
  5435                           	callstack 0
  5436                           
  5437 ;; *************** function _gpio_pin_write_logic *****************
  5438 ;; Defined at:
  5439 ;;		line 75 in file "MCAL_Layer/GPIO/hal_gpio.c"
  5440 ;; Parameters:    Size  Location     Type
  5441 ;;  _pin_config     2    2[COMRAM] PTR const struct .
  5442 ;;		 -> keypad1.keypad_row_pins(4), keypad1(8), lcd_1.lcd_data(4), lcd_1(6), 
  5443 ;;  logic           1    4[COMRAM] enum E3462
  5444 ;; Auto vars:     Size  Location     Type
  5445 ;;  ret             1   11[COMRAM] unsigned char 
  5446 ;; Return value:  Size  Location     Type
  5447 ;;                  1    wreg      unsigned char 
  5448 ;; Registers used:
  5449 ;;		wreg, fsr2l, fsr2h, status,2, status,0, prodl, prodh
  5450 ;; Tracked objects:
  5451 ;;		On entry : 0/0
  5452 ;;		On exit  : 0/0
  5453 ;;		Unchanged: 0/0
  5454 ;; Data sizes:     COMRAM   BANK0   BANK1   BANK2   BANK3   BANK4   BANK5   BANK6   BANK7   BANK8   BANK9  BANK10  BANK1
      +1  BANK12  BANK13  BANK14  BANK15
  5455 ;;      Params:         3       0       0       0       0       0       0       0       0       0       0       0       
      +0       0       0       0       0
  5456 ;;      Locals:         1       0       0       0       0       0       0       0       0       0       0       0       
      +0       0       0       0       0
  5457 ;;      Temps:          6       0       0       0       0       0       0       0       0       0       0       0       
      +0       0       0       0       0
  5458 ;;      Totals:        10       0       0       0       0       0       0       0       0       0       0       0       
      +0       0       0       0       0
  5459 ;;Total ram usage:       10 bytes
  5460 ;; Hardware stack levels used: 1
  5461 ;; Hardware stack levels required when called: 2
  5462 ;; This function calls:
  5463 ;;		Nothing
  5464 ;; This function is called by:
  5465 ;;		_lcd_4bit_send_command
  5466 ;;		_lcd_4bit_send_char_data
  5467 ;;		_lcd_send_4bits
  5468 ;;		_lcd_4bit_send_enable_signal
  5469 ;;		_keypad_get_value
  5470 ;;		_gpio_pin_intialize
  5471 ;;		_seven_segement_write_number
  5472 ;;		_lcd_8bit_send_command
  5473 ;;		_lcd_8bit_send_char_data
  5474 ;;		_lcd_8bit_send_enable_signal
  5475 ;;		_dc_motor_move_right
  5476 ;;		_dc_motor_move_left
  5477 ;;		_dc_motor_stop
  5478 ;;		_led_turn_on
  5479 ;;		_led_turn_off
  5480 ;;		_relay_turn_on
  5481 ;;		_relay_turn_off
  5482 ;;		_Ultrasonic_Calculate_Distance
  5483 ;; This function uses a non-reentrant model
  5484 ;;
  5485                           
  5486                           	psect	text35
  5487   001D92                     __ptext35:
  5488                           	callstack 0
  5489   001D92                     _gpio_pin_write_logic:
  5490                           	callstack 23
  5491   001D92                     
  5492                           ;MCAL_Layer/GPIO/hal_gpio.c: 76:     Std_ReturnType ret = (Std_ReturnType)0x01;
  5493   001D92  0E01               	movlw	1
  5494   001D94  6E0C               	movwf	gpio_pin_write_logic@ret^0,c
  5495   001D96                     
  5496                           ;MCAL_Layer/GPIO/hal_gpio.c: 77:     if(((void*)0) == _pin_config || _pin_config->pin > 
      +                          8 -1){
  5497   001D96  5003               	movf	gpio_pin_write_logic@_pin_config^0,w,c
  5498   001D98  1004               	iorwf	(gpio_pin_write_logic@_pin_config+1)^0,w,c
  5499   001D9A  B4D8               	btfsc	status,2,c
  5500   001D9C  EFD2  F00E         	goto	u4361
  5501   001DA0  EFD4  F00E         	goto	u4360
  5502   001DA4                     u4361:
  5503   001DA4  EFE5  F00E         	goto	l5954
  5504   001DA8                     u4360:
  5505   001DA8  C003  FFD9         	movff	gpio_pin_write_logic@_pin_config,fsr2l
  5506   001DAC  C004  FFDA         	movff	gpio_pin_write_logic@_pin_config+1,fsr2h
  5507   001DB0  30DF               	rrcf	223,w,c
  5508   001DB2  32E8               	rrcf	wreg,f,c
  5509   001DB4  32E8               	rrcf	wreg,f,c
  5510   001DB6  0B07               	andlw	7
  5511   001DB8  6E06               	movwf	??_gpio_pin_write_logic^0,c
  5512   001DBA  0E07               	movlw	7
  5513   001DBC  6406               	cpfsgt	??_gpio_pin_write_logic^0,c
  5514   001DBE  EFE3  F00E         	goto	u4371
  5515   001DC2  EFE5  F00E         	goto	u4370
  5516   001DC6                     u4371:
  5517   001DC6  EF48  F00F         	goto	l5962
  5518   001DCA                     u4370:
  5519   001DCA                     l5954:
  5520                           
  5521                           ;MCAL_Layer/GPIO/hal_gpio.c: 78:         ret = (Std_ReturnType)0x00;
  5522   001DCA  0E00               	movlw	0
  5523   001DCC  6E0C               	movwf	gpio_pin_write_logic@ret^0,c
  5524                           
  5525                           ;MCAL_Layer/GPIO/hal_gpio.c: 79:     }
  5526   001DCE  EF5D  F00F         	goto	l5964
  5527   001DD2                     l5956:
  5528                           
  5529                           ;MCAL_Layer/GPIO/hal_gpio.c: 83:                 (*lat_registers[_pin_config->port] &= ~
      +                          ((uint8)1 << _pin_config->pin));
  5530   001DD2  C003  FFD9         	movff	gpio_pin_write_logic@_pin_config,fsr2l
  5531   001DD6  C004  FFDA         	movff	gpio_pin_write_logic@_pin_config+1,fsr2h
  5532   001DDA  30DF               	rrcf	223,w,c
  5533   001DDC  32E8               	rrcf	wreg,f,c
  5534   001DDE  32E8               	rrcf	wreg,f,c
  5535   001DE0  0B07               	andlw	7
  5536   001DE2  6E06               	movwf	??_gpio_pin_write_logic^0,c
  5537   001DE4  0E01               	movlw	1
  5538   001DE6  6E07               	movwf	(??_gpio_pin_write_logic+1)^0,c
  5539   001DE8  2A06               	incf	??_gpio_pin_write_logic^0,f,c
  5540   001DEA  EFF9  F00E         	goto	u4384
  5541   001DEE                     u4385:
  5542   001DEE  90D8               	bcf	status,0,c
  5543   001DF0  3607               	rlcf	(??_gpio_pin_write_logic+1)^0,f,c
  5544   001DF2                     u4384:
  5545   001DF2  2E06               	decfsz	??_gpio_pin_write_logic^0,f,c
  5546   001DF4  EFF7  F00E         	goto	u4385
  5547   001DF8  5007               	movf	(??_gpio_pin_write_logic+1)^0,w,c
  5548   001DFA  0AFF               	xorlw	255
  5549   001DFC  6E08               	movwf	(??_gpio_pin_write_logic+2)^0,c
  5550   001DFE  C003  FFD9         	movff	gpio_pin_write_logic@_pin_config,fsr2l
  5551   001E02  C004  FFDA         	movff	gpio_pin_write_logic@_pin_config+1,fsr2h
  5552   001E06  50DF               	movf	223,w,c
  5553   001E08  0B07               	andlw	7
  5554   001E0A  6E09               	movwf	(??_gpio_pin_write_logic+3)^0,c
  5555   001E0C  5009               	movf	(??_gpio_pin_write_logic+3)^0,w,c
  5556   001E0E  0D02               	mullw	2
  5557   001E10  0ECE               	movlw	low _lat_registers
  5558   001E12  24F3               	addwf	243,w,c
  5559   001E14  6ED9               	movwf	fsr2l,c
  5560   001E16  0E00               	movlw	high _lat_registers
  5561   001E18  20F4               	addwfc	prodh,w,c
  5562   001E1A  6EDA               	movwf	fsr2h,c
  5563   001E1C  CFDE F00A          	movff	postinc2,??_gpio_pin_write_logic+4
  5564   001E20  CFDD F00B          	movff	postdec2,??_gpio_pin_write_logic+5
  5565   001E24  C00A  FFD9         	movff	??_gpio_pin_write_logic+4,fsr2l
  5566   001E28  C00B  FFDA         	movff	??_gpio_pin_write_logic+5,fsr2h
  5567   001E2C  5008               	movf	(??_gpio_pin_write_logic+2)^0,w,c
  5568   001E2E  16DF               	andwf	indf2,f,c
  5569                           
  5570                           ;MCAL_Layer/GPIO/hal_gpio.c: 84:                 break;
  5571   001E30  EF5D  F00F         	goto	l5964
  5572   001E34                     l5958:
  5573                           
  5574                           ;MCAL_Layer/GPIO/hal_gpio.c: 86:                 (*lat_registers[_pin_config->port] |= (
      +                          (uint8)1 << _pin_config->pin));
  5575   001E34  C003  FFD9         	movff	gpio_pin_write_logic@_pin_config,fsr2l
  5576   001E38  C004  FFDA         	movff	gpio_pin_write_logic@_pin_config+1,fsr2h
  5577   001E3C  30DF               	rrcf	223,w,c
  5578   001E3E  32E8               	rrcf	wreg,f,c
  5579   001E40  32E8               	rrcf	wreg,f,c
  5580   001E42  0B07               	andlw	7
  5581   001E44  6E06               	movwf	??_gpio_pin_write_logic^0,c
  5582   001E46  0E01               	movlw	1
  5583   001E48  6E07               	movwf	(??_gpio_pin_write_logic+1)^0,c
  5584   001E4A  2A06               	incf	??_gpio_pin_write_logic^0,f,c
  5585   001E4C  EF2A  F00F         	goto	u4394
  5586   001E50                     u4395:
  5587   001E50  90D8               	bcf	status,0,c
  5588   001E52  3607               	rlcf	(??_gpio_pin_write_logic+1)^0,f,c
  5589   001E54                     u4394:
  5590   001E54  2E06               	decfsz	??_gpio_pin_write_logic^0,f,c
  5591   001E56  EF28  F00F         	goto	u4395
  5592   001E5A  C003  FFD9         	movff	gpio_pin_write_logic@_pin_config,fsr2l
  5593   001E5E  C004  FFDA         	movff	gpio_pin_write_logic@_pin_config+1,fsr2h
  5594   001E62  50DF               	movf	223,w,c
  5595   001E64  0B07               	andlw	7
  5596   001E66  6E08               	movwf	(??_gpio_pin_write_logic+2)^0,c
  5597   001E68  5008               	movf	(??_gpio_pin_write_logic+2)^0,w,c
  5598   001E6A  0D02               	mullw	2
  5599   001E6C  0ECE               	movlw	low _lat_registers
  5600   001E6E  24F3               	addwf	243,w,c
  5601   001E70  6ED9               	movwf	fsr2l,c
  5602   001E72  0E00               	movlw	high _lat_registers
  5603   001E74  20F4               	addwfc	prodh,w,c
  5604   001E76  6EDA               	movwf	fsr2h,c
  5605   001E78  CFDE F009          	movff	postinc2,??_gpio_pin_write_logic+3
  5606   001E7C  CFDD F00A          	movff	postdec2,??_gpio_pin_write_logic+4
  5607   001E80  C009  FFD9         	movff	??_gpio_pin_write_logic+3,fsr2l
  5608   001E84  C00A  FFDA         	movff	??_gpio_pin_write_logic+4,fsr2h
  5609   001E88  5007               	movf	(??_gpio_pin_write_logic+1)^0,w,c
  5610   001E8A  12DF               	iorwf	indf2,f,c
  5611                           
  5612                           ;MCAL_Layer/GPIO/hal_gpio.c: 87:                 break;
  5613   001E8C  EF5D  F00F         	goto	l5964
  5614   001E90                     l5962:
  5615   001E90  5005               	movf	gpio_pin_write_logic@logic^0,w,c
  5616   001E92  6E06               	movwf	??_gpio_pin_write_logic^0,c
  5617   001E94  6A07               	clrf	(??_gpio_pin_write_logic+1)^0,c
  5618                           
  5619                           ; Switch on 2 bytes has been partitioned into a top level switch of size 1, and 1 sub-sw
      +                          itches
  5620                           ; Switch size 1, requested type "simple"
  5621                           ; Number of cases is 1, Range of values is 0 to 0
  5622                           ; switch strategies available:
  5623                           ; Name         Instructions Cycles
  5624                           ; simple_byte            4     3 (average)
  5625                           ;	Chosen strategy is simple_byte
  5626   001E96  5007               	movf	(??_gpio_pin_write_logic+1)^0,w,c
  5627   001E98  0A00               	xorlw	0	; case 0
  5628   001E9A  B4D8               	btfsc	status,2,c
  5629   001E9C  EF52  F00F         	goto	l8340
  5630   001EA0  EFE5  F00E         	goto	l5954
  5631   001EA4                     l8340:
  5632                           
  5633                           ; Switch size 1, requested type "simple"
  5634                           ; Number of cases is 2, Range of values is 0 to 1
  5635                           ; switch strategies available:
  5636                           ; Name         Instructions Cycles
  5637                           ; simple_byte            7     4 (average)
  5638                           ;	Chosen strategy is simple_byte
  5639   001EA4  5006               	movf	??_gpio_pin_write_logic^0,w,c
  5640   001EA6  0A00               	xorlw	0	; case 0
  5641   001EA8  B4D8               	btfsc	status,2,c
  5642   001EAA  EFE9  F00E         	goto	l5956
  5643   001EAE  0A01               	xorlw	1	; case 1
  5644   001EB0  B4D8               	btfsc	status,2,c
  5645   001EB2  EF1A  F00F         	goto	l5958
  5646   001EB6  EFE5  F00E         	goto	l5954
  5647   001EBA                     l5964:
  5648                           
  5649                           ;MCAL_Layer/GPIO/hal_gpio.c: 91:     return ret;
  5650   001EBA  500C               	movf	gpio_pin_write_logic@ret^0,w,c
  5651   001EBC  0012               	return		;funcret
  5652   001EBE                     __end_of_gpio_pin_write_logic:
  5653                           	callstack 0
  5654                           
  5655 ;; *************** function _gpio_pin_direction_intialize *****************
  5656 ;; Defined at:
  5657 ;;		line 25 in file "MCAL_Layer/GPIO/hal_gpio.c"
  5658 ;; Parameters:    Size  Location     Type
  5659 ;;  _pin_config     2    2[COMRAM] PTR const struct .
  5660 ;;		 -> MSSP_SPI_Slave_Mode_GPIO_PIN_Configurations@SPI_SS(1), MSSP_SPI_Slave_Mode_GPIO_PIN_Configurations@SPI_CLK(1), M
      +SSP_SPI_Slave_Mode_GPIO_PIN_Configurations@SPI_SDI(1), MSSP_SPI_Slave_Mode_GPIO_PIN_Configurations@SPI_SDO(1), 
  5661 ;;		 -> MSSP_SPI_Msster_Mode_GPIO_PIN_Configurations@SPI_CLK(1), MSSP_SPI_Msster_Mode_GPIO_PIN_Configurations@SPI_SDI(1)
      +, MSSP_SPI_Msster_Mode_GPIO_PIN_Configurations@SPI_SDO(1), keypad1.keypad_columns_pins(4), 
  5662 ;;		 -> keypad1.keypad_row_pins(4), keypad1(8), lcd_1.lcd_data(4), lcd_1(6), 
  5663 ;; Auto vars:     Size  Location     Type
  5664 ;;  ret             1   10[COMRAM] unsigned char 
  5665 ;; Return value:  Size  Location     Type
  5666 ;;                  1    wreg      unsigned char 
  5667 ;; Registers used:
  5668 ;;		wreg, fsr2l, fsr2h, status,2, status,0, prodl, prodh
  5669 ;; Tracked objects:
  5670 ;;		On entry : 0/0
  5671 ;;		On exit  : 0/0
  5672 ;;		Unchanged: 0/0
  5673 ;; Data sizes:     COMRAM   BANK0   BANK1   BANK2   BANK3   BANK4   BANK5   BANK6   BANK7   BANK8   BANK9  BANK10  BANK1
      +1  BANK12  BANK13  BANK14  BANK15
  5674 ;;      Params:         2       0       0       0       0       0       0       0       0       0       0       0       
      +0       0       0       0       0
  5675 ;;      Locals:         1       0       0       0       0       0       0       0       0       0       0       0       
      +0       0       0       0       0
  5676 ;;      Temps:          6       0       0       0       0       0       0       0       0       0       0       0       
      +0       0       0       0       0
  5677 ;;      Totals:         9       0       0       0       0       0       0       0       0       0       0       0       
      +0       0       0       0       0
  5678 ;;Total ram usage:        9 bytes
  5679 ;; Hardware stack levels used: 1
  5680 ;; Hardware stack levels required when called: 2
  5681 ;; This function calls:
  5682 ;;		Nothing
  5683 ;; This function is called by:
  5684 ;;		_keypad_initialize
  5685 ;;		_gpio_pin_intialize
  5686 ;;		_button_initialize
  5687 ;;		_Interrupt_RBx_Init
  5688 ;;		_Interrupt_INTx_Pin_Init
  5689 ;;		_MSSP_SPI_Msster_Mode_GPIO_PIN_Configurations
  5690 ;;		_MSSP_SPI_Slave_Mode_GPIO_PIN_Configurations
  5691 ;; This function uses a non-reentrant model
  5692 ;;
  5693                           
  5694                           	psect	text36
  5695   001B22                     __ptext36:
  5696                           	callstack 0
  5697   001B22                     _gpio_pin_direction_intialize:
  5698                           	callstack 24
  5699   001B22                     
  5700                           ;MCAL_Layer/GPIO/hal_gpio.c: 26:     Std_ReturnType ret = (Std_ReturnType)0x01;
  5701   001B22  0E01               	movlw	1
  5702   001B24  6E0B               	movwf	gpio_pin_direction_intialize@ret^0,c
  5703   001B26                     
  5704                           ;MCAL_Layer/GPIO/hal_gpio.c: 27:     if(((void*)0) == _pin_config || _pin_config->pin > 
      +                          8 -1){
  5705   001B26  5003               	movf	gpio_pin_direction_intialize@_pin_config^0,w,c
  5706   001B28  1004               	iorwf	(gpio_pin_direction_intialize@_pin_config+1)^0,w,c
  5707   001B2A  B4D8               	btfsc	status,2,c
  5708   001B2C  EF9A  F00D         	goto	u4501
  5709   001B30  EF9C  F00D         	goto	u4500
  5710   001B34                     u4501:
  5711   001B34  EFAD  F00D         	goto	l6028
  5712   001B38                     u4500:
  5713   001B38  C003  FFD9         	movff	gpio_pin_direction_intialize@_pin_config,fsr2l
  5714   001B3C  C004  FFDA         	movff	gpio_pin_direction_intialize@_pin_config+1,fsr2h
  5715   001B40  30DF               	rrcf	223,w,c
  5716   001B42  32E8               	rrcf	wreg,f,c
  5717   001B44  32E8               	rrcf	wreg,f,c
  5718   001B46  0B07               	andlw	7
  5719   001B48  6E05               	movwf	??_gpio_pin_direction_intialize^0,c
  5720   001B4A  0E07               	movlw	7
  5721   001B4C  6405               	cpfsgt	??_gpio_pin_direction_intialize^0,c
  5722   001B4E  EFAB  F00D         	goto	u4511
  5723   001B52  EFAD  F00D         	goto	u4510
  5724   001B56                     u4511:
  5725   001B56  EF10  F00E         	goto	l6036
  5726   001B5A                     u4510:
  5727   001B5A                     l6028:
  5728                           
  5729                           ;MCAL_Layer/GPIO/hal_gpio.c: 28:         ret = (Std_ReturnType)0x00;
  5730   001B5A  0E00               	movlw	0
  5731   001B5C  6E0B               	movwf	gpio_pin_direction_intialize@ret^0,c
  5732                           
  5733                           ;MCAL_Layer/GPIO/hal_gpio.c: 29:     }
  5734   001B5E  EF31  F00E         	goto	l6038
  5735   001B62                     l6030:
  5736                           
  5737                           ;MCAL_Layer/GPIO/hal_gpio.c: 33:                 (*tris_registers[_pin_config->port] &= 
      +                          ~((uint8)1 << _pin_config->pin));
  5738   001B62  C003  FFD9         	movff	gpio_pin_direction_intialize@_pin_config,fsr2l
  5739   001B66  C004  FFDA         	movff	gpio_pin_direction_intialize@_pin_config+1,fsr2h
  5740   001B6A  30DF               	rrcf	223,w,c
  5741   001B6C  32E8               	rrcf	wreg,f,c
  5742   001B6E  32E8               	rrcf	wreg,f,c
  5743   001B70  0B07               	andlw	7
  5744   001B72  6E05               	movwf	??_gpio_pin_direction_intialize^0,c
  5745   001B74  0E01               	movlw	1
  5746   001B76  6E06               	movwf	(??_gpio_pin_direction_intialize+1)^0,c
  5747   001B78  2A05               	incf	??_gpio_pin_direction_intialize^0,f,c
  5748   001B7A  EFC1  F00D         	goto	u4524
  5749   001B7E                     u4525:
  5750   001B7E  90D8               	bcf	status,0,c
  5751   001B80  3606               	rlcf	(??_gpio_pin_direction_intialize+1)^0,f,c
  5752   001B82                     u4524:
  5753   001B82  2E05               	decfsz	??_gpio_pin_direction_intialize^0,f,c
  5754   001B84  EFBF  F00D         	goto	u4525
  5755   001B88  5006               	movf	(??_gpio_pin_direction_intialize+1)^0,w,c
  5756   001B8A  0AFF               	xorlw	255
  5757   001B8C  6E07               	movwf	(??_gpio_pin_direction_intialize+2)^0,c
  5758   001B8E  C003  FFD9         	movff	gpio_pin_direction_intialize@_pin_config,fsr2l
  5759   001B92  C004  FFDA         	movff	gpio_pin_direction_intialize@_pin_config+1,fsr2h
  5760   001B96  50DF               	movf	223,w,c
  5761   001B98  0B07               	andlw	7
  5762   001B9A  6E08               	movwf	(??_gpio_pin_direction_intialize+3)^0,c
  5763   001B9C  5008               	movf	(??_gpio_pin_direction_intialize+3)^0,w,c
  5764   001B9E  0D02               	mullw	2
  5765   001BA0  0ED8               	movlw	low _tris_registers
  5766   001BA2  24F3               	addwf	243,w,c
  5767   001BA4  6ED9               	movwf	fsr2l,c
  5768   001BA6  0E00               	movlw	high _tris_registers
  5769   001BA8  20F4               	addwfc	prodh,w,c
  5770   001BAA  6EDA               	movwf	fsr2h,c
  5771   001BAC  CFDE F009          	movff	postinc2,??_gpio_pin_direction_intialize+4
  5772   001BB0  CFDD F00A          	movff	postdec2,??_gpio_pin_direction_intialize+5
  5773   001BB4  C009  FFD9         	movff	??_gpio_pin_direction_intialize+4,fsr2l
  5774   001BB8  C00A  FFDA         	movff	??_gpio_pin_direction_intialize+5,fsr2h
  5775   001BBC  5007               	movf	(??_gpio_pin_direction_intialize+2)^0,w,c
  5776   001BBE  16DF               	andwf	indf2,f,c
  5777                           
  5778                           ;MCAL_Layer/GPIO/hal_gpio.c: 34:                 break;
  5779   001BC0  EF31  F00E         	goto	l6038
  5780   001BC4                     l6032:
  5781                           
  5782                           ;MCAL_Layer/GPIO/hal_gpio.c: 36:                 (*tris_registers[_pin_config->port] |= 
      +                          ((uint8)1 << _pin_config->pin));
  5783   001BC4  C003  FFD9         	movff	gpio_pin_direction_intialize@_pin_config,fsr2l
  5784   001BC8  C004  FFDA         	movff	gpio_pin_direction_intialize@_pin_config+1,fsr2h
  5785   001BCC  30DF               	rrcf	223,w,c
  5786   001BCE  32E8               	rrcf	wreg,f,c
  5787   001BD0  32E8               	rrcf	wreg,f,c
  5788   001BD2  0B07               	andlw	7
  5789   001BD4  6E05               	movwf	??_gpio_pin_direction_intialize^0,c
  5790   001BD6  0E01               	movlw	1
  5791   001BD8  6E06               	movwf	(??_gpio_pin_direction_intialize+1)^0,c
  5792   001BDA  2A05               	incf	??_gpio_pin_direction_intialize^0,f,c
  5793   001BDC  EFF2  F00D         	goto	u4534
  5794   001BE0                     u4535:
  5795   001BE0  90D8               	bcf	status,0,c
  5796   001BE2  3606               	rlcf	(??_gpio_pin_direction_intialize+1)^0,f,c
  5797   001BE4                     u4534:
  5798   001BE4  2E05               	decfsz	??_gpio_pin_direction_intialize^0,f,c
  5799   001BE6  EFF0  F00D         	goto	u4535
  5800   001BEA  C003  FFD9         	movff	gpio_pin_direction_intialize@_pin_config,fsr2l
  5801   001BEE  C004  FFDA         	movff	gpio_pin_direction_intialize@_pin_config+1,fsr2h
  5802   001BF2  50DF               	movf	223,w,c
  5803   001BF4  0B07               	andlw	7
  5804   001BF6  6E07               	movwf	(??_gpio_pin_direction_intialize+2)^0,c
  5805   001BF8  5007               	movf	(??_gpio_pin_direction_intialize+2)^0,w,c
  5806   001BFA  0D02               	mullw	2
  5807   001BFC  0ED8               	movlw	low _tris_registers
  5808   001BFE  24F3               	addwf	243,w,c
  5809   001C00  6ED9               	movwf	fsr2l,c
  5810   001C02  0E00               	movlw	high _tris_registers
  5811   001C04  20F4               	addwfc	prodh,w,c
  5812   001C06  6EDA               	movwf	fsr2h,c
  5813   001C08  CFDE F008          	movff	postinc2,??_gpio_pin_direction_intialize+3
  5814   001C0C  CFDD F009          	movff	postdec2,??_gpio_pin_direction_intialize+4
  5815   001C10  C008  FFD9         	movff	??_gpio_pin_direction_intialize+3,fsr2l
  5816   001C14  C009  FFDA         	movff	??_gpio_pin_direction_intialize+4,fsr2h
  5817   001C18  5006               	movf	(??_gpio_pin_direction_intialize+1)^0,w,c
  5818   001C1A  12DF               	iorwf	indf2,f,c
  5819                           
  5820                           ;MCAL_Layer/GPIO/hal_gpio.c: 37:                 break;
  5821   001C1C  EF31  F00E         	goto	l6038
  5822   001C20                     l6036:
  5823   001C20  C003  FFD9         	movff	gpio_pin_direction_intialize@_pin_config,fsr2l
  5824   001C24  C004  FFDA         	movff	gpio_pin_direction_intialize@_pin_config+1,fsr2h
  5825   001C28  BCDF               	btfsc	indf2,6,c
  5826   001C2A  EF19  F00E         	goto	u4541
  5827   001C2E  EF1C  F00E         	goto	u4540
  5828   001C32                     u4541:
  5829   001C32  0E01               	movlw	1
  5830   001C34  EF1D  F00E         	goto	u4550
  5831   001C38                     u4540:
  5832   001C38  0E00               	movlw	0
  5833   001C3A                     u4550:
  5834   001C3A  6E05               	movwf	??_gpio_pin_direction_intialize^0,c
  5835   001C3C  6A06               	clrf	(??_gpio_pin_direction_intialize+1)^0,c
  5836                           
  5837                           ; Switch on 2 bytes has been partitioned into a top level switch of size 1, and 1 sub-sw
      +                          itches
  5838                           ; Switch size 1, requested type "simple"
  5839                           ; Number of cases is 1, Range of values is 0 to 0
  5840                           ; switch strategies available:
  5841                           ; Name         Instructions Cycles
  5842                           ; simple_byte            4     3 (average)
  5843                           ;	Chosen strategy is simple_byte
  5844   001C3E  5006               	movf	(??_gpio_pin_direction_intialize+1)^0,w,c
  5845   001C40  0A00               	xorlw	0	; case 0
  5846   001C42  B4D8               	btfsc	status,2,c
  5847   001C44  EF26  F00E         	goto	l8342
  5848   001C48  EFAD  F00D         	goto	l6028
  5849   001C4C                     l8342:
  5850                           
  5851                           ; Switch size 1, requested type "simple"
  5852                           ; Number of cases is 2, Range of values is 0 to 1
  5853                           ; switch strategies available:
  5854                           ; Name         Instructions Cycles
  5855                           ; simple_byte            7     4 (average)
  5856                           ;	Chosen strategy is simple_byte
  5857   001C4C  5005               	movf	??_gpio_pin_direction_intialize^0,w,c
  5858   001C4E  0A00               	xorlw	0	; case 0
  5859   001C50  B4D8               	btfsc	status,2,c
  5860   001C52  EFB1  F00D         	goto	l6030
  5861   001C56  0A01               	xorlw	1	; case 1
  5862   001C58  B4D8               	btfsc	status,2,c
  5863   001C5A  EFE2  F00D         	goto	l6032
  5864   001C5E  EFAD  F00D         	goto	l6028
  5865   001C62                     l6038:
  5866                           
  5867                           ;MCAL_Layer/GPIO/hal_gpio.c: 41:     return ret;
  5868   001C62  500B               	movf	gpio_pin_direction_intialize@ret^0,w,c
  5869   001C64  0012               	return		;funcret
  5870   001C66                     __end_of_gpio_pin_direction_intialize:
  5871                           	callstack 0
  5872                           
  5873 ;; *************** function _InterruptManager *****************
  5874 ;; Defined at:
  5875 ;;		line 32 in file "MCAL_Layer/Interrupt/mcal_interrupt_manager.c"
  5876 ;; Parameters:    Size  Location     Type
  5877 ;;		None
  5878 ;; Auto vars:     Size  Location     Type
  5879 ;;		None
  5880 ;; Return value:  Size  Location     Type
  5881 ;;                  1    wreg      void 
  5882 ;; Registers used:
  5883 ;;		wreg, status,2, status,0, cstack
  5884 ;; Tracked objects:
  5885 ;;		On entry : 0/0
  5886 ;;		On exit  : 0/0
  5887 ;;		Unchanged: 0/0
  5888 ;; Data sizes:     COMRAM   BANK0   BANK1   BANK2   BANK3   BANK4   BANK5   BANK6   BANK7   BANK8   BANK9  BANK10  BANK1
      +1  BANK12  BANK13  BANK14  BANK15
  5889 ;;      Params:         0       0       0       0       0       0       0       0       0       0       0       0       
      +0       0       0       0       0
  5890 ;;      Locals:         0       0       0       0       0       0       0       0       0       0       0       0       
      +0       0       0       0       0
  5891 ;;      Temps:          1       0       0       0       0       0       0       0       0       0       0       0       
      +0       0       0       0       0
  5892 ;;      Totals:         1       0       0       0       0       0       0       0       0       0       0       0       
      +0       0       0       0       0
  5893 ;;Total ram usage:        1 bytes
  5894 ;; Hardware stack levels used: 1
  5895 ;; Hardware stack levels required when called: 1
  5896 ;; This function calls:
  5897 ;;		_ADC_ISR
  5898 ;;		_CCP1_ISR
  5899 ;;		_CCP2_ISR
  5900 ;;		_EUSART_RX_ISR
  5901 ;;		_EUSART_TX_ISR
  5902 ;;		_INT0_ISR
  5903 ;;		_INT1_ISR
  5904 ;;		_INT2_ISR
  5905 ;;		_MSSP_I2C_BC_ISR
  5906 ;;		_MSSP_I2C_ISR
  5907 ;;		_MSSP_SPI_ISR
  5908 ;;		_RB4_ISR
  5909 ;;		_RB5_ISR
  5910 ;;		_RB6_ISR
  5911 ;;		_RB7_ISR
  5912 ;;		_TMR0_ISR
  5913 ;;		_TMR1_ISR
  5914 ;;		_TMR2_ISR
  5915 ;;		_TMR3_ISR
  5916 ;; This function is called by:
  5917 ;;		Interrupt level 2
  5918 ;; This function uses a non-reentrant model
  5919 ;;
  5920                           
  5921                           	psect	intcode
  5922   000008                     __pintcode:
  5923                           	callstack 0
  5924   000008                     _InterruptManager:
  5925                           	callstack 19
  5926                           
  5927                           ;incstack = 0
  5928   000008  827C               	bsf	int$flags,1,c	;set compiler interrupt flag (level 2)
  5929   00000A  ED22  F008         	call	int_func,f	;refresh shadow registers
  5930                           
  5931                           	psect	intcode_body
  5932   001044                     __pintcode_body:
  5933                           	callstack 19
  5934   001044                     int_func:
  5935                           	callstack 19
  5936   001044  0006               	pop		; remove dummy address from shadow register refresh
  5937   001046                     
  5938                           ;MCAL_Layer/Interrupt/mcal_interrupt_manager.c: 34:     if((1 == INTCONbits.INT0IE) && (
      +                          1 == INTCONbits.INT0IF)){
  5939   001046  A8F2               	btfss	242,4,c	;volatile
  5940   001048  EF28  F008         	goto	i2u600_41
  5941   00104C  EF2A  F008         	goto	i2u600_40
  5942   001050                     i2u600_41:
  5943   001050  EF33  F008         	goto	i2l1254
  5944   001054                     i2u600_40:
  5945   001054  A2F2               	btfss	242,1,c	;volatile
  5946   001056  EF2F  F008         	goto	i2u601_41
  5947   00105A  EF31  F008         	goto	i2u601_40
  5948   00105E                     i2u601_41:
  5949   00105E  EF33  F008         	goto	i2l1254
  5950   001062                     i2u601_40:
  5951   001062                     
  5952                           ;MCAL_Layer/Interrupt/mcal_interrupt_manager.c: 35:         INT0_ISR();
  5953   001062  EC10  F017         	call	_INT0_ISR	;wreg free
  5954   001066                     i2l1254:
  5955                           
  5956                           ;MCAL_Layer/Interrupt/mcal_interrupt_manager.c: 38:     if((1 == INTCON3bits.INT1E) && (
      +                          1 == INTCON3bits.INT1F)){
  5957   001066  A6F0               	btfss	240,3,c	;volatile
  5958   001068  EF38  F008         	goto	i2u602_41
  5959   00106C  EF3A  F008         	goto	i2u602_40
  5960   001070                     i2u602_41:
  5961   001070  EF43  F008         	goto	i2l1256
  5962   001074                     i2u602_40:
  5963   001074  A0F0               	btfss	240,0,c	;volatile
  5964   001076  EF3F  F008         	goto	i2u603_41
  5965   00107A  EF41  F008         	goto	i2u603_40
  5966   00107E                     i2u603_41:
  5967   00107E  EF43  F008         	goto	i2l1256
  5968   001082                     i2u603_40:
  5969   001082                     
  5970                           ;MCAL_Layer/Interrupt/mcal_interrupt_manager.c: 39:         INT1_ISR();
  5971   001082  EC0E  F017         	call	_INT1_ISR	;wreg free
  5972   001086                     i2l1256:
  5973                           
  5974                           ;MCAL_Layer/Interrupt/mcal_interrupt_manager.c: 42:     if((1 == INTCON3bits.INT2IE) && 
      +                          (1 == INTCON3bits.INT2IF)){
  5975   001086  A8F0               	btfss	240,4,c	;volatile
  5976   001088  EF48  F008         	goto	i2u604_41
  5977   00108C  EF4A  F008         	goto	i2u604_40
  5978   001090                     i2u604_41:
  5979   001090  EF53  F008         	goto	i2l1258
  5980   001094                     i2u604_40:
  5981   001094  A2F0               	btfss	240,1,c	;volatile
  5982   001096  EF4F  F008         	goto	i2u605_41
  5983   00109A  EF51  F008         	goto	i2u605_40
  5984   00109E                     i2u605_41:
  5985   00109E  EF53  F008         	goto	i2l1258
  5986   0010A2                     i2u605_40:
  5987   0010A2                     
  5988                           ;MCAL_Layer/Interrupt/mcal_interrupt_manager.c: 43:         INT2_ISR();
  5989   0010A2  EC0C  F017         	call	_INT2_ISR	;wreg free
  5990   0010A6                     i2l1258:
  5991                           
  5992                           ;MCAL_Layer/Interrupt/mcal_interrupt_manager.c: 49:     if((1 == INTCONbits.RBIE) && (1 
      +                          == INTCONbits.RBIF) &&
  5993   0010A6  A6F2               	btfss	242,3,c	;volatile
  5994   0010A8  EF58  F008         	goto	i2u606_41
  5995   0010AC  EF5A  F008         	goto	i2u606_40
  5996   0010B0                     i2u606_41:
  5997   0010B0  EF75  F008         	goto	i2l1260
  5998   0010B4                     i2u606_40:
  5999   0010B4  A0F2               	btfss	242,0,c	;volatile
  6000   0010B6  EF5F  F008         	goto	i2u607_41
  6001   0010BA  EF61  F008         	goto	i2u607_40
  6002   0010BE                     i2u607_41:
  6003   0010BE  EF75  F008         	goto	i2l1260
  6004   0010C2                     i2u607_40:
  6005   0010C2  A881               	btfss	129,4,c	;volatile
  6006   0010C4  EF66  F008         	goto	i2u608_41
  6007   0010C8  EF68  F008         	goto	i2u608_40
  6008   0010CC                     i2u608_41:
  6009   0010CC  EF75  F008         	goto	i2l1260
  6010   0010D0                     i2u608_40:
  6011   0010D0  047B               	decf	_RB4_Flag^0,w,c	;volatile
  6012   0010D2  A4D8               	btfss	status,2,c
  6013   0010D4  EF6E  F008         	goto	i2u609_41
  6014   0010D8  EF70  F008         	goto	i2u609_40
  6015   0010DC                     i2u609_41:
  6016   0010DC  EF75  F008         	goto	i2l1260
  6017   0010E0                     i2u609_40:
  6018   0010E0                     
  6019                           ;MCAL_Layer/Interrupt/mcal_interrupt_manager.c: 50:        (PORTBbits.RB4 == GPIO_HIGH) 
      +                          && (RB4_Flag == 1)){;MCAL_Layer/Interrupt/mcal_interrupt_manager.c: 51:         RB4_Flag
      +                           = 0;
  6020   0010E0  0E00               	movlw	0
  6021   0010E2  6E7B               	movwf	_RB4_Flag^0,c	;volatile
  6022   0010E4                     
  6023                           ;MCAL_Layer/Interrupt/mcal_interrupt_manager.c: 52:         RB4_ISR(0);
  6024   0010E4  0E00               	movlw	0
  6025   0010E6  ECD3  F016         	call	_RB4_ISR
  6026   0010EA                     i2l1260:
  6027                           
  6028                           ;MCAL_Layer/Interrupt/mcal_interrupt_manager.c: 55:     if((1 == INTCONbits.RBIE) && (1 
      +                          == INTCONbits.RBIF) &&
  6029   0010EA  A6F2               	btfss	242,3,c	;volatile
  6030   0010EC  EF7A  F008         	goto	i2u610_41
  6031   0010F0  EF7C  F008         	goto	i2u610_40
  6032   0010F4                     i2u610_41:
  6033   0010F4  EF97  F008         	goto	i2l1262
  6034   0010F8                     i2u610_40:
  6035   0010F8  A0F2               	btfss	242,0,c	;volatile
  6036   0010FA  EF81  F008         	goto	i2u611_41
  6037   0010FE  EF83  F008         	goto	i2u611_40
  6038   001102                     i2u611_41:
  6039   001102  EF97  F008         	goto	i2l1262
  6040   001106                     i2u611_40:
  6041   001106  B881               	btfsc	129,4,c	;volatile
  6042   001108  EF88  F008         	goto	i2u612_41
  6043   00110C  EF8A  F008         	goto	i2u612_40
  6044   001110                     i2u612_41:
  6045   001110  EF97  F008         	goto	i2l1262
  6046   001114                     i2u612_40:
  6047   001114  507B               	movf	_RB4_Flag^0,w,c	;volatile
  6048   001116  A4D8               	btfss	status,2,c
  6049   001118  EF90  F008         	goto	i2u613_41
  6050   00111C  EF92  F008         	goto	i2u613_40
  6051   001120                     i2u613_41:
  6052   001120  EF97  F008         	goto	i2l1262
  6053   001124                     i2u613_40:
  6054   001124                     
  6055                           ;MCAL_Layer/Interrupt/mcal_interrupt_manager.c: 56:        (PORTBbits.RB4 == GPIO_LOW) &
      +                          & (RB4_Flag == 0)){;MCAL_Layer/Interrupt/mcal_interrupt_manager.c: 57:         RB4_Flag 
      +                          = 1;
  6056   001124  0E01               	movlw	1
  6057   001126  6E7B               	movwf	_RB4_Flag^0,c	;volatile
  6058   001128                     
  6059                           ;MCAL_Layer/Interrupt/mcal_interrupt_manager.c: 58:         RB4_ISR(1);
  6060   001128  0E01               	movlw	1
  6061   00112A  ECD3  F016         	call	_RB4_ISR
  6062   00112E                     i2l1262:
  6063                           
  6064                           ;MCAL_Layer/Interrupt/mcal_interrupt_manager.c: 61:     if((1 == INTCONbits.RBIE) && (1 
      +                          == INTCONbits.RBIF) &&
  6065   00112E  A6F2               	btfss	242,3,c	;volatile
  6066   001130  EF9C  F008         	goto	i2u614_41
  6067   001134  EF9E  F008         	goto	i2u614_40
  6068   001138                     i2u614_41:
  6069   001138  EFB9  F008         	goto	i2l1264
  6070   00113C                     i2u614_40:
  6071   00113C  A0F2               	btfss	242,0,c	;volatile
  6072   00113E  EFA3  F008         	goto	i2u615_41
  6073   001142  EFA5  F008         	goto	i2u615_40
  6074   001146                     i2u615_41:
  6075   001146  EFB9  F008         	goto	i2l1264
  6076   00114A                     i2u615_40:
  6077   00114A  AA81               	btfss	129,5,c	;volatile
  6078   00114C  EFAA  F008         	goto	i2u616_41
  6079   001150  EFAC  F008         	goto	i2u616_40
  6080   001154                     i2u616_41:
  6081   001154  EFB9  F008         	goto	i2l1264
  6082   001158                     i2u616_40:
  6083   001158  047A               	decf	_RB5_Flag^0,w,c	;volatile
  6084   00115A  A4D8               	btfss	status,2,c
  6085   00115C  EFB2  F008         	goto	i2u617_41
  6086   001160  EFB4  F008         	goto	i2u617_40
  6087   001164                     i2u617_41:
  6088   001164  EFB9  F008         	goto	i2l1264
  6089   001168                     i2u617_40:
  6090   001168                     
  6091                           ;MCAL_Layer/Interrupt/mcal_interrupt_manager.c: 62:        (PORTBbits.RB5 == GPIO_HIGH) 
      +                          && (RB5_Flag == 1)){;MCAL_Layer/Interrupt/mcal_interrupt_manager.c: 63:         RB5_Flag
      +                           = 0;
  6092   001168  0E00               	movlw	0
  6093   00116A  6E7A               	movwf	_RB5_Flag^0,c	;volatile
  6094   00116C                     
  6095                           ;MCAL_Layer/Interrupt/mcal_interrupt_manager.c: 64:         RB5_ISR(0);
  6096   00116C  0E00               	movlw	0
  6097   00116E  ECC6  F016         	call	_RB5_ISR
  6098   001172                     i2l1264:
  6099                           
  6100                           ;MCAL_Layer/Interrupt/mcal_interrupt_manager.c: 67:     if((1 == INTCONbits.RBIE) && (1 
      +                          == INTCONbits.RBIF) &&
  6101   001172  A6F2               	btfss	242,3,c	;volatile
  6102   001174  EFBE  F008         	goto	i2u618_41
  6103   001178  EFC0  F008         	goto	i2u618_40
  6104   00117C                     i2u618_41:
  6105   00117C  EFDB  F008         	goto	i2l1266
  6106   001180                     i2u618_40:
  6107   001180  A0F2               	btfss	242,0,c	;volatile
  6108   001182  EFC5  F008         	goto	i2u619_41
  6109   001186  EFC7  F008         	goto	i2u619_40
  6110   00118A                     i2u619_41:
  6111   00118A  EFDB  F008         	goto	i2l1266
  6112   00118E                     i2u619_40:
  6113   00118E  BA81               	btfsc	129,5,c	;volatile
  6114   001190  EFCC  F008         	goto	i2u620_41
  6115   001194  EFCE  F008         	goto	i2u620_40
  6116   001198                     i2u620_41:
  6117   001198  EFDB  F008         	goto	i2l1266
  6118   00119C                     i2u620_40:
  6119   00119C  507A               	movf	_RB5_Flag^0,w,c	;volatile
  6120   00119E  A4D8               	btfss	status,2,c
  6121   0011A0  EFD4  F008         	goto	i2u621_41
  6122   0011A4  EFD6  F008         	goto	i2u621_40
  6123   0011A8                     i2u621_41:
  6124   0011A8  EFDB  F008         	goto	i2l1266
  6125   0011AC                     i2u621_40:
  6126   0011AC                     
  6127                           ;MCAL_Layer/Interrupt/mcal_interrupt_manager.c: 68:        (PORTBbits.RB5 == GPIO_LOW) &
      +                          & (RB5_Flag == 0)){;MCAL_Layer/Interrupt/mcal_interrupt_manager.c: 69:         RB5_Flag 
      +                          = 1;
  6128   0011AC  0E01               	movlw	1
  6129   0011AE  6E7A               	movwf	_RB5_Flag^0,c	;volatile
  6130   0011B0                     
  6131                           ;MCAL_Layer/Interrupt/mcal_interrupt_manager.c: 70:         RB5_ISR(1);
  6132   0011B0  0E01               	movlw	1
  6133   0011B2  ECC6  F016         	call	_RB5_ISR
  6134   0011B6                     i2l1266:
  6135                           
  6136                           ;MCAL_Layer/Interrupt/mcal_interrupt_manager.c: 73:     if((1 == INTCONbits.RBIE) && (1 
      +                          == INTCONbits.RBIF) &&
  6137   0011B6  A6F2               	btfss	242,3,c	;volatile
  6138   0011B8  EFE0  F008         	goto	i2u622_41
  6139   0011BC  EFE2  F008         	goto	i2u622_40
  6140   0011C0                     i2u622_41:
  6141   0011C0  EFFD  F008         	goto	i2l1268
  6142   0011C4                     i2u622_40:
  6143   0011C4  A0F2               	btfss	242,0,c	;volatile
  6144   0011C6  EFE7  F008         	goto	i2u623_41
  6145   0011CA  EFE9  F008         	goto	i2u623_40
  6146   0011CE                     i2u623_41:
  6147   0011CE  EFFD  F008         	goto	i2l1268
  6148   0011D2                     i2u623_40:
  6149   0011D2  AC81               	btfss	129,6,c	;volatile
  6150   0011D4  EFEE  F008         	goto	i2u624_41
  6151   0011D8  EFF0  F008         	goto	i2u624_40
  6152   0011DC                     i2u624_41:
  6153   0011DC  EFFD  F008         	goto	i2l1268
  6154   0011E0                     i2u624_40:
  6155   0011E0  0479               	decf	_RB6_Flag^0,w,c	;volatile
  6156   0011E2  A4D8               	btfss	status,2,c
  6157   0011E4  EFF6  F008         	goto	i2u625_41
  6158   0011E8  EFF8  F008         	goto	i2u625_40
  6159   0011EC                     i2u625_41:
  6160   0011EC  EFFD  F008         	goto	i2l1268
  6161   0011F0                     i2u625_40:
  6162   0011F0                     
  6163                           ;MCAL_Layer/Interrupt/mcal_interrupt_manager.c: 74:        (PORTBbits.RB6 == GPIO_HIGH) 
      +                          && (RB6_Flag == 1)){;MCAL_Layer/Interrupt/mcal_interrupt_manager.c: 75:         RB6_Flag
      +                           = 0;
  6164   0011F0  0E00               	movlw	0
  6165   0011F2  6E79               	movwf	_RB6_Flag^0,c	;volatile
  6166   0011F4                     
  6167                           ;MCAL_Layer/Interrupt/mcal_interrupt_manager.c: 76:         RB6_ISR(0);
  6168   0011F4  0E00               	movlw	0
  6169   0011F6  ECB9  F016         	call	_RB6_ISR
  6170   0011FA                     i2l1268:
  6171                           
  6172                           ;MCAL_Layer/Interrupt/mcal_interrupt_manager.c: 79:     if((1 == INTCONbits.RBIE) && (1 
      +                          == INTCONbits.RBIF) &&
  6173   0011FA  A6F2               	btfss	242,3,c	;volatile
  6174   0011FC  EF02  F009         	goto	i2u626_41
  6175   001200  EF04  F009         	goto	i2u626_40
  6176   001204                     i2u626_41:
  6177   001204  EF1F  F009         	goto	i2l1270
  6178   001208                     i2u626_40:
  6179   001208  A0F2               	btfss	242,0,c	;volatile
  6180   00120A  EF09  F009         	goto	i2u627_41
  6181   00120E  EF0B  F009         	goto	i2u627_40
  6182   001212                     i2u627_41:
  6183   001212  EF1F  F009         	goto	i2l1270
  6184   001216                     i2u627_40:
  6185   001216  BC81               	btfsc	129,6,c	;volatile
  6186   001218  EF10  F009         	goto	i2u628_41
  6187   00121C  EF12  F009         	goto	i2u628_40
  6188   001220                     i2u628_41:
  6189   001220  EF1F  F009         	goto	i2l1270
  6190   001224                     i2u628_40:
  6191   001224  5079               	movf	_RB6_Flag^0,w,c	;volatile
  6192   001226  A4D8               	btfss	status,2,c
  6193   001228  EF18  F009         	goto	i2u629_41
  6194   00122C  EF1A  F009         	goto	i2u629_40
  6195   001230                     i2u629_41:
  6196   001230  EF1F  F009         	goto	i2l1270
  6197   001234                     i2u629_40:
  6198   001234                     
  6199                           ;MCAL_Layer/Interrupt/mcal_interrupt_manager.c: 80:        (PORTBbits.RB6 == GPIO_LOW) &
      +                          & (RB6_Flag == 0)){;MCAL_Layer/Interrupt/mcal_interrupt_manager.c: 81:         RB6_Flag 
      +                          = 1;
  6200   001234  0E01               	movlw	1
  6201   001236  6E79               	movwf	_RB6_Flag^0,c	;volatile
  6202   001238                     
  6203                           ;MCAL_Layer/Interrupt/mcal_interrupt_manager.c: 82:         RB6_ISR(1);
  6204   001238  0E01               	movlw	1
  6205   00123A  ECB9  F016         	call	_RB6_ISR
  6206   00123E                     i2l1270:
  6207                           
  6208                           ;MCAL_Layer/Interrupt/mcal_interrupt_manager.c: 85:     if((1 == INTCONbits.RBIE) && (1 
      +                          == INTCONbits.RBIF) &&
  6209   00123E  A6F2               	btfss	242,3,c	;volatile
  6210   001240  EF24  F009         	goto	i2u630_41
  6211   001244  EF26  F009         	goto	i2u630_40
  6212   001248                     i2u630_41:
  6213   001248  EF41  F009         	goto	i2l1272
  6214   00124C                     i2u630_40:
  6215   00124C  A0F2               	btfss	242,0,c	;volatile
  6216   00124E  EF2B  F009         	goto	i2u631_41
  6217   001252  EF2D  F009         	goto	i2u631_40
  6218   001256                     i2u631_41:
  6219   001256  EF41  F009         	goto	i2l1272
  6220   00125A                     i2u631_40:
  6221   00125A  AE81               	btfss	129,7,c	;volatile
  6222   00125C  EF32  F009         	goto	i2u632_41
  6223   001260  EF34  F009         	goto	i2u632_40
  6224   001264                     i2u632_41:
  6225   001264  EF41  F009         	goto	i2l1272
  6226   001268                     i2u632_40:
  6227   001268  0478               	decf	_RB7_Flag^0,w,c	;volatile
  6228   00126A  A4D8               	btfss	status,2,c
  6229   00126C  EF3A  F009         	goto	i2u633_41
  6230   001270  EF3C  F009         	goto	i2u633_40
  6231   001274                     i2u633_41:
  6232   001274  EF41  F009         	goto	i2l1272
  6233   001278                     i2u633_40:
  6234   001278                     
  6235                           ;MCAL_Layer/Interrupt/mcal_interrupt_manager.c: 86:        (PORTBbits.RB7 == GPIO_HIGH) 
      +                          && (RB7_Flag == 1)){;MCAL_Layer/Interrupt/mcal_interrupt_manager.c: 87:         RB7_Flag
      +                           = 0;
  6236   001278  0E00               	movlw	0
  6237   00127A  6E78               	movwf	_RB7_Flag^0,c	;volatile
  6238   00127C                     
  6239                           ;MCAL_Layer/Interrupt/mcal_interrupt_manager.c: 88:         RB7_ISR(0);
  6240   00127C  0E00               	movlw	0
  6241   00127E  ECAC  F016         	call	_RB7_ISR
  6242   001282                     i2l1272:
  6243                           
  6244                           ;MCAL_Layer/Interrupt/mcal_interrupt_manager.c: 91:     if((1 == INTCONbits.RBIE) && (1 
      +                          == INTCONbits.RBIF) &&
  6245   001282  A6F2               	btfss	242,3,c	;volatile
  6246   001284  EF46  F009         	goto	i2u634_41
  6247   001288  EF48  F009         	goto	i2u634_40
  6248   00128C                     i2u634_41:
  6249   00128C  EF63  F009         	goto	i2l1274
  6250   001290                     i2u634_40:
  6251   001290  A0F2               	btfss	242,0,c	;volatile
  6252   001292  EF4D  F009         	goto	i2u635_41
  6253   001296  EF4F  F009         	goto	i2u635_40
  6254   00129A                     i2u635_41:
  6255   00129A  EF63  F009         	goto	i2l1274
  6256   00129E                     i2u635_40:
  6257   00129E  BE81               	btfsc	129,7,c	;volatile
  6258   0012A0  EF54  F009         	goto	i2u636_41
  6259   0012A4  EF56  F009         	goto	i2u636_40
  6260   0012A8                     i2u636_41:
  6261   0012A8  EF63  F009         	goto	i2l1274
  6262   0012AC                     i2u636_40:
  6263   0012AC  5078               	movf	_RB7_Flag^0,w,c	;volatile
  6264   0012AE  A4D8               	btfss	status,2,c
  6265   0012B0  EF5C  F009         	goto	i2u637_41
  6266   0012B4  EF5E  F009         	goto	i2u637_40
  6267   0012B8                     i2u637_41:
  6268   0012B8  EF63  F009         	goto	i2l1274
  6269   0012BC                     i2u637_40:
  6270   0012BC                     
  6271                           ;MCAL_Layer/Interrupt/mcal_interrupt_manager.c: 92:        (PORTBbits.RB7 == GPIO_LOW) &
      +                          & (RB7_Flag == 0)){;MCAL_Layer/Interrupt/mcal_interrupt_manager.c: 93:         RB7_Flag 
      +                          = 1;
  6272   0012BC  0E01               	movlw	1
  6273   0012BE  6E78               	movwf	_RB7_Flag^0,c	;volatile
  6274   0012C0                     
  6275                           ;MCAL_Layer/Interrupt/mcal_interrupt_manager.c: 94:         RB7_ISR(1);
  6276   0012C0  0E01               	movlw	1
  6277   0012C2  ECAC  F016         	call	_RB7_ISR
  6278   0012C6                     i2l1274:
  6279                           
  6280                           ;MCAL_Layer/Interrupt/mcal_interrupt_manager.c: 99:     if((1 == PIE1bits.ADIE) && (1 ==
      +                           PIR1bits.ADIF)){
  6281   0012C6  AC9D               	btfss	157,6,c	;volatile
  6282   0012C8  EF68  F009         	goto	i2u638_41
  6283   0012CC  EF6A  F009         	goto	i2u638_40
  6284   0012D0                     i2u638_41:
  6285   0012D0  EF73  F009         	goto	i2l1276
  6286   0012D4                     i2u638_40:
  6287   0012D4  AC9E               	btfss	158,6,c	;volatile
  6288   0012D6  EF6F  F009         	goto	i2u639_41
  6289   0012DA  EF71  F009         	goto	i2u639_40
  6290   0012DE                     i2u639_41:
  6291   0012DE  EF73  F009         	goto	i2l1276
  6292   0012E2                     i2u639_40:
  6293   0012E2                     
  6294                           ;MCAL_Layer/Interrupt/mcal_interrupt_manager.c: 100:         ADC_ISR();
  6295   0012E2  EC18  F017         	call	_ADC_ISR	;wreg free
  6296   0012E6                     i2l1276:
  6297                           
  6298                           ;MCAL_Layer/Interrupt/mcal_interrupt_manager.c: 104:     if((1 == INTCONbits.TMR0IE) && 
      +                          (1 == INTCONbits.TMR0IF)){
  6299   0012E6  AAF2               	btfss	242,5,c	;volatile
  6300   0012E8  EF78  F009         	goto	i2u640_41
  6301   0012EC  EF7A  F009         	goto	i2u640_40
  6302   0012F0                     i2u640_41:
  6303   0012F0  EF83  F009         	goto	i2l1278
  6304   0012F4                     i2u640_40:
  6305   0012F4  A4F2               	btfss	242,2,c	;volatile
  6306   0012F6  EF7F  F009         	goto	i2u641_41
  6307   0012FA  EF81  F009         	goto	i2u641_40
  6308   0012FE                     i2u641_41:
  6309   0012FE  EF83  F009         	goto	i2l1278
  6310   001302                     i2u641_40:
  6311   001302                     
  6312                           ;MCAL_Layer/Interrupt/mcal_interrupt_manager.c: 105:         TMR0_ISR();
  6313   001302  ECED  F016         	call	_TMR0_ISR	;wreg free
  6314   001306                     i2l1278:
  6315                           
  6316                           ;MCAL_Layer/Interrupt/mcal_interrupt_manager.c: 108:     if((1 == PIE1bits.TMR1IE) && (1
      +                           == PIR1bits.TMR1IF)){
  6317   001306  A09D               	btfss	157,0,c	;volatile
  6318   001308  EF88  F009         	goto	i2u642_41
  6319   00130C  EF8A  F009         	goto	i2u642_40
  6320   001310                     i2u642_41:
  6321   001310  EF93  F009         	goto	i2l1280
  6322   001314                     i2u642_40:
  6323   001314  A09E               	btfss	158,0,c	;volatile
  6324   001316  EF8F  F009         	goto	i2u643_41
  6325   00131A  EF91  F009         	goto	i2u643_40
  6326   00131E                     i2u643_41:
  6327   00131E  EF93  F009         	goto	i2l1280
  6328   001322                     i2u643_40:
  6329   001322                     
  6330                           ;MCAL_Layer/Interrupt/mcal_interrupt_manager.c: 109:         TMR1_ISR();
  6331   001322  ECE7  F016         	call	_TMR1_ISR	;wreg free
  6332   001326                     i2l1280:
  6333                           
  6334                           ;MCAL_Layer/Interrupt/mcal_interrupt_manager.c: 112:     if((1 == PIE1bits.TMR2IE) && (1
      +                           == PIR1bits.TMR2IF)){
  6335   001326  A29D               	btfss	157,1,c	;volatile
  6336   001328  EF98  F009         	goto	i2u644_41
  6337   00132C  EF9A  F009         	goto	i2u644_40
  6338   001330                     i2u644_41:
  6339   001330  EFA3  F009         	goto	i2l1282
  6340   001334                     i2u644_40:
  6341   001334  A29E               	btfss	158,1,c	;volatile
  6342   001336  EF9F  F009         	goto	i2u645_41
  6343   00133A  EFA1  F009         	goto	i2u645_40
  6344   00133E                     i2u645_41:
  6345   00133E  EFA3  F009         	goto	i2l1282
  6346   001342                     i2u645_40:
  6347   001342                     
  6348                           ;MCAL_Layer/Interrupt/mcal_interrupt_manager.c: 113:         TMR2_ISR();
  6349   001342  ECFE  F016         	call	_TMR2_ISR	;wreg free
  6350   001346                     i2l1282:
  6351                           
  6352                           ;MCAL_Layer/Interrupt/mcal_interrupt_manager.c: 116:     if((1 == PIE2bits.TMR3IE) && (1
      +                           == PIR2bits.TMR3IF)){
  6353   001346  A2A0               	btfss	160,1,c	;volatile
  6354   001348  EFA8  F009         	goto	i2u646_41
  6355   00134C  EFAA  F009         	goto	i2u646_40
  6356   001350                     i2u646_41:
  6357   001350  EFB3  F009         	goto	i2l1284
  6358   001354                     i2u646_40:
  6359   001354  A2A1               	btfss	161,1,c	;volatile
  6360   001356  EFAF  F009         	goto	i2u647_41
  6361   00135A  EFB1  F009         	goto	i2u647_40
  6362   00135E                     i2u647_41:
  6363   00135E  EFB3  F009         	goto	i2l1284
  6364   001362                     i2u647_40:
  6365   001362                     
  6366                           ;MCAL_Layer/Interrupt/mcal_interrupt_manager.c: 117:         TMR3_ISR();
  6367   001362  ECE0  F016         	call	_TMR3_ISR	;wreg free
  6368   001366                     i2l1284:
  6369                           
  6370                           ;MCAL_Layer/Interrupt/mcal_interrupt_manager.c: 121:     if((1 == PIE1bits.TXIE) && (1 =
      +                          = PIR1bits.TXIF)){
  6371   001366  A89D               	btfss	157,4,c	;volatile
  6372   001368  EFB8  F009         	goto	i2u648_41
  6373   00136C  EFBA  F009         	goto	i2u648_40
  6374   001370                     i2u648_41:
  6375   001370  EFC3  F009         	goto	i2l1286
  6376   001374                     i2u648_40:
  6377   001374  A89E               	btfss	158,4,c	;volatile
  6378   001376  EFBF  F009         	goto	i2u649_41
  6379   00137A  EFC1  F009         	goto	i2u649_40
  6380   00137E                     i2u649_41:
  6381   00137E  EFC3  F009         	goto	i2l1286
  6382   001382                     i2u649_40:
  6383   001382                     
  6384                           ;MCAL_Layer/Interrupt/mcal_interrupt_manager.c: 122:         EUSART_TX_ISR();
  6385   001382  EC12  F017         	call	_EUSART_TX_ISR	;wreg free
  6386   001386                     i2l1286:
  6387                           
  6388                           ;MCAL_Layer/Interrupt/mcal_interrupt_manager.c: 125:     if((1 == PIE1bits.RCIE) && (1 =
      +                          = PIR1bits.RCIF)){
  6389   001386  AA9D               	btfss	157,5,c	;volatile
  6390   001388  EFC8  F009         	goto	i2u650_41
  6391   00138C  EFCA  F009         	goto	i2u650_40
  6392   001390                     i2u650_41:
  6393   001390  EFD3  F009         	goto	i2l1288
  6394   001394                     i2u650_40:
  6395   001394  AA9E               	btfss	158,5,c	;volatile
  6396   001396  EFCF  F009         	goto	i2u651_41
  6397   00139A  EFD1  F009         	goto	i2u651_40
  6398   00139E                     i2u651_41:
  6399   00139E  EFD3  F009         	goto	i2l1288
  6400   0013A2                     i2u651_40:
  6401   0013A2                     
  6402                           ;MCAL_Layer/Interrupt/mcal_interrupt_manager.c: 126:         EUSART_RX_ISR();
  6403   0013A2  EC76  F016         	call	_EUSART_RX_ISR	;wreg free
  6404   0013A6                     i2l1288:
  6405                           
  6406                           ;MCAL_Layer/Interrupt/mcal_interrupt_manager.c: 131:     if((1 == PIE1bits.SSPIE) && (1 
      +                          == PIR1bits.SSPIF && (SSPCON1bits.SSPM > 5))){
  6407   0013A6  A69D               	btfss	157,3,c	;volatile
  6408   0013A8  EFD8  F009         	goto	i2u652_41
  6409   0013AC  EFDA  F009         	goto	i2u652_40
  6410   0013B0                     i2u652_41:
  6411   0013B0  EFEE  F009         	goto	i2l1290
  6412   0013B4                     i2u652_40:
  6413   0013B4  A69E               	btfss	158,3,c	;volatile
  6414   0013B6  EFDF  F009         	goto	i2u653_41
  6415   0013BA  EFE1  F009         	goto	i2u653_40
  6416   0013BE                     i2u653_41:
  6417   0013BE  EFEE  F009         	goto	i2l1290
  6418   0013C2                     i2u653_40:
  6419   0013C2  50C6               	movf	198,w,c	;volatile
  6420   0013C4  0B0F               	andlw	15
  6421   0013C6  6E02               	movwf	??_InterruptManager^0,c
  6422   0013C8  0E05               	movlw	5
  6423   0013CA  6402               	cpfsgt	??_InterruptManager^0,c
  6424   0013CC  EFEA  F009         	goto	i2u654_41
  6425   0013D0  EFEC  F009         	goto	i2u654_40
  6426   0013D4                     i2u654_41:
  6427   0013D4  EFEE  F009         	goto	i2l1290
  6428   0013D8                     i2u654_40:
  6429   0013D8                     
  6430                           ;MCAL_Layer/Interrupt/mcal_interrupt_manager.c: 132:         MSSP_I2C_ISR();
  6431   0013D8  EC08  F017         	call	_MSSP_I2C_ISR	;wreg free
  6432   0013DC                     i2l1290:
  6433                           
  6434                           ;MCAL_Layer/Interrupt/mcal_interrupt_manager.c: 135:     if((1 == PIE2bits.BCLIE) && (1 
      +                          == PIR2bits.BCLIF) && (SSPCON1bits.SSPM > 5)){
  6435   0013DC  A6A0               	btfss	160,3,c	;volatile
  6436   0013DE  EFF3  F009         	goto	i2u655_41
  6437   0013E2  EFF5  F009         	goto	i2u655_40
  6438   0013E6                     i2u655_41:
  6439   0013E6  EF09  F00A         	goto	i2l1292
  6440   0013EA                     i2u655_40:
  6441   0013EA  A6A1               	btfss	161,3,c	;volatile
  6442   0013EC  EFFA  F009         	goto	i2u656_41
  6443   0013F0  EFFC  F009         	goto	i2u656_40
  6444   0013F4                     i2u656_41:
  6445   0013F4  EF09  F00A         	goto	i2l1292
  6446   0013F8                     i2u656_40:
  6447   0013F8  50C6               	movf	198,w,c	;volatile
  6448   0013FA  0B0F               	andlw	15
  6449   0013FC  6E02               	movwf	??_InterruptManager^0,c
  6450   0013FE  0E05               	movlw	5
  6451   001400  6402               	cpfsgt	??_InterruptManager^0,c
  6452   001402  EF05  F00A         	goto	i2u657_41
  6453   001406  EF07  F00A         	goto	i2u657_40
  6454   00140A                     i2u657_41:
  6455   00140A  EF09  F00A         	goto	i2l1292
  6456   00140E                     i2u657_40:
  6457   00140E                     
  6458                           ;MCAL_Layer/Interrupt/mcal_interrupt_manager.c: 136:         MSSP_I2C_BC_ISR();
  6459   00140E  EC0A  F017         	call	_MSSP_I2C_BC_ISR	;wreg free
  6460   001412                     i2l1292:
  6461                           
  6462                           ;MCAL_Layer/Interrupt/mcal_interrupt_manager.c: 139:     if((1 == PIE1bits.SSPIE) && (1 
      +                          == PIR1bits.SSPIF) && (SSPCON1bits.SSPM <= 5) ){
  6463   001412  A69D               	btfss	157,3,c	;volatile
  6464   001414  EF0E  F00A         	goto	i2u658_41
  6465   001418  EF10  F00A         	goto	i2u658_40
  6466   00141C                     i2u658_41:
  6467   00141C  EF24  F00A         	goto	i2l1294
  6468   001420                     i2u658_40:
  6469   001420  A69E               	btfss	158,3,c	;volatile
  6470   001422  EF15  F00A         	goto	i2u659_41
  6471   001426  EF17  F00A         	goto	i2u659_40
  6472   00142A                     i2u659_41:
  6473   00142A  EF24  F00A         	goto	i2l1294
  6474   00142E                     i2u659_40:
  6475   00142E  50C6               	movf	198,w,c	;volatile
  6476   001430  0B0F               	andlw	15
  6477   001432  6E02               	movwf	??_InterruptManager^0,c
  6478   001434  0E06               	movlw	6
  6479   001436  6002               	cpfslt	??_InterruptManager^0,c
  6480   001438  EF20  F00A         	goto	i2u660_41
  6481   00143C  EF22  F00A         	goto	i2u660_40
  6482   001440                     i2u660_41:
  6483   001440  EF24  F00A         	goto	i2l1294
  6484   001444                     i2u660_40:
  6485   001444                     
  6486                           ;MCAL_Layer/Interrupt/mcal_interrupt_manager.c: 140:         MSSP_SPI_ISR();
  6487   001444  EC05  F017         	call	_MSSP_SPI_ISR	;wreg free
  6488   001448                     i2l1294:
  6489                           
  6490                           ;MCAL_Layer/Interrupt/mcal_interrupt_manager.c: 145:     if((1 == PIE1bits.CCP1IE) && (1
      +                           == PIR1bits.CCP1IF)){
  6491   001448  A49D               	btfss	157,2,c	;volatile
  6492   00144A  EF29  F00A         	goto	i2u661_41
  6493   00144E  EF2B  F00A         	goto	i2u661_40
  6494   001452                     i2u661_41:
  6495   001452  EF34  F00A         	goto	i2l1296
  6496   001456                     i2u661_40:
  6497   001456  A49E               	btfss	158,2,c	;volatile
  6498   001458  EF30  F00A         	goto	i2u662_41
  6499   00145C  EF32  F00A         	goto	i2u662_40
  6500   001460                     i2u662_41:
  6501   001460  EF34  F00A         	goto	i2l1296
  6502   001464                     i2u662_40:
  6503   001464                     
  6504                           ;MCAL_Layer/Interrupt/mcal_interrupt_manager.c: 146:         CCP1_ISR();
  6505   001464  EC16  F017         	call	_CCP1_ISR	;wreg free
  6506   001468                     i2l1296:
  6507                           
  6508                           ;MCAL_Layer/Interrupt/mcal_interrupt_manager.c: 149:     if((1 == PIE2bits.CCP2IE) && (1
      +                           == PIR2bits.CCP2IF)){
  6509   001468  A0A0               	btfss	160,0,c	;volatile
  6510   00146A  EF39  F00A         	goto	i2u663_41
  6511   00146E  EF3B  F00A         	goto	i2u663_40
  6512   001472                     i2u663_41:
  6513   001472  EF44  F00A         	goto	i2l1299
  6514   001476                     i2u663_40:
  6515   001476  A0A1               	btfss	161,0,c	;volatile
  6516   001478  EF40  F00A         	goto	i2u664_41
  6517   00147C  EF42  F00A         	goto	i2u664_40
  6518   001480                     i2u664_41:
  6519   001480  EF44  F00A         	goto	i2l1299
  6520   001484                     i2u664_40:
  6521   001484                     
  6522                           ;MCAL_Layer/Interrupt/mcal_interrupt_manager.c: 150:         CCP2_ISR();
  6523   001484  EC14  F017         	call	_CCP2_ISR	;wreg free
  6524   001488                     i2l1299:
  6525   001488  927C               	bcf	int$flags,1,c	;clear compiler interrupt flag (level 2)
  6526   00148A  0011               	retfie		f
  6527   00148C                     __end_of_InterruptManager:
  6528                           	callstack 0
  6529                           
  6530 ;; *************** function _TMR3_ISR *****************
  6531 ;; Defined at:
  6532 ;;		line 102 in file "MCAL_Layer/Timer3/hal_timr3.c"
  6533 ;; Parameters:    Size  Location     Type
  6534 ;;		None
  6535 ;; Auto vars:     Size  Location     Type
  6536 ;;		None
  6537 ;; Return value:  Size  Location     Type
  6538 ;;                  1    wreg      void 
  6539 ;; Registers used:
  6540 ;;		wreg, status,2
  6541 ;; Tracked objects:
  6542 ;;		On entry : 0/0
  6543 ;;		On exit  : 0/0
  6544 ;;		Unchanged: 0/0
  6545 ;; Data sizes:     COMRAM   BANK0   BANK1   BANK2   BANK3   BANK4   BANK5   BANK6   BANK7   BANK8   BANK9  BANK10  BANK1
      +1  BANK12  BANK13  BANK14  BANK15
  6546 ;;      Params:         0       0       0       0       0       0       0       0       0       0       0       0       
      +0       0       0       0       0
  6547 ;;      Locals:         0       0       0       0       0       0       0       0       0       0       0       0       
      +0       0       0       0       0
  6548 ;;      Temps:          0       0       0       0       0       0       0       0       0       0       0       0       
      +0       0       0       0       0
  6549 ;;      Totals:         0       0       0       0       0       0       0       0       0       0       0       0       
      +0       0       0       0       0
  6550 ;;Total ram usage:        0 bytes
  6551 ;; Hardware stack levels used: 1
  6552 ;; This function calls:
  6553 ;;		Nothing
  6554 ;; This function is called by:
  6555 ;;		_InterruptManager
  6556 ;; This function uses a non-reentrant model
  6557 ;;
  6558                           
  6559                           	psect	text38
  6560   002DC0                     __ptext38:
  6561                           	callstack 0
  6562   002DC0                     _TMR3_ISR:
  6563                           	callstack 19
  6564   002DC0                     
  6565                           ;MCAL_Layer/Timer3/hal_timr3.c: 103:     (PIR2bits.TMR3IF = 0);
  6566   002DC0  92A1               	bcf	161,1,c	;volatile
  6567   002DC2                     
  6568                           ;MCAL_Layer/Timer3/hal_timr3.c: 104:     TMR3H = (timer3_preload) >> 8;
  6569   002DC2  0100               	movlb	0	; () banked
  6570   002DC4  5197               	movf	(_timer3_preload+1)& (0+255),w,b
  6571   002DC6  6EB3               	movwf	179,c	;volatile
  6572   002DC8                     
  6573                           ; BSR set to: 0
  6574                           ;MCAL_Layer/Timer3/hal_timr3.c: 105:     TMR3L = (uint8)(timer3_preload);
  6575   002DC8  C096  FFB2         	movff	_timer3_preload,4018	;volatile
  6576   002DCC                     
  6577                           ; BSR set to: 0
  6578   002DCC  0012               	return		;funcret
  6579   002DCE                     __end_of_TMR3_ISR:
  6580                           	callstack 0
  6581                           
  6582 ;; *************** function _TMR2_ISR *****************
  6583 ;; Defined at:
  6584 ;;		line 95 in file "MCAL_Layer/Timer2/hal_timr2.c"
  6585 ;; Parameters:    Size  Location     Type
  6586 ;;		None
  6587 ;; Auto vars:     Size  Location     Type
  6588 ;;		None
  6589 ;; Return value:  Size  Location     Type
  6590 ;;                  1    wreg      void 
  6591 ;; Registers used:
  6592 ;;		None
  6593 ;; Tracked objects:
  6594 ;;		On entry : 0/0
  6595 ;;		On exit  : 0/0
  6596 ;;		Unchanged: 0/0
  6597 ;; Data sizes:     COMRAM   BANK0   BANK1   BANK2   BANK3   BANK4   BANK5   BANK6   BANK7   BANK8   BANK9  BANK10  BANK1
      +1  BANK12  BANK13  BANK14  BANK15
  6598 ;;      Params:         0       0       0       0       0       0       0       0       0       0       0       0       
      +0       0       0       0       0
  6599 ;;      Locals:         0       0       0       0       0       0       0       0       0       0       0       0       
      +0       0       0       0       0
  6600 ;;      Temps:          0       0       0       0       0       0       0       0       0       0       0       0       
      +0       0       0       0       0
  6601 ;;      Totals:         0       0       0       0       0       0       0       0       0       0       0       0       
      +0       0       0       0       0
  6602 ;;Total ram usage:        0 bytes
  6603 ;; Hardware stack levels used: 1
  6604 ;; This function calls:
  6605 ;;		Nothing
  6606 ;; This function is called by:
  6607 ;;		_InterruptManager
  6608 ;; This function uses a non-reentrant model
  6609 ;;
  6610                           
  6611                           	psect	text39
  6612   002DFC                     __ptext39:
  6613                           	callstack 0
  6614   002DFC                     _TMR2_ISR:
  6615                           	callstack 19
  6616   002DFC                     
  6617                           ;MCAL_Layer/Timer2/hal_timr2.c: 96:     (PIR1bits.TMR2IF = 0);
  6618   002DFC  929E               	bcf	158,1,c	;volatile
  6619                           
  6620                           ;MCAL_Layer/Timer2/hal_timr2.c: 97:     TMR2 = timer2_preload;
  6621   002DFE  C06F  FFCC         	movff	_timer2_preload,4044	;volatile
  6622   002E02  0012               	return		;funcret
  6623   002E04                     __end_of_TMR2_ISR:
  6624                           	callstack 0
  6625                           
  6626 ;; *************** function _TMR1_ISR *****************
  6627 ;; Defined at:
  6628 ;;		line 102 in file "MCAL_Layer/Timer1/hal_timr1.c"
  6629 ;; Parameters:    Size  Location     Type
  6630 ;;		None
  6631 ;; Auto vars:     Size  Location     Type
  6632 ;;		None
  6633 ;; Return value:  Size  Location     Type
  6634 ;;                  1    wreg      void 
  6635 ;; Registers used:
  6636 ;;		wreg, status,2
  6637 ;; Tracked objects:
  6638 ;;		On entry : 0/0
  6639 ;;		On exit  : 0/0
  6640 ;;		Unchanged: 0/0
  6641 ;; Data sizes:     COMRAM   BANK0   BANK1   BANK2   BANK3   BANK4   BANK5   BANK6   BANK7   BANK8   BANK9  BANK10  BANK1
      +1  BANK12  BANK13  BANK14  BANK15
  6642 ;;      Params:         0       0       0       0       0       0       0       0       0       0       0       0       
      +0       0       0       0       0
  6643 ;;      Locals:         0       0       0       0       0       0       0       0       0       0       0       0       
      +0       0       0       0       0
  6644 ;;      Temps:          0       0       0       0       0       0       0       0       0       0       0       0       
      +0       0       0       0       0
  6645 ;;      Totals:         0       0       0       0       0       0       0       0       0       0       0       0       
      +0       0       0       0       0
  6646 ;;Total ram usage:        0 bytes
  6647 ;; Hardware stack levels used: 1
  6648 ;; This function calls:
  6649 ;;		Nothing
  6650 ;; This function is called by:
  6651 ;;		_InterruptManager
  6652 ;; This function uses a non-reentrant model
  6653 ;;
  6654                           
  6655                           	psect	text40
  6656   002DCE                     __ptext40:
  6657                           	callstack 0
  6658   002DCE                     _TMR1_ISR:
  6659                           	callstack 19
  6660   002DCE                     
  6661                           ;MCAL_Layer/Timer1/hal_timr1.c: 103:     (PIR1bits.TMR1IF = 0);
  6662   002DCE  909E               	bcf	158,0,c	;volatile
  6663   002DD0                     
  6664                           ;MCAL_Layer/Timer1/hal_timr1.c: 104:     TMR1H = (timer1_preload) >> 8;
  6665   002DD0  5069               	movf	(_timer1_preload+1)^0,w,c	;volatile
  6666   002DD2  6ECF               	movwf	207,c	;volatile
  6667   002DD4                     
  6668                           ;MCAL_Layer/Timer1/hal_timr1.c: 105:     TMR1L = (uint8)(timer1_preload);
  6669   002DD4  C068  FFCE         	movff	_timer1_preload,4046	;volatile
  6670   002DD8  0012               	return		;funcret
  6671   002DDA                     __end_of_TMR1_ISR:
  6672                           	callstack 0
  6673                           
  6674 ;; *************** function _TMR0_ISR *****************
  6675 ;; Defined at:
  6676 ;;		line 107 in file "MCAL_Layer/Timer0/hal_timr0.c"
  6677 ;; Parameters:    Size  Location     Type
  6678 ;;		None
  6679 ;; Auto vars:     Size  Location     Type
  6680 ;;		None
  6681 ;; Return value:  Size  Location     Type
  6682 ;;                  1    wreg      void 
  6683 ;; Registers used:
  6684 ;;		wreg, status,2
  6685 ;; Tracked objects:
  6686 ;;		On entry : 0/0
  6687 ;;		On exit  : 0/0
  6688 ;;		Unchanged: 0/0
  6689 ;; Data sizes:     COMRAM   BANK0   BANK1   BANK2   BANK3   BANK4   BANK5   BANK6   BANK7   BANK8   BANK9  BANK10  BANK1
      +1  BANK12  BANK13  BANK14  BANK15
  6690 ;;      Params:         0       0       0       0       0       0       0       0       0       0       0       0       
      +0       0       0       0       0
  6691 ;;      Locals:         0       0       0       0       0       0       0       0       0       0       0       0       
      +0       0       0       0       0
  6692 ;;      Temps:          0       0       0       0       0       0       0       0       0       0       0       0       
      +0       0       0       0       0
  6693 ;;      Totals:         0       0       0       0       0       0       0       0       0       0       0       0       
      +0       0       0       0       0
  6694 ;;Total ram usage:        0 bytes
  6695 ;; Hardware stack levels used: 1
  6696 ;; This function calls:
  6697 ;;		Nothing
  6698 ;; This function is called by:
  6699 ;;		_InterruptManager
  6700 ;; This function uses a non-reentrant model
  6701 ;;
  6702                           
  6703                           	psect	text41
  6704   002DDA                     __ptext41:
  6705                           	callstack 0
  6706   002DDA                     _TMR0_ISR:
  6707                           	callstack 19
  6708   002DDA                     
  6709                           ;MCAL_Layer/Timer0/hal_timr0.c: 108:     (INTCONbits.TMR0IF = 0);
  6710   002DDA  94F2               	bcf	242,2,c	;volatile
  6711   002DDC                     
  6712                           ;MCAL_Layer/Timer0/hal_timr0.c: 109:     TMR0H = (timer0_preload) >> 8;
  6713   002DDC  506B               	movf	(_timer0_preload+1)^0,w,c
  6714   002DDE  6ED7               	movwf	215,c	;volatile
  6715   002DE0                     
  6716                           ;MCAL_Layer/Timer0/hal_timr0.c: 110:     TMR0L = (uint8)(timer0_preload);
  6717   002DE0  C06A  FFD6         	movff	_timer0_preload,4054	;volatile
  6718   002DE4  0012               	return		;funcret
  6719   002DE6                     __end_of_TMR0_ISR:
  6720                           	callstack 0
  6721                           
  6722 ;; *************** function _RB7_ISR *****************
  6723 ;; Defined at:
  6724 ;;		line 164 in file "MCAL_Layer/Interrupt/mcal_external_interrupt.c"
  6725 ;; Parameters:    Size  Location     Type
  6726 ;;  RB7_Source      1    wreg     unsigned char 
  6727 ;; Auto vars:     Size  Location     Type
  6728 ;;  RB7_Source      1    0[COMRAM] unsigned char 
  6729 ;; Return value:  Size  Location     Type
  6730 ;;                  1    wreg      void 
  6731 ;; Registers used:
  6732 ;;		wreg, status,2, status,0
  6733 ;; Tracked objects:
  6734 ;;		On entry : 0/0
  6735 ;;		On exit  : 0/0
  6736 ;;		Unchanged: 0/0
  6737 ;; Data sizes:     COMRAM   BANK0   BANK1   BANK2   BANK3   BANK4   BANK5   BANK6   BANK7   BANK8   BANK9  BANK10  BANK1
      +1  BANK12  BANK13  BANK14  BANK15
  6738 ;;      Params:         0       0       0       0       0       0       0       0       0       0       0       0       
      +0       0       0       0       0
  6739 ;;      Locals:         1       0       0       0       0       0       0       0       0       0       0       0       
      +0       0       0       0       0
  6740 ;;      Temps:          0       0       0       0       0       0       0       0       0       0       0       0       
      +0       0       0       0       0
  6741 ;;      Totals:         1       0       0       0       0       0       0       0       0       0       0       0       
      +0       0       0       0       0
  6742 ;;Total ram usage:        1 bytes
  6743 ;; Hardware stack levels used: 1
  6744 ;; This function calls:
  6745 ;;		Nothing
  6746 ;; This function is called by:
  6747 ;;		_InterruptManager
  6748 ;; This function uses a non-reentrant model
  6749 ;;
  6750                           
  6751                           	psect	text42
  6752   002D58                     __ptext42:
  6753                           	callstack 0
  6754   002D58                     _RB7_ISR:
  6755                           	callstack 19
  6756                           
  6757                           ;incstack = 0
  6758                           ;RB7_ISR@RB7_Source stored from wreg
  6759   002D58  6E01               	movwf	RB7_ISR@RB7_Source^0,c
  6760   002D5A                     
  6761                           ;MCAL_Layer/Interrupt/mcal_external_interrupt.c: 166:     (INTCONbits.RBIF = 0);
  6762   002D5A  90F2               	bcf	242,0,c	;volatile
  6763   002D5C                     
  6764                           ;MCAL_Layer/Interrupt/mcal_external_interrupt.c: 169:     if(0 == RB7_Source){
  6765   002D5C  5001               	movf	RB7_ISR@RB7_Source^0,w,c
  6766   002D5E  A4D8               	btfss	status,2,c
  6767   002D60  EFB4  F016         	goto	i2u508_41
  6768   002D64  EFB6  F016         	goto	i2u508_40
  6769   002D68                     i2u508_41:
  6770   002D68  EFB8  F016         	goto	i2l6654
  6771   002D6C                     i2u508_40:
  6772   002D6C  EFB8  F016         	goto	i2l1077
  6773   002D70                     i2l6654:
  6774   002D70                     i2l1077:
  6775   002D70  0012               	return		;funcret
  6776   002D72                     __end_of_RB7_ISR:
  6777                           	callstack 0
  6778                           
  6779 ;; *************** function _RB6_ISR *****************
  6780 ;; Defined at:
  6781 ;;		line 145 in file "MCAL_Layer/Interrupt/mcal_external_interrupt.c"
  6782 ;; Parameters:    Size  Location     Type
  6783 ;;  RB6_Source      1    wreg     unsigned char 
  6784 ;; Auto vars:     Size  Location     Type
  6785 ;;  RB6_Source      1    0[COMRAM] unsigned char 
  6786 ;; Return value:  Size  Location     Type
  6787 ;;                  1    wreg      void 
  6788 ;; Registers used:
  6789 ;;		wreg, status,2, status,0
  6790 ;; Tracked objects:
  6791 ;;		On entry : 0/0
  6792 ;;		On exit  : 0/0
  6793 ;;		Unchanged: 0/0
  6794 ;; Data sizes:     COMRAM   BANK0   BANK1   BANK2   BANK3   BANK4   BANK5   BANK6   BANK7   BANK8   BANK9  BANK10  BANK1
      +1  BANK12  BANK13  BANK14  BANK15
  6795 ;;      Params:         0       0       0       0       0       0       0       0       0       0       0       0       
      +0       0       0       0       0
  6796 ;;      Locals:         1       0       0       0       0       0       0       0       0       0       0       0       
      +0       0       0       0       0
  6797 ;;      Temps:          0       0       0       0       0       0       0       0       0       0       0       0       
      +0       0       0       0       0
  6798 ;;      Totals:         1       0       0       0       0       0       0       0       0       0       0       0       
      +0       0       0       0       0
  6799 ;;Total ram usage:        1 bytes
  6800 ;; Hardware stack levels used: 1
  6801 ;; This function calls:
  6802 ;;		Nothing
  6803 ;; This function is called by:
  6804 ;;		_InterruptManager
  6805 ;; This function uses a non-reentrant model
  6806 ;;
  6807                           
  6808                           	psect	text43
  6809   002D72                     __ptext43:
  6810                           	callstack 0
  6811   002D72                     _RB6_ISR:
  6812                           	callstack 19
  6813                           
  6814                           ;incstack = 0
  6815                           ;RB6_ISR@RB6_Source stored from wreg
  6816   002D72  6E01               	movwf	RB6_ISR@RB6_Source^0,c
  6817   002D74                     
  6818                           ;MCAL_Layer/Interrupt/mcal_external_interrupt.c: 147:     (INTCONbits.RBIF = 0);
  6819   002D74  90F2               	bcf	242,0,c	;volatile
  6820   002D76                     
  6821                           ;MCAL_Layer/Interrupt/mcal_external_interrupt.c: 150:     if(0 == RB6_Source){
  6822   002D76  5001               	movf	RB6_ISR@RB6_Source^0,w,c
  6823   002D78  A4D8               	btfss	status,2,c
  6824   002D7A  EFC1  F016         	goto	i2u507_41
  6825   002D7E  EFC3  F016         	goto	i2u507_40
  6826   002D82                     i2u507_41:
  6827   002D82  EFC5  F016         	goto	i2l6640
  6828   002D86                     i2u507_40:
  6829   002D86  EFC5  F016         	goto	i2l1066
  6830   002D8A                     i2l6640:
  6831   002D8A                     i2l1066:
  6832   002D8A  0012               	return		;funcret
  6833   002D8C                     __end_of_RB6_ISR:
  6834                           	callstack 0
  6835                           
  6836 ;; *************** function _RB5_ISR *****************
  6837 ;; Defined at:
  6838 ;;		line 126 in file "MCAL_Layer/Interrupt/mcal_external_interrupt.c"
  6839 ;; Parameters:    Size  Location     Type
  6840 ;;  RB5_Source      1    wreg     unsigned char 
  6841 ;; Auto vars:     Size  Location     Type
  6842 ;;  RB5_Source      1    0[COMRAM] unsigned char 
  6843 ;; Return value:  Size  Location     Type
  6844 ;;                  1    wreg      void 
  6845 ;; Registers used:
  6846 ;;		wreg, status,2, status,0
  6847 ;; Tracked objects:
  6848 ;;		On entry : 0/0
  6849 ;;		On exit  : 0/0
  6850 ;;		Unchanged: 0/0
  6851 ;; Data sizes:     COMRAM   BANK0   BANK1   BANK2   BANK3   BANK4   BANK5   BANK6   BANK7   BANK8   BANK9  BANK10  BANK1
      +1  BANK12  BANK13  BANK14  BANK15
  6852 ;;      Params:         0       0       0       0       0       0       0       0       0       0       0       0       
      +0       0       0       0       0
  6853 ;;      Locals:         1       0       0       0       0       0       0       0       0       0       0       0       
      +0       0       0       0       0
  6854 ;;      Temps:          0       0       0       0       0       0       0       0       0       0       0       0       
      +0       0       0       0       0
  6855 ;;      Totals:         1       0       0       0       0       0       0       0       0       0       0       0       
      +0       0       0       0       0
  6856 ;;Total ram usage:        1 bytes
  6857 ;; Hardware stack levels used: 1
  6858 ;; This function calls:
  6859 ;;		Nothing
  6860 ;; This function is called by:
  6861 ;;		_InterruptManager
  6862 ;; This function uses a non-reentrant model
  6863 ;;
  6864                           
  6865                           	psect	text44
  6866   002D8C                     __ptext44:
  6867                           	callstack 0
  6868   002D8C                     _RB5_ISR:
  6869                           	callstack 19
  6870                           
  6871                           ;incstack = 0
  6872                           ;RB5_ISR@RB5_Source stored from wreg
  6873   002D8C  6E01               	movwf	RB5_ISR@RB5_Source^0,c
  6874   002D8E                     
  6875                           ;MCAL_Layer/Interrupt/mcal_external_interrupt.c: 128:     (INTCONbits.RBIF = 0);
  6876   002D8E  90F2               	bcf	242,0,c	;volatile
  6877   002D90                     
  6878                           ;MCAL_Layer/Interrupt/mcal_external_interrupt.c: 131:     if(0 == RB5_Source){
  6879   002D90  5001               	movf	RB5_ISR@RB5_Source^0,w,c
  6880   002D92  A4D8               	btfss	status,2,c
  6881   002D94  EFCE  F016         	goto	i2u506_41
  6882   002D98  EFD0  F016         	goto	i2u506_40
  6883   002D9C                     i2u506_41:
  6884   002D9C  EFD2  F016         	goto	i2l6626
  6885   002DA0                     i2u506_40:
  6886   002DA0  EFD2  F016         	goto	i2l1055
  6887   002DA4                     i2l6626:
  6888   002DA4                     i2l1055:
  6889   002DA4  0012               	return		;funcret
  6890   002DA6                     __end_of_RB5_ISR:
  6891                           	callstack 0
  6892                           
  6893 ;; *************** function _RB4_ISR *****************
  6894 ;; Defined at:
  6895 ;;		line 107 in file "MCAL_Layer/Interrupt/mcal_external_interrupt.c"
  6896 ;; Parameters:    Size  Location     Type
  6897 ;;  RB4_Source      1    wreg     unsigned char 
  6898 ;; Auto vars:     Size  Location     Type
  6899 ;;  RB4_Source      1    0[COMRAM] unsigned char 
  6900 ;; Return value:  Size  Location     Type
  6901 ;;                  1    wreg      void 
  6902 ;; Registers used:
  6903 ;;		wreg, status,2, status,0
  6904 ;; Tracked objects:
  6905 ;;		On entry : 0/0
  6906 ;;		On exit  : 0/0
  6907 ;;		Unchanged: 0/0
  6908 ;; Data sizes:     COMRAM   BANK0   BANK1   BANK2   BANK3   BANK4   BANK5   BANK6   BANK7   BANK8   BANK9  BANK10  BANK1
      +1  BANK12  BANK13  BANK14  BANK15
  6909 ;;      Params:         0       0       0       0       0       0       0       0       0       0       0       0       
      +0       0       0       0       0
  6910 ;;      Locals:         1       0       0       0       0       0       0       0       0       0       0       0       
      +0       0       0       0       0
  6911 ;;      Temps:          0       0       0       0       0       0       0       0       0       0       0       0       
      +0       0       0       0       0
  6912 ;;      Totals:         1       0       0       0       0       0       0       0       0       0       0       0       
      +0       0       0       0       0
  6913 ;;Total ram usage:        1 bytes
  6914 ;; Hardware stack levels used: 1
  6915 ;; This function calls:
  6916 ;;		Nothing
  6917 ;; This function is called by:
  6918 ;;		_InterruptManager
  6919 ;; This function uses a non-reentrant model
  6920 ;;
  6921                           
  6922                           	psect	text45
  6923   002DA6                     __ptext45:
  6924                           	callstack 0
  6925   002DA6                     _RB4_ISR:
  6926                           	callstack 19
  6927                           
  6928                           ;incstack = 0
  6929                           ;RB4_ISR@RB4_Source stored from wreg
  6930   002DA6  6E01               	movwf	RB4_ISR@RB4_Source^0,c
  6931   002DA8                     
  6932                           ;MCAL_Layer/Interrupt/mcal_external_interrupt.c: 109:     (INTCONbits.RBIF = 0);
  6933   002DA8  90F2               	bcf	242,0,c	;volatile
  6934   002DAA                     
  6935                           ;MCAL_Layer/Interrupt/mcal_external_interrupt.c: 112:     if(0 == RB4_Source){
  6936   002DAA  5001               	movf	RB4_ISR@RB4_Source^0,w,c
  6937   002DAC  A4D8               	btfss	status,2,c
  6938   002DAE  EFDB  F016         	goto	i2u505_41
  6939   002DB2  EFDD  F016         	goto	i2u505_40
  6940   002DB6                     i2u505_41:
  6941   002DB6  EFDF  F016         	goto	i2l6612
  6942   002DBA                     i2u505_40:
  6943   002DBA  EFDF  F016         	goto	i2l1044
  6944   002DBE                     i2l6612:
  6945   002DBE                     i2l1044:
  6946   002DBE  0012               	return		;funcret
  6947   002DC0                     __end_of_RB4_ISR:
  6948                           	callstack 0
  6949                           
  6950 ;; *************** function _MSSP_SPI_ISR *****************
  6951 ;; Defined at:
  6952 ;;		line 130 in file "MCAL_Layer/SPI/hal_spi.c"
  6953 ;; Parameters:    Size  Location     Type
  6954 ;;		None
  6955 ;; Auto vars:     Size  Location     Type
  6956 ;;		None
  6957 ;; Return value:  Size  Location     Type
  6958 ;;                  1    wreg      void 
  6959 ;; Registers used:
  6960 ;;		None
  6961 ;; Tracked objects:
  6962 ;;		On entry : 0/0
  6963 ;;		On exit  : 0/0
  6964 ;;		Unchanged: 0/0
  6965 ;; Data sizes:     COMRAM   BANK0   BANK1   BANK2   BANK3   BANK4   BANK5   BANK6   BANK7   BANK8   BANK9  BANK10  BANK1
      +1  BANK12  BANK13  BANK14  BANK15
  6966 ;;      Params:         0       0       0       0       0       0       0       0       0       0       0       0       
      +0       0       0       0       0
  6967 ;;      Locals:         0       0       0       0       0       0       0       0       0       0       0       0       
      +0       0       0       0       0
  6968 ;;      Temps:          0       0       0       0       0       0       0       0       0       0       0       0       
      +0       0       0       0       0
  6969 ;;      Totals:         0       0       0       0       0       0       0       0       0       0       0       0       
      +0       0       0       0       0
  6970 ;;Total ram usage:        0 bytes
  6971 ;; Hardware stack levels used: 1
  6972 ;; This function calls:
  6973 ;;		Nothing
  6974 ;; This function is called by:
  6975 ;;		_InterruptManager
  6976 ;; This function uses a non-reentrant model
  6977 ;;
  6978                           
  6979                           	psect	text46
  6980   002E0A                     __ptext46:
  6981                           	callstack 0
  6982   002E0A                     _MSSP_SPI_ISR:
  6983                           	callstack 19
  6984   002E0A                     
  6985                           ;MCAL_Layer/SPI/hal_spi.c: 132:     (PIR1bits.SSPIF = 0);
  6986   002E0A  969E               	bcf	158,3,c	;volatile
  6987                           
  6988                           ;MCAL_Layer/SPI/hal_spi.c: 133:     (PIR1bits.SSPIF = 0);
  6989   002E0C  969E               	bcf	158,3,c	;volatile
  6990   002E0E  0012               	return		;funcret
  6991   002E10                     __end_of_MSSP_SPI_ISR:
  6992                           	callstack 0
  6993                           
  6994 ;; *************** function _MSSP_I2C_ISR *****************
  6995 ;; Defined at:
  6996 ;;		line 329 in file "MCAL_Layer/I2C/hal_i2c.c"
  6997 ;; Parameters:    Size  Location     Type
  6998 ;;		None
  6999 ;; Auto vars:     Size  Location     Type
  7000 ;;		None
  7001 ;; Return value:  Size  Location     Type
  7002 ;;                  1    wreg      void 
  7003 ;; Registers used:
  7004 ;;		None
  7005 ;; Tracked objects:
  7006 ;;		On entry : 0/0
  7007 ;;		On exit  : 0/0
  7008 ;;		Unchanged: 0/0
  7009 ;; Data sizes:     COMRAM   BANK0   BANK1   BANK2   BANK3   BANK4   BANK5   BANK6   BANK7   BANK8   BANK9  BANK10  BANK1
      +1  BANK12  BANK13  BANK14  BANK15
  7010 ;;      Params:         0       0       0       0       0       0       0       0       0       0       0       0       
      +0       0       0       0       0
  7011 ;;      Locals:         0       0       0       0       0       0       0       0       0       0       0       0       
      +0       0       0       0       0
  7012 ;;      Temps:          0       0       0       0       0       0       0       0       0       0       0       0       
      +0       0       0       0       0
  7013 ;;      Totals:         0       0       0       0       0       0       0       0       0       0       0       0       
      +0       0       0       0       0
  7014 ;;Total ram usage:        0 bytes
  7015 ;; Hardware stack levels used: 1
  7016 ;; This function calls:
  7017 ;;		Nothing
  7018 ;; This function is called by:
  7019 ;;		_InterruptManager
  7020 ;; This function uses a non-reentrant model
  7021 ;;
  7022                           
  7023                           	psect	text47
  7024   002E10                     __ptext47:
  7025                           	callstack 0
  7026   002E10                     _MSSP_I2C_ISR:
  7027                           	callstack 19
  7028   002E10                     
  7029                           ;MCAL_Layer/I2C/hal_i2c.c: 331:     (PIR1bits.SSPIF = 0);
  7030   002E10  969E               	bcf	158,3,c	;volatile
  7031   002E12  0012               	return		;funcret
  7032   002E14                     __end_of_MSSP_I2C_ISR:
  7033                           	callstack 0
  7034                           
  7035 ;; *************** function _MSSP_I2C_BC_ISR *****************
  7036 ;; Defined at:
  7037 ;;		line 338 in file "MCAL_Layer/I2C/hal_i2c.c"
  7038 ;; Parameters:    Size  Location     Type
  7039 ;;		None
  7040 ;; Auto vars:     Size  Location     Type
  7041 ;;		None
  7042 ;; Return value:  Size  Location     Type
  7043 ;;                  1    wreg      void 
  7044 ;; Registers used:
  7045 ;;		None
  7046 ;; Tracked objects:
  7047 ;;		On entry : 0/0
  7048 ;;		On exit  : 0/0
  7049 ;;		Unchanged: 0/0
  7050 ;; Data sizes:     COMRAM   BANK0   BANK1   BANK2   BANK3   BANK4   BANK5   BANK6   BANK7   BANK8   BANK9  BANK10  BANK1
      +1  BANK12  BANK13  BANK14  BANK15
  7051 ;;      Params:         0       0       0       0       0       0       0       0       0       0       0       0       
      +0       0       0       0       0
  7052 ;;      Locals:         0       0       0       0       0       0       0       0       0       0       0       0       
      +0       0       0       0       0
  7053 ;;      Temps:          0       0       0       0       0       0       0       0       0       0       0       0       
      +0       0       0       0       0
  7054 ;;      Totals:         0       0       0       0       0       0       0       0       0       0       0       0       
      +0       0       0       0       0
  7055 ;;Total ram usage:        0 bytes
  7056 ;; Hardware stack levels used: 1
  7057 ;; This function calls:
  7058 ;;		Nothing
  7059 ;; This function is called by:
  7060 ;;		_InterruptManager
  7061 ;; This function uses a non-reentrant model
  7062 ;;
  7063                           
  7064                           	psect	text48
  7065   002E14                     __ptext48:
  7066                           	callstack 0
  7067   002E14                     _MSSP_I2C_BC_ISR:
  7068                           	callstack 19
  7069   002E14                     
  7070                           ;MCAL_Layer/I2C/hal_i2c.c: 340:     (PIR2bits.BCLIF = 0);
  7071   002E14  96A1               	bcf	161,3,c	;volatile
  7072   002E16  0012               	return		;funcret
  7073   002E18                     __end_of_MSSP_I2C_BC_ISR:
  7074                           	callstack 0
  7075                           
  7076 ;; *************** function _INT2_ISR *****************
  7077 ;; Defined at:
  7078 ;;		line 95 in file "MCAL_Layer/Interrupt/mcal_external_interrupt.c"
  7079 ;; Parameters:    Size  Location     Type
  7080 ;;		None
  7081 ;; Auto vars:     Size  Location     Type
  7082 ;;		None
  7083 ;; Return value:  Size  Location     Type
  7084 ;;                  1    wreg      void 
  7085 ;; Registers used:
  7086 ;;		None
  7087 ;; Tracked objects:
  7088 ;;		On entry : 0/0
  7089 ;;		On exit  : 0/0
  7090 ;;		Unchanged: 0/0
  7091 ;; Data sizes:     COMRAM   BANK0   BANK1   BANK2   BANK3   BANK4   BANK5   BANK6   BANK7   BANK8   BANK9  BANK10  BANK1
      +1  BANK12  BANK13  BANK14  BANK15
  7092 ;;      Params:         0       0       0       0       0       0       0       0       0       0       0       0       
      +0       0       0       0       0
  7093 ;;      Locals:         0       0       0       0       0       0       0       0       0       0       0       0       
      +0       0       0       0       0
  7094 ;;      Temps:          0       0       0       0       0       0       0       0       0       0       0       0       
      +0       0       0       0       0
  7095 ;;      Totals:         0       0       0       0       0       0       0       0       0       0       0       0       
      +0       0       0       0       0
  7096 ;;Total ram usage:        0 bytes
  7097 ;; Hardware stack levels used: 1
  7098 ;; This function calls:
  7099 ;;		Nothing
  7100 ;; This function is called by:
  7101 ;;		_InterruptManager
  7102 ;; This function uses a non-reentrant model
  7103 ;;
  7104                           
  7105                           	psect	text49
  7106   002E18                     __ptext49:
  7107                           	callstack 0
  7108   002E18                     _INT2_ISR:
  7109                           	callstack 19
  7110   002E18                     
  7111                           ;MCAL_Layer/Interrupt/mcal_external_interrupt.c: 97:     (INTCON3bits.INT2IF = 0);
  7112   002E18  92F0               	bcf	240,1,c	;volatile
  7113   002E1A  0012               	return		;funcret
  7114   002E1C                     __end_of_INT2_ISR:
  7115                           	callstack 0
  7116                           
  7117 ;; *************** function _INT1_ISR *****************
  7118 ;; Defined at:
  7119 ;;		line 86 in file "MCAL_Layer/Interrupt/mcal_external_interrupt.c"
  7120 ;; Parameters:    Size  Location     Type
  7121 ;;		None
  7122 ;; Auto vars:     Size  Location     Type
  7123 ;;		None
  7124 ;; Return value:  Size  Location     Type
  7125 ;;                  1    wreg      void 
  7126 ;; Registers used:
  7127 ;;		None
  7128 ;; Tracked objects:
  7129 ;;		On entry : 0/0
  7130 ;;		On exit  : 0/0
  7131 ;;		Unchanged: 0/0
  7132 ;; Data sizes:     COMRAM   BANK0   BANK1   BANK2   BANK3   BANK4   BANK5   BANK6   BANK7   BANK8   BANK9  BANK10  BANK1
      +1  BANK12  BANK13  BANK14  BANK15
  7133 ;;      Params:         0       0       0       0       0       0       0       0       0       0       0       0       
      +0       0       0       0       0
  7134 ;;      Locals:         0       0       0       0       0       0       0       0       0       0       0       0       
      +0       0       0       0       0
  7135 ;;      Temps:          0       0       0       0       0       0       0       0       0       0       0       0       
      +0       0       0       0       0
  7136 ;;      Totals:         0       0       0       0       0       0       0       0       0       0       0       0       
      +0       0       0       0       0
  7137 ;;Total ram usage:        0 bytes
  7138 ;; Hardware stack levels used: 1
  7139 ;; This function calls:
  7140 ;;		Nothing
  7141 ;; This function is called by:
  7142 ;;		_InterruptManager
  7143 ;; This function uses a non-reentrant model
  7144 ;;
  7145                           
  7146                           	psect	text50
  7147   002E1C                     __ptext50:
  7148                           	callstack 0
  7149   002E1C                     _INT1_ISR:
  7150                           	callstack 19
  7151   002E1C                     
  7152                           ;MCAL_Layer/Interrupt/mcal_external_interrupt.c: 88:     (INTCON3bits.INT1IF = 0);
  7153   002E1C  90F0               	bcf	240,0,c	;volatile
  7154   002E1E  0012               	return		;funcret
  7155   002E20                     __end_of_INT1_ISR:
  7156                           	callstack 0
  7157                           
  7158 ;; *************** function _INT0_ISR *****************
  7159 ;; Defined at:
  7160 ;;		line 74 in file "MCAL_Layer/Interrupt/mcal_external_interrupt.c"
  7161 ;; Parameters:    Size  Location     Type
  7162 ;;		None
  7163 ;; Auto vars:     Size  Location     Type
  7164 ;;		None
  7165 ;; Return value:  Size  Location     Type
  7166 ;;                  1    wreg      void 
  7167 ;; Registers used:
  7168 ;;		None
  7169 ;; Tracked objects:
  7170 ;;		On entry : 0/0
  7171 ;;		On exit  : 0/0
  7172 ;;		Unchanged: 0/0
  7173 ;; Data sizes:     COMRAM   BANK0   BANK1   BANK2   BANK3   BANK4   BANK5   BANK6   BANK7   BANK8   BANK9  BANK10  BANK1
      +1  BANK12  BANK13  BANK14  BANK15
  7174 ;;      Params:         0       0       0       0       0       0       0       0       0       0       0       0       
      +0       0       0       0       0
  7175 ;;      Locals:         0       0       0       0       0       0       0       0       0       0       0       0       
      +0       0       0       0       0
  7176 ;;      Temps:          0       0       0       0       0       0       0       0       0       0       0       0       
      +0       0       0       0       0
  7177 ;;      Totals:         0       0       0       0       0       0       0       0       0       0       0       0       
      +0       0       0       0       0
  7178 ;;Total ram usage:        0 bytes
  7179 ;; Hardware stack levels used: 1
  7180 ;; This function calls:
  7181 ;;		Nothing
  7182 ;; This function is called by:
  7183 ;;		_InterruptManager
  7184 ;; This function uses a non-reentrant model
  7185 ;;
  7186                           
  7187                           	psect	text51
  7188   002E20                     __ptext51:
  7189                           	callstack 0
  7190   002E20                     _INT0_ISR:
  7191                           	callstack 19
  7192   002E20                     
  7193                           ;MCAL_Layer/Interrupt/mcal_external_interrupt.c: 76:     (INTCONbits.INT0IF = 0);
  7194   002E20  92F2               	bcf	242,1,c	;volatile
  7195   002E22  0012               	return		;funcret
  7196   002E24                     __end_of_INT0_ISR:
  7197                           	callstack 0
  7198                           
  7199 ;; *************** function _EUSART_TX_ISR *****************
  7200 ;; Defined at:
  7201 ;;		line 260 in file "MCAL_Layer/usart/hal_usart.c"
  7202 ;; Parameters:    Size  Location     Type
  7203 ;;		None
  7204 ;; Auto vars:     Size  Location     Type
  7205 ;;		None
  7206 ;; Return value:  Size  Location     Type
  7207 ;;                  1    wreg      void 
  7208 ;; Registers used:
  7209 ;;		None
  7210 ;; Tracked objects:
  7211 ;;		On entry : 0/0
  7212 ;;		On exit  : 0/0
  7213 ;;		Unchanged: 0/0
  7214 ;; Data sizes:     COMRAM   BANK0   BANK1   BANK2   BANK3   BANK4   BANK5   BANK6   BANK7   BANK8   BANK9  BANK10  BANK1
      +1  BANK12  BANK13  BANK14  BANK15
  7215 ;;      Params:         0       0       0       0       0       0       0       0       0       0       0       0       
      +0       0       0       0       0
  7216 ;;      Locals:         0       0       0       0       0       0       0       0       0       0       0       0       
      +0       0       0       0       0
  7217 ;;      Temps:          0       0       0       0       0       0       0       0       0       0       0       0       
      +0       0       0       0       0
  7218 ;;      Totals:         0       0       0       0       0       0       0       0       0       0       0       0       
      +0       0       0       0       0
  7219 ;;Total ram usage:        0 bytes
  7220 ;; Hardware stack levels used: 1
  7221 ;; This function calls:
  7222 ;;		Nothing
  7223 ;; This function is called by:
  7224 ;;		_InterruptManager
  7225 ;; This function uses a non-reentrant model
  7226 ;;
  7227                           
  7228                           	psect	text52
  7229   002E24                     __ptext52:
  7230                           	callstack 0
  7231   002E24                     _EUSART_TX_ISR:
  7232                           	callstack 19
  7233   002E24                     
  7234                           ;MCAL_Layer/usart/hal_usart.c: 261:   (PIE1bits.TXIE = 0);
  7235   002E24  989D               	bcf	157,4,c	;volatile
  7236   002E26  0012               	return		;funcret
  7237   002E28                     __end_of_EUSART_TX_ISR:
  7238                           	callstack 0
  7239                           
  7240 ;; *************** function _EUSART_RX_ISR *****************
  7241 ;; Defined at:
  7242 ;;		line 268 in file "MCAL_Layer/usart/hal_usart.c"
  7243 ;; Parameters:    Size  Location     Type
  7244 ;;		None
  7245 ;; Auto vars:     Size  Location     Type
  7246 ;;		None
  7247 ;; Return value:  Size  Location     Type
  7248 ;;                  1    wreg      void 
  7249 ;; Registers used:
  7250 ;;		wreg, status,2, status,0
  7251 ;; Tracked objects:
  7252 ;;		On entry : 0/0
  7253 ;;		On exit  : 0/0
  7254 ;;		Unchanged: 0/0
  7255 ;; Data sizes:     COMRAM   BANK0   BANK1   BANK2   BANK3   BANK4   BANK5   BANK6   BANK7   BANK8   BANK9  BANK10  BANK1
      +1  BANK12  BANK13  BANK14  BANK15
  7256 ;;      Params:         0       0       0       0       0       0       0       0       0       0       0       0       
      +0       0       0       0       0
  7257 ;;      Locals:         0       0       0       0       0       0       0       0       0       0       0       0       
      +0       0       0       0       0
  7258 ;;      Temps:          0       0       0       0       0       0       0       0       0       0       0       0       
      +0       0       0       0       0
  7259 ;;      Totals:         0       0       0       0       0       0       0       0       0       0       0       0       
      +0       0       0       0       0
  7260 ;;Total ram usage:        0 bytes
  7261 ;; Hardware stack levels used: 1
  7262 ;; This function calls:
  7263 ;;		Nothing
  7264 ;; This function is called by:
  7265 ;;		_InterruptManager
  7266 ;; This function uses a non-reentrant model
  7267 ;;
  7268                           
  7269                           	psect	text53
  7270   002CEC                     __ptext53:
  7271                           	callstack 0
  7272   002CEC                     _EUSART_RX_ISR:
  7273                           	callstack 19
  7274   002CEC                     
  7275                           ;MCAL_Layer/usart/hal_usart.c: 273:   if (EUSART_FramingErrorHandler && RCSTAbits.FERR) 
      +                          {
  7276   002CEC  0100               	movlb	0	; () banked
  7277   002CEE  5190               	movf	_EUSART_FramingErrorHandler& (0+255),w,b
  7278   002CF0  1191               	iorwf	(_EUSART_FramingErrorHandler+1)& (0+255),w,b
  7279   002CF2  B4D8               	btfsc	status,2,c
  7280   002CF4  EF7E  F016         	goto	i2u512_41
  7281   002CF8  EF80  F016         	goto	i2u512_40
  7282   002CFC                     i2u512_41:
  7283   002CFC  EF81  F016         	goto	i2l6746
  7284   002D00                     i2u512_40:
  7285   002D00                     
  7286                           ; BSR set to: 0
  7287                           ;MCAL_Layer/usart/hal_usart.c: 274:     EUSART_FramingErrorHandler();
  7288   002D00  50AB               	movf	171,w,c	;volatile
  7289   002D02                     i2l6746:
  7290                           
  7291                           ; BSR set to: 0
  7292                           ;MCAL_Layer/usart/hal_usart.c: 277:   if (EUSART_OverrunErrorHandler && RCSTAbits.OERR) 
      +                          {
  7293   002D02  518E               	movf	_EUSART_OverrunErrorHandler& (0+255),w,b
  7294   002D04  118F               	iorwf	(_EUSART_OverrunErrorHandler+1)& (0+255),w,b
  7295   002D06  B4D8               	btfsc	status,2,c
  7296   002D08  EF88  F016         	goto	i2u513_41
  7297   002D0C  EF8A  F016         	goto	i2u513_40
  7298   002D10                     i2u513_41:
  7299   002D10  EF8B  F016         	goto	i2l1754
  7300   002D14                     i2u513_40:
  7301   002D14                     
  7302                           ; BSR set to: 0
  7303                           ;MCAL_Layer/usart/hal_usart.c: 278:     EUSART_OverrunErrorHandler();
  7304   002D14  50AB               	movf	171,w,c	;volatile
  7305   002D16                     i2l1754:
  7306                           
  7307                           ; BSR set to: 0
  7308   002D16  0012               	return		;funcret
  7309   002D18                     __end_of_EUSART_RX_ISR:
  7310                           	callstack 0
  7311                           
  7312 ;; *************** function _CCP2_ISR *****************
  7313 ;; Defined at:
  7314 ;;		line 254 in file "MCAL_Layer/CCP/hal_ccp.c"
  7315 ;; Parameters:    Size  Location     Type
  7316 ;;		None
  7317 ;; Auto vars:     Size  Location     Type
  7318 ;;		None
  7319 ;; Return value:  Size  Location     Type
  7320 ;;                  1    wreg      void 
  7321 ;; Registers used:
  7322 ;;		None
  7323 ;; Tracked objects:
  7324 ;;		On entry : 0/0
  7325 ;;		On exit  : 0/0
  7326 ;;		Unchanged: 0/0
  7327 ;; Data sizes:     COMRAM   BANK0   BANK1   BANK2   BANK3   BANK4   BANK5   BANK6   BANK7   BANK8   BANK9  BANK10  BANK1
      +1  BANK12  BANK13  BANK14  BANK15
  7328 ;;      Params:         0       0       0       0       0       0       0       0       0       0       0       0       
      +0       0       0       0       0
  7329 ;;      Locals:         0       0       0       0       0       0       0       0       0       0       0       0       
      +0       0       0       0       0
  7330 ;;      Temps:          0       0       0       0       0       0       0       0       0       0       0       0       
      +0       0       0       0       0
  7331 ;;      Totals:         0       0       0       0       0       0       0       0       0       0       0       0       
      +0       0       0       0       0
  7332 ;;Total ram usage:        0 bytes
  7333 ;; Hardware stack levels used: 1
  7334 ;; This function calls:
  7335 ;;		Nothing
  7336 ;; This function is called by:
  7337 ;;		_InterruptManager
  7338 ;; This function uses a non-reentrant model
  7339 ;;
  7340                           
  7341                           	psect	text54
  7342   002E28                     __ptext54:
  7343                           	callstack 0
  7344   002E28                     _CCP2_ISR:
  7345                           	callstack 19
  7346   002E28                     
  7347                           ;MCAL_Layer/CCP/hal_ccp.c: 255:     (PIR2bits.CCP2IF = 0);
  7348   002E28  90A1               	bcf	161,0,c	;volatile
  7349   002E2A  0012               	return		;funcret
  7350   002E2C                     __end_of_CCP2_ISR:
  7351                           	callstack 0
  7352                           
  7353 ;; *************** function _CCP1_ISR *****************
  7354 ;; Defined at:
  7355 ;;		line 246 in file "MCAL_Layer/CCP/hal_ccp.c"
  7356 ;; Parameters:    Size  Location     Type
  7357 ;;		None
  7358 ;; Auto vars:     Size  Location     Type
  7359 ;;		None
  7360 ;; Return value:  Size  Location     Type
  7361 ;;                  1    wreg      void 
  7362 ;; Registers used:
  7363 ;;		None
  7364 ;; Tracked objects:
  7365 ;;		On entry : 0/0
  7366 ;;		On exit  : 0/0
  7367 ;;		Unchanged: 0/0
  7368 ;; Data sizes:     COMRAM   BANK0   BANK1   BANK2   BANK3   BANK4   BANK5   BANK6   BANK7   BANK8   BANK9  BANK10  BANK1
      +1  BANK12  BANK13  BANK14  BANK15
  7369 ;;      Params:         0       0       0       0       0       0       0       0       0       0       0       0       
      +0       0       0       0       0
  7370 ;;      Locals:         0       0       0       0       0       0       0       0       0       0       0       0       
      +0       0       0       0       0
  7371 ;;      Temps:          0       0       0       0       0       0       0       0       0       0       0       0       
      +0       0       0       0       0
  7372 ;;      Totals:         0       0       0       0       0       0       0       0       0       0       0       0       
      +0       0       0       0       0
  7373 ;;Total ram usage:        0 bytes
  7374 ;; Hardware stack levels used: 1
  7375 ;; This function calls:
  7376 ;;		Nothing
  7377 ;; This function is called by:
  7378 ;;		_InterruptManager
  7379 ;; This function uses a non-reentrant model
  7380 ;;
  7381                           
  7382                           	psect	text55
  7383   002E2C                     __ptext55:
  7384                           	callstack 0
  7385   002E2C                     _CCP1_ISR:
  7386                           	callstack 19
  7387   002E2C                     
  7388                           ;MCAL_Layer/CCP/hal_ccp.c: 247:     (PIR1bits.CCP1IF = 0);
  7389   002E2C  949E               	bcf	158,2,c	;volatile
  7390   002E2E  0012               	return		;funcret
  7391   002E30                     __end_of_CCP1_ISR:
  7392                           	callstack 0
  7393                           
  7394 ;; *************** function _ADC_ISR *****************
  7395 ;; Defined at:
  7396 ;;		line 296 in file "MCAL_Layer/ADC/hal_adc.c"
  7397 ;; Parameters:    Size  Location     Type
  7398 ;;		None
  7399 ;; Auto vars:     Size  Location     Type
  7400 ;;		None
  7401 ;; Return value:  Size  Location     Type
  7402 ;;                  1    wreg      void 
  7403 ;; Registers used:
  7404 ;;		None
  7405 ;; Tracked objects:
  7406 ;;		On entry : 0/0
  7407 ;;		On exit  : 0/0
  7408 ;;		Unchanged: 0/0
  7409 ;; Data sizes:     COMRAM   BANK0   BANK1   BANK2   BANK3   BANK4   BANK5   BANK6   BANK7   BANK8   BANK9  BANK10  BANK1
      +1  BANK12  BANK13  BANK14  BANK15
  7410 ;;      Params:         0       0       0       0       0       0       0       0       0       0       0       0       
      +0       0       0       0       0
  7411 ;;      Locals:         0       0       0       0       0       0       0       0       0       0       0       0       
      +0       0       0       0       0
  7412 ;;      Temps:          0       0       0       0       0       0       0       0       0       0       0       0       
      +0       0       0       0       0
  7413 ;;      Totals:         0       0       0       0       0       0       0       0       0       0       0       0       
      +0       0       0       0       0
  7414 ;;Total ram usage:        0 bytes
  7415 ;; Hardware stack levels used: 1
  7416 ;; This function calls:
  7417 ;;		Nothing
  7418 ;; This function is called by:
  7419 ;;		_InterruptManager
  7420 ;; This function uses a non-reentrant model
  7421 ;;
  7422                           
  7423                           	psect	text56
  7424   002E30                     __ptext56:
  7425                           	callstack 0
  7426   002E30                     _ADC_ISR:
  7427                           	callstack 19
  7428   002E30                     
  7429                           ;MCAL_Layer/ADC/hal_adc.c: 297:     (PIR1bits.ADIF = 0);
  7430   002E30  9C9E               	bcf	158,6,c	;volatile
  7431   002E32  0012               	return		;funcret
  7432   002E34                     __end_of_ADC_ISR:
  7433                           	callstack 0
  7434                           
  7435                           	psect	rparam
  7436   000000                     
  7437                           	psect	temp
  7438   00007C                     btemp:
  7439                           	callstack 0
  7440   00007C                     	ds	1
  7441   000000                     int$flags	set	btemp
  7442   000000                     wtemp8	set	btemp+1
  7443   000000                     ttemp5	set	btemp+1
  7444   000000                     ttemp6	set	btemp+4
  7445   000000                     ttemp7	set	btemp+8
  7446                           
  7447                           	psect	idloc
  7448                           
  7449                           ;Config register IDLOC0 @ 0x200000
  7450                           ;	unspecified, using default values
  7451   200000                     	org	2097152
  7452   200000  FF                 	db	255
  7453                           
  7454                           ;Config register IDLOC1 @ 0x200001
  7455                           ;	unspecified, using default values
  7456   200001                     	org	2097153
  7457   200001  FF                 	db	255
  7458                           
  7459                           ;Config register IDLOC2 @ 0x200002
  7460                           ;	unspecified, using default values
  7461   200002                     	org	2097154
  7462   200002  FF                 	db	255
  7463                           
  7464                           ;Config register IDLOC3 @ 0x200003
  7465                           ;	unspecified, using default values
  7466   200003                     	org	2097155
  7467   200003  FF                 	db	255
  7468                           
  7469                           ;Config register IDLOC4 @ 0x200004
  7470                           ;	unspecified, using default values
  7471   200004                     	org	2097156
  7472   200004  FF                 	db	255
  7473                           
  7474                           ;Config register IDLOC5 @ 0x200005
  7475                           ;	unspecified, using default values
  7476   200005                     	org	2097157
  7477   200005  FF                 	db	255
  7478                           
  7479                           ;Config register IDLOC6 @ 0x200006
  7480                           ;	unspecified, using default values
  7481   200006                     	org	2097158
  7482   200006  FF                 	db	255
  7483                           
  7484                           ;Config register IDLOC7 @ 0x200007
  7485                           ;	unspecified, using default values
  7486   200007                     	org	2097159
  7487   200007  FF                 	db	255
  7488                           
  7489                           	psect	config
  7490                           
  7491                           ; Padding undefined space
  7492   300000                     	org	3145728
  7493   300000  FF                 	db	255
  7494                           
  7495                           ;Config register CONFIG1H @ 0x300001
  7496                           ;	Oscillator Selection bits
  7497                           ;	OSC = HS, HS oscillator
  7498                           ;	Fail-Safe Clock Monitor Enable bit
  7499                           ;	FCMEN = OFF, Fail-Safe Clock Monitor disabled
  7500                           ;	Internal/External Oscillator Switchover bit
  7501                           ;	IESO = OFF, Oscillator Switchover mode disabled
  7502   300001                     	org	3145729
  7503   300001  02                 	db	2
  7504                           
  7505                           ;Config register CONFIG2L @ 0x300002
  7506                           ;	Power-up Timer Enable bit
  7507                           ;	PWRT = OFF, PWRT disabled
  7508                           ;	Brown-out Reset Enable bits
  7509                           ;	BOREN = OFF, Brown-out Reset disabled in hardware and software
  7510                           ;	Brown Out Reset Voltage bits
  7511                           ;	BORV = 1, 
  7512   300002                     	org	3145730
  7513   300002  09                 	db	9
  7514                           
  7515                           ;Config register CONFIG2H @ 0x300003
  7516                           ;	Watchdog Timer Enable bit
  7517                           ;	WDT = OFF, WDT disabled (control is placed on the SWDTEN bit)
  7518                           ;	Watchdog Timer Postscale Select bits
  7519                           ;	WDTPS = 512, 1:512
  7520   300003                     	org	3145731
  7521   300003  12                 	db	18
  7522                           
  7523                           ; Padding undefined space
  7524   300004                     	org	3145732
  7525   300004  FF                 	db	255
  7526                           
  7527                           ;Config register CONFIG3H @ 0x300005
  7528                           ;	CCP2 MUX bit
  7529                           ;	CCP2MX = PORTC, CCP2 input/output is multiplexed with RC1
  7530                           ;	PORTB A/D Enable bit
  7531                           ;	PBADEN = OFF, PORTB<4:0> pins are configured as digital I/O on Reset
  7532                           ;	Low-Power Timer1 Oscillator Enable bit
  7533                           ;	LPT1OSC = OFF, Timer1 configured for higher power operation
  7534                           ;	MCLR Pin Enable bit
  7535                           ;	MCLRE = ON, MCLR pin enabled; RE3 input pin disabled
  7536   300005                     	org	3145733
  7537   300005  81                 	db	129
  7538                           
  7539                           ;Config register CONFIG4L @ 0x300006
  7540                           ;	Stack Full/Underflow Reset Enable bit
  7541                           ;	STVREN = ON, Stack full/underflow will cause Reset
  7542                           ;	Single-Supply ICSP Enable bit
  7543                           ;	LVP = OFF, Single-Supply ICSP disabled
  7544                           ;	Extended Instruction Set Enable bit
  7545                           ;	XINST = OFF, Instruction set extension and Indexed Addressing mode disabled (Legacy mo
      +                          de)
  7546                           ;	Background Debugger Enable bit
  7547                           ;	DEBUG = 0x1, unprogrammed default
  7548   300006                     	org	3145734
  7549   300006  81                 	db	129
  7550                           
  7551                           ; Padding undefined space
  7552   300007                     	org	3145735
  7553   300007  FF                 	db	255
  7554                           
  7555                           ;Config register CONFIG5L @ 0x300008
  7556                           ;	Code Protection bit
  7557                           ;	CP0 = OFF, Block 0 (000800-003FFFh) not code-protected
  7558                           ;	Code Protection bit
  7559                           ;	CP1 = OFF, Block 1 (004000-007FFFh) not code-protected
  7560                           ;	Code Protection bit
  7561                           ;	CP2 = OFF, Block 2 (008000-00BFFFh) not code-protected
  7562                           ;	Code Protection bit
  7563                           ;	CP3 = OFF, Block 3 (00C000-00FFFFh) not code-protected
  7564   300008                     	org	3145736
  7565   300008  0F                 	db	15
  7566                           
  7567                           ;Config register CONFIG5H @ 0x300009
  7568                           ;	Boot Block Code Protection bit
  7569                           ;	CPB = OFF, Boot block (000000-0007FFh) not code-protected
  7570                           ;	Data EEPROM Code Protection bit
  7571                           ;	CPD = OFF, Data EEPROM not code-protected
  7572   300009                     	org	3145737
  7573   300009  C0                 	db	192
  7574                           
  7575                           ;Config register CONFIG6L @ 0x30000A
  7576                           ;	Write Protection bit
  7577                           ;	WRT0 = OFF, Block 0 (000800-003FFFh) not write-protected
  7578                           ;	Write Protection bit
  7579                           ;	WRT1 = OFF, Block 1 (004000-007FFFh) not write-protected
  7580                           ;	Write Protection bit
  7581                           ;	WRT2 = OFF, Block 2 (008000-00BFFFh) not write-protected
  7582                           ;	Write Protection bit
  7583                           ;	WRT3 = OFF, Block 3 (00C000-00FFFFh) not write-protected
  7584   30000A                     	org	3145738
  7585   30000A  0F                 	db	15
  7586                           
  7587                           ;Config register CONFIG6H @ 0x30000B
  7588                           ;	Configuration Register Write Protection bit
  7589                           ;	WRTC = OFF, Configuration registers (300000-3000FFh) not write-protected
  7590                           ;	Boot Block Write Protection bit
  7591                           ;	WRTB = OFF, Boot Block (000000-0007FFh) not write-protected
  7592                           ;	Data EEPROM Write Protection bit
  7593                           ;	WRTD = OFF, Data EEPROM not write-protected
  7594   30000B                     	org	3145739
  7595   30000B  E0                 	db	224
  7596                           
  7597                           ;Config register CONFIG7L @ 0x30000C
  7598                           ;	Table Read Protection bit
  7599                           ;	EBTR0 = OFF, Block 0 (000800-003FFFh) not protected from table reads executed in other
      +                           blocks
  7600                           ;	Table Read Protection bit
  7601                           ;	EBTR1 = OFF, Block 1 (004000-007FFFh) not protected from table reads executed in other
      +                           blocks
  7602                           ;	Table Read Protection bit
  7603                           ;	EBTR2 = OFF, Block 2 (008000-00BFFFh) not protected from table reads executed in other
      +                           blocks
  7604                           ;	Table Read Protection bit
  7605                           ;	EBTR3 = OFF, Block 3 (00C000-00FFFFh) not protected from table reads executed in other
      +                           blocks
  7606   30000C                     	org	3145740
  7607   30000C  0F                 	db	15
  7608                           
  7609                           ;Config register CONFIG7H @ 0x30000D
  7610                           ;	Boot Block Table Read Protection bit
  7611                           ;	EBTRB = OFF, Boot Block (000000-0007FFh) not protected from table reads executed in ot
      +                          her blocks
  7612   30000D                     	org	3145741
  7613   30000D  40                 	db	64
  7614                           tosu	equ	0xFFF
  7615                           tosh	equ	0xFFE
  7616                           tosl	equ	0xFFD
  7617                           stkptr	equ	0xFFC
  7618                           pclatu	equ	0xFFB
  7619                           pclath	equ	0xFFA
  7620                           pcl	equ	0xFF9
  7621                           tblptru	equ	0xFF8
  7622                           tblptrh	equ	0xFF7
  7623                           tblptrl	equ	0xFF6
  7624                           tablat	equ	0xFF5
  7625                           prodh	equ	0xFF4
  7626                           prodl	equ	0xFF3
  7627                           indf0	equ	0xFEF
  7628                           postinc0	equ	0xFEE
  7629                           postdec0	equ	0xFED
  7630                           preinc0	equ	0xFEC
  7631                           plusw0	equ	0xFEB
  7632                           fsr0h	equ	0xFEA
  7633                           fsr0l	equ	0xFE9
  7634                           wreg	equ	0xFE8
  7635                           indf1	equ	0xFE7
  7636                           postinc1	equ	0xFE6
  7637                           postdec1	equ	0xFE5
  7638                           preinc1	equ	0xFE4
  7639                           plusw1	equ	0xFE3
  7640                           fsr1h	equ	0xFE2
  7641                           fsr1l	equ	0xFE1
  7642                           bsr	equ	0xFE0
  7643                           indf2	equ	0xFDF
  7644                           postinc2	equ	0xFDE
  7645                           postdec2	equ	0xFDD
  7646                           preinc2	equ	0xFDC
  7647                           plusw2	equ	0xFDB
  7648                           fsr2h	equ	0xFDA
  7649                           fsr2l	equ	0xFD9
  7650                           status	equ	0xFD8

Data Sizes:
    Strings     50
    Constant    16
    Data        74
    BSS         128
    Persistent  0
    Stack       0

Auto Spaces:
    Space          Size  Autos    Used
    COMRAM          126     95     123
    BANK0           128      2     123
    BANK1           256      0      53
    BANK2           256      0       0
    BANK3           256      0       0
    BANK4           256      0       0
    BANK5           256      0       0
    BANK6           256      0       0
    BANK7           256      0       0
    BANK8           256      0       0
    BANK9           256      0       0
    BANK10          256      0       0
    BANK11          256      0       0
    BANK12          256      0       0
    BANK13          256      0       0
    BANK14          256      0       0
    BANK15          128      0       0

Pointer List with Targets:

    fputs@s	PTR const unsigned char  size(2) Largest target is 32
		 -> dbuf(BANK1[32]), 

    fputs@fp	PTR struct _IO_FILE size(2) Largest target is 12
		 -> sprintf@f(COMRAM[12]), 

    fputc@fp...source	PTR const unsigned char  size(2) Largest target is 0

    fputc@fp...buffer	PTR unsigned char  size(2) Largest target is 0

    fputc@fp	PTR struct _IO_FILE size(2) Largest target is 12
		 -> sprintf@f(COMRAM[12]), 

    vfprintf@ap	PTR PTR void  size(2) Largest target is 2
		 -> sprintf@ap(COMRAM[2]), 

    vfprintf@fp	PTR struct _IO_FILE size(2) Largest target is 12
		 -> sprintf@f(COMRAM[12]), 

    vfprintf@fmt	PTR const unsigned char  size(2) Largest target is 3
		 -> STR_3(CODE[3]), STR_2(CODE[3]), STR_1(CODE[3]), 

    vfprintf@cfmt	PTR unsigned char  size(2) Largest target is 3
		 -> STR_3(CODE[3]), STR_2(CODE[3]), STR_1(CODE[3]), 

    vfpfcnvrt@fp	PTR struct _IO_FILE size(2) Largest target is 12
		 -> sprintf@f(COMRAM[12]), 

    vfpfcnvrt@ap	PTR PTR void  size(2) Largest target is 2
		 -> sprintf@ap(COMRAM[2]), 

    vfpfcnvrt@cp	PTR unsigned char  size(2) Largest target is 3
		 -> STR_3(CODE[3]), STR_2(CODE[3]), STR_1(CODE[3]), 

    vfpfcnvrt@fmt	PTR PTR unsigned char  size(2) Largest target is 2
		 -> vfprintf@cfmt(COMRAM[2]), 

    S5033$vp	PTR void  size(2) Largest target is 0

    convarg.vp	PTR void  size(2) Largest target is 0

    dtoa@fp	PTR struct _IO_FILE size(2) Largest target is 12
		 -> sprintf@f(COMRAM[12]), 

    pad@buf	PTR unsigned char  size(2) Largest target is 32
		 -> dbuf(BANK1[32]), 

    pad@fp	PTR struct _IO_FILE size(2) Largest target is 12
		 -> sprintf@f(COMRAM[12]), 

    sprintf@fmt	PTR const unsigned char  size(2) Largest target is 3
		 -> STR_3(CODE[3]), STR_2(CODE[3]), STR_1(CODE[3]), 

    sprintf@s	PTR unsigned char  size(2) Largest target is 11
		 -> result_txt(BANK1[11]), convert_uint16_to_string@Temp_String(COMRAM[6]), 

    sprintf@ap	PTR void [1] size(2) Largest target is 2
		 -> ?_sprintf(COMRAM[2]), 

    S4980$source	PTR const unsigned char  size(2) Largest target is 0

    f...source	PTR const unsigned char  size(2) Largest target is 0

    S4980$buffer	PTR unsigned char  size(2) Largest target is 0

    f...buffer	PTR unsigned char  size(2) Largest target is 0

    memset@dest	PTR void  size(2) Largest target is 11
		 -> result_txt(BANK1[11]), 

    memset@s	PTR unsigned char  size(2) Largest target is 11
		 -> result_txt(BANK1[11]), 

    EUSART_OverrunErrorHandler	PTR FTN()void  size(2) Largest target is 1
		 -> NULL(), 

    EUSART_FramingErrorHandler	PTR FTN()void  size(2) Largest target is 1
		 -> NULL(), 

    EUSART_RxInterruptHandler	PTR FTN()void  size(2) Largest target is 1
		 -> NULL(), 

    EUSART_ASYNC_RX_Init@_eusart.EUSART_OverrunErrorHandler	PTR FTN()void  size(2) Largest target is 0

    EUSART_ASYNC_RX_Init@_eusart.EUSART_FramingErrorHandler	PTR FTN()void  size(2) Largest target is 0

    EUSART_ASYNC_RX_Init@_eusart.EUSART_RxDefaultInterruptHandler	PTR FTN()void  size(2) Largest target is 0

    EUSART_ASYNC_RX_Init@_eusart.EUSART_TxDefaultInterruptHandler	PTR FTN()void  size(2) Largest target is 0

    EUSART_TxInterruptHandler	PTR FTN()void  size(2) Largest target is 1
		 -> NULL(), 

    EUSART_ASYNC_TX_Init@_eusart.EUSART_OverrunErrorHandler	PTR FTN()void  size(2) Largest target is 0

    EUSART_ASYNC_TX_Init@_eusart.EUSART_FramingErrorHandler	PTR FTN()void  size(2) Largest target is 0

    EUSART_ASYNC_TX_Init@_eusart.EUSART_RxDefaultInterruptHandler	PTR FTN()void  size(2) Largest target is 0

    EUSART_ASYNC_TX_Init@_eusart.EUSART_TxDefaultInterruptHandler	PTR FTN()void  size(2) Largest target is 0

    S4038$EUSART_OverrunErrorHandler	PTR FTN()void  size(2) Largest target is 0

    EUSART_Baud_Rate_Calculation@_eusart.EUSART_OverrunErrorHandler	PTR FTN()void  size(2) Largest target is 0

    S4038$EUSART_FramingErrorHandler	PTR FTN()void  size(2) Largest target is 0

    EUSART_Baud_Rate_Calculation@_eusart.EUSART_FramingErrorHandler	PTR FTN()void  size(2) Largest target is 0

    S4038$EUSART_RxDefaultInterruptHandler	PTR FTN()void  size(2) Largest target is 0

    EUSART_Baud_Rate_Calculation@_eusart.EUSART_RxDefaultInterruptHandler	PTR FTN()void  size(2) Largest target is 0

    S4038$EUSART_TxDefaultInterruptHandler	PTR FTN()void  size(2) Largest target is 0

    EUSART_Baud_Rate_Calculation@_eusart.EUSART_TxDefaultInterruptHandler	PTR FTN()void  size(2) Largest target is 0

    Timer3_Mode_Select@_timer.TMR3_InterruptHandler	PTR FTN()void  size(2) Largest target is 0

    TMR3_InterruptHandler	PTR FTN()void  size(2) Largest target is 1
		 -> NULL(), 

    S3844$TMR3_InterruptHandler	PTR FTN()void  size(2) Largest target is 0

    Timer3_Init@_timer.TMR3_InterruptHandler	PTR FTN()void  size(2) Largest target is 0

    TMR2_InterruptHandler	PTR FTN()void  size(2) Largest target is 1
		 -> NULL(), 

    S3715$TMR2_InterruptHandler	PTR FTN()void  size(2) Largest target is 0

    Timer2_Init@_timer.TMR2_InterruptHandler	PTR FTN()void  size(2) Largest target is 0

    Timer1_Mode_Select@_timer.TMR1_InterruptHandler	PTR FTN()void  size(2) Largest target is 0

    TMR1_InterruptHandler	PTR FTN()volatile void  size(2) Largest target is 1
		 -> NULL(), 

    S3525$TMR1_InterruptHandler	PTR FTN()void  size(2) Largest target is 0

    Timer1_Init@_timer.TMR1_InterruptHandler	PTR FTN()void  size(2) Largest target is 0

    Timer0_Register_Size_Config@_timer.TMR0_InterruptHandler	PTR FTN()void  size(2) Largest target is 0

    Timer0_Mode_Select@_timer.TMR0_InterruptHandler	PTR FTN()void  size(2) Largest target is 0

    Timer0_Prescaler_Config@_timer.TMR0_InterruptHandler	PTR FTN()void  size(2) Largest target is 0

    TMR0_InterruptHandler	PTR FTN()void  size(2) Largest target is 1
		 -> NULL(), 

    S3360$TMR0_InterruptHandler	PTR FTN()void  size(2) Largest target is 0

    Timer0_Init@_timer.TMR0_InterruptHandler	PTR FTN()void  size(2) Largest target is 0

    MSSP_SPI_Slave_Mode_GPIO_PIN_Configurations@Config.MSSP_SPI_InterruptHandler	PTR FTN()void  size(2) Largest target is 0

    MSSP_SPI_Interrupt_Init@Config.MSSP_SPI_InterruptHandler	PTR FTN()void  size(2) Largest target is 0

    SPI_InterruptHandler	PTR FTN()void  size(2) Largest target is 1
		 -> NULL(), 

    S3023$MSSP_SPI_InterruptHandler	PTR FTN()void  size(2) Largest target is 0

    SPI_Init@Config.MSSP_SPI_InterruptHandler	PTR FTN()void  size(2) Largest target is 0

    Interrupt_INTx_SetInterruptHandler@int_obj.EXT_InterruptHandler	PTR FTN()void  size(2) Largest target is 0

    Interrupt_INTx_Clear_Flag@int_obj.EXT_InterruptHandler	PTR FTN()void  size(2) Largest target is 0

    Interrupt_INTx_Pin_Init@int_obj.EXT_InterruptHandler	PTR FTN()void  size(2) Largest target is 0

    Interrupt_INTx_Edge_Init@int_obj.EXT_InterruptHandler	PTR FTN()void  size(2) Largest target is 0

    Interrupt_INTx_Disable@int_obj.EXT_InterruptHandler	PTR FTN()void  size(2) Largest target is 0

    S2400$EXT_InterruptHandler	PTR FTN()void  size(2) Largest target is 0

    Interrupt_INTx_Enable@int_obj.EXT_InterruptHandler	PTR FTN()void  size(2) Largest target is 0

    S2516$EXT_InterruptHandler_LOW	PTR FTN()void  size(2) Largest target is 0

    Interrupt_RBx_Init@int_obj.EXT_InterruptHandler_LOW	PTR FTN()void  size(2) Largest target is 0

    S2516$EXT_InterruptHandler_HIGH	PTR FTN()void  size(2) Largest target is 0

    Interrupt_RBx_Init@int_obj.EXT_InterruptHandler_HIGH	PTR FTN()void  size(2) Largest target is 0

    RB7_InterruptHandler_LOW	PTR FTN()void  size(2) Largest target is 1
		 -> NULL(), 

    RB7_InterruptHandler_HIGH	PTR FTN()void  size(2) Largest target is 1
		 -> NULL(), 

    RB6_InterruptHandler_LOW	PTR FTN()void  size(2) Largest target is 1
		 -> NULL(), 

    RB6_InterruptHandler_HIGH	PTR FTN()void  size(2) Largest target is 1
		 -> NULL(), 

    RB5_InterruptHandler_LOW	PTR FTN()void  size(2) Largest target is 1
		 -> NULL(), 

    RB5_InterruptHandler_HIGH	PTR FTN()void  size(2) Largest target is 1
		 -> NULL(), 

    RB4_InterruptHandler_LOW	PTR FTN()void  size(2) Largest target is 1
		 -> NULL(), 

    RB4_InterruptHandler_HIGH	PTR FTN()void  size(2) Largest target is 1
		 -> NULL(), 

    INT2_InterruptHandler	PTR FTN()void  size(2) Largest target is 1
		 -> NULL(), 

    INT1_InterruptHandler	PTR FTN()void  size(2) Largest target is 1
		 -> NULL(), 

    INT0_InterruptHandler	PTR FTN()void  size(2) Largest target is 1
		 -> NULL(), 

    I2C_Report_Receive_Overflow_InterruptHandle	PTR FTN()void  size(2) Largest target is 1
		 -> NULL(), 

    MSSP_I2C_Interrupt_Configurations@i2c_obj.I2C_Report_Receive_Overflow	PTR FTN()void  size(2) Largest target is 0

    MSSP_I2C_Interrupt_Configurations@i2c_obj.I2C_DefaultInterruptHandler	PTR FTN()void  size(2) Largest target is 0

    MSSP_I2C_Interrupt_Configurations@i2c_obj.I2C_Report_Write_Collision	PTR FTN()void  size(2) Largest target is 0

    I2C_Slave_Mode_Configurations@i2c_obj.I2C_Report_Receive_Overflow	PTR FTN()void  size(2) Largest target is 0

    I2C_Slave_Mode_Configurations@i2c_obj.I2C_DefaultInterruptHandler	PTR FTN()void  size(2) Largest target is 0

    I2C_Slave_Mode_Configurations@i2c_obj.I2C_Report_Write_Collision	PTR FTN()void  size(2) Largest target is 0

    I2C_Master_Mode_Clock_Configurations@i2c_obj.I2C_Report_Receive_Overflow	PTR FTN()void  size(2) Largest target is 0

    I2C_Master_Mode_Clock_Configurations@i2c_obj.I2C_DefaultInterruptHandler	PTR FTN()void  size(2) Largest target is 0

    I2C_Master_Mode_Clock_Configurations@i2c_obj.I2C_Report_Write_Collision	PTR FTN()void  size(2) Largest target is 0

    I2C_Report_Write_Collision_InterruptHandler	PTR FTN()void  size(2) Largest target is 1
		 -> NULL(), 

    I2C_DefaultInterruptHandle	PTR FTN()void  size(2) Largest target is 1
		 -> NULL(), 

    S1858$I2C_Report_Receive_Overflow	PTR FTN()void  size(2) Largest target is 0

    MSSP_I2C_Init@i2c_obj.I2C_Report_Receive_Overflow	PTR FTN()void  size(2) Largest target is 0

    S1858$I2C_DefaultInterruptHandler	PTR FTN()void  size(2) Largest target is 0

    MSSP_I2C_Init@i2c_obj.I2C_DefaultInterruptHandler	PTR FTN()void  size(2) Largest target is 0

    S1858$I2C_Report_Write_Collision	PTR FTN()void  size(2) Largest target is 0

    MSSP_I2C_Init@i2c_obj.I2C_Report_Write_Collision	PTR FTN()void  size(2) Largest target is 0

    gpio_pin_intialize@_pin_config	PTR const struct . size(2) Largest target is 8
		 -> keypad1.keypad_row_pins(BANK0[4]), keypad1(BANK0[8]), lcd_1.lcd_data(BANK0[4]), lcd_1(BANK0[6]), 

    gpio_pin_read_logic@logic	PTR enum E3462 size(2) Largest target is 1
		 -> Ultrasonic_Calculate_Distance@EchoPinLogic(COMRAM[1]), keypad_get_value@column_logic(COMRAM[1]), button_read_state@Pin_Logic_Status(COMRAM[1]), 

    gpio_pin_read_logic@_pin_config	PTR const struct . size(2) Largest target is 8
		 -> keypad1.keypad_columns_pins(BANK0[4]), keypad1(BANK0[8]), 

    gpio_pin_write_logic@_pin_config	PTR const struct . size(2) Largest target is 8
		 -> keypad1.keypad_row_pins(BANK0[4]), keypad1(BANK0[8]), lcd_1.lcd_data(BANK0[4]), lcd_1(BANK0[6]), 

    gpio_pin_direction_intialize@_pin_config	PTR const struct . size(2) Largest target is 8
		 -> MSSP_SPI_Slave_Mode_GPIO_PIN_Configurations@SPI_SS(COMRAM[1]), MSSP_SPI_Slave_Mode_GPIO_PIN_Configurations@SPI_CLK(COMRAM[1]), MSSP_SPI_Slave_Mode_GPIO_PIN_Configurations@SPI_SDI(COMRAM[1]), MSSP_SPI_Slave_Mode_GPIO_PIN_Configurations@SPI_SDO(COMRAM[1]), 
		 -> MSSP_SPI_Msster_Mode_GPIO_PIN_Configurations@SPI_CLK(COMRAM[1]), MSSP_SPI_Msster_Mode_GPIO_PIN_Configurations@SPI_SDI(COMRAM[1]), MSSP_SPI_Msster_Mode_GPIO_PIN_Configurations@SPI_SDO(COMRAM[1]), keypad1.keypad_columns_pins(BANK0[4]), 
		 -> keypad1.keypad_row_pins(BANK0[4]), keypad1(BANK0[8]), lcd_1.lcd_data(BANK0[4]), lcd_1(BANK0[6]), 

    port_registers	PTR volatile unsigned char [5] size(2) Largest target is 1
		 -> PORTE(BITBIGSFRlllll[1]), PORTD(BITBIGSFRlllll[1]), PORTC(BITBIGSFRlllll[1]), PORTB(BITBIGSFRlllll[1]), 
		 -> PORTA(BITBIGSFRlllll[1]), 

    lat_registers	PTR volatile unsigned char [5] size(2) Largest target is 1
		 -> LATE(BITBIGSFRllllh[1]), LATD(BITBIGSFRllllh[1]), LATC(BITBIGSFRllllh[1]), LATB(BITBIGSFRllllh[1]), 
		 -> LATA(BITBIGSFRlllll[1]), 

    tris_registers	PTR volatile unsigned char [5] size(2) Largest target is 1
		 -> TRISD(ABS[1]), TRISC(ABS[1]), TRISB(ABS[1]), TRISE(ABS[1]), 
		 -> TRISA(BITBIGSFRlllll[1]), 

    CCP_Compare_Mode_Config@_ccp_obj.CCP2_InterruptHandler	PTR FTN()void  size(2) Largest target is 0

    CCP_Compare_Mode_Config@_ccp_obj.CCP1_InterruptHandler	PTR FTN()void  size(2) Largest target is 0

    CCP_Capture_Mode_Config@_ccp_obj.CCP2_InterruptHandler	PTR FTN()void  size(2) Largest target is 0

    CCP_Capture_Mode_Config@_ccp_obj.CCP1_InterruptHandler	PTR FTN()void  size(2) Largest target is 0

    CCP_Mode_Timer_Select@_ccp_obj.CCP2_InterruptHandler	PTR FTN()void  size(2) Largest target is 0

    CCP_Mode_Timer_Select@_ccp_obj.CCP1_InterruptHandler	PTR FTN()void  size(2) Largest target is 0

    CCP_Interrupt_Config@_ccp_obj.CCP2_InterruptHandler	PTR FTN()void  size(2) Largest target is 0

    CCP_Interrupt_Config@_ccp_obj.CCP1_InterruptHandler	PTR FTN()void  size(2) Largest target is 0

    CCP_PWM_Mode_Config@_ccp_obj.CCP2_InterruptHandler	PTR FTN()void  size(2) Largest target is 0

    CCP_PWM_Mode_Config@_ccp_obj.CCP1_InterruptHandler	PTR FTN()void  size(2) Largest target is 0

    CCP2_InterruptHandler	PTR FTN()void  size(2) Largest target is 1
		 -> NULL(), 

    CCP1_InterruptHandler	PTR FTN()void  size(2) Largest target is 1
		 -> NULL(), 

    CCP_PWM_Stop@_ccp_obj.CCP2_InterruptHandler	PTR FTN()void  size(2) Largest target is 0

    CCP_PWM_Stop@_ccp_obj.CCP1_InterruptHandler	PTR FTN()void  size(2) Largest target is 0

    CCP_PWM_Start@_ccp_obj.CCP2_InterruptHandler	PTR FTN()void  size(2) Largest target is 0

    CCP_PWM_Start@_ccp_obj.CCP1_InterruptHandler	PTR FTN()void  size(2) Largest target is 0

    CCP_PWM_Set_Duty@_ccp_obj.CCP2_InterruptHandler	PTR FTN()void  size(2) Largest target is 0

    CCP_PWM_Set_Duty@_ccp_obj.CCP1_InterruptHandler	PTR FTN()void  size(2) Largest target is 0

    CCP_DeInit@_ccp_obj.CCP2_InterruptHandler	PTR FTN()void  size(2) Largest target is 0

    CCP_DeInit@_ccp_obj.CCP1_InterruptHandler	PTR FTN()void  size(2) Largest target is 0

    S1147$CCP2_InterruptHandler	PTR FTN()void  size(2) Largest target is 0

    CCP_Init@_ccp_obj.CCP2_InterruptHandler	PTR FTN()void  size(2) Largest target is 0

    S1147$CCP1_InterruptHandler	PTR FTN()void  size(2) Largest target is 0

    CCP_Init@_ccp_obj.CCP1_InterruptHandler	PTR FTN()void  size(2) Largest target is 0

    configure_voltage_reference@_adc.ADC_InterruptHandler	PTR FTN()void  size(2) Largest target is 0

    select_result_format@_adc.ADC_InterruptHandler	PTR FTN()void  size(2) Largest target is 0

    ADC_GetConversionResult@_adc.ADC_InterruptHandler	PTR FTN()void  size(2) Largest target is 0

    ADC_InterruptHandler	PTR FTN()void  size(2) Largest target is 1
		 -> NULL(), 

    S729$ADC_InterruptHandler	PTR FTN()void  size(2) Largest target is 0

    ADC_Init@_adc.ADC_InterruptHandler	PTR FTN()void  size(2) Largest target is 0

    keypad_get_value@value	PTR unsigned char  size(2) Largest target is 1
		 -> keypad_value(COMRAM[1]), 

    keypad_get_value@_keypad_obj	PTR const struct . size(2) Largest target is 8
		 -> keypad1(BANK0[8]), 

    keypad_initialize@_keypad_obj	PTR const struct . size(2) Largest target is 8
		 -> keypad1(BANK0[8]), 

    lcd_4bit_set_cursor@lcd	PTR const struct . size(2) Largest target is 6
		 -> lcd_1(BANK0[6]), 

    lcd_4bit_send_enable_signal@lcd	PTR const struct . size(2) Largest target is 6
		 -> lcd_1(BANK0[6]), 

    lcd_send_4bits@lcd	PTR const struct . size(2) Largest target is 6
		 -> lcd_1(BANK0[6]), 

    convert_uint32_to_string@str	PTR unsigned char  size(2) Largest target is 11
		 -> result_txt(BANK1[11]), 

    sp__memset	PTR void  size(2) Largest target is 11
		 -> result_txt(BANK1[11]), 

    lcd_4bit_clear@lcd	PTR const struct . size(2) Largest target is 6
		 -> lcd_1(BANK0[6]), 

    lcd_4bit_send_string_pos@str	PTR unsigned char  size(2) Largest target is 21
		 -> result_txt(BANK1[11]), STR_8(CODE[21]), STR_7(CODE[10]), STR_6(CODE[10]), 
		 -> STR_5(CODE[8]), STR_4(CODE[8]), 

    lcd_4bit_send_string_pos@lcd	PTR const struct . size(2) Largest target is 6
		 -> lcd_1(BANK0[6]), 

    lcd_4bit_send_char_data_pos@lcd	PTR const struct . size(2) Largest target is 6
		 -> lcd_1(BANK0[6]), 

    lcd_4bit_send_char_data@lcd	PTR const struct . size(2) Largest target is 6
		 -> lcd_1(BANK0[6]), 

    lcd_4bit_send_command@lcd	PTR const struct . size(2) Largest target is 6
		 -> lcd_1(BANK0[6]), 

    lcd_4bit_intialize@lcd	PTR const struct . size(2) Largest target is 6
		 -> lcd_1(BANK0[6]), 


Critical Paths under _main in COMRAM

    _main->_calculate
    _loading_screen->_lcd_4bit_send_string_pos
    _lcd_4bit_send_char_data_pos->_lcd_4bit_set_cursor
    _lcd_write->_lcd_4bit_send_char_data
    _lcd_4bit_clear->_lcd_4bit_send_command
    _keypad_get_value->_gpio_pin_read_logic
    _keypad_get_value->_gpio_pin_write_logic
    _calculate->_convert_uint32_to_string
    _lcd_4bit_send_string_pos->_lcd_4bit_set_cursor
    _lcd_4bit_set_cursor->_lcd_4bit_send_command
    _lcd_4bit_send_char_data->_lcd_send_4bits
    _convert_uint32_to_string->_sprintf
    _sprintf->_vfprintf
    _vfprintf->_vfpfcnvrt
    _vfpfcnvrt->_dtoa
    _dtoa->_pad
    _pad->_fputs
    _fputs->_fputc
    _abs->___awmod
    _ecu_layer_init->_lcd_4bit_intialize
    _lcd_4bit_intialize->_lcd_4bit_send_command
    _lcd_4bit_send_command->_lcd_send_4bits
    _lcd_send_4bits->_gpio_pin_write_logic
    _lcd_4bit_send_enable_signal->_gpio_pin_write_logic
    _keypad_initialize->_gpio_pin_intialize
    _gpio_pin_intialize->_gpio_pin_write_logic

Critical Paths under _InterruptManager in COMRAM

    _InterruptManager->_RB4_ISR
    _InterruptManager->_RB5_ISR
    _InterruptManager->_RB6_ISR
    _InterruptManager->_RB7_ISR

Critical Paths under _main in BANK0

    None.

Critical Paths under _InterruptManager in BANK0

    None.

Critical Paths under _main in BANK1

    None.

Critical Paths under _InterruptManager in BANK1

    None.

Critical Paths under _main in BANK2

    None.

Critical Paths under _InterruptManager in BANK2

    None.

Critical Paths under _main in BANK3

    None.

Critical Paths under _InterruptManager in BANK3

    None.

Critical Paths under _main in BANK4

    None.

Critical Paths under _InterruptManager in BANK4

    None.

Critical Paths under _main in BANK5

    None.

Critical Paths under _InterruptManager in BANK5

    None.

Critical Paths under _main in BANK6

    None.

Critical Paths under _InterruptManager in BANK6

    None.

Critical Paths under _main in BANK7

    None.

Critical Paths under _InterruptManager in BANK7

    None.

Critical Paths under _main in BANK8

    None.

Critical Paths under _InterruptManager in BANK8

    None.

Critical Paths under _main in BANK9

    None.

Critical Paths under _InterruptManager in BANK9

    None.

Critical Paths under _main in BANK10

    None.

Critical Paths under _InterruptManager in BANK10

    None.

Critical Paths under _main in BANK11

    None.

Critical Paths under _InterruptManager in BANK11

    None.

Critical Paths under _main in BANK12

    None.

Critical Paths under _InterruptManager in BANK12

    None.

Critical Paths under _main in BANK13

    None.

Critical Paths under _InterruptManager in BANK13

    None.

Critical Paths under _main in BANK14

    None.

Critical Paths under _InterruptManager in BANK14

    None.

Critical Paths under _main in BANK15

    None.

Critical Paths under _InterruptManager in BANK15

    None.

Call Graph Tables:

 ---------------------------------------------------------------------------------
 (Depth) Function   	        Calls       Base Space   Used Autos Params    Refs
 ---------------------------------------------------------------------------------
 (0) _main                                                 3     3      0  249416
                                              0 BANK0      2     2      0
                             ___lmul
             _application_initialize
                          _calculate
                            _isdigit
                   _keypad_get_value
                     _lcd_4bit_clear
           _lcd_4bit_send_string_pos
                          _lcd_write
                     _loading_screen
 ---------------------------------------------------------------------------------
 (1) _loading_screen                                       4     4      0   78813
                                             34 COMRAM     4     4      0
        _lcd_4bit_send_char_data_pos
           _lcd_4bit_send_string_pos
 ---------------------------------------------------------------------------------
 (2) _lcd_4bit_send_char_data_pos                          6     1      5   38740
                                             27 COMRAM     6     1      5
            _lcd_4bit_send_char_data
                _lcd_4bit_set_cursor
 ---------------------------------------------------------------------------------
 (1) _lcd_write                                            4     4      0   17781
                                             20 COMRAM     3     3      0
            _lcd_4bit_send_char_data
 ---------------------------------------------------------------------------------
 (1) _lcd_4bit_clear                                       3     1      2   19855
                                             20 COMRAM     3     1      2
              _lcd_4bit_send_command
 ---------------------------------------------------------------------------------
 (1) _keypad_get_value                                    11     7      4    6567
                                             12 COMRAM    11     7      4
                _gpio_pin_read_logic
               _gpio_pin_write_logic
 ---------------------------------------------------------------------------------
 (2) _gpio_pin_read_logic                                 10     6      4     764
                                              2 COMRAM    10     6      4
 ---------------------------------------------------------------------------------
 (1) _isdigit                                              4     2      2     237
                                              2 COMRAM     4     2      2
 ---------------------------------------------------------------------------------
 (1) _calculate                                            3     3      0   48489
                                             93 COMRAM     2     2      0
                            ___lldiv
                             ___lmul
           _convert_uint32_to_string
           _lcd_4bit_send_string_pos
 ---------------------------------------------------------------------------------
 (2) _lcd_4bit_send_string_pos                             7     1      6   39979
                                             27 COMRAM     7     1      6
            _lcd_4bit_send_char_data
                _lcd_4bit_set_cursor
 ---------------------------------------------------------------------------------
 (3) _lcd_4bit_set_cursor                                  7     3      4   20240
                                             20 COMRAM     7     3      4
              _lcd_4bit_send_command
 ---------------------------------------------------------------------------------
 (3) _lcd_4bit_send_char_data                              4     1      3   17734
                                             16 COMRAM     4     1      3
               _gpio_pin_write_logic
        _lcd_4bit_send_enable_signal
                     _lcd_send_4bits
 ---------------------------------------------------------------------------------
 (2) _convert_uint32_to_string                             7     1      6    7518
                                             86 COMRAM     7     1      6
                             _memset
                            _sprintf
 ---------------------------------------------------------------------------------
 (3) _sprintf                                             24    16      8    5851
                                             64 COMRAM    22    14      8
                           _vfprintf
 ---------------------------------------------------------------------------------
 (4) _vfprintf                                             8     2      6    5196
                                             56 COMRAM     8     2      6
                          _vfpfcnvrt
 ---------------------------------------------------------------------------------
 (5) _vfpfcnvrt                                           19    13      6    4846
                                             42 COMRAM    14     8      6
                               _dtoa
                              _fputc
 ---------------------------------------------------------------------------------
 (6) _dtoa                                                13     9      4    3626
                                             29 COMRAM    13     9      4
                            ___awdiv
                            ___awmod
                                _abs
                                _pad
 ---------------------------------------------------------------------------------
 (7) _pad                                                 11     5      6    1999
                                             18 COMRAM    11     5      6
                              _fputc
                              _fputs
 ---------------------------------------------------------------------------------
 (8) _fputs                                                7     3      4     931
                                             11 COMRAM     7     3      4
                              _fputc
 ---------------------------------------------------------------------------------
 (6) _fputc                                                9     5      4     682
                                              2 COMRAM     9     5      4
                              _putch
 ---------------------------------------------------------------------------------
 (7) _putch                                                1     1      0       0
 ---------------------------------------------------------------------------------
 (7) _abs                                                  4     2      2     142
                                              8 COMRAM     4     2      2
                            ___awmod (ARG)
 ---------------------------------------------------------------------------------
 (7) ___awmod                                              6     2      4     448
                                              2 COMRAM     6     2      4
 ---------------------------------------------------------------------------------
 (7) ___awdiv                                              8     4      4     452
                                              2 COMRAM     8     4      4
 ---------------------------------------------------------------------------------
 (3) _memset                                              12     6      6    1403
                                              2 COMRAM    12     6      6
 ---------------------------------------------------------------------------------
 (2) ___lmul                                              12     4      8     674
                                              2 COMRAM    12     4      8
 ---------------------------------------------------------------------------------
 (2) ___lldiv                                             13     5      8     314
                                              2 COMRAM    13     5      8
 ---------------------------------------------------------------------------------
 (1) _application_initialize                               1     1      0   37006
                     _ecu_layer_init
 ---------------------------------------------------------------------------------
 (2) _ecu_layer_init                                       1     1      0   37005
                  _keypad_initialize
                 _lcd_4bit_intialize
 ---------------------------------------------------------------------------------
 (3) _lcd_4bit_intialize                                   6     4      2   27815
                                             20 COMRAM     6     4      2
                 _gpio_pin_intialize
              _lcd_4bit_send_command
 ---------------------------------------------------------------------------------
 (4) _lcd_4bit_send_command                                4     1      3   19558
                                             16 COMRAM     4     1      3
               _gpio_pin_write_logic
        _lcd_4bit_send_enable_signal
                     _lcd_send_4bits
 ---------------------------------------------------------------------------------
 (5) _lcd_send_4bits                                       4     1      3    6006
                                             12 COMRAM     4     1      3
               _gpio_pin_write_logic
 ---------------------------------------------------------------------------------
 (5) _lcd_4bit_send_enable_signal                          3     1      2    5568
                                             12 COMRAM     3     1      2
               _gpio_pin_write_logic
 ---------------------------------------------------------------------------------
 (3) _keypad_initialize                                    7     5      2    9187
                                             16 COMRAM     7     5      2
       _gpio_pin_direction_intialize
                 _gpio_pin_intialize
 ---------------------------------------------------------------------------------
 (4) _gpio_pin_intialize                                   4     2      2    7790
                                             12 COMRAM     4     2      2
       _gpio_pin_direction_intialize
               _gpio_pin_write_logic
 ---------------------------------------------------------------------------------
 (6) _gpio_pin_write_logic                                10     7      3    5195
                                              2 COMRAM    10     7      3
 ---------------------------------------------------------------------------------
 (5) _gpio_pin_direction_intialize                         9     7      2    1091
                                              2 COMRAM     9     7      2
 ---------------------------------------------------------------------------------
 Estimated maximum stack depth 8
 ---------------------------------------------------------------------------------
 (Depth) Function   	        Calls       Base Space   Used Autos Params    Refs
 ---------------------------------------------------------------------------------
 (11) _InterruptManager                                    1     1      0     176
                                              1 COMRAM     1     1      0
                            _ADC_ISR
                           _CCP1_ISR
                           _CCP2_ISR
                      _EUSART_RX_ISR
                      _EUSART_TX_ISR
                           _INT0_ISR
                           _INT1_ISR
                           _INT2_ISR
                    _MSSP_I2C_BC_ISR
                       _MSSP_I2C_ISR
                       _MSSP_SPI_ISR
                            _RB4_ISR
                            _RB5_ISR
                            _RB6_ISR
                            _RB7_ISR
                           _TMR0_ISR
                           _TMR1_ISR
                           _TMR2_ISR
                           _TMR3_ISR
 ---------------------------------------------------------------------------------
 (12) _TMR3_ISR                                            0     0      0       0
 ---------------------------------------------------------------------------------
 (12) _TMR2_ISR                                            0     0      0       0
 ---------------------------------------------------------------------------------
 (12) _TMR1_ISR                                            0     0      0       0
 ---------------------------------------------------------------------------------
 (12) _TMR0_ISR                                            0     0      0       0
 ---------------------------------------------------------------------------------
 (12) _RB7_ISR                                             1     1      0      44
                                              0 COMRAM     1     1      0
 ---------------------------------------------------------------------------------
 (12) _RB6_ISR                                             1     1      0      44
                                              0 COMRAM     1     1      0
 ---------------------------------------------------------------------------------
 (12) _RB5_ISR                                             1     1      0      44
                                              0 COMRAM     1     1      0
 ---------------------------------------------------------------------------------
 (12) _RB4_ISR                                             1     1      0      44
                                              0 COMRAM     1     1      0
 ---------------------------------------------------------------------------------
 (12) _MSSP_SPI_ISR                                        0     0      0       0
 ---------------------------------------------------------------------------------
 (12) _MSSP_I2C_ISR                                        0     0      0       0
 ---------------------------------------------------------------------------------
 (12) _MSSP_I2C_BC_ISR                                     0     0      0       0
 ---------------------------------------------------------------------------------
 (12) _INT2_ISR                                            0     0      0       0
 ---------------------------------------------------------------------------------
 (12) _INT1_ISR                                            0     0      0       0
 ---------------------------------------------------------------------------------
 (12) _INT0_ISR                                            0     0      0       0
 ---------------------------------------------------------------------------------
 (12) _EUSART_TX_ISR                                       0     0      0       0
 ---------------------------------------------------------------------------------
 (12) _EUSART_RX_ISR                                       0     0      0       0
 ---------------------------------------------------------------------------------
 (12) _CCP2_ISR                                            0     0      0       0
 ---------------------------------------------------------------------------------
 (12) _CCP1_ISR                                            0     0      0       0
 ---------------------------------------------------------------------------------
 (12) _ADC_ISR                                             0     0      0       0
 ---------------------------------------------------------------------------------
 Estimated maximum stack depth 12
 ---------------------------------------------------------------------------------

 Call Graph Graphs:

 _main (ROOT)
   ___lmul
   _application_initialize
     _ecu_layer_init
       _keypad_initialize
         _gpio_pin_direction_intialize
         _gpio_pin_intialize
           _gpio_pin_direction_intialize
           _gpio_pin_write_logic
       _lcd_4bit_intialize
         _gpio_pin_intialize
         _lcd_4bit_send_command
           _gpio_pin_write_logic
           _lcd_4bit_send_enable_signal
             _gpio_pin_write_logic
           _lcd_send_4bits
             _gpio_pin_write_logic
   _calculate
     ___lldiv
     ___lmul
     _convert_uint32_to_string
       _memset
       _sprintf
         _vfprintf
           _vfpfcnvrt
             _dtoa
               ___awdiv
               ___awmod
               _abs
                 ___awmod (ARG)
               _pad
                 _fputc
                   _putch
                 _fputs
                   _fputc
             _fputc
     _lcd_4bit_send_string_pos
       _lcd_4bit_send_char_data
         _gpio_pin_write_logic
         _lcd_4bit_send_enable_signal
         _lcd_send_4bits
       _lcd_4bit_set_cursor
         _lcd_4bit_send_command
   _isdigit
   _keypad_get_value
     _gpio_pin_read_logic
     _gpio_pin_write_logic
   _lcd_4bit_clear
     _lcd_4bit_send_command
   _lcd_4bit_send_string_pos
   _lcd_write
     _lcd_4bit_send_char_data
   _loading_screen
     _lcd_4bit_send_char_data_pos
       _lcd_4bit_send_char_data
       _lcd_4bit_set_cursor
     _lcd_4bit_send_string_pos

 _InterruptManager (ROOT)
   _ADC_ISR
   _CCP1_ISR
   _CCP2_ISR
   _EUSART_RX_ISR
   _EUSART_TX_ISR
   _INT0_ISR
   _INT1_ISR
   _INT2_ISR
   _MSSP_I2C_BC_ISR
   _MSSP_I2C_ISR
   _MSSP_SPI_ISR
   _RB4_ISR
   _RB5_ISR
   _RB6_ISR
   _RB7_ISR
   _TMR0_ISR
   _TMR1_ISR
   _TMR2_ISR
   _TMR3_ISR

 Address spaces:
Name               Size   Autos  Total    Cost      Usage
BIGRAM             F7F      0       0      49        0.0%
EEDATA             400      0       0       0        0.0%
BITBANK14          100      0       0      33        0.0%
BANK14             100      0       0      34        0.0%
BITBANK13          100      0       0      31        0.0%
BANK13             100      0       0      32        0.0%
BITBANK12          100      0       0      29        0.0%
BANK12             100      0       0      30        0.0%
BITBANK11          100      0       0      27        0.0%
BANK11             100      0       0      28        0.0%
BITBANK10          100      0       0      25        0.0%
BANK10             100      0       0      26        0.0%
BITBANK9           100      0       0      23        0.0%
BANK9              100      0       0      24        0.0%
BITBANK8           100      0       0      21        0.0%
BANK8              100      0       0      22        0.0%
BITBANK7           100      0       0      19        0.0%
BANK7              100      0       0      20        0.0%
BITBANK6           100      0       0      17        0.0%
BANK6              100      0       0      18        0.0%
BITBANK5           100      0       0      15        0.0%
BANK5              100      0       0      16        0.0%
BITBANK4           100      0       0      13        0.0%
BANK4              100      0       0      14        0.0%
BITBANK3           100      0       0      10        0.0%
BANK3              100      0       0      11        0.0%
BITBANK2           100      0       0       8        0.0%
BANK2              100      0       0       9        0.0%
BITBANK1           100      0       0       6        0.0%
BANK1              100      0      35       7       20.7%
BITBANK15           80      0       0      35        0.0%
BANK15              80      0       0      36        0.0%
BITBANK0            80      0       0       4        0.0%
BANK0               80      2      7B       5       96.1%
BITCOMRAM           7E      0       0       0        0.0%
COMRAM              7E     5F      7B       1       97.6%
BITBIGSFRhlhhlh     18      0       0      38        0.0%
BITBIGSFRhh          D      0       0      37        0.0%
BITBIGSFRlllhh       6      0       0      46        0.0%
BITBIGSFRhlhhll      5      0       0      39        0.0%
BITBIGSFRllhllh      4      0       0      43        0.0%
BITBIGSFRllllh       4      0       0      47        0.0%
BITBIGSFRllhllh      4      0       0      44        0.0%
BITBIGSFRlllll       4      0       0      48        0.0%
BITBIGSFRllhllh      1      0       0      42        0.0%
BITBIGSFRllhlh       1      0       0      41        0.0%
BITBIGSFRllhh        1      0       0      40        0.0%
BITBIGSFRllhlll      1      0       0      45        0.0%
BIGSFR               0      0       0     200        0.0%
BITSFR               0      0       0     200        0.0%
SFR                  0      0       0     200        0.0%
STACK                0      0       0       2        0.0%
NULL                 0      0       0       0        0.0%
ABS                  0      0     12B      12        0.0%
DATA                 0      0     12B       3        0.0%
CODE                 0      0       0       0        0.0%


Microchip Technology PIC18 Macro Assembler V2.41 build 20230208172133 
Symbol Table                                                                                   Tue Nov 28 11:40:30 2023

                               ??_InterruptManager 0002                                    ?_lcd_send_4bits 000D  
                                      _SSPSTATbits 0FC7                                                 l74 290C  
                                               l84 2B8E                                                 l69 1FE4  
                                               l79 289A                                       ___awdiv@sign 0008  
                                 ??_loading_screen 0023                                  lcd_4bit_clear@lcd 0015  
                                lcd_4bit_clear@ret 0017                                                l100 26A0  
                                              l208 255C                                                l156 2D3C  
                                              l253 27AE                                                l182 2A4A  
                                              l185 2C88                                                l355 2D56  
                                              l179 2AAC                                                l267 2104  
                                              l718 1C64                                                l744 2404  
                                              l737 1EBC                                                l758 2978  
                                              _PR2 0FCB                               keypad_initialize@ret 0015  
                                              _abs 2C14                                                _pad 27B0  
                        _RB5_InterruptHandler_HIGH 00AC                                    __end_of_ADC_ISR 2E34  
              __end_of_lcd_4bit_send_enable_signal 2C8A                        _lcd_4bit_send_enable_signal 2C54  
                                     ___awmod@sign 0008                                                prod 0FF3  
                                              wreg 0FE8                        lcd_send_4bits@_data_command 000F  
                        ?_convert_uint32_to_string 0057                                    __end_of_RB4_ISR 2DC0  
                                  __end_of_RB5_ISR 2DA6                                    __end_of_RB6_ISR 2D8C  
                                  __end_of_RB7_ISR 2D72                                               ?_abs 0009  
                                             l2083 2292                                               l2096 24B4  
                                             l1810 15C4                                               l2611 2C52  
                                             l2604 2AFC                                               l2533 19C6  
                                             l2526 2CEA                                               l2623 21CE  
                                             l2631 2BD2                                               l1815 16B4  
                                             l2608 2C4A                                               l6000 179C  
                                             l1832 234C                                               l1825 2E08  
                                             l2634 2E34                                               l6010 17F0  
                                             l6002 17A2                                               l2546 2B48  
                                             l6100 290E                                               l2572 2828  
                                             l6012 180A                                               l6004 17A8  
                                             l2580 1752                                               l1837 2C12  
                                             l6030 1B62                                               l6022 1B22  
                                             l6110 2976                                               l6102 290E  
                                             l6014 181A                                               l6006 17C4  
                                             l1863 29D2                                               l2591 1850  
                                             l1847 1B20                                               l6032 1BC4  
                                             l6024 1B26                                               l6104 2920  
                                             l6120 28B6                                               l1864 29E2  
                                             l2568 27D2                                               l6016 1820  
                                             l6008 17DE                                               l6200 24D8  
                                             l2577 1704                                               l6026 1B38  
                                             l6106 2942                                               l6050 29FA  
                                             l6122 290A                                               l6114 289C  
                                             l6018 1830                                               l6130 2AD6  
                                             l6202 24F0                                               l2579 170C  
                                             l6036 1C20                                               l6028 1B5A  
                                             l6108 294A                                               l6060 2C54  
                                             l6052 2A12                                               l6116 289C  
                                             l6140 1ED4                                               l6220 1870  
                                             l6132 2AF4                                               l6204 2508  
                                             l6300 2376                                               l6038 1C62  
                                             l6062 2C68                                               l6054 2A2C  
                                             l6046 29E4                                               l6118 28AE  
                                             l6150 1F00                                               l6142 1EDC  
                                             l1886 2600                                               l6222 187C  
                                             l2598 1D90                                               l6070 1C66  
                                             l6126 2AAE                                               l6206 2520  
                                             l6302 2398                                               l6310 2B4A  
                                             ?_pad 0013                                               l1879 25F0  
                                             l6064 2C70                                               l6048 29E4  
                                             l6160 1F4C                                               l6152 1F1C  
                                             l6144 1EFC                                               l6136 1EBE  
                                             l6400 298A                                               l6240 199E  
                                             l6232 1924                                               l6216 1852  
                                             l6080 1CBC                                               l6072 1C8C  
                                             l6128 2ABA                                               l6208 255A  
                                             l6304 23A0                                               l6312 2B4A  
                                             l6066 2C86                                               l6058 2C54  
                                             l6170 1FA0                                               l6162 1F6A  
                                             l6154 1F1E                                               l6138 1EC2  
                                             l6410 256E                                               l6402 2998  
                                             l6242 19AA                                               l6234 1950  
                                             l6226 18B2                                               l6090 1D54  
                                             l6082 1CDA                                               l6074 1C9A  
                                             l6250 2B0E                                               l6330 2636  
                                             l6322 2602                                               l6306 2402  
                                             l6314 2B5C                                               l6260 2730  
                                             l6172 1FB0                                               l6164 1F70  
                                             l6156 1F2E                                               l6420 25B0  
                                             l6412 2584                                               l6404 29A8  
                                             l6244 19B0                                               l6228 190A  
                                             l6084 1CF8                                               l6076 1CA8  
                                             l6252 2B16                                               l6332 2668  
                                             l6324 2602                                               l6500 2022  
                                             l6316 2B64                                               l6262 2738  
                                             l6174 1FC0                                               l6166 1F80  
                                             l6158 1F3C                                               l6422 25CE  
                                             l6414 258C                                               l6406 29B2  
                                             l6246 19B4                                               l6238 196A  
                                             l6086 1D3C                                               l6078 1CAC  
                                             l6094 1D66                                               l6254 2B1E  
                                             l6190 2898                                               l6182 282A  
                                             l6334 266C                                               l6326 2614  
                                             l6318 2B8C                                               l6272 2756  
                                             l6264 274A                                               l6176 1FD0  
                                             l6168 1F90                                               l6424 25DE  
                                             l6416 2598                                               l6408 255E  
                                             l6256 2B3A                                               l6248 2AFE  
                                             l6184 282A                                               l6336 269E  
                                             l6328 261C                                               l6520 2064  
                                             l6512 202A                                               l8200 1490  
                                             l6274 2766                                               l6290 27AC  
                                             l6266 2752                                               l6178 1FE2  
                                             l6426 25E0                                               l6418 25A6  
                                             l6186 283C                                               l6194 24B6  
                                             l6530 209E                                               l6522 2074  
                                             l6514 203E                                               l6506 2026  
                                             l8210 14E2                                               l8202 14AC  
                                             l6284 277C                                               l6276 2768  
                                             l6428 25EA                                               l5900 2420  
                                             l6380 2A50                                               l6188 2844  
                                             l6196 24BA                                               l6540 20F2  
                                             l6532 20AE                                               l6516 2040  
                                             l8220 1574                                               l8204 14C6  
                                             l6286 279A                                               l6278 2778  
                                             l5910 2454                                               l5902 2424  
                                             l5830 2118                                               l6382 2A62  
                                             l6198 24C0                                               l6294 234E  
                                             l6534 20DE                                               l6518 2050  
                                             l6542 2102                                               l8230 15C8  
                                             l8222 157C                                               l8214 14F6  
                                             l8206 14D2                                               l6288 279C  
                                             l6392 2D3E                                               l5920 248E  
                                             l5912 245C                                               l5904 2432  
                                             l5832 212A                                               l6384 2A6A  
                                             l6296 2352                                               l6536 20E0  
                                             l6528 2078                                               l6800 2BF8  
                                             l8240 1602                                               l8224 158E  
                                             l8216 151A                                               l8208 14D6  
                                             l6394 2D3E                                               l5850 21D0  
                                             l5914 246A                                               l5922 2494  
                                             l5906 243A                                               l5834 2134  
                                             l5842 2B90                                               l5930 27B0  
                                             l6386 2A86                                               l6378 2A4C  
                                             l6810 1A08                                               l6298 2364  
                                             l6538 20F0                                               l6802 2BFC  
                                             l8250 166E                                               l8226 15A0  
                                             l8218 152A                                               l8340 1EA4  
                                             l6396 2D4A                                               l5860 21FC  
                                             l5852 21D4                                               l5924 24A4  
                                             l5916 2480                                               l5908 244C  
                                             l5836 2152                                               l5828 2106  
                                             l5844 2B9C                                               l5940 27F6  
                                             l5932 27BE                                               l6388 2AAA  
                                             l6820 1A76                                               l6812 1A40  
                                             l6804 19C8                                               l6492 1FE6  
                                             l6484 2D18                                               l8252 1680  
                                             l8244 1650                                               l8236 15D0  
                                             l8228 15B2                                               l8342 1C4C  
                                             l5950 1D96                                               l6398 297A  
                                             l5870 222A                                               l5862 2204  
                                             l5854 21E2                                               l5926 24AC  
                                             l5918 2488                                               l5838 2188  
                                             l5846 2BAE                                               l5942 2814  
                                             l5934 27CA                                               l6814 1A56  
                                             l6806 19CC                                               l6822 1AAE  
                                             l6494 1FF6                                               l6486 2D18  
                                             l8254 168C                                               l8246 1662  
                                             l8238 15F2                                               l5952 1DA8  
                                             l5880 2264                                               l5872 2232  
                                             l5864 2208                                               l5856 21EA  
                                             l5944 2C14                                               l5848 2BB2  
                                             l5936 27DE                                               l8336 1AC2  
                                             l6808 19EA                                               l6824 1AE8  
                                             l6496 2008                                               l6488 2D28  
                                             l6760 2294                                               l8248 1666  
                                             l5962 1E90                                               l5954 1DCA  
                                             l5890 228A                                               l5882 2266  
                                             l5874 2240                                               l5866 2210  
                                             l5858 21EE                                               l5946 2C2E  
                                             l5938 27F2                                               l8338 2534  
                                             l6826 1B04                                               l6498 201A  
                                             l6762 22B0                                               l5956 1DD2  
                                             l5964 1EBA                                               l5948 1D92  
                                             l6756 2E04                                               l5884 226C  
                                             l5876 2246                                               l5868 2222  
                                             l5980 16F8                                               l5972 16BC  
                                             l6780 22FE                                               l6772 22B8  
                                             l6764 22B0                                               l8196 148C  
                                             l5958 1E34                                               l6758 2E04  
                                             l5878 225C                                               l5886 2272  
                                             l5894 2406                                               l5990 1746  
                                             l5982 1714                                               l5974 16D0  
                                             l6790 2CC0                                               l6782 231A  
                                             l6774 22BA                                               l6766 22B4  
                                             l8198 148C                                               l5888 2282  
                                             l5896 240A                                               l5992 174E  
                                             l5984 1724                                               l5976 16E0  
                                             l6784 231E                                               l6776 22D4  
                                             l5898 2418                                               l5994 175A  
                                             l5986 172A                                               l5978 16E8  
                                             l6794 2BD4                                               l6786 2320  
                                             l6778 22EC                                               l5996 1764  
                                             l5988 173A                                               l6796 2BD8  
                                             l6788 2330                                               l5998 176A  
                                             l6798 2BE8                                               STR_1 1040  
                                             STR_3 1040                                               STR_4 1030  
                                             STR_5 1038                                               STR_6 1026  
                                             STR_7 1026                                               STR_8 1011  
                                             _LATA 0F89                                               _LATB 0F8A  
                                             _LATC 0F8B                                               _LATD 0F8C  
                                             _LATE 0F8D                                               u4200 2BD2  
                                             u5000 2050                                               u4201 2BCE  
                                             u5001 204C                                               u4210 21E2  
                                             u5010 20AE                                               u4211 21DE  
                                             u5011 20AA                                               u4220 21FC  
                                             u4300 246A                                               u5020 20F0  
                                             u4221 21F8                                               u4301 2466  
                                             u5021 20EC                                               u4230 2222  
                                             u4310 2480                                               u5030 2102  
                                             u4231 221E                                               u4311 247C  
                                             u5031 20FE                                               u4240 2240  
                                             u4320 24A4                                               u4160 2118  
                                             u4400 16CC                                               u4241 223C  
                                             u4321 24A0                                               u4161 2114  
                                             u4401 16C6                                               u4250 225C  
                                             u4170 212A                                               u4330 27BE  
                                             u4410 16CE                                               u4251 2258  
                                             u4171 2126                                               u4331 27BA  
                                             u4500 1B38                                               u4260 2282  
                                             u4180 2152                                               u4340 2814  
                                             u4420 16E0                                               u5140 22FE  
                                             u4501 1B34                                               u4261 227E  
                                             u4181 214E                                               u4341 2810  
                                             u4421 16DC                                               u5141 22FA  
                                             u4510 1B5A                                               u4270 2418  
                                             u4350 2C2E                                               u4190 2188  
                                             u4430 16F8                                               u5150 2330  
                                             u4511 1B56                                               u4271 2414  
                                             u4351 2C2A                                               u4191 2184  
                                             u4431 16F4                                               u5151 232C  
                                             u4360 1DA8                                               u4600 2942  
                                             u4280 2432                                               u4440 1724  
                                             u5160 2CE4                                               u4361 1DA4  
                                             u4601 293E                                               u4281 242E  
                                             u4441 1720                                               u5161 2CDE  
                                             u4370 1DCA                                               u4610 28AE  
                                             u4290 244C                                               u4450 173A  
                                             u5170 2CE6                                               u4371 1DC6  
                                             u4611 28AA                                               u4291 2448  
                                             u4451 1736                                               u4540 1C38  
                                             u4524 1B82                                               u4700 19C6  
                                             u4460 17DE                                               u4620 2AF4  
                                             u5180 2BE8                                               u4541 1C32  
                                             u4525 1B7E                                               u4701 19C2  
                                             u4461 17DA                                               u4621 2AF0  
                                             u5181 2BE4                                               u4550 1C3A  
                                             u4534 1BE4                                               u4710 274A  
                                             u4630 1ED4                                               u4470 17F0  
                                             u5190 1A56                                               u4535 1BE0  
                                             u4711 2746                                               u4631 1ED0  
                                             u4471 17EC                                               u5191 1A52  
                                             u4384 1DF2                                               u4720 2778  
                                             u4640 1F2E                                               u4480 180A  
                                             u4560 1C8C                                               u4800 2660  
                                             u7200 15F2                                               u4385 1DEE  
                                             u4721 2774                                               u4641 1F2A  
                                             u4481 1806                                               u4561 1C88  
                                             u7201 15EE                                               u4394 1E54  
                                             u4730 27AC                                               u4490 181A  
                                             u4570 1CDA                                               u4650 283C  
                                             u4810 268E                                               u7210 1602  
                                             u4395 1E50                                               u4731 27A8  
                                             u4491 1816                                               u4571 1CD6  
                                             u4651 2838                                               u7211 15FE  
                                             u4900 25A6                                               u4660 186C  
                                             u4580 1CF8                                               u4820 269E  
                                             u4740 2364                                               u7220 1662  
                                             u7140 151A                                               u4901 25A2  
                                             u4661 1868                                               u4581 1CF4  
                                             u4821 269A                                               u4741 2360  
                                             u7221 165E                                               u7141 1516  
                                             u4590 2920                                               u4910 25CE  
                                             u4670 18AE                                               u4750 2376  
                                             u7230 1680                                               u7150 152A  
                                             u4591 291C                                               u4911 25CA  
                                             u4671 18AA                                               u4807 2656  
                                             u4751 2372                                               u7231 167C  
                                             u7151 1526                                               u4680 1920  
                                             u4760 2398                                               u7160 158E  
                                             u4681 191C                                               u4817 2684  
                                             u4761 2394                                               u7161 158A  
                                             u4690 1966                                               u7170 15A0  
                                             u7307 1F6C                                               u4691 1962  
                                             u7171 159C                                               u4860 2A62  
                                             u4780 2B5C                                               u7180 15B2  
                                             u7317 2C6A                                               u4861 2A5E  
                                             u4781 2B58                                               u7181 15AE  
                                             u4870 2998                                               u4790 2614  
                                             u4774 23EE                                               u7190 15C4  
                                             u4871 2994                                               u4791 2610  
                                             u4775 23EA                                               u7191 15C0  
                                             u7247 14B8                                               u4880 29D2  
                                             u4881 29CE                                               u7257 22DE  
                                             u4890 2584                                               u4891 2580  
                                             u7267 2C06                                               u4980 2008  
                                             u7277 206A                                               u4981 2004  
                                             u4990 201A                                               u7287 1F34  
                                             u4991 2016                                               u7297 1F52  
                                             _TMR2 0FCC                      ??_lcd_4bit_send_enable_signal 000F  
                         _RB4_InterruptHandler_LOW 00AE                                               abs@a 0009  
                                             _dbuf 0100                     gpio_pin_read_logic@_pin_config 0003  
                                             _seg1 00E2                                               _main 148C  
                                             _dtoa 16BC                                   __end_of_CCP1_ISR 2E30  
                                             _num1 0064                                               _num2 0060  
                                 __end_of_CCP2_ISR 2E2C                                               _prec 008C  
                         _RB7_InterruptHandler_LOW 00A2                                               pad@i 001A  
                                             pad@p 0017                                               fsr0h 0FEA  
                                             fsr1h 0FE2                                               indf0 0FEF  
                                             fsr2h 0FDA                                               fsr0l 0FE9  
                                             indf2 0FDF                                               fsr1l 0FE1  
                                             pad@w 001C                                               fsr2l 0FD9  
                                             btemp 007C                  lcd_4bit_send_char_data_pos@column 001F  
                                             prodl 0FF3                                               start 000E  
                                     ___param_bank 0000                              _lcd_4bit_send_command 289C  
                                            ??_abs 000B                               _gpio_pin_write_logic 1D92  
                   lcd_4bit_send_string_pos@column 001F                                              ??_pad 0019  
                            lcd_4bit_intialize@lcd 0015                              lcd_4bit_intialize@ret 001A  
                                 __end_of_INT0_ISR 2E24                                   __end_of_INT1_ISR 2E20  
                                 __end_of_INT2_ISR 2E1C                                      _EUSART_RX_ISR 2CEC  
                                    _EUSART_TX_ISR 2E24                                              ?_main 0001  
                                            ?_dtoa 001E                           ??_application_initialize 001B  
                                  __end_of___awdiv 2294                                              _EEADR 0FA9  
                                  __end_of___awmod 24B6                                    __end_of___lldiv 2602  
                                  ___awdiv@divisor 0005                                              i2l481 2E32  
                                            i2l573 2E2E                                              i2l578 2E2A  
                                            i2l955 2E12                                    ___awdiv@counter 0007  
                                            i2l959 2E16                                              _RCREG 0FAE  
                                     vfpfcnvrt@fmt 002D                                              _TMR0H 0FD7  
                                            _TMR1H 0FCF                                              _TMR0L 0FD6  
                                            _TMR1L 0FCE                                              _TMR3H 0FB3  
                                            _TMR3L 0FB2                                              _SPBRG 0FAF  
                                            _PORTA 0F80                                              _PORTB 0F81  
                                            _PORTC 0F82                                              _PORTD 0F83  
                                            _PORTE 0F84                                              _TRISA 0F92  
                                            _TRISB 0F93                                              _TRISC 0F94  
                                            _TRISD 0F95                                              _TRISE 0F96  
                                            _TXREG 0FAD                          lcd_4bit_set_cursor@coulmn 0018  
                              ___lmul@multiplicand 0007                           __end_of_keypad_get_value 2106  
                                 __end_of_TMR0_ISR 2DE6                                   __end_of_TMR1_ISR 2DDA  
                                 __end_of_TMR2_ISR 2E04                                   __end_of_TMR3_ISR 2DCE  
                                            _lcd_1 00F3                                              _lcd_2 012B  
                                            _flags 006C                                              _fputc 2106  
                                            _fputs 2B90                                    __end_of_isdigit 2CEC  
                                            pad@fp 0013                                              _width 008A  
                                            _putch 2E34                                              dtoa@d 0020  
                                            dtoa@i 0028                                              dtoa@p 0024  
                                            dtoa@s 002A                                              dtoa@w 0026  
                                            tablat 0FF5                                              ttemp5 007D  
                                            ttemp6 0080                                              ttemp7 0084  
                                            status 0FD8                                              wtemp8 007D  
                                  __end_of_sprintf 2B4A                  keypad_get_value@l_columns_counter 0017  
                                  __initialization 26A2                                keypad_get_value@ret 0013  
                                     __end_of_main 16BC                                       __end_of_dtoa 1852  
                            ?_gpio_pin_write_logic 0003                                          ??_ADC_ISR 0001  
                                   ?_EUSART_RX_ISR 0001                                     ?_EUSART_TX_ISR 0001  
                         gpio_pin_read_logic@logic 0005                                      _lat_registers 00CE  
                                           ??_main 00F9                                             ??_dtoa 0022  
                                    __activetblptr 0003                              _TMR3_InterruptHandler 0098  
                                        ??_RB4_ISR 0001                                          ??_RB5_ISR 0001  
                                        ??_RB6_ISR 0001                                          ??_RB7_ISR 0001  
                       _EUSART_OverrunErrorHandler 008E                                             ?_fputc 0003  
                                           ?_fputs 000C                                             _ADRESH 0FC4  
                                           _EEADRH 0FAA                                             _ADRESL 0FC3  
                                           _EEDATA 0FA8                                             _CCPR1L 0FBE  
                                           _CCPR2L 0FBB                                             _EECON2 0FA7  
                                 ___awdiv@dividend 0003                                             ?_putch 0001  
                                           i2l1023 2E22                                             i2l1033 2E1A  
                                           i2l1028 2E1E                                             i2l1044 2DBE  
                                           i2l1055 2DA4                                             i2l1066 2D8A  
                                           i2l1260 10EA                                             i2l1077 2D70  
                                           i2l1270 123E                                             i2l1262 112E  
                                           i2l1254 1066                                             i2l1511 2DD8  
                                           i2l1280 1326                                             i2l1272 1282  
                                           i2l1264 1172                                             i2l1256 1086  
                                           i2l1442 2DE4                                             i2l1290 13DC  
                                           i2l1282 1346                                             i2l1274 12C6  
                                           i2l1266 11B6                                             i2l1258 10A6  
                                           i2l1292 1412                                             i2l1284 1366  
                                           i2l1276 12E6                                             i2l1268 11FA  
                                           i2l1606 2DCC                                             i2l1294 1448  
                                           i2l1286 1386                                             i2l1278 1306  
                                           i2l1376 2E0E                                             i2l1296 1468  
                                           i2l1288 13A6                                             i2l1562 2E02  
                                           i2l1299 1488                                             i2l1745 2E26  
                                           i2l1754 2D16                                             i2l6612 2DBE  
                                           i2l6604 2DA8                                             i2l6620 2D90  
                                           i2l6606 2DAA                                             i2l6702 2DDA  
                                           i2l6710 2DCE                                             i2l6640 2D8A  
                                           i2l6632 2D74                                             i2l6704 2DDC  
                                           i2l6712 2DD0                                             i2l7600 1082  
                                           i2l6562 2E30                                             i2l6730 2E24  
                                           i2l6626 2DA4                                             i2l6618 2D8E  
                                           i2l6634 2D76                                             i2l6706 2DE0  
                                           i2l6714 2DD4                                             i2l6722 2DC0  
                                           i2l7610 10D0                                             i2l7602 1094  
                                           i2l6572 2E28                                             i2l6740 2CEC  
                                           i2l6724 2DC2                                             i2l7700 1342  
                                           i2l7620 1114                                             i2l7612 10E0  
                                           i2l7604 10A2                                             i2l6566 2E2C  
                                           i2l6742 2D00                                             i2l6582 2E14  
                                           i2l6654 2D70                                             i2l6646 2D5A  
                                           i2l6718 2DFC                                             i2l6726 2DC8  
                                           i2l7710 1394                                             i2l7702 1354  
                                           i2l7630 1158                                             i2l7622 1124  
                                           i2l7614 10E4                                             i2l7606 10B4  
                                           i2l6736 2CEC                                             i2l6592 2E1C  
                                           i2l6752 2E0A                                             i2l6648 2D5C  
                                           i2l7720 13EA                                             i2l7712 13A2  
                                           i2l7704 1362                                             i2l7640 119C  
                                           i2l7632 1168                                             i2l7624 1128  
                                           i2l7616 10F8                                             i2l7608 10C2  
                                           i2l6746 2D02                                             i2l6586 2E20  
                                           i2l6578 2E10                                             i2l7730 1444  
                                           i2l7722 13F8                                             i2l7714 13B4  
                                           i2l7706 1374                                             i2l7650 11E0  
                                           i2l7642 11AC                                             i2l7634 116C  
                                           i2l7626 113C                                             i2l7618 1106  
                                           i2l6748 2D14                                             i2l7732 1456  
                                           i2l7724 140E                                             i2l7716 13C2  
                                           i2l7708 1382                                             i2l7660 1224  
                                           i2l7652 11F0                                             i2l7644 11B0  
                                           i2l7636 1180                                             i2l7628 114A  
                                           i2l6598 2E18                                             i2l7734 1464  
                                           i2l7726 1420                                             i2l7718 13D8  
                                           i2l7670 1268                                             i2l7662 1234  
                                           i2l7654 11F4                                             i2l7646 11C4  
                                           i2l7638 118E                                             i2l7736 1476  
                                           i2l7728 142E                                             i2l7680 12AC  
                                           i2l7672 1278                                             i2l7664 1238  
                                           i2l7656 1208                                             i2l7648 11D2  
                                           i2l7592 1046                                             i2l7738 1484  
                                           i2l7690 12F4                                             i2l7682 12BC  
                                           i2l7674 127C                                             i2l7666 124C  
                                           i2l7658 1216                                             i2l7594 1054  
                                           i2l7692 1302                                             i2l7684 12C0  
                                           i2l7676 1290                                             i2l7668 125A  
                                           i2l7596 1062                                             i2l7694 1314  
                                           i2l7686 12D4                                             i2l7678 129E  
                                           i2l7598 1074                                             i2l7696 1322  
                                           i2l7688 12E2                                             i2l7698 1334  
                                           _SPBRGH 0FB0                                             _SSPADD 0FC8  
                                           _SSPBUF 0FC9                          keypad_get_value@l_counter 0015  
                 __end_of_lcd_4bit_send_string_pos 26A2                             ?_lcd_4bit_send_command 0011  
                                     vfprintf@cfmt 003F                                             ___lmul 297A  
                                        ??___awdiv 0007                                          ??___awmod 0007  
                                        ??___lldiv 000B                                             _memset 1852  
                                           clear_0 2708                                             clear_1 2714  
                                           clear_2 2720                                   ___awdiv@quotient 0009  
                                  ___awmod@divisor 0005                                             isa$std 0001  
                                           _result 0086                                    ___awmod@counter 0007  
                                           pad@buf 0015                                             dtoa@fp 001E  
          gpio_pin_direction_intialize@_pin_config 0003        _I2C_Report_Receive_Overflow_InterruptHandle 00B8  
                                           fputc@c 0003                                          ?_CCP1_ISR 0001  
                                           fputs@c 0010                                             fputs@i 0011  
                                     __pdataCOMRAM 0071                                          ?_CCP2_ISR 0001  
                                           fputs@s 000C                                          ??_isdigit 0005  
                                     __mediumconst 0000                                             tblptrh 0FF7  
                                           tblptrl 0FF6                                             tblptru 0FF8  
                                           putch@c 0001                                   __end_of_vfprintf 2AFE  
                                        ??_sprintf 0049                                         __accesstop 0080  
                          __end_of__initialization 2726                                          ?_INT0_ISR 0001  
                                        ?_INT1_ISR 0001                                          ?_INT2_ISR 0001  
                                    ___rparam_used 0001                                   ??_lcd_send_4bits 0010  
                          _lcd_4bit_send_char_data 282A                                  RB5_ISR@RB5_Source 0001  
                           ??_gpio_pin_write_logic 0006                                     __pcstackCOMRAM 0001  
                       _I2C_DefaultInterruptHandle 00BA                                       __pidataBANK0 2C8A  
                                     __pidataBANK1 2DF1                                          ?_TMR0_ISR 0001  
                                  ??_EUSART_RX_ISR 0001                                          ?_TMR1_ISR 0001  
                                        ?_TMR2_ISR 0001                                          ?_TMR3_ISR 0001  
                                  ??_EUSART_TX_ISR 0001                                      __end_of_fputc 21D0  
                                    __end_of_fputs 2BD4                                      __end_of_putch 2E36  
                         lcd_4bit_send_command@lcd 0011                           lcd_4bit_send_command@ret 0014  
                                       ??_CCP1_ISR 0001                                         ??_CCP2_ISR 0001  
                     ?_lcd_4bit_send_char_data_pos 001C                                            ??_fputc 0007  
                                       _dc_motor_1 00E9                                         _dc_motor_2 00E7  
                                          ??_fputs 0010                                            ??_putch 0003  
                                       __pbssBANK0 0080                                         __pbssBANK1 0100  
                            _INT0_InterruptHandler 00B6                                         ??_INT0_ISR 0001  
                                       ??_INT1_ISR 0001                                         ??_INT2_ISR 0001  
                           _application_initialize 2E04                                            ?___lmul 0003  
                                       ??_TMR0_ISR 0001                                         ??_TMR1_ISR 0001  
                                       ??_TMR2_ISR 0001                                         ??_TMR3_ISR 0001  
                      convert_uint32_to_string@ret 005D                                            _ADC_ISR 2E30  
                      convert_uint32_to_string@str 005B                                            ?_memset 0003  
                                   ___lmul@product 000B                                  RB7_ISR@RB7_Source 0001  
                                   _lcd_4bit_clear 2D18                                            _RB4_ISR 2DA6  
                                          _RB5_ISR 2D8C                                            _RB6_ISR 2D72  
                                          _RB7_ISR 2D58                          ?_lcd_4bit_send_string_pos 001C  
                        _RB6_InterruptHandler_HIGH 00A8                                      ?_MSSP_I2C_ISR 0001  
                                ?_keypad_get_value 000D                                  __end_of_calculate 1B22  
                               ??_keypad_get_value 0011                                         _btn_values 1001  
                                   _tris_registers 00D8                           _RB6_InterruptHandler_LOW 00A6  
                        ??_lcd_4bit_send_char_data 0014                                      ?_MSSP_SPI_ISR 0001  
                                ??_MSSP_I2C_BC_ISR 0001                               _ADC_InterruptHandler 00C2  
                                          __Hparam 0000                                            __Lparam 0000  
                             _SPI_InterruptHandler 00A0                                            ___awdiv 21D0  
                              _gpio_pin_read_logic 234E                                            ___awmod 2406  
                                __end_of_lcd_write 2C14                                            ___lldiv 255E  
                                        ?_vfprintf 0039                   keypad_initialize@columns_counter 0017  
                                     __psmallconst 1000                             __end_of_lcd_4bit_clear 2D3E  
                       __end_of_gpio_pin_intialize 297A                                            __pcinit 26A2  
                                          __ramtop 1000                                            __ptext0 148C  
                                          __ptext1 2294                                            __ptext2 2B4A  
                                          __ptext3 2BD4                                            __ptext4 2D18  
                                          __ptext5 1FE6                                            __ptext6 234E  
                                          __ptext7 2CC0                                            __ptext8 19C8  
                                          __ptext9 2602                                          _T0CONbits 0FD5  
                                        _T1CONbits 0FCD                           _convert_uint32_to_string 2A4C  
                                   ??_MSSP_I2C_ISR 0001                                          _T2CONbits 0FCA  
                                          _keypad1 00EB                                            _isdigit 2CC0  
                                        _T3CONbits 0FB1                                   ___awmod@dividend 0003  
                             ?_gpio_pin_read_logic 0003                                            _sprintf 2AFE  
            lcd_4bit_intialize@l_data_pins_counter 0019                                     __pintcode_body 1044  
                             end_of_initialization 2726                                  lcd_send_4bits@lcd 000D  
                                lcd_send_4bits@ret 0010                                            fputc@fp 0005  
                                          memset@c 0005                                            memset@k 000B  
                                          memset@n 0007                                            memset@s 000D  
                                          int_func 1044                                            fputs@fp 000E  
                                   ??_MSSP_SPI_ISR 0001                         __end_of_lcd_4bit_intialize 1FE6  
                          ??_lcd_4bit_send_command 0014                                    ___lldiv@divisor 0007  
                            gpio_pin_intialize@ret 0010                                    ___lldiv@counter 000F  
                                __end_of_vfpfcnvrt 1D92                                          _RCSTAbits 0FAB  
                                          postdec1 0FE5                                            postdec2 0FDD  
                                          postinc0 0FEE                                            postinc1 0FE6  
                                          postinc2 0FDE                                   vfpfcnvrt@convarg 0033  
                                       ??_vfprintf 003F                                     _ecu_layer_init 2D3E  
                                  ?_lcd_4bit_clear 0015                                         _result_txt 0120  
                  __end_of_lcd_4bit_send_char_data 289C                              _INT1_InterruptHandler 00B4  
                                        _PORTBbits 0F81                                   _InterruptManager 0008  
                    gpio_pin_intialize@_pin_config 000D                       keypad_get_value@column_logic 0014  
                       lcd_4bit_send_char_data@lcd 0011                         lcd_4bit_send_char_data@ret 0014  
             __end_of_gpio_pin_direction_intialize 1C66                       _gpio_pin_direction_intialize 1B22  
                                        _TRISCbits 0F94                              ??_gpio_pin_read_logic 0007  
                  lcd_4bit_send_char_data_pos@data 0020                                        _CCP1CONbits 0FBD  
                                      _CCP2CONbits 0FBA                                          _TXSTAbits 0FAC  
                              _lcd_4bit_set_cursor 24B6                        lcd_4bit_send_string_pos@lcd 001C  
                      lcd_4bit_send_string_pos@ret 0022                        lcd_4bit_send_string_pos@row 001E  
                      lcd_4bit_send_string_pos@str 0020                             __end_of_ecu_layer_init 2D58  
                            keypad_get_value@value 000F                      convert_uint16_to_string@F3702 0080  
                                   __end_of___lmul 29E4                                        vfpfcnvrt@ap 002F  
                                      vfpfcnvrt@cp 0037                                        vfpfcnvrt@fp 002B  
                                      _BAUDCONbits 0FB8                                      __pidataCOMRAM 2DE6  
                                   _timer0_preload 006A                                     __end_of_memset 19C8  
                                   _timer1_preload 0068                                     _timer2_preload 006F  
                              start_initialization 26A2                                     _timer3_preload 0096  
                     ?_lcd_4bit_send_enable_signal 000D                               ?_lcd_4bit_set_cursor 0015  
                    convert_uint32_to_string@value 0057                                        __end_of_abs 2C54  
MSSP_SPI_Msster_Mode_GPIO_PIN_Configurations@F3600 0075   MSSP_SPI_Slave_Mode_GPIO_PIN_Configurations@F3611 0071  
 MSSP_SPI_Slave_Mode_GPIO_PIN_Configurations@F3605 0074   MSSP_SPI_Slave_Mode_GPIO_PIN_Configurations@F3607 0073  
 MSSP_SPI_Slave_Mode_GPIO_PIN_Configurations@F3609 0072                                        __end_of_pad 282A  
MSSP_SPI_Msster_Mode_GPIO_PIN_Configurations@F3596 0077  MSSP_SPI_Msster_Mode_GPIO_PIN_Configurations@F3598 0076  
                    ?_gpio_pin_direction_intialize 0003                            ?_application_initialize 0001  
                        _EUSART_RxInterruptHandler 0092                               __end_of_MSSP_I2C_ISR 2E14  
                                      vfprintf@fmt 003B                         _EUSART_FramingErrorHandler 0090  
                                         ??___lmul 000B                                    ?_ecu_layer_init 0001  
                                      __pdataBANK0 00C4                                        __pdataBANK1 012B  
                                         ?_ADC_ISR 0001                                           ??_memset 0009  
                            __end_of_EUSART_RX_ISR 2D18                              __end_of_EUSART_TX_ISR 2E28  
                                       memset@dest 0003                       lcd_4bit_send_command@command 0013  
                             __end_of_MSSP_SPI_ISR 2E10                                           ?_RB4_ISR 0001  
                                         ?_RB5_ISR 0001                                           ?_RB6_ISR 0001  
                                         ?_RB7_ISR 0001                                        __pbssCOMRAM 0060  
                            ??_lcd_4bit_set_cursor 0019        _I2C_Report_Write_Collision_InterruptHandler 00BC  
                                    __pcstackBANK0 00F9                     __end_of_application_initialize 2E0A  
                                   _loading_screen 2294                                    _MSSP_I2C_BC_ISR 2E14  
                            _INT2_InterruptHandler 00B2                                          _calculate 19C8  
                  gpio_pin_direction_intialize@ret 000B                              _TMR0_InterruptHandler 009E  
                    keypad_initialize@rows_counter 0016                                          _dtoa$5060 0022  
                                        __pintcode 0008                         ??_convert_uint32_to_string 005D  
                  gpio_pin_write_logic@_pin_config 0003                                           ?___awdiv 0003  
                                         ?___awmod 0003                                           ?___lldiv 0003  
                        gpio_pin_write_logic@logic 0005                                       _keypad_value 0070  
                                        _lcd_write 2BD4                                        __smallconst 1000  
                        _RB4_InterruptHandler_HIGH 00B0                                           _CCP1_ISR 2E2C  
                                         _CCP2_ISR 2E28                                           ?_isdigit 0003  
                           __end_of_loading_screen 234E                          _RB7_InterruptHandler_HIGH 00A4  
                                         ?_sprintf 0041                                 _gpio_pin_intialize 290E  
                                        _num2_flag 006D                     ??_gpio_pin_direction_intialize 0005  
                         _RB5_InterruptHandler_LOW 00AA                                           _INT0_ISR 2E20  
                                         _INT1_ISR 2E1C                                           _INT2_ISR 2E18  
                                       ?_calculate 0001                                           _RB4_Flag 007B  
                                         _RB5_Flag 007A                                           _RB6_Flag 0079  
                                         _RB7_Flag 0078                                  RB4_ISR@RB4_Source 0001  
                              ?_gpio_pin_intialize 000D                           __end_of_InterruptManager 148C  
                                         _PIE1bits 0F9D                                           _PIE2bits 0FA0  
                    __end_of_lcd_4bit_send_command 290E                                           i2u512_40 2D00  
                                         i2u600_40 1054                                           i2u512_41 2CFC  
                                         i2u600_41 1050                                           i2u513_40 2D14  
                                         i2u505_40 2DBA                                           i2u601_40 1062  
                                         i2u513_41 2D10                                           i2u505_41 2DB6  
                                         i2u601_41 105E                                           _PIR1bits 0F9E  
                                         i2u506_40 2DA0                                           i2u610_40 10F8  
                                         i2u602_40 1074                                           i2u506_41 2D9C  
                                         i2u610_41 10F4                                           i2u602_41 1070  
                                         i2u507_40 2D86                                           i2u611_40 1106  
                                         i2u603_40 1082                                           i2u507_41 2D82  
                                         i2u611_41 1102                                           i2u603_41 107E  
                                         _PIR2bits 0FA1                                           i2u508_40 2D6C  
                                         i2u620_40 119C                                           i2u612_40 1114  
                                         i2u604_40 1094                                           i2u508_41 2D68  
                                         i2u620_41 1198                                           i2u612_41 1110  
                                         i2u604_41 1090                                           i2u621_40 11AC  
                                         i2u613_40 1124                                           i2u605_40 10A2  
                                         i2u621_41 11A8                                           i2u613_41 1120  
                                         i2u605_41 109E                                           i2u630_40 124C  
                                         i2u622_40 11C4                                           i2u614_40 113C  
                                         i2u606_40 10B4                                           i2u630_41 1248  
                                         i2u622_41 11C0                                           i2u614_41 1138  
                                         i2u606_41 10B0                                           i2u631_40 125A  
                                         i2u623_40 11D2                                           i2u615_40 114A  
                                         i2u607_40 10C2                                           i2u631_41 1256  
                                         i2u623_41 11CE                                           i2u615_41 1146  
                                         i2u607_41 10BE                                           i2u640_40 12F4  
                                         i2u632_40 1268                                           i2u624_40 11E0  
                                         i2u616_40 1158                                           i2u608_40 10D0  
                                         i2u640_41 12F0                                           i2u632_41 1264  
                                         i2u624_41 11DC                                           i2u616_41 1154  
                                         i2u608_41 10CC                                           i2u641_40 1302  
                                         i2u633_40 1278                                           i2u625_40 11F0  
                                         i2u617_40 1168                                           i2u609_40 10E0  
                                         i2u641_41 12FE                                           i2u633_41 1274  
                                         i2u625_41 11EC                                           i2u617_41 1164  
                                         i2u609_41 10DC                                           i2u650_40 1394  
                                         i2u642_40 1314                                           i2u634_40 1290  
                                         i2u626_40 1208                                           i2u618_40 1180  
                                         i2u650_41 1390                                           i2u642_41 1310  
                                         i2u634_41 128C                                           i2u626_41 1204  
                                         i2u618_41 117C                                           i2u651_40 13A2  
                                         i2u643_40 1322                                           i2u635_40 129E  
                                         i2u627_40 1216                                           i2u619_40 118E  
                                         i2u651_41 139E                                           i2u643_41 131E  
                                         i2u635_41 129A                                           i2u627_41 1212  
                                         i2u619_41 118A                                           i2u660_40 1444  
                                         i2u652_40 13B4                                           i2u644_40 1334  
                                         i2u636_40 12AC                                           i2u628_40 1224  
                                         i2u660_41 1440                                           i2u652_41 13B0  
                                         i2u644_41 1330                                           i2u636_41 12A8  
                                         i2u628_41 1220                                           i2u661_40 1456  
                                         i2u653_40 13C2                                           i2u645_40 1342  
                                         i2u637_40 12BC                                           i2u629_40 1234  
                                         i2u661_41 1452                                           i2u653_41 13BE  
                                         i2u645_41 133E                                           i2u637_41 12B8  
                                         i2u629_41 1230                                           i2u662_40 1464  
                                         i2u654_40 13D8                                           i2u646_40 1354  
                                         i2u638_40 12D4                                           i2u662_41 1460  
                                         i2u654_41 13D4                                           i2u646_41 1350  
                                         i2u638_41 12D0                                           i2u663_40 1476  
                                         i2u655_40 13EA                                           i2u647_40 1362  
                                         i2u639_40 12E2                                           i2u663_41 1472  
                                         i2u655_41 13E6                                           i2u647_41 135E  
                                         i2u639_41 12DE                                           i2u664_40 1484  
                                         i2u656_40 13F8                                           i2u648_40 1374  
                                         i2u664_41 1480                                           i2u656_41 13F4  
                                         i2u648_41 1370                                   ??_lcd_4bit_clear 0017  
                                         i2u657_40 140E                                           i2u649_40 1382  
                                         i2u657_41 140A                                           i2u649_41 137E  
                                         i2u658_40 1420                                           i2u658_41 141C  
                                         i2u659_40 142E                                           i2u659_41 142A  
                                         _TMR0_ISR 2DDA                                           _TMR1_ISR 2DCE  
                                         _TMR2_ISR 2DFC                                           _TMR3_ISR 2DC0  
                     loading_screen@l_lcd1_counter 0026                                 _lcd_4bit_intialize 1EBE  
                                        _vfpfcnvrt 1C66                           _lcd_4bit_send_string_pos 2602  
                                       _ADCON0bits 0FC2                                         _ADCON1bits 0FC1  
                                       _ADCON2bits 0FC0                                         ?_lcd_write 0001  
                          __end_of_MSSP_I2C_BC_ISR 2E18                               ??_gpio_pin_intialize 000F  
                   lcd_4bit_send_char_data_pos@lcd 001C                     lcd_4bit_send_char_data_pos@ret 0021  
                   lcd_4bit_send_char_data_pos@row 001E                                    ?_loading_screen 0001  
                              ?_lcd_4bit_intialize 0015                __end_of_lcd_4bit_send_char_data_pos 2B90  
                      _lcd_4bit_send_char_data_pos 2B4A                            gpio_pin_write_logic@ret 000C  
                                ___lmul@multiplier 0003                                        _INTCON2bits 0FF1  
                                      _INTCON3bits 0FF0                           ?_lcd_4bit_send_char_data 0011  
                                        copy_data0 26B6                                          copy_data1 26D6  
                                        copy_data2 26F6                                  _keypad_initialize 2730  
                               ?_keypad_initialize 0011                             gpio_pin_read_logic@ret 000C  
                    ??_lcd_4bit_send_char_data_pos 0021                                         _EECON1bits 0FA6  
                             ??_lcd_4bit_intialize 0017                                           __Hrparam 0000  
                                       vfprintf@ap 003D                                           __Lrparam 0000  
                                       vfprintf@fp 0039                                ??_keypad_initialize 0013  
                                RB6_ISR@RB6_Source 0001                              _CCP1_InterruptHandler 00C0  
                           lcd_4bit_set_cursor@lcd 0015                             lcd_4bit_set_cursor@ret 001B  
                                       ?_vfpfcnvrt 002B                             lcd_4bit_set_cursor@row 0017  
                             lcd_write@not_pressed 0017                                 __end_of_btn_values 1011  
                      __end_of_gpio_pin_read_logic 2406                              _TMR1_InterruptHandler 009C  
                      keypad_get_value@_keypad_obj 000D                                         sprintf@fmt 0043  
                                     _MSSP_I2C_ISR 2E10                          __end_of_keypad_initialize 27B0  
                                         __ptext10 24B6                                           __ptext11 282A  
                                         __ptext20 2E34                                           __ptext12 2A4C  
                                         __ptext21 2C14                                           __ptext13 2AFE  
                                         __ptext30 289C                                           __ptext22 2406  
                                         __ptext14 2AAE                                           __ptext31 29E4  
                                         __ptext23 21D0                                           __ptext15 1C66  
                                         __ptext40 2DCE                                           __ptext32 2C54  
                                         __ptext24 1852                                           __ptext16 16BC  
                                         __ptext41 2DDA                                           __ptext33 2730  
                                         __ptext25 297A                                           __ptext17 27B0  
                                         __ptext50 2E1C                                           __ptext42 2D58  
                                         __ptext34 290E                                           __ptext26 255E  
                                         __ptext18 2B90                                           __ptext51 2E20  
                                         __ptext43 2D72                                           __ptext35 1D92  
                                         __ptext27 2E04                                           __ptext19 2106  
                                         __ptext52 2E24                                           __ptext44 2D8C  
                                         __ptext36 1B22                                           __ptext28 2D3E  
                                         __ptext53 2CEC                                           __ptext45 2DA6  
                                         __ptext29 1EBE                                           __ptext54 2E28  
                                         __ptext46 2E0A                                           __ptext38 2DC0  
                                         __ptext55 2E2C                                           __ptext47 2E10  
                                         __ptext39 2DFC                                           __ptext56 2E30  
                                         __ptext48 2E14                                           __ptext49 2E18  
                                      ??_calculate 005E                                       _MSSP_SPI_ISR 2E0A  
                                 ??_ecu_layer_init 001B                                   _keypad_get_value 1FE6  
                                         _operator 006E                   __end_of_convert_uint32_to_string 2AAE  
                                         isa$xinst 0000                                           int$flags 007C  
                                         _vfprintf 2AAE                                     _lcd_send_4bits 29E4  
                                      ??_lcd_write 0015                                   ?_MSSP_I2C_BC_ISR 0001  
                                       _INTCONbits 0FF2                     keypad_get_value@l_rows_counter 0016  
                                         isdigit@c 0003                       __end_of_gpio_pin_write_logic 1EBE  
                                         intlevel2 0000                                          sprintf@ap 0049  
                   lcd_4bit_send_enable_signal@lcd 000D                     lcd_4bit_send_enable_signal@ret 000F  
                        _EUSART_TxInterruptHandler 0094                                   ___lldiv@dividend 0003  
                     keypad_initialize@_keypad_obj 0011                              loading_screen@counter 0025  
                           __end_of_lcd_send_4bits 2A4C                                        ??_vfpfcnvrt 0031  
                      __end_of_lcd_4bit_set_cursor 255E                                           sprintf@f 004B  
                                         sprintf@s 0041                                   ___lldiv@quotient 000B  
                                   _port_registers 00C4                                        _SSPCON1bits 0FC6  
                                      _SSPCON2bits 0FC5                              _CCP2_InterruptHandler 00BE  
                      lcd_4bit_send_char_data@data 0013                              _TMR2_InterruptHandler 009A  
                                ?_InterruptManager 0001                         ??_lcd_4bit_send_string_pos 0022  
