

Microchip MPLAB XC8 Assembler V2.41 build 20230208172133 
                                                                                               Tue Nov 28 11:47:29 2023

Microchip MPLAB XC8 C Compiler v2.41 (Free license) build 20230208172133 Og1 
     1                           	processor	18F4620
     2                           	fnconf	rparam,??,?,0
     3                           	pagewidth 120
     4                           	opt	flic
     5                           	psect	idataCOMRAM,global,class=CODE,delta=1,noexec
     6                           	psect	idataBANK0,global,class=CODE,delta=1,noexec
     7                           	psect	smallconst,global,reloc=2,class=SMALLCONST,delta=1,noexec
     8                           	psect	cinit,global,reloc=2,class=CODE,delta=1
     9                           	psect	bssCOMRAM,global,class=COMRAM,space=1,delta=1,lowdata,noexec
    10                           	psect	dataCOMRAM,global,class=COMRAM,space=1,delta=1,lowdata,noexec
    11                           	psect	bssBANK0,global,class=BANK0,space=1,delta=1,lowdata,noexec
    12                           	psect	dataBANK0,global,class=BANK0,space=1,delta=1,lowdata,noexec
    13                           	psect	cstackBANK0,global,class=BANK0,space=1,delta=1,lowdata,noexec
    14                           	psect	cstackCOMRAM,global,class=COMRAM,space=1,delta=1,lowdata,noexec
    15                           	psect	text0,global,reloc=2,class=CODE,delta=1
    16                           	psect	text1,global,reloc=2,class=CODE,delta=1
    17                           	psect	text2,global,reloc=2,class=CODE,delta=1
    18                           	psect	text3,global,reloc=2,class=CODE,delta=1
    19                           	psect	text4,global,reloc=2,class=CODE,delta=1
    20                           	psect	text5,global,reloc=2,class=CODE,delta=1
    21                           	psect	text6,global,reloc=2,class=CODE,delta=1
    22                           	psect	text7,global,reloc=2,class=CODE,delta=1
    23                           	psect	text8,global,reloc=2,class=CODE,delta=1,inline
    24                           	psect	text9,global,reloc=2,class=CODE,delta=1,inline
    25                           	psect	text10,global,reloc=2,class=CODE,delta=1,inline
    26                           	psect	text11,global,reloc=2,class=CODE,delta=1
    27                           	psect	text12,global,reloc=2,class=CODE,delta=1
    28                           	psect	text13,global,reloc=2,class=CODE,delta=1
    29                           	psect	text14,global,reloc=2,class=CODE,delta=1
    30                           	psect	text15,global,reloc=2,class=CODE,delta=1
    31                           	psect	text16,global,reloc=2,class=CODE,delta=1
    32                           	psect	text17,global,reloc=2,class=CODE,delta=1
    33                           	psect	text18,global,reloc=2,class=CODE,delta=1
    34                           	psect	text19,global,reloc=2,class=CODE,delta=1
    35                           	psect	text20,global,reloc=2,class=CODE,delta=1
    36                           	psect	text21,global,reloc=2,class=CODE,delta=1
    37                           	psect	text22,global,reloc=2,class=CODE,delta=1,group=1
    38                           	psect	text23,global,reloc=2,class=CODE,delta=1,group=1
    39                           	psect	intcode,global,reloc=2,class=CODE,delta=1
    40                           	psect	intcode_body,global,reloc=2,class=CODE,delta=1
    41                           	psect	text25,global,reloc=2,class=CODE,delta=1
    42                           	psect	text26,global,reloc=2,class=CODE,delta=1
    43                           	psect	text27,global,reloc=2,class=CODE,delta=1
    44                           	psect	text28,global,reloc=2,class=CODE,delta=1
    45                           	psect	text29,global,reloc=2,class=CODE,delta=1
    46                           	psect	text30,global,reloc=2,class=CODE,delta=1
    47                           	psect	text31,global,reloc=2,class=CODE,delta=1
    48                           	psect	text32,global,reloc=2,class=CODE,delta=1
    49                           	psect	text33,global,reloc=2,class=CODE,delta=1
    50                           	psect	text34,global,reloc=2,class=CODE,delta=1
    51                           	psect	text35,global,reloc=2,class=CODE,delta=1
    52                           	psect	text36,global,reloc=2,class=CODE,delta=1
    53                           	psect	text37,global,reloc=2,class=CODE,delta=1
    54                           	psect	text38,global,reloc=2,class=CODE,delta=1
    55                           	psect	text39,global,reloc=2,class=CODE,delta=1
    56                           	psect	text40,global,reloc=2,class=CODE,delta=1
    57                           	psect	text41,global,reloc=2,class=CODE,delta=1
    58                           	psect	text42,global,reloc=2,class=CODE,delta=1
    59                           	psect	text43,global,reloc=2,class=CODE,delta=1
    60                           	psect	text44,global,reloc=2,class=CODE,delta=1
    61                           	psect	text45,global,reloc=2,class=CODE,delta=1
    62                           	psect	text46,global,reloc=2,class=CODE,delta=1
    63                           	psect	text47,global,reloc=2,class=CODE,delta=1
    64                           	psect	intsave_regs,global,class=BIGRAM,space=1,delta=1,noexec
    65                           	psect	text48,global,reloc=2,class=CODE,delta=1
    66                           	psect	rparam,global,class=COMRAM,space=1,delta=1,noexec
    67                           	psect	temp,global,ovrld,common,class=COMRAM,space=1,delta=1
    68                           	psect	idloc,global,abs,ovrld,class=IDLOC,space=5,delta=1,noexec
    69                           	psect	config,global,abs,ovrld,class=CONFIG,space=4,delta=1,noexec
    70   000000                     
    71                           ; Generated 23/03/2023 GMT
    72                           ; 
    73                           ; Copyright © 2023, Microchip Technology Inc. and its subsidiaries ("Microchip")
    74                           ; All rights reserved.
    75                           ; 
    76                           ; This software is developed by Microchip Technology Inc. and its subsidiaries ("Microch
      +                          ip").
    77                           ; 
    78                           ; Redistribution and use in source and binary forms, with or without modification, are
    79                           ; permitted provided that the following conditions are met:
    80                           ; 
    81                           ;     1. Redistributions of source code must retain the above copyright notice, this lis
      +                          t of
    82                           ;        conditions and the following disclaimer.
    83                           ; 
    84                           ;     2. Redistributions in binary form must reproduce the above copyright notice, this 
      +                          list
    85                           ;        of conditions and the following disclaimer in the documentation and/or other
    86                           ;        materials provided with the distribution. Publication is not required when
    87                           ;        this file is used in an embedded application.
    88                           ; 
    89                           ;     3. Microchip's name may not be used to endorse or promote products derived from th
      +                          is
    90                           ;        software without specific prior written permission.
    91                           ; 
    92                           ; THIS SOFTWARE IS PROVIDED BY MICROCHIP "AS IS" AND ANY EXPRESS OR IMPLIED WARRANTIES,
    93                           ; INCLUDING, BUT NOT LIMITED TO, THE IMPLIED WARRANTIES OF MERCHANTABILITY AND FITNESS F
      +                          OR
    94                           ; PURPOSE ARE DISCLAIMED.  IN NO EVENT SHALL MICROCHIP BE LIABLE FOR ANY DIRECT, INDIREC
      +                          T,
    95                           ; INCIDENTAL, SPECIAL, EXEMPLARY, OR CONSEQUENTIAL DAMAGES (INCLUDING BUT NOT LIMITED TO
    96                           ; PROCUREMENT OF SUBSTITUTE GOODS OR SERVICES; LOSS OF USE, DATA OR PROFITS; OR BUSINESS
    97                           ; INTERRUPTION) HOWSOEVER CAUSED AND ON ANY THEORY OF LIABILITY, WHETHER IN CONTRACT, ST
      +                          RICT
    98                           ; LIABILITY, OR TORT (INCLUDING NEGLIGENCE OR OTHERWISE) ARISING IN ANY WAY OUT OF THE U
      +                          SE OF
    99                           ; THIS SOFTWARE, EVEN IF ADVISED OF THE POSSIBILITY OF SUCH DAMAGE.
   100                           ; 
   101                           ; 
   102                           ; Code-generator required, PIC18F4620 Definitions
   103                           ; 
   104                           ; SFR Addresses
   105   000000                     
   106                           	psect	idataCOMRAM
   107   00233E                     __pidataCOMRAM:
   108                           	callstack 0
   109                           
   110                           ;initializer for _lat_registers
   111   00233E  89                 	db	137
   112   00233F  0F                 	db	15
   113   002340  8A                 	db	138
   114   002341  0F                 	db	15
   115   002342  8B                 	db	139
   116   002343  0F                 	db	15
   117   002344  8C                 	db	140
   118   002345  0F                 	db	15
   119   002346  8D                 	db	141
   120   002347  0F                 	db	15
   121                           
   122                           ;initializer for _dc_motor_2
   123   002348  13                 	db	19
   124   002349  1B                 	db	27
   125                           
   126                           ;initializer for _dc_motor_1
   127   00234A  1A                 	db	26
   128   00234B  22                 	db	34
   129                           
   130                           ;initializer for MSSP_SPI_Slave_Mode_GPIO_PIN_Configurations@F3611
   131   00234C  68                 	db	104
   132                           
   133                           ;initializer for MSSP_SPI_Slave_Mode_GPIO_PIN_Configurations@F3609
   134   00234D  5A                 	db	90
   135                           
   136                           ;initializer for MSSP_SPI_Slave_Mode_GPIO_PIN_Configurations@F3607
   137   00234E  62                 	db	98
   138                           
   139                           ;initializer for MSSP_SPI_Slave_Mode_GPIO_PIN_Configurations@F3605
   140   00234F  2A                 	db	42
   141                           
   142                           ;initializer for MSSP_SPI_Msster_Mode_GPIO_PIN_Configurations@F3600
   143   002350  1A                 	db	26
   144                           
   145                           ;initializer for MSSP_SPI_Msster_Mode_GPIO_PIN_Configurations@F3598
   146   002351  62                 	db	98
   147                           
   148                           ;initializer for MSSP_SPI_Msster_Mode_GPIO_PIN_Configurations@F3596
   149   002352  2A                 	db	42
   150                           
   151                           ;initializer for _RB7_Flag
   152   002353  01                 	db	1
   153                           
   154                           ;initializer for _RB6_Flag
   155   002354  01                 	db	1
   156                           
   157                           ;initializer for _RB5_Flag
   158   002355  01                 	db	1
   159                           
   160                           ;initializer for _RB4_Flag
   161   002356  01                 	db	1
   162                           
   163                           ;initializer for _int0_obj
   164   002357  CA                 	db	low _Int0_APP_ISR
   165   002358  24                 	db	high _Int0_APP_ISR
   166   002359  41                 	db	65
   167   00235A  01                 	db	1
   168   00235B  00                 	db	0
   169   00235C  01                 	db	1
   170                           
   171                           ;initializer for _seg1
   172   00235D  02                 	db	2
   173   00235E  0A                 	db	10
   174   00235F  12                 	db	18
   175   002360  1A                 	db	26
   176   002361  01                 	db	1
   177                           
   178                           ;initializer for _seg6_enable
   179   002362  2B                 	db	43
   180                           
   181                           ;initializer for _seg5_enable
   182   002363  23                 	db	35
   183                           
   184                           ;initializer for _seg4_enable
   185   002364  1B                 	db	27
   186                           
   187                           ;initializer for _seg3_enable
   188   002365  13                 	db	19
   189                           
   190                           ;initializer for _seg2_enable
   191   002366  0B                 	db	11
   192                           
   193                           ;initializer for _seg1_enable
   194   002367  03                 	db	3
   195                           
   196                           	psect	idataBANK0
   197   00219C                     __pidataBANK0:
   198                           	callstack 0
   199                           
   200                           ;initializer for _port_registers
   201   00219C  80                 	db	128
   202   00219D  0F                 	db	15
   203   00219E  81                 	db	129
   204   00219F  0F                 	db	15
   205   0021A0  82                 	db	130
   206   0021A1  0F                 	db	15
   207   0021A2  83                 	db	131
   208   0021A3  0F                 	db	15
   209   0021A4  84                 	db	132
   210   0021A5  0F                 	db	15
   211                           
   212                           ;initializer for _tris_registers
   213   0021A6  92                 	db	146
   214   0021A7  0F                 	db	15
   215   0021A8  93                 	db	147
   216   0021A9  0F                 	db	15
   217   0021AA  94                 	db	148
   218   0021AB  0F                 	db	15
   219   0021AC  95                 	db	149
   220   0021AD  0F                 	db	15
   221   0021AE  96                 	db	150
   222   0021AF  0F                 	db	15
   223                           
   224                           ;initializer for _lcd_2
   225   0021B0  32                 	db	50
   226   0021B1  3A                 	db	58
   227   0021B2  03                 	db	3
   228   0021B3  0B                 	db	11
   229   0021B4  13                 	db	19
   230   0021B5  1B                 	db	27
   231   0021B6  23                 	db	35
   232   0021B7  2B                 	db	43
   233   0021B8  33                 	db	51
   234   0021B9  3B                 	db	59
   235                           
   236                           ;initializer for _keypad1
   237   0021BA  32                 	db	50
   238   0021BB  3A                 	db	58
   239   0021BC  03                 	db	3
   240   0021BD  0B                 	db	11
   241   0021BE  53                 	db	83
   242   0021BF  5B                 	db	91
   243   0021C0  63                 	db	99
   244   0021C1  6B                 	db	107
   245                           
   246                           ;initializer for _lcd_1
   247   0021C2  02                 	db	2
   248   0021C3  0A                 	db	10
   249   0021C4  12                 	db	18
   250   0021C5  33                 	db	51
   251   0021C6  3B                 	db	59
   252   0021C7  2A                 	db	42
   253                           
   254                           ;initializer for _timer0
   255   0021C8  50                 	db	low _TMR0_DefaultInterruptHandler
   256   0021C9  22                 	db	high _TMR0_DefaultInterruptHandler
   257   0021CA  00                 	db	0
   258   0021CB  04                 	db	4
   259   0021CC  0BDC               	dw	3036
   260   0021CE  05                 	db	5
   261                           
   262                           ;initializer for _int2_obj
   263   0021CF  88                 	db	low _Int2_APP_ISR
   264   0021D0  24                 	db	high _Int2_APP_ISR
   265   0021D1  51                 	db	81
   266   0021D2  01                 	db	1
   267   0021D3  02                 	db	2
   268   0021D4  01                 	db	1
   269                           
   270                           ;initializer for _int1_obj
   271   0021D5  C6                 	db	low _Int1_APP_ISR
   272   0021D6  24                 	db	high _Int1_APP_ISR
   273   0021D7  49                 	db	73
   274   0021D8  01                 	db	1
   275   0021D9  01                 	db	1
   276   0021DA  01                 	db	1
   277                           
   278                           	psect	smallconst
   279   001000                     __psmallconst:
   280                           	callstack 0
   281   001000  00                 	db	0
   282   001001                     _btn_values:
   283                           	callstack 0
   284   001001  37                 	db	55
   285   001002  38                 	db	56
   286   001003  39                 	db	57
   287   001004  2F                 	db	47
   288   001005  34                 	db	52
   289   001006  35                 	db	53
   290   001007  36                 	db	54
   291   001008  2A                 	db	42
   292   001009  31                 	db	49
   293   00100A  32                 	db	50
   294   00100B  33                 	db	51
   295   00100C  2D                 	db	45
   296   00100D  23                 	db	35
   297   00100E  30                 	db	48
   298   00100F  3D                 	db	61
   299   001010  2B                 	db	43
   300   001011                     __end_of_btn_values:
   301                           	callstack 0
   302   000000                     _SPBRGH	set	4016
   303   000000                     _SPBRG	set	4015
   304   000000                     _TXREG	set	4013
   305   000000                     _TXSTAbits	set	4012
   306   000000                     _RCREG	set	4014
   307   000000                     _RCSTAbits	set	4011
   308   000000                     _TMR3L	set	4018
   309   000000                     _TMR3H	set	4019
   310   000000                     _TMR2	set	4044
   311   000000                     _T2CONbits	set	4042
   312   000000                     _TMR1L	set	4046
   313   000000                     _TMR1H	set	4047
   314   000000                     _T1CONbits	set	4045
   315   000000                     _TMR0L	set	4054
   316   000000                     _TMR0H	set	4055
   317   000000                     _T0CONbits	set	4053
   318   000000                     _INTCON2bits	set	4081
   319   000000                     _INTCON3bits	set	4080
   320   000000                     _SSPBUF	set	4041
   321   000000                     _SSPSTATbits	set	4039
   322   000000                     _SSPADD	set	4040
   323   000000                     _SSPCON2bits	set	4037
   324   000000                     _SSPCON1bits	set	4038
   325   000000                     _EECON2	set	4007
   326   000000                     _ADCON1bits	set	4033
   327   000000                     _ADRESL	set	4035
   328   000000                     _ADRESH	set	4036
   329   000000                     _INTCONbits	set	4082
   330   000000                     _TRISD	set	3989
   331   000000                     _TRISC	set	3988
   332   000000                     _PR2	set	4043
   333   000000                     _TRISB	set	3987
   334   000000                     _TRISE	set	3990
   335   000000                     _PORTBbits	set	3969
   336   000000                     _TRISCbits	set	3988
   337   000000                     _PIE1bits	set	3997
   338   000000                     _ADCON2bits	set	4032
   339   000000                     _ADCON0bits	set	4034
   340   000000                     _PORTE	set	3972
   341   000000                     _PORTD	set	3971
   342   000000                     _PORTC	set	3970
   343   000000                     _PORTB	set	3969
   344   000000                     _PORTA	set	3968
   345   000000                     _LATA	set	3977
   346   000000                     _TRISA	set	3986
   347   000000                     _PIE2bits	set	4000
   348   000000                     _CCP2CONbits	set	4026
   349   000000                     _CCP1CONbits	set	4029
   350   000000                     _PIR1bits	set	3998
   351   000000                     _CCPR1L	set	4030
   352   000000                     _CCPR2L	set	4027
   353   000000                     _EECON1bits	set	4006
   354   000000                     _EEDATA	set	4008
   355   000000                     _EEADR	set	4009
   356   000000                     _EEADRH	set	4010
   357   000000                     _T3CONbits	set	4017
   358   000000                     _PIR2bits	set	4001
   359   000000                     _LATE	set	3981
   360   000000                     _LATD	set	3980
   361   000000                     _LATC	set	3979
   362   000000                     _LATB	set	3978
   363   000000                     _BAUDCONbits	set	4024
   364   001011                     STR_1:
   365   001011  25                 	db	37
   366   001012  69                 	db	105	;'i'
   367   001013  00                 	db	0
   368   001014  00                 	db	0	; dummy byte at the end
   369   000000                     
   370                           ; #config settings
   371                           
   372                           	psect	cinit
   373   0020E0                     __pcinit:
   374                           	callstack 0
   375   0020E0                     start_initialization:
   376                           	callstack 0
   377   0020E0                     __initialization:
   378                           	callstack 0
   379                           
   380                           ; Initialize objects allocated to BANK0 (63 bytes)
   381                           ; load TBLPTR registers with __pidataBANK0
   382   0020E0  0E9C               	movlw	low __pidataBANK0
   383   0020E2  6EF6               	movwf	tblptrl,c
   384   0020E4  0E21               	movlw	high __pidataBANK0
   385   0020E6  6EF7               	movwf	tblptrh,c
   386   0020E8  0E00               	movlw	low (__pidataBANK0 shr (0+16))
   387   0020EA  6EF8               	movwf	tblptru,c
   388   0020EC  EE00  F080         	lfsr	0,__pdataBANK0
   389   0020F0  EE10 F03F          	lfsr	1,63
   390   0020F4                     copy_data0:
   391   0020F4  0009               	tblrd		*+
   392   0020F6  CFF5 FFEE          	movff	tablat,postinc0
   393   0020FA  50E5               	movf	postdec1,w,c
   394   0020FC  50E1               	movf	fsr1l,w,c
   395   0020FE  E1FA               	bnz	copy_data0
   396                           
   397                           ; Initialize objects allocated to COMRAM (42 bytes)
   398                           ; load TBLPTR registers with __pidataCOMRAM
   399   002100  0E3E               	movlw	low __pidataCOMRAM
   400   002102  6EF6               	movwf	tblptrl,c
   401   002104  0E23               	movlw	high __pidataCOMRAM
   402   002106  6EF7               	movwf	tblptrh,c
   403   002108  0E00               	movlw	low (__pidataCOMRAM shr (0+16))
   404   00210A  6EF8               	movwf	tblptru,c
   405   00210C  EE00  F03F         	lfsr	0,__pdataCOMRAM
   406   002110  EE10 F02A          	lfsr	1,42
   407   002114                     copy_data1:
   408   002114  0009               	tblrd		*+
   409   002116  CFF5 FFEE          	movff	tablat,postinc0
   410   00211A  50E5               	movf	postdec1,w,c
   411   00211C  50E1               	movf	fsr1l,w,c
   412   00211E  E1FA               	bnz	copy_data1
   413                           
   414                           ; Clear objects allocated to BANK0 (6 bytes)
   415   002120  0100               	movlb	0
   416   002122  6BC4               	clrf	(__pbssBANK0+5)& (0+255),b
   417   002124  6BC3               	clrf	(__pbssBANK0+4)& (0+255),b
   418   002126  6BC2               	clrf	(__pbssBANK0+3)& (0+255),b
   419   002128  6BC1               	clrf	(__pbssBANK0+2)& (0+255),b
   420   00212A  6BC0               	clrf	(__pbssBANK0+1)& (0+255),b
   421   00212C  6BBF               	clrf	__pbssBANK0& (0+255),b
   422                           
   423                           ; Clear objects allocated to COMRAM (62 bytes)
   424   00212E  EE00  F001         	lfsr	0,__pbssCOMRAM
   425   002132  0E3E               	movlw	62
   426   002134                     clear_0:
   427   002134  6AEE               	clrf	postinc0,c
   428   002136  06E8               	decf	wreg,f,c
   429   002138  E1FD               	bnz	clear_0
   430   00213A                     end_of_initialization:
   431                           	callstack 0
   432   00213A                     __end_of__initialization:
   433                           	callstack 0
   434   00213A  907B               	bcf	int$flags,0,c	;clear compiler interrupt flag (level 1)
   435   00213C  927B               	bcf	int$flags,1,c	;clear compiler interrupt flag (level 2)
   436   00213E  0100               	movlb	0
   437   002140  EF37  F00A         	goto	_main	;jump to C main() function
   438                           
   439                           	psect	bssCOMRAM
   440   000001                     __pbssCOMRAM:
   441                           	callstack 0
   442   000001                     _EUSART_OverrunErrorHandler:
   443                           	callstack 0
   444   000001                     	ds	2
   445   000003                     _EUSART_FramingErrorHandler:
   446                           	callstack 0
   447   000003                     	ds	2
   448   000005                     _EUSART_RxInterruptHandler:
   449                           	callstack 0
   450   000005                     	ds	2
   451   000007                     _EUSART_TxInterruptHandler:
   452                           	callstack 0
   453   000007                     	ds	2
   454   000009                     _timer3_preload:
   455                           	callstack 0
   456   000009                     	ds	2
   457   00000B                     _TMR3_InterruptHandler:
   458                           	callstack 0
   459   00000B                     	ds	2
   460   00000D                     _TMR2_InterruptHandler:
   461                           	callstack 0
   462   00000D                     	ds	2
   463   00000F                     _timer1_preload:
   464                           	callstack 0
   465   00000F                     	ds	2
   466   000011                     _TMR1_InterruptHandler:
   467                           	callstack 0
   468   000011                     	ds	2
   469   000013                     _timer0_preload:
   470                           	callstack 0
   471   000013                     	ds	2
   472   000015                     _TMR0_InterruptHandler:
   473                           	callstack 0
   474   000015                     	ds	2
   475   000017                     _SPI_InterruptHandler:
   476                           	callstack 0
   477   000017                     	ds	2
   478   000019                     _RB7_InterruptHandler_LOW:
   479                           	callstack 0
   480   000019                     	ds	2
   481   00001B                     _RB7_InterruptHandler_HIGH:
   482                           	callstack 0
   483   00001B                     	ds	2
   484   00001D                     _RB6_InterruptHandler_LOW:
   485                           	callstack 0
   486   00001D                     	ds	2
   487   00001F                     _RB6_InterruptHandler_HIGH:
   488                           	callstack 0
   489   00001F                     	ds	2
   490   000021                     _RB5_InterruptHandler_LOW:
   491                           	callstack 0
   492   000021                     	ds	2
   493   000023                     _RB5_InterruptHandler_HIGH:
   494                           	callstack 0
   495   000023                     	ds	2
   496   000025                     _RB4_InterruptHandler_LOW:
   497                           	callstack 0
   498   000025                     	ds	2
   499   000027                     _RB4_InterruptHandler_HIGH:
   500                           	callstack 0
   501   000027                     	ds	2
   502   000029                     _INT2_InterruptHandler:
   503                           	callstack 0
   504   000029                     	ds	2
   505   00002B                     _INT1_InterruptHandler:
   506                           	callstack 0
   507   00002B                     	ds	2
   508   00002D                     _INT0_InterruptHandler:
   509                           	callstack 0
   510   00002D                     	ds	2
   511   00002F                     _I2C_Report_Receive_Overflow_InterruptHandle:
   512                           	callstack 0
   513   00002F                     	ds	2
   514   000031                     _I2C_DefaultInterruptHandle:
   515                           	callstack 0
   516   000031                     	ds	2
   517   000033                     _I2C_Report_Write_Collision_InterruptHandler:
   518                           	callstack 0
   519   000033                     	ds	2
   520   000035                     _CCP2_InterruptHandler:
   521                           	callstack 0
   522   000035                     	ds	2
   523   000037                     _CCP1_InterruptHandler:
   524                           	callstack 0
   525   000037                     	ds	2
   526   000039                     _ADC_InterruptHandler:
   527                           	callstack 0
   528   000039                     	ds	2
   529   00003B                     _hours:
   530                           	callstack 0
   531   00003B                     	ds	1
   532   00003C                     _minutes:
   533                           	callstack 0
   534   00003C                     	ds	1
   535   00003D                     _seconds:
   536                           	callstack 0
   537   00003D                     	ds	1
   538   00003E                     _timer2_preload:
   539                           	callstack 0
   540   00003E                     	ds	1
   541                           
   542                           	psect	dataCOMRAM
   543   00003F                     __pdataCOMRAM:
   544                           	callstack 0
   545   00003F                     _lat_registers:
   546                           	callstack 0
   547   00003F                     	ds	10
   548   000049                     _dc_motor_2:
   549                           	callstack 0
   550   000049                     	ds	2
   551   00004B                     _dc_motor_1:
   552                           	callstack 0
   553   00004B                     	ds	2
   554   00004D                     MSSP_SPI_Slave_Mode_GPIO_PIN_Configurations@F3611:
   555                           	callstack 0
   556   00004D                     	ds	1
   557   00004E                     MSSP_SPI_Slave_Mode_GPIO_PIN_Configurations@F3609:
   558                           	callstack 0
   559   00004E                     	ds	1
   560   00004F                     MSSP_SPI_Slave_Mode_GPIO_PIN_Configurations@F3607:
   561                           	callstack 0
   562   00004F                     	ds	1
   563   000050                     MSSP_SPI_Slave_Mode_GPIO_PIN_Configurations@F3605:
   564                           	callstack 0
   565   000050                     	ds	1
   566   000051                     MSSP_SPI_Msster_Mode_GPIO_PIN_Configurations@F3600:
   567                           	callstack 0
   568   000051                     	ds	1
   569   000052                     MSSP_SPI_Msster_Mode_GPIO_PIN_Configurations@F3598:
   570                           	callstack 0
   571   000052                     	ds	1
   572   000053                     MSSP_SPI_Msster_Mode_GPIO_PIN_Configurations@F3596:
   573                           	callstack 0
   574   000053                     	ds	1
   575   000054                     _RB7_Flag:
   576                           	callstack 0
   577   000054                     	ds	1
   578   000055                     _RB6_Flag:
   579                           	callstack 0
   580   000055                     	ds	1
   581   000056                     _RB5_Flag:
   582                           	callstack 0
   583   000056                     	ds	1
   584   000057                     _RB4_Flag:
   585                           	callstack 0
   586   000057                     	ds	1
   587   000058                     _int0_obj:
   588                           	callstack 0
   589   000058                     	ds	6
   590   00005E                     _seg1:
   591                           	callstack 0
   592   00005E                     	ds	5
   593   000063                     _seg6_enable:
   594                           	callstack 0
   595   000063                     	ds	1
   596   000064                     _seg5_enable:
   597                           	callstack 0
   598   000064                     	ds	1
   599   000065                     _seg4_enable:
   600                           	callstack 0
   601   000065                     	ds	1
   602   000066                     _seg3_enable:
   603                           	callstack 0
   604   000066                     	ds	1
   605   000067                     _seg2_enable:
   606                           	callstack 0
   607   000067                     	ds	1
   608   000068                     _seg1_enable:
   609                           	callstack 0
   610   000068                     	ds	1
   611                           
   612                           	psect	bssBANK0
   613   0000BF                     __pbssBANK0:
   614                           	callstack 0
   615   0000BF                     	ds	6
   616                           
   617                           	psect	dataBANK0
   618   000080                     __pdataBANK0:
   619                           	callstack 0
   620   000080                     _port_registers:
   621                           	callstack 0
   622   000080                     	ds	10
   623   00008A                     _tris_registers:
   624                           	callstack 0
   625   00008A                     	ds	10
   626   000094                     _lcd_2:
   627                           	callstack 0
   628   000094                     	ds	10
   629   00009E                     _keypad1:
   630                           	callstack 0
   631   00009E                     	ds	8
   632   0000A6                     _lcd_1:
   633                           	callstack 0
   634   0000A6                     	ds	6
   635   0000AC                     _timer0:
   636                           	callstack 0
   637   0000AC                     	ds	7
   638   0000B3                     _int2_obj:
   639                           	callstack 0
   640   0000B3                     	ds	6
   641   0000B9                     _int1_obj:
   642                           	callstack 0
   643   0000B9                     	ds	6
   644                           
   645                           	psect	cstackBANK0
   646   0000C5                     __pcstackBANK0:
   647                           	callstack 0
   648   0000C5                     Interrupt_INTx_Init@ret:
   649                           	callstack 0
   650   0000C5                     seven_segement_intialize@seg:
   651                           	callstack 0
   652                           
   653                           ; 2 bytes @ 0x0
   654   0000C5                     	ds	2
   655   0000C7                     seven_segement_intialize@ret:
   656                           	callstack 0
   657                           
   658                           ; 1 bytes @ 0x2
   659   0000C7                     	ds	1
   660                           
   661                           	psect	cstackCOMRAM
   662   000069                     __pcstackCOMRAM:
   663                           	callstack 0
   664   000069                     RB4_ISR@RB4_Source:
   665                           	callstack 0
   666   000069                     RB5_ISR@RB5_Source:
   667                           	callstack 0
   668   000069                     RB6_ISR@RB6_Source:
   669                           	callstack 0
   670   000069                     RB7_ISR@RB7_Source:
   671                           	callstack 0
   672                           
   673                           ; 1 bytes @ 0x0
   674   000069                     	ds	1
   675   00006A                     ??_InterruptManager:
   676                           
   677                           ; 1 bytes @ 0x1
   678   00006A                     	ds	3
   679   00006D                     ?___awdiv:
   680                           	callstack 0
   681   00006D                     ?___awmod:
   682                           	callstack 0
   683   00006D                     gpio_pin_direction_intialize@_pin_config:
   684                           	callstack 0
   685   00006D                     gpio_pin_write_logic@_pin_config:
   686                           	callstack 0
   687   00006D                     Interrupt_INTx_Enable@int_obj:
   688                           	callstack 0
   689   00006D                     Interrupt_INTx_Disable@int_obj:
   690                           	callstack 0
   691   00006D                     Interrupt_INTx_Edge_Init@int_obj:
   692                           	callstack 0
   693   00006D                     Interrupt_INTx_Clear_Flag@int_obj:
   694                           	callstack 0
   695   00006D                     INT0_SetInterruptHandler@InterruptHandler:
   696                           	callstack 0
   697   00006D                     INT1_SetInterruptHandler@InterruptHandler:
   698                           	callstack 0
   699   00006D                     INT2_SetInterruptHandler@InterruptHandler:
   700                           	callstack 0
   701   00006D                     Timer0_Prescaler_Config@_timer:
   702                           	callstack 0
   703   00006D                     Timer0_Mode_Select@_timer:
   704                           	callstack 0
   705   00006D                     Timer0_Register_Size_Config@_timer:
   706                           	callstack 0
   707   00006D                     ___awdiv@dividend:
   708                           	callstack 0
   709   00006D                     ___awmod@dividend:
   710                           	callstack 0
   711                           
   712                           ; 2 bytes @ 0x4
   713   00006D                     	ds	2
   714   00006F                     ??_gpio_pin_direction_intialize:
   715   00006F                     ??_Interrupt_INTx_Disable:
   716   00006F                     ??_Interrupt_INTx_Clear_Flag:
   717   00006F                     ??_Interrupt_INTx_Edge_Init:
   718   00006F                     ??_Interrupt_INTx_Enable:
   719   00006F                     ??_Timer0_Prescaler_Config:
   720   00006F                     gpio_pin_write_logic@logic:
   721                           	callstack 0
   722   00006F                     INT0_SetInterruptHandler@ret:
   723                           	callstack 0
   724   00006F                     INT1_SetInterruptHandler@ret:
   725                           	callstack 0
   726   00006F                     INT2_SetInterruptHandler@ret:
   727                           	callstack 0
   728   00006F                     ___awdiv@divisor:
   729                           	callstack 0
   730   00006F                     ___awmod@divisor:
   731                           	callstack 0
   732                           
   733                           ; 2 bytes @ 0x6
   734   00006F                     	ds	1
   735   000070                     ??_gpio_pin_write_logic:
   736   000070                     Interrupt_INTx_SetInterruptHandler@int_obj:
   737                           	callstack 0
   738   000070                     Timer0_Init@_timer:
   739                           	callstack 0
   740                           
   741                           ; 2 bytes @ 0x7
   742   000070                     	ds	1
   743   000071                     Interrupt_INTx_Enable@ret:
   744                           	callstack 0
   745   000071                     Interrupt_INTx_Disable@ret:
   746                           	callstack 0
   747   000071                     Interrupt_INTx_Edge_Init@ret:
   748                           	callstack 0
   749   000071                     Interrupt_INTx_Clear_Flag@ret:
   750                           	callstack 0
   751   000071                     ___awdiv@counter:
   752                           	callstack 0
   753   000071                     ___awmod@counter:
   754                           	callstack 0
   755                           
   756                           ; 1 bytes @ 0x8
   757   000071                     	ds	1
   758   000072                     ??_Interrupt_INTx_SetInterruptHandler:
   759   000072                     ??_Timer0_Init:
   760   000072                     ___awdiv@sign:
   761                           	callstack 0
   762   000072                     ___awmod@sign:
   763                           	callstack 0
   764                           
   765                           ; 1 bytes @ 0x9
   766   000072                     	ds	1
   767   000073                     ___awdiv@quotient:
   768                           	callstack 0
   769                           
   770                           ; 2 bytes @ 0xA
   771   000073                     	ds	1
   772   000074                     Interrupt_INTx_SetInterruptHandler@ret:
   773                           	callstack 0
   774   000074                     Timer0_Init@ret:
   775                           	callstack 0
   776                           
   777                           ; 1 bytes @ 0xB
   778   000074                     	ds	1
   779   000075                     gpio_pin_direction_intialize@ret:
   780                           	callstack 0
   781                           
   782                           ; 1 bytes @ 0xC
   783   000075                     	ds	1
   784   000076                     gpio_pin_write_logic@ret:
   785                           	callstack 0
   786   000076                     Interrupt_INTx_Pin_Init@int_obj:
   787                           	callstack 0
   788                           
   789                           ; 2 bytes @ 0xD
   790   000076                     	ds	1
   791   000077                     seven_segement_write_number@seg:
   792                           	callstack 0
   793   000077                     gpio_pin_intialize@_pin_config:
   794                           	callstack 0
   795                           
   796                           ; 2 bytes @ 0xE
   797   000077                     	ds	1
   798   000078                     Interrupt_INTx_Pin_Init@ret:
   799                           	callstack 0
   800                           
   801                           ; 1 bytes @ 0xF
   802   000078                     	ds	1
   803   000079                     ??_gpio_pin_intialize:
   804   000079                     seven_segement_write_number@number:
   805                           	callstack 0
   806   000079                     Interrupt_INTx_Init@int_obj:
   807                           	callstack 0
   808                           
   809                           ; 2 bytes @ 0x10
   810   000079                     	ds	1
   811   00007A                     seven_segement_write_number@ret:
   812                           	callstack 0
   813   00007A                     gpio_pin_intialize@ret:
   814                           	callstack 0
   815                           
   816                           ; 1 bytes @ 0x11
   817   00007A                     	ds	1
   818   00007B                     
   819                           ; 1 bytes @ 0x12
   820 ;;
   821 ;;Main: autosize = 0, tempsize = 0, incstack = 0, save=0
   822 ;;
   823 ;; *************** function _main *****************
   824 ;; Defined at:
   825 ;;		line 66 in file "application.c"
   826 ;; Parameters:    Size  Location     Type
   827 ;;		None
   828 ;; Auto vars:     Size  Location     Type
   829 ;;  ret             1    0        unsigned char 
   830 ;; Return value:  Size  Location     Type
   831 ;;                  2  1810[None  ] int 
   832 ;; Registers used:
   833 ;;		wreg, fsr2l, fsr2h, status,2, status,0, prodl, prodh, cstack
   834 ;; Tracked objects:
   835 ;;		On entry : 0/0
   836 ;;		On exit  : 0/0
   837 ;;		Unchanged: 0/0
   838 ;; Data sizes:     COMRAM   BANK0   BANK1   BANK2   BANK3   BANK4   BANK5   BANK6   BANK7   BANK8   BANK9  BANK10  BANK1
      +1  BANK12  BANK13  BANK14  BANK15
   839 ;;      Params:         0       0       0       0       0       0       0       0       0       0       0       0       
      +0       0       0       0       0
   840 ;;      Locals:         0       0       0       0       0       0       0       0       0       0       0       0       
      +0       0       0       0       0
   841 ;;      Temps:          0       0       0       0       0       0       0       0       0       0       0       0       
      +0       0       0       0       0
   842 ;;      Totals:         0       0       0       0       0       0       0       0       0       0       0       0       
      +0       0       0       0       0
   843 ;;Total ram usage:        0 bytes
   844 ;; Hardware stack levels required when called: 8
   845 ;; This function calls:
   846 ;;		___awdiv
   847 ;;		___awmod
   848 ;;		_application_initialize
   849 ;;		_gpio_pin_write_logic
   850 ;;		_seven_segement_write_number
   851 ;; This function is called by:
   852 ;;		Startup code after reset
   853 ;; This function uses a non-reentrant model
   854 ;;
   855                           
   856                           	psect	text0
   857   00146E                     __ptext0:
   858                           	callstack 0
   859   00146E                     _main:
   860                           	callstack 23
   861   00146E                     
   862                           ;application.c: 68:   application_initialize();
   863   00146E  ECD5  F00E         	call	_application_initialize	;wreg free
   864   001472                     
   865                           ;application.c: 69:   (T0CONbits.TMR0ON = 0);
   866   001472  9ED5               	bcf	213,7,c	;volatile
   867   001474                     l8064:
   868   001474  0E63               	movlw	low _seg6_enable
   869   001476  6E6D               	movwf	gpio_pin_write_logic@_pin_config^0,c
   870   001478  0E00               	movlw	high _seg6_enable
   871   00147A  6E6E               	movwf	(gpio_pin_write_logic@_pin_config+1)^0,c
   872   00147C  0E00               	movlw	0
   873   00147E  6E6F               	movwf	gpio_pin_write_logic@logic^0,c
   874   001480  ECBE  F00B         	call	_gpio_pin_write_logic	;wreg free
   875   001484  0E5E               	movlw	low _seg1
   876   001486  6E77               	movwf	seven_segement_write_number@seg^0,c
   877   001488  0E00               	movlw	high _seg1
   878   00148A  6E78               	movwf	(seven_segement_write_number@seg+1)^0,c
   879   00148C  C03D  F06D         	movff	_seconds,___awdiv@dividend
   880   001490  6A6E               	clrf	(___awdiv@dividend+1)^0,c
   881   001492  0E00               	movlw	0
   882   001494  6E70               	movwf	(___awdiv@divisor+1)^0,c
   883   001496  0E0A               	movlw	10
   884   001498  6E6F               	movwf	___awdiv@divisor^0,c
   885   00149A  ECEA  F00C         	call	___awdiv	;wreg free
   886   00149E  506D               	movf	?___awdiv^0,w,c
   887   0014A0  6E79               	movwf	seven_segement_write_number@number^0,c
   888   0014A2  EC4B  F00E         	call	_seven_segement_write_number	;wreg free
   889   0014A6  0E68               	movlw	low _seg1_enable
   890   0014A8  6E6D               	movwf	gpio_pin_write_logic@_pin_config^0,c
   891   0014AA  0E00               	movlw	high _seg1_enable
   892   0014AC  6E6E               	movwf	(gpio_pin_write_logic@_pin_config+1)^0,c
   893   0014AE  0E01               	movlw	1
   894   0014B0  6E6F               	movwf	gpio_pin_write_logic@logic^0,c
   895   0014B2  ECBE  F00B         	call	_gpio_pin_write_logic	;wreg free
   896   0014B6                     
   897                           ;application.c: 74:     _delay((unsigned long)((100)*(8000000UL/4000000.0)));
   898   0014B6  0E42               	movlw	66
   899   0014B8                     u6167:
   900   0014B8  2EE8               	decfsz	wreg,f,c
   901   0014BA  D7FE               	bra	u6167
   902   0014BC  D000               	nop2	
   903   0014BE  0E68               	movlw	low _seg1_enable
   904   0014C0  6E6D               	movwf	gpio_pin_write_logic@_pin_config^0,c
   905   0014C2  0E00               	movlw	high _seg1_enable
   906   0014C4  6E6E               	movwf	(gpio_pin_write_logic@_pin_config+1)^0,c
   907   0014C6  0E00               	movlw	0
   908   0014C8  6E6F               	movwf	gpio_pin_write_logic@logic^0,c
   909   0014CA  ECBE  F00B         	call	_gpio_pin_write_logic	;wreg free
   910   0014CE  0E5E               	movlw	low _seg1
   911   0014D0  6E77               	movwf	seven_segement_write_number@seg^0,c
   912   0014D2  0E00               	movlw	high _seg1
   913   0014D4  6E78               	movwf	(seven_segement_write_number@seg+1)^0,c
   914   0014D6  C03D  F06D         	movff	_seconds,___awmod@dividend
   915   0014DA  6A6E               	clrf	(___awmod@dividend+1)^0,c
   916   0014DC  0E00               	movlw	0
   917   0014DE  6E70               	movwf	(___awmod@divisor+1)^0,c
   918   0014E0  0E0A               	movlw	10
   919   0014E2  6E6F               	movwf	___awmod@divisor^0,c
   920   0014E4  EC4C  F00D         	call	___awmod	;wreg free
   921   0014E8  506D               	movf	?___awmod^0,w,c
   922   0014EA  6E79               	movwf	seven_segement_write_number@number^0,c
   923   0014EC  EC4B  F00E         	call	_seven_segement_write_number	;wreg free
   924   0014F0  0E67               	movlw	low _seg2_enable
   925   0014F2  6E6D               	movwf	gpio_pin_write_logic@_pin_config^0,c
   926   0014F4  0E00               	movlw	high _seg2_enable
   927   0014F6  6E6E               	movwf	(gpio_pin_write_logic@_pin_config+1)^0,c
   928   0014F8  0E01               	movlw	1
   929   0014FA  6E6F               	movwf	gpio_pin_write_logic@logic^0,c
   930   0014FC  ECBE  F00B         	call	_gpio_pin_write_logic	;wreg free
   931   001500                     
   932                           ;application.c: 78:     _delay((unsigned long)((100)*(8000000UL/4000000.0)));
   933   001500  0E42               	movlw	66
   934   001502                     u6177:
   935   001502  2EE8               	decfsz	wreg,f,c
   936   001504  D7FE               	bra	u6177
   937   001506  D000               	nop2	
   938   001508  0E67               	movlw	low _seg2_enable
   939   00150A  6E6D               	movwf	gpio_pin_write_logic@_pin_config^0,c
   940   00150C  0E00               	movlw	high _seg2_enable
   941   00150E  6E6E               	movwf	(gpio_pin_write_logic@_pin_config+1)^0,c
   942   001510  0E00               	movlw	0
   943   001512  6E6F               	movwf	gpio_pin_write_logic@logic^0,c
   944   001514  ECBE  F00B         	call	_gpio_pin_write_logic	;wreg free
   945   001518  0E5E               	movlw	low _seg1
   946   00151A  6E77               	movwf	seven_segement_write_number@seg^0,c
   947   00151C  0E00               	movlw	high _seg1
   948   00151E  6E78               	movwf	(seven_segement_write_number@seg+1)^0,c
   949   001520  C03C  F06D         	movff	_minutes,___awdiv@dividend
   950   001524  6A6E               	clrf	(___awdiv@dividend+1)^0,c
   951   001526  0E00               	movlw	0
   952   001528  6E70               	movwf	(___awdiv@divisor+1)^0,c
   953   00152A  0E0A               	movlw	10
   954   00152C  6E6F               	movwf	___awdiv@divisor^0,c
   955   00152E  ECEA  F00C         	call	___awdiv	;wreg free
   956   001532  506D               	movf	?___awdiv^0,w,c
   957   001534  6E79               	movwf	seven_segement_write_number@number^0,c
   958   001536  EC4B  F00E         	call	_seven_segement_write_number	;wreg free
   959   00153A  0E66               	movlw	low _seg3_enable
   960   00153C  6E6D               	movwf	gpio_pin_write_logic@_pin_config^0,c
   961   00153E  0E00               	movlw	high _seg3_enable
   962   001540  6E6E               	movwf	(gpio_pin_write_logic@_pin_config+1)^0,c
   963   001542  0E01               	movlw	1
   964   001544  6E6F               	movwf	gpio_pin_write_logic@logic^0,c
   965   001546  ECBE  F00B         	call	_gpio_pin_write_logic	;wreg free
   966   00154A                     
   967                           ;application.c: 82:     _delay((unsigned long)((100)*(8000000UL/4000000.0)));
   968   00154A  0E42               	movlw	66
   969   00154C                     u6187:
   970   00154C  2EE8               	decfsz	wreg,f,c
   971   00154E  D7FE               	bra	u6187
   972   001550  D000               	nop2	
   973   001552  0E66               	movlw	low _seg3_enable
   974   001554  6E6D               	movwf	gpio_pin_write_logic@_pin_config^0,c
   975   001556  0E00               	movlw	high _seg3_enable
   976   001558  6E6E               	movwf	(gpio_pin_write_logic@_pin_config+1)^0,c
   977   00155A  0E00               	movlw	0
   978   00155C  6E6F               	movwf	gpio_pin_write_logic@logic^0,c
   979   00155E  ECBE  F00B         	call	_gpio_pin_write_logic	;wreg free
   980   001562  0E5E               	movlw	low _seg1
   981   001564  6E77               	movwf	seven_segement_write_number@seg^0,c
   982   001566  0E00               	movlw	high _seg1
   983   001568  6E78               	movwf	(seven_segement_write_number@seg+1)^0,c
   984   00156A  C03C  F06D         	movff	_minutes,___awmod@dividend
   985   00156E  6A6E               	clrf	(___awmod@dividend+1)^0,c
   986   001570  0E00               	movlw	0
   987   001572  6E70               	movwf	(___awmod@divisor+1)^0,c
   988   001574  0E0A               	movlw	10
   989   001576  6E6F               	movwf	___awmod@divisor^0,c
   990   001578  EC4C  F00D         	call	___awmod	;wreg free
   991   00157C  506D               	movf	?___awmod^0,w,c
   992   00157E  6E79               	movwf	seven_segement_write_number@number^0,c
   993   001580  EC4B  F00E         	call	_seven_segement_write_number	;wreg free
   994   001584  0E65               	movlw	low _seg4_enable
   995   001586  6E6D               	movwf	gpio_pin_write_logic@_pin_config^0,c
   996   001588  0E00               	movlw	high _seg4_enable
   997   00158A  6E6E               	movwf	(gpio_pin_write_logic@_pin_config+1)^0,c
   998   00158C  0E01               	movlw	1
   999   00158E  6E6F               	movwf	gpio_pin_write_logic@logic^0,c
  1000   001590  ECBE  F00B         	call	_gpio_pin_write_logic	;wreg free
  1001   001594                     
  1002                           ;application.c: 86:     _delay((unsigned long)((100)*(8000000UL/4000000.0)));
  1003   001594  0E42               	movlw	66
  1004   001596                     u6197:
  1005   001596  2EE8               	decfsz	wreg,f,c
  1006   001598  D7FE               	bra	u6197
  1007   00159A  D000               	nop2	
  1008   00159C  0E65               	movlw	low _seg4_enable
  1009   00159E  6E6D               	movwf	gpio_pin_write_logic@_pin_config^0,c
  1010   0015A0  0E00               	movlw	high _seg4_enable
  1011   0015A2  6E6E               	movwf	(gpio_pin_write_logic@_pin_config+1)^0,c
  1012   0015A4  0E00               	movlw	0
  1013   0015A6  6E6F               	movwf	gpio_pin_write_logic@logic^0,c
  1014   0015A8  ECBE  F00B         	call	_gpio_pin_write_logic	;wreg free
  1015   0015AC  0E5E               	movlw	low _seg1
  1016   0015AE  6E77               	movwf	seven_segement_write_number@seg^0,c
  1017   0015B0  0E00               	movlw	high _seg1
  1018   0015B2  6E78               	movwf	(seven_segement_write_number@seg+1)^0,c
  1019   0015B4  C03B  F06D         	movff	_hours,___awdiv@dividend
  1020   0015B8  6A6E               	clrf	(___awdiv@dividend+1)^0,c
  1021   0015BA  0E00               	movlw	0
  1022   0015BC  6E70               	movwf	(___awdiv@divisor+1)^0,c
  1023   0015BE  0E0A               	movlw	10
  1024   0015C0  6E6F               	movwf	___awdiv@divisor^0,c
  1025   0015C2  ECEA  F00C         	call	___awdiv	;wreg free
  1026   0015C6  506D               	movf	?___awdiv^0,w,c
  1027   0015C8  6E79               	movwf	seven_segement_write_number@number^0,c
  1028   0015CA  EC4B  F00E         	call	_seven_segement_write_number	;wreg free
  1029   0015CE  0E64               	movlw	low _seg5_enable
  1030   0015D0  6E6D               	movwf	gpio_pin_write_logic@_pin_config^0,c
  1031   0015D2  0E00               	movlw	high _seg5_enable
  1032   0015D4  6E6E               	movwf	(gpio_pin_write_logic@_pin_config+1)^0,c
  1033   0015D6  0E01               	movlw	1
  1034   0015D8  6E6F               	movwf	gpio_pin_write_logic@logic^0,c
  1035   0015DA  ECBE  F00B         	call	_gpio_pin_write_logic	;wreg free
  1036   0015DE                     
  1037                           ;application.c: 90:     _delay((unsigned long)((100)*(8000000UL/4000000.0)));
  1038   0015DE  0E42               	movlw	66
  1039   0015E0                     u6207:
  1040   0015E0  2EE8               	decfsz	wreg,f,c
  1041   0015E2  D7FE               	bra	u6207
  1042   0015E4  D000               	nop2	
  1043   0015E6  0E64               	movlw	low _seg5_enable
  1044   0015E8  6E6D               	movwf	gpio_pin_write_logic@_pin_config^0,c
  1045   0015EA  0E00               	movlw	high _seg5_enable
  1046   0015EC  6E6E               	movwf	(gpio_pin_write_logic@_pin_config+1)^0,c
  1047   0015EE  0E00               	movlw	0
  1048   0015F0  6E6F               	movwf	gpio_pin_write_logic@logic^0,c
  1049   0015F2  ECBE  F00B         	call	_gpio_pin_write_logic	;wreg free
  1050   0015F6  0E5E               	movlw	low _seg1
  1051   0015F8  6E77               	movwf	seven_segement_write_number@seg^0,c
  1052   0015FA  0E00               	movlw	high _seg1
  1053   0015FC  6E78               	movwf	(seven_segement_write_number@seg+1)^0,c
  1054   0015FE  C03B  F06D         	movff	_hours,___awmod@dividend
  1055   001602  6A6E               	clrf	(___awmod@dividend+1)^0,c
  1056   001604  0E00               	movlw	0
  1057   001606  6E70               	movwf	(___awmod@divisor+1)^0,c
  1058   001608  0E0A               	movlw	10
  1059   00160A  6E6F               	movwf	___awmod@divisor^0,c
  1060   00160C  EC4C  F00D         	call	___awmod	;wreg free
  1061   001610  506D               	movf	?___awmod^0,w,c
  1062   001612  6E79               	movwf	seven_segement_write_number@number^0,c
  1063   001614  EC4B  F00E         	call	_seven_segement_write_number	;wreg free
  1064   001618  0E63               	movlw	low _seg6_enable
  1065   00161A  6E6D               	movwf	gpio_pin_write_logic@_pin_config^0,c
  1066   00161C  0E00               	movlw	high _seg6_enable
  1067   00161E  6E6E               	movwf	(gpio_pin_write_logic@_pin_config+1)^0,c
  1068   001620  0E01               	movlw	1
  1069   001622  6E6F               	movwf	gpio_pin_write_logic@logic^0,c
  1070   001624  ECBE  F00B         	call	_gpio_pin_write_logic	;wreg free
  1071   001628                     
  1072                           ;application.c: 94:     _delay((unsigned long)((100)*(8000000UL/4000000.0)));
  1073   001628  0E42               	movlw	66
  1074   00162A                     u6217:
  1075   00162A  2EE8               	decfsz	wreg,f,c
  1076   00162C  D7FE               	bra	u6217
  1077   00162E  D000               	nop2	
  1078   001630  EF3A  F00A         	goto	l8064
  1079   001634  EF07  F000         	goto	start
  1080   001638                     __end_of_main:
  1081                           	callstack 0
  1082                           
  1083 ;; *************** function _seven_segement_write_number *****************
  1084 ;; Defined at:
  1085 ;;		line 39 in file "ECU_Layer/7_Segment/ecu_seven_segment.c"
  1086 ;; Parameters:    Size  Location     Type
  1087 ;;  seg             2   14[COMRAM] PTR const struct .
  1088 ;;		 -> seg1(5), 
  1089 ;;  number          1   16[COMRAM] unsigned char 
  1090 ;; Auto vars:     Size  Location     Type
  1091 ;;  ret             1   17[COMRAM] unsigned char 
  1092 ;; Return value:  Size  Location     Type
  1093 ;;                  1    wreg      unsigned char 
  1094 ;; Registers used:
  1095 ;;		wreg, fsr2l, fsr2h, status,2, status,0, prodl, prodh, cstack
  1096 ;; Tracked objects:
  1097 ;;		On entry : 0/0
  1098 ;;		On exit  : 0/0
  1099 ;;		Unchanged: 0/0
  1100 ;; Data sizes:     COMRAM   BANK0   BANK1   BANK2   BANK3   BANK4   BANK5   BANK6   BANK7   BANK8   BANK9  BANK10  BANK1
      +1  BANK12  BANK13  BANK14  BANK15
  1101 ;;      Params:         3       0       0       0       0       0       0       0       0       0       0       0       
      +0       0       0       0       0
  1102 ;;      Locals:         1       0       0       0       0       0       0       0       0       0       0       0       
      +0       0       0       0       0
  1103 ;;      Temps:          0       0       0       0       0       0       0       0       0       0       0       0       
      +0       0       0       0       0
  1104 ;;      Totals:         4       0       0       0       0       0       0       0       0       0       0       0       
      +0       0       0       0       0
  1105 ;;Total ram usage:        4 bytes
  1106 ;; Hardware stack levels used: 1
  1107 ;; Hardware stack levels required when called: 4
  1108 ;; This function calls:
  1109 ;;		_gpio_pin_write_logic
  1110 ;; This function is called by:
  1111 ;;		_main
  1112 ;; This function uses a non-reentrant model
  1113 ;;
  1114                           
  1115                           	psect	text1
  1116   001C96                     __ptext1:
  1117                           	callstack 0
  1118   001C96                     _seven_segement_write_number:
  1119                           	callstack 26
  1120   001C96                     
  1121                           ;ECU_Layer/7_Segment/ecu_seven_segment.c: 41:     if((((void*)0) == seg) && (number > 9)
      +                          ){
  1122   001C96  5077               	movf	seven_segement_write_number@seg^0,w,c
  1123   001C98  1078               	iorwf	(seven_segement_write_number@seg+1)^0,w,c
  1124   001C9A  A4D8               	btfss	status,2,c
  1125   001C9C  EF52  F00E         	goto	u5531
  1126   001CA0  EF54  F00E         	goto	u5530
  1127   001CA4                     u5531:
  1128   001CA4  EF60  F00E         	goto	l7346
  1129   001CA8                     u5530:
  1130   001CA8  0E09               	movlw	9
  1131   001CAA  6479               	cpfsgt	seven_segement_write_number@number^0,c
  1132   001CAC  EF5A  F00E         	goto	u5541
  1133   001CB0  EF5C  F00E         	goto	u5540
  1134   001CB4                     u5541:
  1135   001CB4  EF60  F00E         	goto	l7346
  1136   001CB8                     u5540:
  1137   001CB8                     
  1138                           ;ECU_Layer/7_Segment/ecu_seven_segment.c: 42:         ret = (Std_ReturnType)0x00;
  1139   001CB8  0E00               	movlw	0
  1140   001CBA  6E7A               	movwf	seven_segement_write_number@ret^0,c
  1141                           
  1142                           ;ECU_Layer/7_Segment/ecu_seven_segment.c: 43:     }
  1143   001CBC  EF93  F00E         	goto	l7348
  1144   001CC0                     l7346:
  1145                           
  1146                           ;ECU_Layer/7_Segment/ecu_seven_segment.c: 45:             ret = gpio_pin_write_logic(&(s
      +                          eg->segment_pins[0]), number & 0x01);
  1147   001CC0  C077  F06D         	movff	seven_segement_write_number@seg,gpio_pin_write_logic@_pin_config
  1148   001CC4  C078  F06E         	movff	seven_segement_write_number@seg+1,gpio_pin_write_logic@_pin_config+1
  1149   001CC8  5079               	movf	seven_segement_write_number@number^0,w,c
  1150   001CCA  0B01               	andlw	1
  1151   001CCC  6E6F               	movwf	gpio_pin_write_logic@logic^0,c
  1152   001CCE  ECBE  F00B         	call	_gpio_pin_write_logic	;wreg free
  1153   001CD2  6E7A               	movwf	seven_segement_write_number@ret^0,c
  1154                           
  1155                           ;ECU_Layer/7_Segment/ecu_seven_segment.c: 46:             ret = gpio_pin_write_logic(&(s
      +                          eg->segment_pins[1]), (number>>1) & 0x01);
  1156   001CD4  0E01               	movlw	1
  1157   001CD6  2477               	addwf	seven_segement_write_number@seg^0,w,c
  1158   001CD8  6E6D               	movwf	gpio_pin_write_logic@_pin_config^0,c
  1159   001CDA  0E00               	movlw	0
  1160   001CDC  2078               	addwfc	(seven_segement_write_number@seg+1)^0,w,c
  1161   001CDE  6E6E               	movwf	(gpio_pin_write_logic@_pin_config+1)^0,c
  1162   001CE0  90D8               	bcf	status,0,c
  1163   001CE2  3079               	rrcf	seven_segement_write_number@number^0,w,c
  1164   001CE4  0B01               	andlw	1
  1165   001CE6  6E6F               	movwf	gpio_pin_write_logic@logic^0,c
  1166   001CE8  ECBE  F00B         	call	_gpio_pin_write_logic	;wreg free
  1167   001CEC  6E7A               	movwf	seven_segement_write_number@ret^0,c
  1168                           
  1169                           ;ECU_Layer/7_Segment/ecu_seven_segment.c: 47:             ret = gpio_pin_write_logic(&(s
      +                          eg->segment_pins[2]), (number>>2) & 0x01);
  1170   001CEE  0E02               	movlw	2
  1171   001CF0  2477               	addwf	seven_segement_write_number@seg^0,w,c
  1172   001CF2  6E6D               	movwf	gpio_pin_write_logic@_pin_config^0,c
  1173   001CF4  0E00               	movlw	0
  1174   001CF6  2078               	addwfc	(seven_segement_write_number@seg+1)^0,w,c
  1175   001CF8  6E6E               	movwf	(gpio_pin_write_logic@_pin_config+1)^0,c
  1176   001CFA  4079               	rrncf	seven_segement_write_number@number^0,w,c
  1177   001CFC  42E8               	rrncf	wreg,f,c
  1178   001CFE  0B3F               	andlw	63
  1179   001D00  0B01               	andlw	1
  1180   001D02  6E6F               	movwf	gpio_pin_write_logic@logic^0,c
  1181   001D04  ECBE  F00B         	call	_gpio_pin_write_logic	;wreg free
  1182   001D08  6E7A               	movwf	seven_segement_write_number@ret^0,c
  1183                           
  1184                           ;ECU_Layer/7_Segment/ecu_seven_segment.c: 48:             ret = gpio_pin_write_logic(&(s
      +                          eg->segment_pins[3]), (number>>3) & 0x01);
  1185   001D0A  0E03               	movlw	3
  1186   001D0C  2477               	addwf	seven_segement_write_number@seg^0,w,c
  1187   001D0E  6E6D               	movwf	gpio_pin_write_logic@_pin_config^0,c
  1188   001D10  0E00               	movlw	0
  1189   001D12  2078               	addwfc	(seven_segement_write_number@seg+1)^0,w,c
  1190   001D14  6E6E               	movwf	(gpio_pin_write_logic@_pin_config+1)^0,c
  1191   001D16  3879               	swapf	seven_segement_write_number@number^0,w,c
  1192   001D18  46E8               	rlncf	wreg,f,c
  1193   001D1A  0B1F               	andlw	31
  1194   001D1C  0B01               	andlw	1
  1195   001D1E  6E6F               	movwf	gpio_pin_write_logic@logic^0,c
  1196   001D20  ECBE  F00B         	call	_gpio_pin_write_logic	;wreg free
  1197   001D24  6E7A               	movwf	seven_segement_write_number@ret^0,c
  1198   001D26                     l7348:
  1199                           
  1200                           ;ECU_Layer/7_Segment/ecu_seven_segment.c: 50:     return ret;
  1201   001D26  507A               	movf	seven_segement_write_number@ret^0,w,c
  1202   001D28  0012               	return		;funcret
  1203   001D2A                     __end_of_seven_segement_write_number:
  1204                           	callstack 0
  1205                           
  1206 ;; *************** function _application_initialize *****************
  1207 ;; Defined at:
  1208 ;;		line 99 in file "application.c"
  1209 ;; Parameters:    Size  Location     Type
  1210 ;;		None
  1211 ;; Auto vars:     Size  Location     Type
  1212 ;;  ret             1    0        unsigned char 
  1213 ;; Return value:  Size  Location     Type
  1214 ;;                  1    wreg      void 
  1215 ;; Registers used:
  1216 ;;		wreg, fsr2l, fsr2h, status,2, status,0, prodl, prodh, cstack
  1217 ;; Tracked objects:
  1218 ;;		On entry : 0/0
  1219 ;;		On exit  : 0/0
  1220 ;;		Unchanged: 0/0
  1221 ;; Data sizes:     COMRAM   BANK0   BANK1   BANK2   BANK3   BANK4   BANK5   BANK6   BANK7   BANK8   BANK9  BANK10  BANK1
      +1  BANK12  BANK13  BANK14  BANK15
  1222 ;;      Params:         0       0       0       0       0       0       0       0       0       0       0       0       
      +0       0       0       0       0
  1223 ;;      Locals:         0       0       0       0       0       0       0       0       0       0       0       0       
      +0       0       0       0       0
  1224 ;;      Temps:          0       0       0       0       0       0       0       0       0       0       0       0       
      +0       0       0       0       0
  1225 ;;      Totals:         0       0       0       0       0       0       0       0       0       0       0       0       
      +0       0       0       0       0
  1226 ;;Total ram usage:        0 bytes
  1227 ;; Hardware stack levels used: 1
  1228 ;; Hardware stack levels required when called: 7
  1229 ;; This function calls:
  1230 ;;		_Interrupt_INTx_Init
  1231 ;;		_Timer0_Init
  1232 ;;		_ecu_layer_init
  1233 ;;		_gpio_pin_intialize
  1234 ;; This function is called by:
  1235 ;;		_main
  1236 ;; This function uses a non-reentrant model
  1237 ;;
  1238                           
  1239                           	psect	text2
  1240   001DAA                     __ptext2:
  1241                           	callstack 0
  1242   001DAA                     _application_initialize:
  1243                           	callstack 23
  1244   001DAA                     
  1245                           ;application.c: 101:   ecu_layer_init();
  1246   001DAA  EC3C  F012         	call	_ecu_layer_init	;wreg free
  1247   001DAE  0EAC               	movlw	low _timer0
  1248   001DB0  6E70               	movwf	Timer0_Init@_timer^0,c
  1249   001DB2  0E00               	movlw	high _timer0
  1250   001DB4  6E71               	movwf	(Timer0_Init@_timer+1)^0,c
  1251   001DB6  ECF9  F00D         	call	_Timer0_Init	;wreg free
  1252   001DBA  0E58               	movlw	low _int0_obj
  1253   001DBC  6E79               	movwf	Interrupt_INTx_Init@int_obj^0,c
  1254   001DBE  0E00               	movlw	high _int0_obj
  1255   001DC0  6E7A               	movwf	(Interrupt_INTx_Init@int_obj+1)^0,c
  1256   001DC2  EC95  F00E         	call	_Interrupt_INTx_Init	;wreg free
  1257   001DC6  0EB9               	movlw	low _int1_obj
  1258   001DC8  6E79               	movwf	Interrupt_INTx_Init@int_obj^0,c
  1259   001DCA  0E00               	movlw	high _int1_obj
  1260   001DCC  6E7A               	movwf	(Interrupt_INTx_Init@int_obj+1)^0,c
  1261   001DCE  EC95  F00E         	call	_Interrupt_INTx_Init	;wreg free
  1262   001DD2  0EB3               	movlw	low _int2_obj
  1263   001DD4  6E79               	movwf	Interrupt_INTx_Init@int_obj^0,c
  1264   001DD6  0E00               	movlw	high _int2_obj
  1265   001DD8  6E7A               	movwf	(Interrupt_INTx_Init@int_obj+1)^0,c
  1266   001DDA  EC95  F00E         	call	_Interrupt_INTx_Init	;wreg free
  1267   001DDE  0E68               	movlw	low _seg1_enable
  1268   001DE0  6E77               	movwf	gpio_pin_intialize@_pin_config^0,c
  1269   001DE2  0E00               	movlw	high _seg1_enable
  1270   001DE4  6E78               	movwf	(gpio_pin_intialize@_pin_config+1)^0,c
  1271   001DE6  EC3A  F010         	call	_gpio_pin_intialize	;wreg free
  1272   001DEA  0E67               	movlw	low _seg2_enable
  1273   001DEC  6E77               	movwf	gpio_pin_intialize@_pin_config^0,c
  1274   001DEE  0E00               	movlw	high _seg2_enable
  1275   001DF0  6E78               	movwf	(gpio_pin_intialize@_pin_config+1)^0,c
  1276   001DF2  EC3A  F010         	call	_gpio_pin_intialize	;wreg free
  1277   001DF6  0E66               	movlw	low _seg3_enable
  1278   001DF8  6E77               	movwf	gpio_pin_intialize@_pin_config^0,c
  1279   001DFA  0E00               	movlw	high _seg3_enable
  1280   001DFC  6E78               	movwf	(gpio_pin_intialize@_pin_config+1)^0,c
  1281   001DFE  EC3A  F010         	call	_gpio_pin_intialize	;wreg free
  1282   001E02  0E65               	movlw	low _seg4_enable
  1283   001E04  6E77               	movwf	gpio_pin_intialize@_pin_config^0,c
  1284   001E06  0E00               	movlw	high _seg4_enable
  1285   001E08  6E78               	movwf	(gpio_pin_intialize@_pin_config+1)^0,c
  1286   001E0A  EC3A  F010         	call	_gpio_pin_intialize	;wreg free
  1287   001E0E  0E64               	movlw	low _seg5_enable
  1288   001E10  6E77               	movwf	gpio_pin_intialize@_pin_config^0,c
  1289   001E12  0E00               	movlw	high _seg5_enable
  1290   001E14  6E78               	movwf	(gpio_pin_intialize@_pin_config+1)^0,c
  1291   001E16  EC3A  F010         	call	_gpio_pin_intialize	;wreg free
  1292   001E1A  0E63               	movlw	low _seg6_enable
  1293   001E1C  6E77               	movwf	gpio_pin_intialize@_pin_config^0,c
  1294   001E1E  0E00               	movlw	high _seg6_enable
  1295   001E20  6E78               	movwf	(gpio_pin_intialize@_pin_config+1)^0,c
  1296   001E22  EC3A  F010         	call	_gpio_pin_intialize	;wreg free
  1297   001E26  0012               	return		;funcret
  1298   001E28                     __end_of_application_initialize:
  1299                           	callstack 0
  1300                           
  1301 ;; *************** function _ecu_layer_init *****************
  1302 ;; Defined at:
  1303 ;;		line 227 in file "ECU_Layer/ecu_layer_init.c"
  1304 ;; Parameters:    Size  Location     Type
  1305 ;;		None
  1306 ;; Auto vars:     Size  Location     Type
  1307 ;;  ret             1    0        unsigned char 
  1308 ;; Return value:  Size  Location     Type
  1309 ;;                  1    wreg      void 
  1310 ;; Registers used:
  1311 ;;		wreg, fsr2l, fsr2h, status,2, status,0, prodl, prodh, cstack
  1312 ;; Tracked objects:
  1313 ;;		On entry : 0/0
  1314 ;;		On exit  : 0/0
  1315 ;;		Unchanged: 0/0
  1316 ;; Data sizes:     COMRAM   BANK0   BANK1   BANK2   BANK3   BANK4   BANK5   BANK6   BANK7   BANK8   BANK9  BANK10  BANK1
      +1  BANK12  BANK13  BANK14  BANK15
  1317 ;;      Params:         0       0       0       0       0       0       0       0       0       0       0       0       
      +0       0       0       0       0
  1318 ;;      Locals:         0       0       0       0       0       0       0       0       0       0       0       0       
      +0       0       0       0       0
  1319 ;;      Temps:          0       0       0       0       0       0       0       0       0       0       0       0       
      +0       0       0       0       0
  1320 ;;      Totals:         0       0       0       0       0       0       0       0       0       0       0       0       
      +0       0       0       0       0
  1321 ;;Total ram usage:        0 bytes
  1322 ;; Hardware stack levels used: 1
  1323 ;; Hardware stack levels required when called: 6
  1324 ;; This function calls:
  1325 ;;		_seven_segement_intialize
  1326 ;; This function is called by:
  1327 ;;		_application_initialize
  1328 ;; This function uses a non-reentrant model
  1329 ;;
  1330                           
  1331                           	psect	text3
  1332   002478                     __ptext3:
  1333                           	callstack 0
  1334   002478                     _ecu_layer_init:
  1335                           	callstack 23
  1336   002478  0E5E               	movlw	low _seg1
  1337   00247A  0100               	movlb	0	; () banked
  1338   00247C  6FC5               	movwf	seven_segement_intialize@seg& (0+255),b
  1339   00247E  0E00               	movlw	high _seg1
  1340   002480  6FC6               	movwf	(seven_segement_intialize@seg+1)& (0+255),b
  1341   002482  EC04  F010         	call	_seven_segement_intialize	;wreg free
  1342   002486  0012               	return		;funcret
  1343   002488                     __end_of_ecu_layer_init:
  1344                           	callstack 0
  1345                           
  1346 ;; *************** function _seven_segement_intialize *****************
  1347 ;; Defined at:
  1348 ;;		line 17 in file "ECU_Layer/7_Segment/ecu_seven_segment.c"
  1349 ;; Parameters:    Size  Location     Type
  1350 ;;  seg             2    0[BANK0 ] PTR const struct .
  1351 ;;		 -> seg1(5), 
  1352 ;; Auto vars:     Size  Location     Type
  1353 ;;  ret             1    2[BANK0 ] unsigned char 
  1354 ;; Return value:  Size  Location     Type
  1355 ;;                  1    wreg      unsigned char 
  1356 ;; Registers used:
  1357 ;;		wreg, fsr2l, fsr2h, status,2, status,0, prodl, prodh, cstack
  1358 ;; Tracked objects:
  1359 ;;		On entry : 0/0
  1360 ;;		On exit  : 0/0
  1361 ;;		Unchanged: 0/0
  1362 ;; Data sizes:     COMRAM   BANK0   BANK1   BANK2   BANK3   BANK4   BANK5   BANK6   BANK7   BANK8   BANK9  BANK10  BANK1
      +1  BANK12  BANK13  BANK14  BANK15
  1363 ;;      Params:         0       2       0       0       0       0       0       0       0       0       0       0       
      +0       0       0       0       0
  1364 ;;      Locals:         0       1       0       0       0       0       0       0       0       0       0       0       
      +0       0       0       0       0
  1365 ;;      Temps:          0       0       0       0       0       0       0       0       0       0       0       0       
      +0       0       0       0       0
  1366 ;;      Totals:         0       3       0       0       0       0       0       0       0       0       0       0       
      +0       0       0       0       0
  1367 ;;Total ram usage:        3 bytes
  1368 ;; Hardware stack levels used: 1
  1369 ;; Hardware stack levels required when called: 5
  1370 ;; This function calls:
  1371 ;;		_gpio_pin_intialize
  1372 ;; This function is called by:
  1373 ;;		_ecu_layer_init
  1374 ;; This function uses a non-reentrant model
  1375 ;;
  1376                           
  1377                           	psect	text4
  1378   002008                     __ptext4:
  1379                           	callstack 0
  1380   002008                     _seven_segement_intialize:
  1381                           	callstack 23
  1382   002008                     
  1383                           ;ECU_Layer/7_Segment/ecu_seven_segment.c: 19:     if(((void*)0) == seg){
  1384   002008  0100               	movlb	0	; () banked
  1385   00200A  51C5               	movf	seven_segement_intialize@seg& (0+255),w,b
  1386   00200C  11C6               	iorwf	(seven_segement_intialize@seg+1)& (0+255),w,b
  1387   00200E  A4D8               	btfss	status,2,c
  1388   002010  EF0C  F010         	goto	u5351
  1389   002014  EF0E  F010         	goto	u5350
  1390   002018                     u5351:
  1391   002018  EF12  F010         	goto	l7080
  1392   00201C                     u5350:
  1393   00201C                     
  1394                           ; BSR set to: 0
  1395                           ;ECU_Layer/7_Segment/ecu_seven_segment.c: 20:         ret = (Std_ReturnType)0x00;
  1396   00201C  0E00               	movlw	0
  1397   00201E  6FC7               	movwf	seven_segement_intialize@ret& (0+255),b
  1398                           
  1399                           ;ECU_Layer/7_Segment/ecu_seven_segment.c: 21:     }
  1400   002020  EF38  F010         	goto	l7082
  1401   002024                     l7080:
  1402                           
  1403                           ; BSR set to: 0
  1404                           ;ECU_Layer/7_Segment/ecu_seven_segment.c: 23:         ret = gpio_pin_intialize(&(seg->se
      +                          gment_pins[0]));
  1405   002024  C0C5  F077         	movff	seven_segement_intialize@seg,gpio_pin_intialize@_pin_config
  1406   002028  C0C6  F078         	movff	seven_segement_intialize@seg+1,gpio_pin_intialize@_pin_config+1
  1407   00202C  EC3A  F010         	call	_gpio_pin_intialize	;wreg free
  1408   002030  0100               	movlb	0	; () banked
  1409   002032  6FC7               	movwf	seven_segement_intialize@ret& (0+255),b
  1410                           
  1411                           ;ECU_Layer/7_Segment/ecu_seven_segment.c: 24:         ret = gpio_pin_intialize(&(seg->se
      +                          gment_pins[1]));
  1412   002034  0E01               	movlw	1
  1413   002036  25C5               	addwf	seven_segement_intialize@seg& (0+255),w,b
  1414   002038  6E77               	movwf	gpio_pin_intialize@_pin_config^0,c
  1415   00203A  0E00               	movlw	0
  1416   00203C  21C6               	addwfc	(seven_segement_intialize@seg+1)& (0+255),w,b
  1417   00203E  6E78               	movwf	(gpio_pin_intialize@_pin_config+1)^0,c
  1418   002040  EC3A  F010         	call	_gpio_pin_intialize	;wreg free
  1419   002044  0100               	movlb	0	; () banked
  1420   002046  6FC7               	movwf	seven_segement_intialize@ret& (0+255),b
  1421                           
  1422                           ;ECU_Layer/7_Segment/ecu_seven_segment.c: 25:         ret = gpio_pin_intialize(&(seg->se
      +                          gment_pins[2]));
  1423   002048  0E02               	movlw	2
  1424   00204A  25C5               	addwf	seven_segement_intialize@seg& (0+255),w,b
  1425   00204C  6E77               	movwf	gpio_pin_intialize@_pin_config^0,c
  1426   00204E  0E00               	movlw	0
  1427   002050  21C6               	addwfc	(seven_segement_intialize@seg+1)& (0+255),w,b
  1428   002052  6E78               	movwf	(gpio_pin_intialize@_pin_config+1)^0,c
  1429   002054  EC3A  F010         	call	_gpio_pin_intialize	;wreg free
  1430   002058  0100               	movlb	0	; () banked
  1431   00205A  6FC7               	movwf	seven_segement_intialize@ret& (0+255),b
  1432                           
  1433                           ;ECU_Layer/7_Segment/ecu_seven_segment.c: 26:         ret = gpio_pin_intialize(&(seg->se
      +                          gment_pins[3]));
  1434   00205C  0E03               	movlw	3
  1435   00205E  25C5               	addwf	seven_segement_intialize@seg& (0+255),w,b
  1436   002060  6E77               	movwf	gpio_pin_intialize@_pin_config^0,c
  1437   002062  0E00               	movlw	0
  1438   002064  21C6               	addwfc	(seven_segement_intialize@seg+1)& (0+255),w,b
  1439   002066  6E78               	movwf	(gpio_pin_intialize@_pin_config+1)^0,c
  1440   002068  EC3A  F010         	call	_gpio_pin_intialize	;wreg free
  1441   00206C  0100               	movlb	0	; () banked
  1442   00206E  6FC7               	movwf	seven_segement_intialize@ret& (0+255),b
  1443   002070                     l7082:
  1444                           
  1445                           ; BSR set to: 0
  1446                           ;ECU_Layer/7_Segment/ecu_seven_segment.c: 28:     return ret;
  1447   002070  51C7               	movf	seven_segement_intialize@ret& (0+255),w,b
  1448   002072                     
  1449                           ; BSR set to: 0
  1450   002072  0012               	return		;funcret
  1451   002074                     __end_of_seven_segement_intialize:
  1452                           	callstack 0
  1453                           
  1454 ;; *************** function _gpio_pin_intialize *****************
  1455 ;; Defined at:
  1456 ;;		line 144 in file "MCAL_Layer/GPIO/hal_gpio.c"
  1457 ;; Parameters:    Size  Location     Type
  1458 ;;  _pin_config     2   14[COMRAM] PTR const struct .
  1459 ;;		 -> seg5_enable(1), seg4_enable(1), seg3_enable(1), seg2_enable(1), 
  1460 ;;		 -> seg1_enable(1), seg6_enable(1), seg1.segment_pins(4), seg1(5), 
  1461 ;; Auto vars:     Size  Location     Type
  1462 ;;  ret             1   17[COMRAM] unsigned char 
  1463 ;; Return value:  Size  Location     Type
  1464 ;;                  1    wreg      unsigned char 
  1465 ;; Registers used:
  1466 ;;		wreg, fsr2l, fsr2h, status,2, status,0, prodl, prodh, cstack
  1467 ;; Tracked objects:
  1468 ;;		On entry : 0/0
  1469 ;;		On exit  : 0/0
  1470 ;;		Unchanged: 0/0
  1471 ;; Data sizes:     COMRAM   BANK0   BANK1   BANK2   BANK3   BANK4   BANK5   BANK6   BANK7   BANK8   BANK9  BANK10  BANK1
      +1  BANK12  BANK13  BANK14  BANK15
  1472 ;;      Params:         2       0       0       0       0       0       0       0       0       0       0       0       
      +0       0       0       0       0
  1473 ;;      Locals:         1       0       0       0       0       0       0       0       0       0       0       0       
      +0       0       0       0       0
  1474 ;;      Temps:          1       0       0       0       0       0       0       0       0       0       0       0       
      +0       0       0       0       0
  1475 ;;      Totals:         4       0       0       0       0       0       0       0       0       0       0       0       
      +0       0       0       0       0
  1476 ;;Total ram usage:        4 bytes
  1477 ;; Hardware stack levels used: 1
  1478 ;; Hardware stack levels required when called: 4
  1479 ;; This function calls:
  1480 ;;		_gpio_pin_direction_intialize
  1481 ;;		_gpio_pin_write_logic
  1482 ;; This function is called by:
  1483 ;;		_seven_segement_intialize
  1484 ;;		_application_initialize
  1485 ;;		_lcd_4bit_intialize
  1486 ;;		_lcd_8bit_intialize
  1487 ;;		_dc_motor_initialize
  1488 ;;		_keypad_initialize
  1489 ;;		_led_initialize
  1490 ;;		_relay_initialize
  1491 ;;		_Ultrasonic_Init
  1492 ;;		_CCP_Init
  1493 ;; This function uses a non-reentrant model
  1494 ;;
  1495                           
  1496                           	psect	text5
  1497   002074                     __ptext5:
  1498                           	callstack 0
  1499   002074                     _gpio_pin_intialize:
  1500                           	callstack 25
  1501   002074                     
  1502                           ;MCAL_Layer/GPIO/hal_gpio.c: 146:     if(((void*)0) == _pin_config || _pin_config->pin >
      +                           8 -1){
  1503   002074  5077               	movf	gpio_pin_intialize@_pin_config^0,w,c
  1504   002076  1078               	iorwf	(gpio_pin_intialize@_pin_config+1)^0,w,c
  1505   002078  B4D8               	btfsc	status,2,c
  1506   00207A  EF41  F010         	goto	u5301
  1507   00207E  EF43  F010         	goto	u5300
  1508   002082                     u5301:
  1509   002082  EF54  F010         	goto	l7024
  1510   002086                     u5300:
  1511   002086  C077  FFD9         	movff	gpio_pin_intialize@_pin_config,fsr2l
  1512   00208A  C078  FFDA         	movff	gpio_pin_intialize@_pin_config+1,fsr2h
  1513   00208E  30DF               	rrcf	223,w,c
  1514   002090  32E8               	rrcf	wreg,f,c
  1515   002092  32E8               	rrcf	wreg,f,c
  1516   002094  0B07               	andlw	7
  1517   002096  6E79               	movwf	??_gpio_pin_intialize^0,c
  1518   002098  0E07               	movlw	7
  1519   00209A  6479               	cpfsgt	??_gpio_pin_intialize^0,c
  1520   00209C  EF52  F010         	goto	u5311
  1521   0020A0  EF54  F010         	goto	u5310
  1522   0020A4                     u5311:
  1523   0020A4  EF58  F010         	goto	l7026
  1524   0020A8                     u5310:
  1525   0020A8                     l7024:
  1526                           
  1527                           ;MCAL_Layer/GPIO/hal_gpio.c: 147:         ret = (Std_ReturnType)0x00;
  1528   0020A8  0E00               	movlw	0
  1529   0020AA  6E7A               	movwf	gpio_pin_intialize@ret^0,c
  1530                           
  1531                           ;MCAL_Layer/GPIO/hal_gpio.c: 148:     }
  1532   0020AC  EF6E  F010         	goto	l7028
  1533   0020B0                     l7026:
  1534                           
  1535                           ;MCAL_Layer/GPIO/hal_gpio.c: 150:         ret = gpio_pin_direction_intialize(_pin_config
      +                          );
  1536   0020B0  C077  F06D         	movff	gpio_pin_intialize@_pin_config,gpio_pin_direction_intialize@_pin_config
  1537   0020B4  C078  F06E         	movff	gpio_pin_intialize@_pin_config+1,gpio_pin_direction_intialize@_pin_config+1
  1538   0020B8  EC1C  F00B         	call	_gpio_pin_direction_intialize	;wreg free
  1539   0020BC  6E7A               	movwf	gpio_pin_intialize@ret^0,c
  1540                           
  1541                           ;MCAL_Layer/GPIO/hal_gpio.c: 151:         ret = gpio_pin_write_logic(_pin_config, _pin_c
      +                          onfig->logic);
  1542   0020BE  C077  F06D         	movff	gpio_pin_intialize@_pin_config,gpio_pin_write_logic@_pin_config
  1543   0020C2  C078  F06E         	movff	gpio_pin_intialize@_pin_config+1,gpio_pin_write_logic@_pin_config+1
  1544   0020C6  C077  FFD9         	movff	gpio_pin_intialize@_pin_config,fsr2l
  1545   0020CA  C078  FFDA         	movff	gpio_pin_intialize@_pin_config+1,fsr2h
  1546   0020CE  0E00               	movlw	0
  1547   0020D0  BEDF               	btfsc	indf2,7,c
  1548   0020D2  0E01               	movlw	1
  1549   0020D4  6E6F               	movwf	gpio_pin_write_logic@logic^0,c
  1550   0020D6  ECBE  F00B         	call	_gpio_pin_write_logic	;wreg free
  1551   0020DA  6E7A               	movwf	gpio_pin_intialize@ret^0,c
  1552   0020DC                     l7028:
  1553                           
  1554                           ;MCAL_Layer/GPIO/hal_gpio.c: 153:     return ret;
  1555   0020DC  507A               	movf	gpio_pin_intialize@ret^0,w,c
  1556   0020DE  0012               	return		;funcret
  1557   0020E0                     __end_of_gpio_pin_intialize:
  1558                           	callstack 0
  1559                           
  1560 ;; *************** function _gpio_pin_write_logic *****************
  1561 ;; Defined at:
  1562 ;;		line 75 in file "MCAL_Layer/GPIO/hal_gpio.c"
  1563 ;; Parameters:    Size  Location     Type
  1564 ;;  _pin_config     2    4[COMRAM] PTR const struct .
  1565 ;;		 -> seg5_enable(1), seg4_enable(1), seg3_enable(1), seg2_enable(1), 
  1566 ;;		 -> seg1_enable(1), seg6_enable(1), seg1.segment_pins(4), seg1(5), 
  1567 ;;  logic           1    6[COMRAM] enum E3462
  1568 ;; Auto vars:     Size  Location     Type
  1569 ;;  ret             1   13[COMRAM] unsigned char 
  1570 ;; Return value:  Size  Location     Type
  1571 ;;                  1    wreg      unsigned char 
  1572 ;; Registers used:
  1573 ;;		wreg, fsr2l, fsr2h, status,2, status,0, prodl, prodh
  1574 ;; Tracked objects:
  1575 ;;		On entry : 0/0
  1576 ;;		On exit  : 0/0
  1577 ;;		Unchanged: 0/0
  1578 ;; Data sizes:     COMRAM   BANK0   BANK1   BANK2   BANK3   BANK4   BANK5   BANK6   BANK7   BANK8   BANK9  BANK10  BANK1
      +1  BANK12  BANK13  BANK14  BANK15
  1579 ;;      Params:         3       0       0       0       0       0       0       0       0       0       0       0       
      +0       0       0       0       0
  1580 ;;      Locals:         1       0       0       0       0       0       0       0       0       0       0       0       
      +0       0       0       0       0
  1581 ;;      Temps:          6       0       0       0       0       0       0       0       0       0       0       0       
      +0       0       0       0       0
  1582 ;;      Totals:        10       0       0       0       0       0       0       0       0       0       0       0       
      +0       0       0       0       0
  1583 ;;Total ram usage:       10 bytes
  1584 ;; Hardware stack levels used: 1
  1585 ;; Hardware stack levels required when called: 3
  1586 ;; This function calls:
  1587 ;;		Nothing
  1588 ;; This function is called by:
  1589 ;;		_seven_segement_write_number
  1590 ;;		_gpio_pin_intialize
  1591 ;;		_main
  1592 ;;		_lcd_4bit_send_command
  1593 ;;		_lcd_4bit_send_char_data
  1594 ;;		_lcd_8bit_send_command
  1595 ;;		_lcd_8bit_send_char_data
  1596 ;;		_lcd_send_4bits
  1597 ;;		_lcd_4bit_send_enable_signal
  1598 ;;		_lcd_8bit_send_enable_signal
  1599 ;;		_dc_motor_move_right
  1600 ;;		_dc_motor_move_left
  1601 ;;		_dc_motor_stop
  1602 ;;		_keypad_get_value
  1603 ;;		_led_turn_on
  1604 ;;		_led_turn_off
  1605 ;;		_relay_turn_on
  1606 ;;		_relay_turn_off
  1607 ;;		_Ultrasonic_Calculate_Distance
  1608 ;; This function uses a non-reentrant model
  1609 ;;
  1610                           
  1611                           	psect	text6
  1612   00177C                     __ptext6:
  1613                           	callstack 0
  1614   00177C                     _gpio_pin_write_logic:
  1615                           	callstack 26
  1616   00177C                     
  1617                           ;MCAL_Layer/GPIO/hal_gpio.c: 76:     Std_ReturnType ret = (Std_ReturnType)0x01;
  1618   00177C  0E01               	movlw	1
  1619   00177E  6E76               	movwf	gpio_pin_write_logic@ret^0,c
  1620   001780                     
  1621                           ;MCAL_Layer/GPIO/hal_gpio.c: 77:     if(((void*)0) == _pin_config || _pin_config->pin > 
      +                          8 -1){
  1622   001780  506D               	movf	gpio_pin_write_logic@_pin_config^0,w,c
  1623   001782  106E               	iorwf	(gpio_pin_write_logic@_pin_config+1)^0,w,c
  1624   001784  B4D8               	btfsc	status,2,c
  1625   001786  EFC7  F00B         	goto	u5201
  1626   00178A  EFC9  F00B         	goto	u5200
  1627   00178E                     u5201:
  1628   00178E  EFDA  F00B         	goto	l6976
  1629   001792                     u5200:
  1630   001792  C06D  FFD9         	movff	gpio_pin_write_logic@_pin_config,fsr2l
  1631   001796  C06E  FFDA         	movff	gpio_pin_write_logic@_pin_config+1,fsr2h
  1632   00179A  30DF               	rrcf	223,w,c
  1633   00179C  32E8               	rrcf	wreg,f,c
  1634   00179E  32E8               	rrcf	wreg,f,c
  1635   0017A0  0B07               	andlw	7
  1636   0017A2  6E70               	movwf	??_gpio_pin_write_logic^0,c
  1637   0017A4  0E07               	movlw	7
  1638   0017A6  6470               	cpfsgt	??_gpio_pin_write_logic^0,c
  1639   0017A8  EFD8  F00B         	goto	u5211
  1640   0017AC  EFDA  F00B         	goto	u5210
  1641   0017B0                     u5211:
  1642   0017B0  EF3D  F00C         	goto	l6984
  1643   0017B4                     u5210:
  1644   0017B4                     l6976:
  1645                           
  1646                           ;MCAL_Layer/GPIO/hal_gpio.c: 78:         ret = (Std_ReturnType)0x00;
  1647   0017B4  0E00               	movlw	0
  1648   0017B6  6E76               	movwf	gpio_pin_write_logic@ret^0,c
  1649                           
  1650                           ;MCAL_Layer/GPIO/hal_gpio.c: 79:     }
  1651   0017B8  EF52  F00C         	goto	l6986
  1652   0017BC                     l6978:
  1653                           
  1654                           ;MCAL_Layer/GPIO/hal_gpio.c: 83:                 (*lat_registers[_pin_config->port] &= ~
      +                          ((uint8)1 << _pin_config->pin));
  1655   0017BC  C06D  FFD9         	movff	gpio_pin_write_logic@_pin_config,fsr2l
  1656   0017C0  C06E  FFDA         	movff	gpio_pin_write_logic@_pin_config+1,fsr2h
  1657   0017C4  30DF               	rrcf	223,w,c
  1658   0017C6  32E8               	rrcf	wreg,f,c
  1659   0017C8  32E8               	rrcf	wreg,f,c
  1660   0017CA  0B07               	andlw	7
  1661   0017CC  6E70               	movwf	??_gpio_pin_write_logic^0,c
  1662   0017CE  0E01               	movlw	1
  1663   0017D0  6E71               	movwf	(??_gpio_pin_write_logic+1)^0,c
  1664   0017D2  2A70               	incf	??_gpio_pin_write_logic^0,f,c
  1665   0017D4  EFEE  F00B         	goto	u5224
  1666   0017D8                     u5225:
  1667   0017D8  90D8               	bcf	status,0,c
  1668   0017DA  3671               	rlcf	(??_gpio_pin_write_logic+1)^0,f,c
  1669   0017DC                     u5224:
  1670   0017DC  2E70               	decfsz	??_gpio_pin_write_logic^0,f,c
  1671   0017DE  EFEC  F00B         	goto	u5225
  1672   0017E2  5071               	movf	(??_gpio_pin_write_logic+1)^0,w,c
  1673   0017E4  0AFF               	xorlw	255
  1674   0017E6  6E72               	movwf	(??_gpio_pin_write_logic+2)^0,c
  1675   0017E8  C06D  FFD9         	movff	gpio_pin_write_logic@_pin_config,fsr2l
  1676   0017EC  C06E  FFDA         	movff	gpio_pin_write_logic@_pin_config+1,fsr2h
  1677   0017F0  50DF               	movf	223,w,c
  1678   0017F2  0B07               	andlw	7
  1679   0017F4  6E73               	movwf	(??_gpio_pin_write_logic+3)^0,c
  1680   0017F6  5073               	movf	(??_gpio_pin_write_logic+3)^0,w,c
  1681   0017F8  0D02               	mullw	2
  1682   0017FA  0E3F               	movlw	low _lat_registers
  1683   0017FC  24F3               	addwf	243,w,c
  1684   0017FE  6ED9               	movwf	fsr2l,c
  1685   001800  0E00               	movlw	high _lat_registers
  1686   001802  20F4               	addwfc	prodh,w,c
  1687   001804  6EDA               	movwf	fsr2h,c
  1688   001806  CFDE F074          	movff	postinc2,??_gpio_pin_write_logic+4
  1689   00180A  CFDD F075          	movff	postdec2,??_gpio_pin_write_logic+5
  1690   00180E  C074  FFD9         	movff	??_gpio_pin_write_logic+4,fsr2l
  1691   001812  C075  FFDA         	movff	??_gpio_pin_write_logic+5,fsr2h
  1692   001816  5072               	movf	(??_gpio_pin_write_logic+2)^0,w,c
  1693   001818  16DF               	andwf	indf2,f,c
  1694                           
  1695                           ;MCAL_Layer/GPIO/hal_gpio.c: 84:                 break;
  1696   00181A  EF52  F00C         	goto	l6986
  1697   00181E                     l6980:
  1698                           
  1699                           ;MCAL_Layer/GPIO/hal_gpio.c: 86:                 (*lat_registers[_pin_config->port] |= (
      +                          (uint8)1 << _pin_config->pin));
  1700   00181E  C06D  FFD9         	movff	gpio_pin_write_logic@_pin_config,fsr2l
  1701   001822  C06E  FFDA         	movff	gpio_pin_write_logic@_pin_config+1,fsr2h
  1702   001826  30DF               	rrcf	223,w,c
  1703   001828  32E8               	rrcf	wreg,f,c
  1704   00182A  32E8               	rrcf	wreg,f,c
  1705   00182C  0B07               	andlw	7
  1706   00182E  6E70               	movwf	??_gpio_pin_write_logic^0,c
  1707   001830  0E01               	movlw	1
  1708   001832  6E71               	movwf	(??_gpio_pin_write_logic+1)^0,c
  1709   001834  2A70               	incf	??_gpio_pin_write_logic^0,f,c
  1710   001836  EF1F  F00C         	goto	u5234
  1711   00183A                     u5235:
  1712   00183A  90D8               	bcf	status,0,c
  1713   00183C  3671               	rlcf	(??_gpio_pin_write_logic+1)^0,f,c
  1714   00183E                     u5234:
  1715   00183E  2E70               	decfsz	??_gpio_pin_write_logic^0,f,c
  1716   001840  EF1D  F00C         	goto	u5235
  1717   001844  C06D  FFD9         	movff	gpio_pin_write_logic@_pin_config,fsr2l
  1718   001848  C06E  FFDA         	movff	gpio_pin_write_logic@_pin_config+1,fsr2h
  1719   00184C  50DF               	movf	223,w,c
  1720   00184E  0B07               	andlw	7
  1721   001850  6E72               	movwf	(??_gpio_pin_write_logic+2)^0,c
  1722   001852  5072               	movf	(??_gpio_pin_write_logic+2)^0,w,c
  1723   001854  0D02               	mullw	2
  1724   001856  0E3F               	movlw	low _lat_registers
  1725   001858  24F3               	addwf	243,w,c
  1726   00185A  6ED9               	movwf	fsr2l,c
  1727   00185C  0E00               	movlw	high _lat_registers
  1728   00185E  20F4               	addwfc	prodh,w,c
  1729   001860  6EDA               	movwf	fsr2h,c
  1730   001862  CFDE F073          	movff	postinc2,??_gpio_pin_write_logic+3
  1731   001866  CFDD F074          	movff	postdec2,??_gpio_pin_write_logic+4
  1732   00186A  C073  FFD9         	movff	??_gpio_pin_write_logic+3,fsr2l
  1733   00186E  C074  FFDA         	movff	??_gpio_pin_write_logic+4,fsr2h
  1734   001872  5071               	movf	(??_gpio_pin_write_logic+1)^0,w,c
  1735   001874  12DF               	iorwf	indf2,f,c
  1736                           
  1737                           ;MCAL_Layer/GPIO/hal_gpio.c: 87:                 break;
  1738   001876  EF52  F00C         	goto	l6986
  1739   00187A                     l6984:
  1740   00187A  506F               	movf	gpio_pin_write_logic@logic^0,w,c
  1741   00187C  6E70               	movwf	??_gpio_pin_write_logic^0,c
  1742   00187E  6A71               	clrf	(??_gpio_pin_write_logic+1)^0,c
  1743                           
  1744                           ; Switch on 2 bytes has been partitioned into a top level switch of size 1, and 1 sub-sw
      +                          itches
  1745                           ; Switch size 1, requested type "simple"
  1746                           ; Number of cases is 1, Range of values is 0 to 0
  1747                           ; switch strategies available:
  1748                           ; Name         Instructions Cycles
  1749                           ; simple_byte            4     3 (average)
  1750                           ;	Chosen strategy is simple_byte
  1751   001880  5071               	movf	(??_gpio_pin_write_logic+1)^0,w,c
  1752   001882  0A00               	xorlw	0	; case 0
  1753   001884  B4D8               	btfsc	status,2,c
  1754   001886  EF47  F00C         	goto	l8252
  1755   00188A  EFDA  F00B         	goto	l6976
  1756   00188E                     l8252:
  1757                           
  1758                           ; Switch size 1, requested type "simple"
  1759                           ; Number of cases is 2, Range of values is 0 to 1
  1760                           ; switch strategies available:
  1761                           ; Name         Instructions Cycles
  1762                           ; simple_byte            7     4 (average)
  1763                           ;	Chosen strategy is simple_byte
  1764   00188E  5070               	movf	??_gpio_pin_write_logic^0,w,c
  1765   001890  0A00               	xorlw	0	; case 0
  1766   001892  B4D8               	btfsc	status,2,c
  1767   001894  EFDE  F00B         	goto	l6978
  1768   001898  0A01               	xorlw	1	; case 1
  1769   00189A  B4D8               	btfsc	status,2,c
  1770   00189C  EF0F  F00C         	goto	l6980
  1771   0018A0  EFDA  F00B         	goto	l6976
  1772   0018A4                     l6986:
  1773                           
  1774                           ;MCAL_Layer/GPIO/hal_gpio.c: 91:     return ret;
  1775   0018A4  5076               	movf	gpio_pin_write_logic@ret^0,w,c
  1776   0018A6  0012               	return		;funcret
  1777   0018A8                     __end_of_gpio_pin_write_logic:
  1778                           	callstack 0
  1779                           
  1780 ;; *************** function _Timer0_Init *****************
  1781 ;; Defined at:
  1782 ;;		line 19 in file "MCAL_Layer/Timer0/hal_timr0.c"
  1783 ;; Parameters:    Size  Location     Type
  1784 ;;  _timer          2    7[COMRAM] PTR const struct .
  1785 ;;		 -> timer0(7), 
  1786 ;; Auto vars:     Size  Location     Type
  1787 ;;  ret             1   11[COMRAM] unsigned char 
  1788 ;; Return value:  Size  Location     Type
  1789 ;;                  1    wreg      unsigned char 
  1790 ;; Registers used:
  1791 ;;		wreg, fsr2l, fsr2h, status,2, status,0, cstack
  1792 ;; Tracked objects:
  1793 ;;		On entry : 0/0
  1794 ;;		On exit  : 0/0
  1795 ;;		Unchanged: 0/0
  1796 ;; Data sizes:     COMRAM   BANK0   BANK1   BANK2   BANK3   BANK4   BANK5   BANK6   BANK7   BANK8   BANK9  BANK10  BANK1
      +1  BANK12  BANK13  BANK14  BANK15
  1797 ;;      Params:         2       0       0       0       0       0       0       0       0       0       0       0       
      +0       0       0       0       0
  1798 ;;      Locals:         1       0       0       0       0       0       0       0       0       0       0       0       
      +0       0       0       0       0
  1799 ;;      Temps:          2       0       0       0       0       0       0       0       0       0       0       0       
      +0       0       0       0       0
  1800 ;;      Totals:         5       0       0       0       0       0       0       0       0       0       0       0       
      +0       0       0       0       0
  1801 ;;Total ram usage:        5 bytes
  1802 ;; Hardware stack levels used: 1
  1803 ;; Hardware stack levels required when called: 4
  1804 ;; This function calls:
  1805 ;;		_Timer0_Mode_Select
  1806 ;;		_Timer0_Prescaler_Config
  1807 ;;		_Timer0_Register_Size_Config
  1808 ;; This function is called by:
  1809 ;;		_application_initialize
  1810 ;; This function uses a non-reentrant model
  1811 ;;
  1812                           
  1813                           	psect	text7
  1814   001BF2                     __ptext7:
  1815                           	callstack 0
  1816   001BF2                     _Timer0_Init:
  1817                           	callstack 25
  1818   001BF2                     
  1819                           ;MCAL_Layer/Timer0/hal_timr0.c: 21:     if(((void*)0) == _timer){
  1820   001BF2  5070               	movf	Timer0_Init@_timer^0,w,c
  1821   001BF4  1071               	iorwf	(Timer0_Init@_timer+1)^0,w,c
  1822   001BF6  A4D8               	btfss	status,2,c
  1823   001BF8  EF00  F00E         	goto	u4171
  1824   001BFC  EF02  F00E         	goto	u4170
  1825   001C00                     u4171:
  1826   001C00  EF06  F00E         	goto	l1419
  1827   001C04                     u4170:
  1828   001C04                     
  1829                           ;MCAL_Layer/Timer0/hal_timr0.c: 22:         ret = (Std_ReturnType)0x00;
  1830   001C04  0E00               	movlw	0
  1831   001C06  6E74               	movwf	Timer0_Init@ret^0,c
  1832                           
  1833                           ;MCAL_Layer/Timer0/hal_timr0.c: 23:     }
  1834   001C08  EF49  F00E         	goto	l5914
  1835   001C0C                     l1419:
  1836                           
  1837                           ;MCAL_Layer/Timer0/hal_timr0.c: 25:         (T0CONbits.TMR0ON = 0);
  1838   001C0C  9ED5               	bcf	213,7,c	;volatile
  1839   001C0E                     
  1840                           ;MCAL_Layer/Timer0/hal_timr0.c: 26:         Timer0_Prescaler_Config(_timer);
  1841   001C0E  C070  F06D         	movff	Timer0_Init@_timer,Timer0_Prescaler_Config@_timer
  1842   001C12  C071  F06E         	movff	Timer0_Init@_timer+1,Timer0_Prescaler_Config@_timer+1
  1843   001C16  ECA2  F010         	call	_Timer0_Prescaler_Config	;wreg free
  1844                           
  1845                           ;MCAL_Layer/Timer0/hal_timr0.c: 27:         Timer0_Mode_Select(_timer);
  1846   001C1A  C070  F06D         	movff	Timer0_Init@_timer,Timer0_Mode_Select@_timer
  1847   001C1E  C071  F06E         	movff	Timer0_Init@_timer+1,Timer0_Mode_Select@_timer+1
  1848   001C22  EC14  F00F         	call	_Timer0_Mode_Select	;wreg free
  1849                           
  1850                           ;MCAL_Layer/Timer0/hal_timr0.c: 28:         Timer0_Register_Size_Config(_timer);
  1851   001C26  C070  F06D         	movff	Timer0_Init@_timer,Timer0_Register_Size_Config@_timer
  1852   001C2A  C071  F06E         	movff	Timer0_Init@_timer+1,Timer0_Register_Size_Config@_timer+1
  1853   001C2E  ECEE  F010         	call	_Timer0_Register_Size_Config	;wreg free
  1854   001C32                     
  1855                           ;MCAL_Layer/Timer0/hal_timr0.c: 29:         TMR0H = (_timer->timer0_preload_value) >> 8;
  1856   001C32  EE20 F004          	lfsr	2,4
  1857   001C36  5070               	movf	Timer0_Init@_timer^0,w,c
  1858   001C38  26D9               	addwf	fsr2l,f,c
  1859   001C3A  5071               	movf	(Timer0_Init@_timer+1)^0,w,c
  1860   001C3C  22DA               	addwfc	fsr2h,f,c
  1861   001C3E  CFDE F072          	movff	postinc2,??_Timer0_Init
  1862   001C42  CFDD F073          	movff	postdec2,??_Timer0_Init+1
  1863   001C46  C073  F072         	movff	??_Timer0_Init+1,??_Timer0_Init
  1864   001C4A  6A73               	clrf	(??_Timer0_Init+1)^0,c
  1865   001C4C  5072               	movf	??_Timer0_Init^0,w,c
  1866   001C4E  6ED7               	movwf	215,c	;volatile
  1867   001C50                     
  1868                           ;MCAL_Layer/Timer0/hal_timr0.c: 30:         TMR0L = (uint8)(_timer->timer0_preload_value
      +                          );
  1869   001C50  EE20 F004          	lfsr	2,4
  1870   001C54  5070               	movf	Timer0_Init@_timer^0,w,c
  1871   001C56  26D9               	addwf	fsr2l,f,c
  1872   001C58  5071               	movf	(Timer0_Init@_timer+1)^0,w,c
  1873   001C5A  22DA               	addwfc	fsr2h,f,c
  1874   001C5C  50DF               	movf	indf2,w,c
  1875   001C5E  6ED6               	movwf	214,c	;volatile
  1876   001C60                     
  1877                           ;MCAL_Layer/Timer0/hal_timr0.c: 31:         timer0_preload = _timer->timer0_preload_valu
      +                          e;
  1878   001C60  EE20 F004          	lfsr	2,4
  1879   001C64  5070               	movf	Timer0_Init@_timer^0,w,c
  1880   001C66  26D9               	addwf	fsr2l,f,c
  1881   001C68  5071               	movf	(Timer0_Init@_timer+1)^0,w,c
  1882   001C6A  22DA               	addwfc	fsr2h,f,c
  1883   001C6C  CFDE F013          	movff	postinc2,_timer0_preload
  1884   001C70  CFDD F014          	movff	postdec2,_timer0_preload+1
  1885   001C74                     
  1886                           ;MCAL_Layer/Timer0/hal_timr0.c: 34:         (INTCONbits.TMR0IE = 1);
  1887   001C74  8AF2               	bsf	242,5,c	;volatile
  1888   001C76                     
  1889                           ;MCAL_Layer/Timer0/hal_timr0.c: 35:         (INTCONbits.TMR0IF = 0);
  1890   001C76  94F2               	bcf	242,2,c	;volatile
  1891   001C78                     
  1892                           ;MCAL_Layer/Timer0/hal_timr0.c: 36:         TMR0_InterruptHandler = _timer->TMR0_Interru
      +                          ptHandler;
  1893   001C78  C070  FFD9         	movff	Timer0_Init@_timer,fsr2l
  1894   001C7C  C071  FFDA         	movff	Timer0_Init@_timer+1,fsr2h
  1895   001C80  CFDE F015          	movff	postinc2,_TMR0_InterruptHandler
  1896   001C84  CFDD F016          	movff	postdec2,_TMR0_InterruptHandler+1
  1897   001C88                     
  1898                           ;MCAL_Layer/Timer0/hal_timr0.c: 53:         (INTCONbits.GIE = 1);
  1899   001C88  8EF2               	bsf	242,7,c	;volatile
  1900   001C8A                     
  1901                           ;MCAL_Layer/Timer0/hal_timr0.c: 54:         (INTCONbits.PEIE = 1);
  1902   001C8A  8CF2               	bsf	242,6,c	;volatile
  1903   001C8C                     
  1904                           ;MCAL_Layer/Timer0/hal_timr0.c: 58:         (T0CONbits.TMR0ON = 1);
  1905   001C8C  8ED5               	bsf	213,7,c	;volatile
  1906   001C8E                     
  1907                           ;MCAL_Layer/Timer0/hal_timr0.c: 59:         ret = (Std_ReturnType)0x01;
  1908   001C8E  0E01               	movlw	1
  1909   001C90  6E74               	movwf	Timer0_Init@ret^0,c
  1910   001C92                     l5914:
  1911                           
  1912                           ;MCAL_Layer/Timer0/hal_timr0.c: 61:     return ret;
  1913   001C92  5074               	movf	Timer0_Init@ret^0,w,c
  1914   001C94  0012               	return		;funcret
  1915   001C96                     __end_of_Timer0_Init:
  1916                           	callstack 0
  1917                           
  1918 ;; *************** function _Timer0_Register_Size_Config *****************
  1919 ;; Defined at:
  1920 ;;		line 144 in file "MCAL_Layer/Timer0/hal_timr0.c"
  1921 ;; Parameters:    Size  Location     Type
  1922 ;;  _timer          2    4[COMRAM] PTR const struct .
  1923 ;;		 -> timer0(7), 
  1924 ;; Auto vars:     Size  Location     Type
  1925 ;;		None
  1926 ;; Return value:  Size  Location     Type
  1927 ;;                  1    wreg      void 
  1928 ;; Registers used:
  1929 ;;		wreg, fsr2l, fsr2h, status,2, status,0
  1930 ;; Tracked objects:
  1931 ;;		On entry : 0/0
  1932 ;;		On exit  : 0/0
  1933 ;;		Unchanged: 0/0
  1934 ;; Data sizes:     COMRAM   BANK0   BANK1   BANK2   BANK3   BANK4   BANK5   BANK6   BANK7   BANK8   BANK9  BANK10  BANK1
      +1  BANK12  BANK13  BANK14  BANK15
  1935 ;;      Params:         2       0       0       0       0       0       0       0       0       0       0       0       
      +0       0       0       0       0
  1936 ;;      Locals:         0       0       0       0       0       0       0       0       0       0       0       0       
      +0       0       0       0       0
  1937 ;;      Temps:          0       0       0       0       0       0       0       0       0       0       0       0       
      +0       0       0       0       0
  1938 ;;      Totals:         2       0       0       0       0       0       0       0       0       0       0       0       
      +0       0       0       0       0
  1939 ;;Total ram usage:        2 bytes
  1940 ;; Hardware stack levels used: 1
  1941 ;; Hardware stack levels required when called: 3
  1942 ;; This function calls:
  1943 ;;		Nothing
  1944 ;; This function is called by:
  1945 ;;		_Timer0_Init
  1946 ;; This function uses a non-reentrant model
  1947 ;;
  1948                           
  1949                           	psect	text8
  1950   0021DC                     __ptext8:
  1951                           	callstack 0
  1952   0021DC                     _Timer0_Register_Size_Config:
  1953                           	callstack 25
  1954   0021DC                     
  1955                           ;MCAL_Layer/Timer0/hal_timr0.c: 145:     if(1 == _timer->timer0_register_size){
  1956   0021DC  EE20 F006          	lfsr	2,6
  1957   0021E0  506D               	movf	Timer0_Register_Size_Config@_timer^0,w,c
  1958   0021E2  26D9               	addwf	fsr2l,f,c
  1959   0021E4  506E               	movf	(Timer0_Register_Size_Config@_timer+1)^0,w,c
  1960   0021E6  22DA               	addwfc	fsr2h,f,c
  1961   0021E8  A6DF               	btfss	indf2,3,c
  1962   0021EA  EFF9  F010         	goto	u4101
  1963   0021EE  EFFB  F010         	goto	u4100
  1964   0021F2                     u4101:
  1965   0021F2  EFFE  F010         	goto	l5786
  1966   0021F6                     u4100:
  1967   0021F6                     
  1968                           ;MCAL_Layer/Timer0/hal_timr0.c: 146:         (T0CONbits.T08BIT = 1);
  1969   0021F6  8CD5               	bsf	213,6,c	;volatile
  1970                           
  1971                           ;MCAL_Layer/Timer0/hal_timr0.c: 147:     }
  1972   0021F8  EF0C  F011         	goto	l1465
  1973   0021FC                     l5786:
  1974   0021FC  EE20 F006          	lfsr	2,6
  1975   002200  506D               	movf	Timer0_Register_Size_Config@_timer^0,w,c
  1976   002202  26D9               	addwf	fsr2l,f,c
  1977   002204  506E               	movf	(Timer0_Register_Size_Config@_timer+1)^0,w,c
  1978   002206  22DA               	addwfc	fsr2h,f,c
  1979   002208  B6DF               	btfsc	indf2,3,c
  1980   00220A  EF09  F011         	goto	u4111
  1981   00220E  EF0B  F011         	goto	u4110
  1982   002212                     u4111:
  1983   002212  EF0C  F011         	goto	l1465
  1984   002216                     u4110:
  1985   002216                     
  1986                           ;MCAL_Layer/Timer0/hal_timr0.c: 149:         (T0CONbits.T08BIT = 0);
  1987   002216  9CD5               	bcf	213,6,c	;volatile
  1988   002218                     l1465:
  1989   002218  0012               	return		;funcret
  1990   00221A                     __end_of_Timer0_Register_Size_Config:
  1991                           	callstack 0
  1992                           
  1993 ;; *************** function _Timer0_Prescaler_Config *****************
  1994 ;; Defined at:
  1995 ;;		line 116 in file "MCAL_Layer/Timer0/hal_timr0.c"
  1996 ;; Parameters:    Size  Location     Type
  1997 ;;  _timer          2    4[COMRAM] PTR const struct .
  1998 ;;		 -> timer0(7), 
  1999 ;; Auto vars:     Size  Location     Type
  2000 ;;		None
  2001 ;; Return value:  Size  Location     Type
  2002 ;;                  1    wreg      void 
  2003 ;; Registers used:
  2004 ;;		wreg, fsr2l, fsr2h, status,2, status,0
  2005 ;; Tracked objects:
  2006 ;;		On entry : 0/0
  2007 ;;		On exit  : 0/0
  2008 ;;		Unchanged: 0/0
  2009 ;; Data sizes:     COMRAM   BANK0   BANK1   BANK2   BANK3   BANK4   BANK5   BANK6   BANK7   BANK8   BANK9  BANK10  BANK1
      +1  BANK12  BANK13  BANK14  BANK15
  2010 ;;      Params:         2       0       0       0       0       0       0       0       0       0       0       0       
      +0       0       0       0       0
  2011 ;;      Locals:         0       0       0       0       0       0       0       0       0       0       0       0       
      +0       0       0       0       0
  2012 ;;      Temps:          1       0       0       0       0       0       0       0       0       0       0       0       
      +0       0       0       0       0
  2013 ;;      Totals:         3       0       0       0       0       0       0       0       0       0       0       0       
      +0       0       0       0       0
  2014 ;;Total ram usage:        3 bytes
  2015 ;; Hardware stack levels used: 1
  2016 ;; Hardware stack levels required when called: 3
  2017 ;; This function calls:
  2018 ;;		Nothing
  2019 ;; This function is called by:
  2020 ;;		_Timer0_Init
  2021 ;; This function uses a non-reentrant model
  2022 ;;
  2023                           
  2024                           	psect	text9
  2025   002144                     __ptext9:
  2026                           	callstack 0
  2027   002144                     _Timer0_Prescaler_Config:
  2028                           	callstack 25
  2029   002144                     
  2030                           ;MCAL_Layer/Timer0/hal_timr0.c: 117:     if(1 == _timer->prescaler_enable){
  2031   002144  EE20 F006          	lfsr	2,6
  2032   002148  506D               	movf	Timer0_Prescaler_Config@_timer^0,w,c
  2033   00214A  26D9               	addwf	fsr2l,f,c
  2034   00214C  506E               	movf	(Timer0_Prescaler_Config@_timer+1)^0,w,c
  2035   00214E  22DA               	addwfc	fsr2h,f,c
  2036   002150  A0DF               	btfss	indf2,0,c
  2037   002152  EFAD  F010         	goto	u4041
  2038   002156  EFAF  F010         	goto	u4040
  2039   00215A                     u4041:
  2040   00215A  EFBF  F010         	goto	l5762
  2041   00215E                     u4040:
  2042   00215E                     
  2043                           ;MCAL_Layer/Timer0/hal_timr0.c: 118:         (T0CONbits.PSA = 0);
  2044   00215E  96D5               	bcf	213,3,c	;volatile
  2045   002160                     
  2046                           ;MCAL_Layer/Timer0/hal_timr0.c: 119:         T0CONbits.T0PS = _timer->prescaler_value;
  2047   002160  EE20 F003          	lfsr	2,3
  2048   002164  506D               	movf	Timer0_Prescaler_Config@_timer^0,w,c
  2049   002166  26D9               	addwf	fsr2l,f,c
  2050   002168  506E               	movf	(Timer0_Prescaler_Config@_timer+1)^0,w,c
  2051   00216A  22DA               	addwfc	fsr2h,f,c
  2052   00216C  50DF               	movf	indf2,w,c
  2053   00216E  6E6F               	movwf	??_Timer0_Prescaler_Config^0,c
  2054   002170  50D5               	movf	213,w,c	;volatile
  2055   002172  186F               	xorwf	??_Timer0_Prescaler_Config^0,w,c
  2056   002174  0BF8               	andlw	-8
  2057   002176  186F               	xorwf	??_Timer0_Prescaler_Config^0,w,c
  2058   002178  6ED5               	movwf	213,c	;volatile
  2059                           
  2060                           ;MCAL_Layer/Timer0/hal_timr0.c: 120:     }
  2061   00217A  EFCD  F010         	goto	l1447
  2062   00217E                     l5762:
  2063   00217E  EE20 F006          	lfsr	2,6
  2064   002182  506D               	movf	Timer0_Prescaler_Config@_timer^0,w,c
  2065   002184  26D9               	addwf	fsr2l,f,c
  2066   002186  506E               	movf	(Timer0_Prescaler_Config@_timer+1)^0,w,c
  2067   002188  22DA               	addwfc	fsr2h,f,c
  2068   00218A  B0DF               	btfsc	indf2,0,c
  2069   00218C  EFCA  F010         	goto	u4051
  2070   002190  EFCC  F010         	goto	u4050
  2071   002194                     u4051:
  2072   002194  EFCD  F010         	goto	l1447
  2073   002198                     u4050:
  2074   002198                     
  2075                           ;MCAL_Layer/Timer0/hal_timr0.c: 122:         (T0CONbits.PSA = 1);
  2076   002198  86D5               	bsf	213,3,c	;volatile
  2077   00219A                     l1447:
  2078   00219A  0012               	return		;funcret
  2079   00219C                     __end_of_Timer0_Prescaler_Config:
  2080                           	callstack 0
  2081                           
  2082 ;; *************** function _Timer0_Mode_Select *****************
  2083 ;; Defined at:
  2084 ;;		line 127 in file "MCAL_Layer/Timer0/hal_timr0.c"
  2085 ;; Parameters:    Size  Location     Type
  2086 ;;  _timer          2    4[COMRAM] PTR const struct .
  2087 ;;		 -> timer0(7), 
  2088 ;; Auto vars:     Size  Location     Type
  2089 ;;		None
  2090 ;; Return value:  Size  Location     Type
  2091 ;;                  1    wreg      void 
  2092 ;; Registers used:
  2093 ;;		wreg, fsr2l, fsr2h, status,2, status,0
  2094 ;; Tracked objects:
  2095 ;;		On entry : 0/0
  2096 ;;		On exit  : 0/0
  2097 ;;		Unchanged: 0/0
  2098 ;; Data sizes:     COMRAM   BANK0   BANK1   BANK2   BANK3   BANK4   BANK5   BANK6   BANK7   BANK8   BANK9  BANK10  BANK1
      +1  BANK12  BANK13  BANK14  BANK15
  2099 ;;      Params:         2       0       0       0       0       0       0       0       0       0       0       0       
      +0       0       0       0       0
  2100 ;;      Locals:         0       0       0       0       0       0       0       0       0       0       0       0       
      +0       0       0       0       0
  2101 ;;      Temps:          0       0       0       0       0       0       0       0       0       0       0       0       
      +0       0       0       0       0
  2102 ;;      Totals:         2       0       0       0       0       0       0       0       0       0       0       0       
      +0       0       0       0       0
  2103 ;;Total ram usage:        2 bytes
  2104 ;; Hardware stack levels used: 1
  2105 ;; Hardware stack levels required when called: 3
  2106 ;; This function calls:
  2107 ;;		Nothing
  2108 ;; This function is called by:
  2109 ;;		_Timer0_Init
  2110 ;; This function uses a non-reentrant model
  2111 ;;
  2112                           
  2113                           	psect	text10
  2114   001E28                     __ptext10:
  2115                           	callstack 0
  2116   001E28                     _Timer0_Mode_Select:
  2117                           	callstack 25
  2118   001E28                     
  2119                           ;MCAL_Layer/Timer0/hal_timr0.c: 128:     if(1 == _timer->timer0_mode){
  2120   001E28  EE20 F006          	lfsr	2,6
  2121   001E2C  506D               	movf	Timer0_Mode_Select@_timer^0,w,c
  2122   001E2E  26D9               	addwf	fsr2l,f,c
  2123   001E30  506E               	movf	(Timer0_Mode_Select@_timer+1)^0,w,c
  2124   001E32  22DA               	addwfc	fsr2h,f,c
  2125   001E34  A4DF               	btfss	indf2,2,c
  2126   001E36  EF1F  F00F         	goto	u4061
  2127   001E3A  EF21  F00F         	goto	u4060
  2128   001E3E                     u4061:
  2129   001E3E  EF24  F00F         	goto	l5770
  2130   001E42                     u4060:
  2131   001E42                     
  2132                           ;MCAL_Layer/Timer0/hal_timr0.c: 129:         (T0CONbits.T0CS = 0);
  2133   001E42  9AD5               	bcf	213,5,c	;volatile
  2134                           
  2135                           ;MCAL_Layer/Timer0/hal_timr0.c: 130:     }
  2136   001E44  EF52  F00F         	goto	l1458
  2137   001E48                     l5770:
  2138   001E48  EE20 F006          	lfsr	2,6
  2139   001E4C  506D               	movf	Timer0_Mode_Select@_timer^0,w,c
  2140   001E4E  26D9               	addwf	fsr2l,f,c
  2141   001E50  506E               	movf	(Timer0_Mode_Select@_timer+1)^0,w,c
  2142   001E52  22DA               	addwfc	fsr2h,f,c
  2143   001E54  B4DF               	btfsc	indf2,2,c
  2144   001E56  EF2F  F00F         	goto	u4071
  2145   001E5A  EF31  F00F         	goto	u4070
  2146   001E5E                     u4071:
  2147   001E5E  EF52  F00F         	goto	l1458
  2148   001E62                     u4070:
  2149   001E62                     
  2150                           ;MCAL_Layer/Timer0/hal_timr0.c: 132:         (T0CONbits.T0CS = 1);
  2151   001E62  8AD5               	bsf	213,5,c	;volatile
  2152   001E64                     
  2153                           ;MCAL_Layer/Timer0/hal_timr0.c: 133:         if(1 == _timer->timer0_counter_edge){
  2154   001E64  EE20 F006          	lfsr	2,6
  2155   001E68  506D               	movf	Timer0_Mode_Select@_timer^0,w,c
  2156   001E6A  26D9               	addwf	fsr2l,f,c
  2157   001E6C  506E               	movf	(Timer0_Mode_Select@_timer+1)^0,w,c
  2158   001E6E  22DA               	addwfc	fsr2h,f,c
  2159   001E70  A2DF               	btfss	indf2,1,c
  2160   001E72  EF3D  F00F         	goto	u4081
  2161   001E76  EF3F  F00F         	goto	u4080
  2162   001E7A                     u4081:
  2163   001E7A  EF42  F00F         	goto	l5778
  2164   001E7E                     u4080:
  2165   001E7E                     
  2166                           ;MCAL_Layer/Timer0/hal_timr0.c: 134:             (T0CONbits.T0SE = 0);
  2167   001E7E  98D5               	bcf	213,4,c	;volatile
  2168                           
  2169                           ;MCAL_Layer/Timer0/hal_timr0.c: 135:         }
  2170   001E80  EF52  F00F         	goto	l1458
  2171   001E84                     l5778:
  2172   001E84  EE20 F006          	lfsr	2,6
  2173   001E88  506D               	movf	Timer0_Mode_Select@_timer^0,w,c
  2174   001E8A  26D9               	addwf	fsr2l,f,c
  2175   001E8C  506E               	movf	(Timer0_Mode_Select@_timer+1)^0,w,c
  2176   001E8E  22DA               	addwfc	fsr2h,f,c
  2177   001E90  B2DF               	btfsc	indf2,1,c
  2178   001E92  EF4D  F00F         	goto	u4091
  2179   001E96  EF4F  F00F         	goto	u4090
  2180   001E9A                     u4091:
  2181   001E9A  EF52  F00F         	goto	l1457
  2182   001E9E                     u4090:
  2183   001E9E                     
  2184                           ;MCAL_Layer/Timer0/hal_timr0.c: 137:             (T0CONbits.T0SE = 1);
  2185   001E9E  88D5               	bsf	213,4,c	;volatile
  2186                           
  2187                           ;MCAL_Layer/Timer0/hal_timr0.c: 138:         }
  2188   001EA0  EF52  F00F         	goto	l1458
  2189   001EA4                     l1457:
  2190   001EA4                     l1458:
  2191   001EA4  0012               	return		;funcret
  2192   001EA6                     __end_of_Timer0_Mode_Select:
  2193                           	callstack 0
  2194                           
  2195 ;; *************** function _Interrupt_INTx_Init *****************
  2196 ;; Defined at:
  2197 ;;		line 49 in file "MCAL_Layer/Interrupt/mcal_external_interrupt.c"
  2198 ;; Parameters:    Size  Location     Type
  2199 ;;  int_obj         2   16[COMRAM] PTR const struct .
  2200 ;;		 -> int2_obj(6), int1_obj(6), int0_obj(6), 
  2201 ;; Auto vars:     Size  Location     Type
  2202 ;;  ret             1    0[BANK0 ] unsigned char 
  2203 ;; Return value:  Size  Location     Type
  2204 ;;                  1    wreg      unsigned char 
  2205 ;; Registers used:
  2206 ;;		wreg, fsr2l, fsr2h, status,2, status,0, prodl, prodh, cstack
  2207 ;; Tracked objects:
  2208 ;;		On entry : 0/0
  2209 ;;		On exit  : 0/0
  2210 ;;		Unchanged: 0/0
  2211 ;; Data sizes:     COMRAM   BANK0   BANK1   BANK2   BANK3   BANK4   BANK5   BANK6   BANK7   BANK8   BANK9  BANK10  BANK1
      +1  BANK12  BANK13  BANK14  BANK15
  2212 ;;      Params:         2       0       0       0       0       0       0       0       0       0       0       0       
      +0       0       0       0       0
  2213 ;;      Locals:         0       1       0       0       0       0       0       0       0       0       0       0       
      +0       0       0       0       0
  2214 ;;      Temps:          0       0       0       0       0       0       0       0       0       0       0       0       
      +0       0       0       0       0
  2215 ;;      Totals:         2       1       0       0       0       0       0       0       0       0       0       0       
      +0       0       0       0       0
  2216 ;;Total ram usage:        3 bytes
  2217 ;; Hardware stack levels used: 1
  2218 ;; Hardware stack levels required when called: 5
  2219 ;; This function calls:
  2220 ;;		_Interrupt_INTx_Clear_Flag
  2221 ;;		_Interrupt_INTx_Disable
  2222 ;;		_Interrupt_INTx_Edge_Init
  2223 ;;		_Interrupt_INTx_Enable
  2224 ;;		_Interrupt_INTx_Pin_Init
  2225 ;;		_Interrupt_INTx_SetInterruptHandler
  2226 ;; This function is called by:
  2227 ;;		_application_initialize
  2228 ;; This function uses a non-reentrant model
  2229 ;;
  2230                           
  2231                           	psect	text11
  2232   001D2A                     __ptext11:
  2233                           	callstack 0
  2234   001D2A                     _Interrupt_INTx_Init:
  2235                           	callstack 24
  2236   001D2A                     
  2237                           ;MCAL_Layer/Interrupt/mcal_external_interrupt.c: 51:     if(((void*)0) == int_obj){
  2238   001D2A  5079               	movf	Interrupt_INTx_Init@int_obj^0,w,c
  2239   001D2C  107A               	iorwf	(Interrupt_INTx_Init@int_obj+1)^0,w,c
  2240   001D2E  A4D8               	btfss	status,2,c
  2241   001D30  EF9C  F00E         	goto	u5521
  2242   001D34  EF9E  F00E         	goto	u5520
  2243   001D38                     u5521:
  2244   001D38  EFA3  F00E         	goto	l7326
  2245   001D3C                     u5520:
  2246   001D3C                     
  2247                           ;MCAL_Layer/Interrupt/mcal_external_interrupt.c: 52:         ret = (Std_ReturnType)0x00;
  2248   001D3C  0E00               	movlw	0
  2249   001D3E  0100               	movlb	0	; () banked
  2250   001D40  6FC5               	movwf	Interrupt_INTx_Init@ret& (0+255),b
  2251                           
  2252                           ;MCAL_Layer/Interrupt/mcal_external_interrupt.c: 53:     }
  2253   001D42  EFD3  F00E         	goto	l7334
  2254   001D46                     l7326:
  2255                           
  2256                           ;MCAL_Layer/Interrupt/mcal_external_interrupt.c: 56:         ret = Interrupt_INTx_Disabl
      +                          e(int_obj);
  2257   001D46  C079  F06D         	movff	Interrupt_INTx_Init@int_obj,Interrupt_INTx_Disable@int_obj
  2258   001D4A  C07A  F06E         	movff	Interrupt_INTx_Init@int_obj+1,Interrupt_INTx_Disable@int_obj+1
  2259   001D4E  EC92  F00F         	call	_Interrupt_INTx_Disable	;wreg free
  2260   001D52  0100               	movlb	0	; () banked
  2261   001D54  6FC5               	movwf	Interrupt_INTx_Init@ret& (0+255),b
  2262                           
  2263                           ;MCAL_Layer/Interrupt/mcal_external_interrupt.c: 58:         ret |= Interrupt_INTx_Clear
      +                          _Flag(int_obj);
  2264   001D56  C079  F06D         	movff	Interrupt_INTx_Init@int_obj,Interrupt_INTx_Clear_Flag@int_obj
  2265   001D5A  C07A  F06E         	movff	Interrupt_INTx_Init@int_obj+1,Interrupt_INTx_Clear_Flag@int_obj+1
  2266   001D5E  ECCB  F00F         	call	_Interrupt_INTx_Clear_Flag	;wreg free
  2267   001D62  0100               	movlb	0	; () banked
  2268   001D64  13C5               	iorwf	Interrupt_INTx_Init@ret& (0+255),f,b
  2269                           
  2270                           ;MCAL_Layer/Interrupt/mcal_external_interrupt.c: 60:         ret |= Interrupt_INTx_Edge_
      +                          Init(int_obj);
  2271   001D66  C079  F06D         	movff	Interrupt_INTx_Init@int_obj,Interrupt_INTx_Edge_Init@int_obj
  2272   001D6A  C07A  F06E         	movff	Interrupt_INTx_Init@int_obj+1,Interrupt_INTx_Edge_Init@int_obj+1
  2273   001D6E  EC54  F00C         	call	_Interrupt_INTx_Edge_Init	;wreg free
  2274   001D72  0100               	movlb	0	; () banked
  2275   001D74  13C5               	iorwf	Interrupt_INTx_Init@ret& (0+255),f,b
  2276   001D76                     
  2277                           ; BSR set to: 0
  2278                           ;MCAL_Layer/Interrupt/mcal_external_interrupt.c: 62:         ret |= Interrupt_INTx_Pin_I
      +                          nit(int_obj);
  2279   001D76  C079  F076         	movff	Interrupt_INTx_Init@int_obj,Interrupt_INTx_Pin_Init@int_obj
  2280   001D7A  C07A  F077         	movff	Interrupt_INTx_Init@int_obj+1,Interrupt_INTx_Pin_Init@int_obj+1
  2281   001D7E  EC42  F011         	call	_Interrupt_INTx_Pin_Init	;wreg free
  2282   001D82  0100               	movlb	0	; () banked
  2283   001D84  13C5               	iorwf	Interrupt_INTx_Init@ret& (0+255),f,b
  2284   001D86                     
  2285                           ; BSR set to: 0
  2286                           ;MCAL_Layer/Interrupt/mcal_external_interrupt.c: 64:         ret |= Interrupt_INTx_SetIn
      +                          terruptHandler(int_obj);
  2287   001D86  C079  F070         	movff	Interrupt_INTx_Init@int_obj,Interrupt_INTx_SetInterruptHandler@int_obj
  2288   001D8A  C07A  F071         	movff	Interrupt_INTx_Init@int_obj+1,Interrupt_INTx_SetInterruptHandler@int_obj+1
  2289   001D8E  ECA4  F00D         	call	_Interrupt_INTx_SetInterruptHandler	;wreg free
  2290   001D92  0100               	movlb	0	; () banked
  2291   001D94  13C5               	iorwf	Interrupt_INTx_Init@ret& (0+255),f,b
  2292   001D96                     
  2293                           ; BSR set to: 0
  2294                           ;MCAL_Layer/Interrupt/mcal_external_interrupt.c: 66:         ret |= Interrupt_INTx_Enabl
      +                          e(int_obj);
  2295   001D96  C079  F06D         	movff	Interrupt_INTx_Init@int_obj,Interrupt_INTx_Enable@int_obj
  2296   001D9A  C07A  F06E         	movff	Interrupt_INTx_Init@int_obj+1,Interrupt_INTx_Enable@int_obj+1
  2297   001D9E  EC53  F00F         	call	_Interrupt_INTx_Enable	;wreg free
  2298   001DA2  0100               	movlb	0	; () banked
  2299   001DA4  13C5               	iorwf	Interrupt_INTx_Init@ret& (0+255),f,b
  2300   001DA6                     l7334:
  2301                           
  2302                           ; BSR set to: 0
  2303                           ;MCAL_Layer/Interrupt/mcal_external_interrupt.c: 68:     return ret;
  2304   001DA6  51C5               	movf	Interrupt_INTx_Init@ret& (0+255),w,b
  2305   001DA8                     
  2306                           ; BSR set to: 0
  2307   001DA8  0012               	return		;funcret
  2308   001DAA                     __end_of_Interrupt_INTx_Init:
  2309                           	callstack 0
  2310                           
  2311 ;; *************** function _Interrupt_INTx_SetInterruptHandler *****************
  2312 ;; Defined at:
  2313 ;;		line 571 in file "MCAL_Layer/Interrupt/mcal_external_interrupt.c"
  2314 ;; Parameters:    Size  Location     Type
  2315 ;;  int_obj         2    7[COMRAM] PTR const struct .
  2316 ;;		 -> int2_obj(6), int1_obj(6), int0_obj(6), 
  2317 ;; Auto vars:     Size  Location     Type
  2318 ;;  ret             1   11[COMRAM] unsigned char 
  2319 ;; Return value:  Size  Location     Type
  2320 ;;                  1    wreg      unsigned char 
  2321 ;; Registers used:
  2322 ;;		wreg, fsr2l, fsr2h, status,2, status,0, cstack
  2323 ;; Tracked objects:
  2324 ;;		On entry : 0/0
  2325 ;;		On exit  : 0/0
  2326 ;;		Unchanged: 0/0
  2327 ;; Data sizes:     COMRAM   BANK0   BANK1   BANK2   BANK3   BANK4   BANK5   BANK6   BANK7   BANK8   BANK9  BANK10  BANK1
      +1  BANK12  BANK13  BANK14  BANK15
  2328 ;;      Params:         2       0       0       0       0       0       0       0       0       0       0       0       
      +0       0       0       0       0
  2329 ;;      Locals:         1       0       0       0       0       0       0       0       0       0       0       0       
      +0       0       0       0       0
  2330 ;;      Temps:          2       0       0       0       0       0       0       0       0       0       0       0       
      +0       0       0       0       0
  2331 ;;      Totals:         5       0       0       0       0       0       0       0       0       0       0       0       
      +0       0       0       0       0
  2332 ;;Total ram usage:        5 bytes
  2333 ;; Hardware stack levels used: 1
  2334 ;; Hardware stack levels required when called: 4
  2335 ;; This function calls:
  2336 ;;		_INT0_SetInterruptHandler
  2337 ;;		_INT1_SetInterruptHandler
  2338 ;;		_INT2_SetInterruptHandler
  2339 ;; This function is called by:
  2340 ;;		_Interrupt_INTx_Init
  2341 ;; This function uses a non-reentrant model
  2342 ;;
  2343                           
  2344                           	psect	text12
  2345   001B48                     __ptext12:
  2346                           	callstack 0
  2347   001B48                     _Interrupt_INTx_SetInterruptHandler:
  2348                           	callstack 24
  2349   001B48                     
  2350                           ;MCAL_Layer/Interrupt/mcal_external_interrupt.c: 573:     if(((void*)0) == int_obj){
  2351   001B48  5070               	movf	Interrupt_INTx_SetInterruptHandler@int_obj^0,w,c
  2352   001B4A  1071               	iorwf	(Interrupt_INTx_SetInterruptHandler@int_obj+1)^0,w,c
  2353   001B4C  A4D8               	btfss	status,2,c
  2354   001B4E  EFAB  F00D         	goto	u5461
  2355   001B52  EFAD  F00D         	goto	u5460
  2356   001B56                     u5461:
  2357   001B56  EFD8  F00D         	goto	l7208
  2358   001B5A                     u5460:
  2359   001B5A                     l7198:
  2360                           
  2361                           ;MCAL_Layer/Interrupt/mcal_external_interrupt.c: 574:         ret = (Std_ReturnType)0x00
      +                          ;
  2362   001B5A  0E00               	movlw	0
  2363   001B5C  6E74               	movwf	Interrupt_INTx_SetInterruptHandler@ret^0,c
  2364                           
  2365                           ;MCAL_Layer/Interrupt/mcal_external_interrupt.c: 575:     }
  2366   001B5E  EFF7  F00D         	goto	l7210
  2367   001B62                     l7200:
  2368                           
  2369                           ;MCAL_Layer/Interrupt/mcal_external_interrupt.c: 580:                 ret = INT0_SetInte
      +                          rruptHandler(int_obj->EXT_InterruptHandler);
  2370   001B62  C070  FFD9         	movff	Interrupt_INTx_SetInterruptHandler@int_obj,fsr2l
  2371   001B66  C071  FFDA         	movff	Interrupt_INTx_SetInterruptHandler@int_obj+1,fsr2h
  2372   001B6A  CFDE F06D          	movff	postinc2,INT0_SetInterruptHandler@InterruptHandler
  2373   001B6E  CFDD F06E          	movff	postdec2,INT0_SetInterruptHandler@InterruptHandler+1
  2374   001B72  ECDE  F011         	call	_INT0_SetInterruptHandler	;wreg free
  2375   001B76  6E74               	movwf	Interrupt_INTx_SetInterruptHandler@ret^0,c
  2376                           
  2377                           ;MCAL_Layer/Interrupt/mcal_external_interrupt.c: 581:                 break;
  2378   001B78  EFF7  F00D         	goto	l7210
  2379   001B7C                     l7202:
  2380                           
  2381                           ;MCAL_Layer/Interrupt/mcal_external_interrupt.c: 584:                 ret = INT1_SetInte
      +                          rruptHandler(int_obj->EXT_InterruptHandler);
  2382   001B7C  C070  FFD9         	movff	Interrupt_INTx_SetInterruptHandler@int_obj,fsr2l
  2383   001B80  C071  FFDA         	movff	Interrupt_INTx_SetInterruptHandler@int_obj+1,fsr2h
  2384   001B84  CFDE F06D          	movff	postinc2,INT1_SetInterruptHandler@InterruptHandler
  2385   001B88  CFDD F06E          	movff	postdec2,INT1_SetInterruptHandler@InterruptHandler+1
  2386   001B8C  ECC9  F011         	call	_INT1_SetInterruptHandler	;wreg free
  2387   001B90  6E74               	movwf	Interrupt_INTx_SetInterruptHandler@ret^0,c
  2388                           
  2389                           ;MCAL_Layer/Interrupt/mcal_external_interrupt.c: 585:                 break;
  2390   001B92  EFF7  F00D         	goto	l7210
  2391   001B96                     l7204:
  2392                           
  2393                           ;MCAL_Layer/Interrupt/mcal_external_interrupt.c: 588:                 ret = INT2_SetInte
      +                          rruptHandler(int_obj->EXT_InterruptHandler);
  2394   001B96  C070  FFD9         	movff	Interrupt_INTx_SetInterruptHandler@int_obj,fsr2l
  2395   001B9A  C071  FFDA         	movff	Interrupt_INTx_SetInterruptHandler@int_obj+1,fsr2h
  2396   001B9E  CFDE F06D          	movff	postinc2,INT2_SetInterruptHandler@InterruptHandler
  2397   001BA2  CFDD F06E          	movff	postdec2,INT2_SetInterruptHandler@InterruptHandler+1
  2398   001BA6  ECB4  F011         	call	_INT2_SetInterruptHandler	;wreg free
  2399   001BAA  6E74               	movwf	Interrupt_INTx_SetInterruptHandler@ret^0,c
  2400                           
  2401                           ;MCAL_Layer/Interrupt/mcal_external_interrupt.c: 589:                 break;
  2402   001BAC  EFF7  F00D         	goto	l7210
  2403   001BB0                     l7208:
  2404   001BB0  EE20 F004          	lfsr	2,4
  2405   001BB4  5070               	movf	Interrupt_INTx_SetInterruptHandler@int_obj^0,w,c
  2406   001BB6  26D9               	addwf	fsr2l,f,c
  2407   001BB8  5071               	movf	(Interrupt_INTx_SetInterruptHandler@int_obj+1)^0,w,c
  2408   001BBA  22DA               	addwfc	fsr2h,f,c
  2409   001BBC  50DF               	movf	indf2,w,c
  2410   001BBE  6E72               	movwf	??_Interrupt_INTx_SetInterruptHandler^0,c
  2411   001BC0  6A73               	clrf	(??_Interrupt_INTx_SetInterruptHandler+1)^0,c
  2412                           
  2413                           ; Switch on 2 bytes has been partitioned into a top level switch of size 1, and 1 sub-sw
      +                          itches
  2414                           ; Switch size 1, requested type "simple"
  2415                           ; Number of cases is 1, Range of values is 0 to 0
  2416                           ; switch strategies available:
  2417                           ; Name         Instructions Cycles
  2418                           ; simple_byte            4     3 (average)
  2419                           ;	Chosen strategy is simple_byte
  2420   001BC2  5073               	movf	(??_Interrupt_INTx_SetInterruptHandler+1)^0,w,c
  2421   001BC4  0A00               	xorlw	0	; case 0
  2422   001BC6  B4D8               	btfsc	status,2,c
  2423   001BC8  EFE8  F00D         	goto	l8254
  2424   001BCC  EFAD  F00D         	goto	l7198
  2425   001BD0                     l8254:
  2426                           
  2427                           ; Switch size 1, requested type "simple"
  2428                           ; Number of cases is 3, Range of values is 0 to 2
  2429                           ; switch strategies available:
  2430                           ; Name         Instructions Cycles
  2431                           ; simple_byte           10     6 (average)
  2432                           ;	Chosen strategy is simple_byte
  2433   001BD0  5072               	movf	??_Interrupt_INTx_SetInterruptHandler^0,w,c
  2434   001BD2  0A00               	xorlw	0	; case 0
  2435   001BD4  B4D8               	btfsc	status,2,c
  2436   001BD6  EFB1  F00D         	goto	l7200
  2437   001BDA  0A01               	xorlw	1	; case 1
  2438   001BDC  B4D8               	btfsc	status,2,c
  2439   001BDE  EFBE  F00D         	goto	l7202
  2440   001BE2  0A03               	xorlw	3	; case 2
  2441   001BE4  B4D8               	btfsc	status,2,c
  2442   001BE6  EFCB  F00D         	goto	l7204
  2443   001BEA  EFAD  F00D         	goto	l7198
  2444   001BEE                     l7210:
  2445                           
  2446                           ;MCAL_Layer/Interrupt/mcal_external_interrupt.c: 593:     return ret;
  2447   001BEE  5074               	movf	Interrupt_INTx_SetInterruptHandler@ret^0,w,c
  2448   001BF0  0012               	return		;funcret
  2449   001BF2                     __end_of_Interrupt_INTx_SetInterruptHandler:
  2450                           	callstack 0
  2451                           
  2452 ;; *************** function _INT2_SetInterruptHandler *****************
  2453 ;; Defined at:
  2454 ;;		line 551 in file "MCAL_Layer/Interrupt/mcal_external_interrupt.c"
  2455 ;; Parameters:    Size  Location     Type
  2456 ;;  InterruptHan    2    4[COMRAM] PTR FTN()void 
  2457 ;;		 -> Int2_APP_ISR(1), Int1_APP_ISR(1), Int0_APP_ISR(1), 
  2458 ;; Auto vars:     Size  Location     Type
  2459 ;;  ret             1    6[COMRAM] unsigned char 
  2460 ;; Return value:  Size  Location     Type
  2461 ;;                  1    wreg      unsigned char 
  2462 ;; Registers used:
  2463 ;;		wreg, status,2, status,0
  2464 ;; Tracked objects:
  2465 ;;		On entry : 0/0
  2466 ;;		On exit  : 0/0
  2467 ;;		Unchanged: 0/0
  2468 ;; Data sizes:     COMRAM   BANK0   BANK1   BANK2   BANK3   BANK4   BANK5   BANK6   BANK7   BANK8   BANK9  BANK10  BANK1
      +1  BANK12  BANK13  BANK14  BANK15
  2469 ;;      Params:         2       0       0       0       0       0       0       0       0       0       0       0       
      +0       0       0       0       0
  2470 ;;      Locals:         1       0       0       0       0       0       0       0       0       0       0       0       
      +0       0       0       0       0
  2471 ;;      Temps:          0       0       0       0       0       0       0       0       0       0       0       0       
      +0       0       0       0       0
  2472 ;;      Totals:         3       0       0       0       0       0       0       0       0       0       0       0       
      +0       0       0       0       0
  2473 ;;Total ram usage:        3 bytes
  2474 ;; Hardware stack levels used: 1
  2475 ;; Hardware stack levels required when called: 3
  2476 ;; This function calls:
  2477 ;;		Nothing
  2478 ;; This function is called by:
  2479 ;;		_Interrupt_INTx_SetInterruptHandler
  2480 ;; This function uses a non-reentrant model
  2481 ;;
  2482                           
  2483                           	psect	text13
  2484   002368                     __ptext13:
  2485                           	callstack 0
  2486   002368                     _INT2_SetInterruptHandler:
  2487                           	callstack 24
  2488   002368                     
  2489                           ;MCAL_Layer/Interrupt/mcal_external_interrupt.c: 553:     if(((void*)0) == InterruptHand
      +                          ler){
  2490   002368  506D               	movf	INT2_SetInterruptHandler@InterruptHandler^0,w,c
  2491   00236A  106E               	iorwf	(INT2_SetInterruptHandler@InterruptHandler+1)^0,w,c
  2492   00236C  A4D8               	btfss	status,2,c
  2493   00236E  EFBB  F011         	goto	u5341
  2494   002372  EFBD  F011         	goto	u5340
  2495   002376                     u5341:
  2496   002376  EFC1  F011         	goto	l7066
  2497   00237A                     u5340:
  2498   00237A                     
  2499                           ;MCAL_Layer/Interrupt/mcal_external_interrupt.c: 554:         ret = (Std_ReturnType)0x00
      +                          ;
  2500   00237A  0E00               	movlw	0
  2501   00237C  6E6F               	movwf	INT2_SetInterruptHandler@ret^0,c
  2502                           
  2503                           ;MCAL_Layer/Interrupt/mcal_external_interrupt.c: 555:     }
  2504   00237E  EFC7  F011         	goto	l7070
  2505   002382                     l7066:
  2506                           
  2507                           ;MCAL_Layer/Interrupt/mcal_external_interrupt.c: 558:         INT2_InterruptHandler = In
      +                          terruptHandler;
  2508   002382  C06D  F029         	movff	INT2_SetInterruptHandler@InterruptHandler,_INT2_InterruptHandler
  2509   002386  C06E  F02A         	movff	INT2_SetInterruptHandler@InterruptHandler+1,_INT2_InterruptHandler+1
  2510   00238A                     
  2511                           ;MCAL_Layer/Interrupt/mcal_external_interrupt.c: 559:         ret = (Std_ReturnType)0x01
      +                          ;
  2512   00238A  0E01               	movlw	1
  2513   00238C  6E6F               	movwf	INT2_SetInterruptHandler@ret^0,c
  2514   00238E                     l7070:
  2515                           
  2516                           ;MCAL_Layer/Interrupt/mcal_external_interrupt.c: 561:     return ret;
  2517   00238E  506F               	movf	INT2_SetInterruptHandler@ret^0,w,c
  2518   002390  0012               	return		;funcret
  2519   002392                     __end_of_INT2_SetInterruptHandler:
  2520                           	callstack 0
  2521                           
  2522 ;; *************** function _INT1_SetInterruptHandler *****************
  2523 ;; Defined at:
  2524 ;;		line 531 in file "MCAL_Layer/Interrupt/mcal_external_interrupt.c"
  2525 ;; Parameters:    Size  Location     Type
  2526 ;;  InterruptHan    2    4[COMRAM] PTR FTN()void 
  2527 ;;		 -> Int2_APP_ISR(1), Int1_APP_ISR(1), Int0_APP_ISR(1), 
  2528 ;; Auto vars:     Size  Location     Type
  2529 ;;  ret             1    6[COMRAM] unsigned char 
  2530 ;; Return value:  Size  Location     Type
  2531 ;;                  1    wreg      unsigned char 
  2532 ;; Registers used:
  2533 ;;		wreg, status,2, status,0
  2534 ;; Tracked objects:
  2535 ;;		On entry : 0/0
  2536 ;;		On exit  : 0/0
  2537 ;;		Unchanged: 0/0
  2538 ;; Data sizes:     COMRAM   BANK0   BANK1   BANK2   BANK3   BANK4   BANK5   BANK6   BANK7   BANK8   BANK9  BANK10  BANK1
      +1  BANK12  BANK13  BANK14  BANK15
  2539 ;;      Params:         2       0       0       0       0       0       0       0       0       0       0       0       
      +0       0       0       0       0
  2540 ;;      Locals:         1       0       0       0       0       0       0       0       0       0       0       0       
      +0       0       0       0       0
  2541 ;;      Temps:          0       0       0       0       0       0       0       0       0       0       0       0       
      +0       0       0       0       0
  2542 ;;      Totals:         3       0       0       0       0       0       0       0       0       0       0       0       
      +0       0       0       0       0
  2543 ;;Total ram usage:        3 bytes
  2544 ;; Hardware stack levels used: 1
  2545 ;; Hardware stack levels required when called: 3
  2546 ;; This function calls:
  2547 ;;		Nothing
  2548 ;; This function is called by:
  2549 ;;		_Interrupt_INTx_SetInterruptHandler
  2550 ;; This function uses a non-reentrant model
  2551 ;;
  2552                           
  2553                           	psect	text14
  2554   002392                     __ptext14:
  2555                           	callstack 0
  2556   002392                     _INT1_SetInterruptHandler:
  2557                           	callstack 24
  2558   002392                     
  2559                           ;MCAL_Layer/Interrupt/mcal_external_interrupt.c: 533:     if(((void*)0) == InterruptHand
      +                          ler){
  2560   002392  506D               	movf	INT1_SetInterruptHandler@InterruptHandler^0,w,c
  2561   002394  106E               	iorwf	(INT1_SetInterruptHandler@InterruptHandler+1)^0,w,c
  2562   002396  A4D8               	btfss	status,2,c
  2563   002398  EFD0  F011         	goto	u5331
  2564   00239C  EFD2  F011         	goto	u5330
  2565   0023A0                     u5331:
  2566   0023A0  EFD6  F011         	goto	l7052
  2567   0023A4                     u5330:
  2568   0023A4                     
  2569                           ;MCAL_Layer/Interrupt/mcal_external_interrupt.c: 534:         ret = (Std_ReturnType)0x00
      +                          ;
  2570   0023A4  0E00               	movlw	0
  2571   0023A6  6E6F               	movwf	INT1_SetInterruptHandler@ret^0,c
  2572                           
  2573                           ;MCAL_Layer/Interrupt/mcal_external_interrupt.c: 535:     }
  2574   0023A8  EFDC  F011         	goto	l7056
  2575   0023AC                     l7052:
  2576                           
  2577                           ;MCAL_Layer/Interrupt/mcal_external_interrupt.c: 538:         INT1_InterruptHandler = In
      +                          terruptHandler;
  2578   0023AC  C06D  F02B         	movff	INT1_SetInterruptHandler@InterruptHandler,_INT1_InterruptHandler
  2579   0023B0  C06E  F02C         	movff	INT1_SetInterruptHandler@InterruptHandler+1,_INT1_InterruptHandler+1
  2580   0023B4                     
  2581                           ;MCAL_Layer/Interrupt/mcal_external_interrupt.c: 539:         ret = (Std_ReturnType)0x01
      +                          ;
  2582   0023B4  0E01               	movlw	1
  2583   0023B6  6E6F               	movwf	INT1_SetInterruptHandler@ret^0,c
  2584   0023B8                     l7056:
  2585                           
  2586                           ;MCAL_Layer/Interrupt/mcal_external_interrupt.c: 541:     return ret;
  2587   0023B8  506F               	movf	INT1_SetInterruptHandler@ret^0,w,c
  2588   0023BA  0012               	return		;funcret
  2589   0023BC                     __end_of_INT1_SetInterruptHandler:
  2590                           	callstack 0
  2591                           
  2592 ;; *************** function _INT0_SetInterruptHandler *****************
  2593 ;; Defined at:
  2594 ;;		line 511 in file "MCAL_Layer/Interrupt/mcal_external_interrupt.c"
  2595 ;; Parameters:    Size  Location     Type
  2596 ;;  InterruptHan    2    4[COMRAM] PTR FTN()void 
  2597 ;;		 -> Int2_APP_ISR(1), Int1_APP_ISR(1), Int0_APP_ISR(1), 
  2598 ;; Auto vars:     Size  Location     Type
  2599 ;;  ret             1    6[COMRAM] unsigned char 
  2600 ;; Return value:  Size  Location     Type
  2601 ;;                  1    wreg      unsigned char 
  2602 ;; Registers used:
  2603 ;;		wreg, status,2, status,0
  2604 ;; Tracked objects:
  2605 ;;		On entry : 0/0
  2606 ;;		On exit  : 0/0
  2607 ;;		Unchanged: 0/0
  2608 ;; Data sizes:     COMRAM   BANK0   BANK1   BANK2   BANK3   BANK4   BANK5   BANK6   BANK7   BANK8   BANK9  BANK10  BANK1
      +1  BANK12  BANK13  BANK14  BANK15
  2609 ;;      Params:         2       0       0       0       0       0       0       0       0       0       0       0       
      +0       0       0       0       0
  2610 ;;      Locals:         1       0       0       0       0       0       0       0       0       0       0       0       
      +0       0       0       0       0
  2611 ;;      Temps:          0       0       0       0       0       0       0       0       0       0       0       0       
      +0       0       0       0       0
  2612 ;;      Totals:         3       0       0       0       0       0       0       0       0       0       0       0       
      +0       0       0       0       0
  2613 ;;Total ram usage:        3 bytes
  2614 ;; Hardware stack levels used: 1
  2615 ;; Hardware stack levels required when called: 3
  2616 ;; This function calls:
  2617 ;;		Nothing
  2618 ;; This function is called by:
  2619 ;;		_Interrupt_INTx_SetInterruptHandler
  2620 ;; This function uses a non-reentrant model
  2621 ;;
  2622                           
  2623                           	psect	text15
  2624   0023BC                     __ptext15:
  2625                           	callstack 0
  2626   0023BC                     _INT0_SetInterruptHandler:
  2627                           	callstack 24
  2628   0023BC                     
  2629                           ;MCAL_Layer/Interrupt/mcal_external_interrupt.c: 513:     if(((void*)0) == InterruptHand
      +                          ler){
  2630   0023BC  506D               	movf	INT0_SetInterruptHandler@InterruptHandler^0,w,c
  2631   0023BE  106E               	iorwf	(INT0_SetInterruptHandler@InterruptHandler+1)^0,w,c
  2632   0023C0  A4D8               	btfss	status,2,c
  2633   0023C2  EFE5  F011         	goto	u5321
  2634   0023C6  EFE7  F011         	goto	u5320
  2635   0023CA                     u5321:
  2636   0023CA  EFEB  F011         	goto	l7038
  2637   0023CE                     u5320:
  2638   0023CE                     
  2639                           ;MCAL_Layer/Interrupt/mcal_external_interrupt.c: 514:         ret = (Std_ReturnType)0x00
      +                          ;
  2640   0023CE  0E00               	movlw	0
  2641   0023D0  6E6F               	movwf	INT0_SetInterruptHandler@ret^0,c
  2642                           
  2643                           ;MCAL_Layer/Interrupt/mcal_external_interrupt.c: 515:     }
  2644   0023D2  EFF1  F011         	goto	l7042
  2645   0023D6                     l7038:
  2646                           
  2647                           ;MCAL_Layer/Interrupt/mcal_external_interrupt.c: 518:         INT0_InterruptHandler = In
      +                          terruptHandler;
  2648   0023D6  C06D  F02D         	movff	INT0_SetInterruptHandler@InterruptHandler,_INT0_InterruptHandler
  2649   0023DA  C06E  F02E         	movff	INT0_SetInterruptHandler@InterruptHandler+1,_INT0_InterruptHandler+1
  2650   0023DE                     
  2651                           ;MCAL_Layer/Interrupt/mcal_external_interrupt.c: 519:         ret = (Std_ReturnType)0x01
      +                          ;
  2652   0023DE  0E01               	movlw	1
  2653   0023E0  6E6F               	movwf	INT0_SetInterruptHandler@ret^0,c
  2654   0023E2                     l7042:
  2655                           
  2656                           ;MCAL_Layer/Interrupt/mcal_external_interrupt.c: 521:     return ret;
  2657   0023E2  506F               	movf	INT0_SetInterruptHandler@ret^0,w,c
  2658   0023E4  0012               	return		;funcret
  2659   0023E6                     __end_of_INT0_SetInterruptHandler:
  2660                           	callstack 0
  2661                           
  2662 ;; *************** function _Interrupt_INTx_Pin_Init *****************
  2663 ;; Defined at:
  2664 ;;		line 460 in file "MCAL_Layer/Interrupt/mcal_external_interrupt.c"
  2665 ;; Parameters:    Size  Location     Type
  2666 ;;  int_obj         2   13[COMRAM] PTR const struct .
  2667 ;;		 -> int2_obj(6), int1_obj(6), int0_obj(6), 
  2668 ;; Auto vars:     Size  Location     Type
  2669 ;;  ret             1   15[COMRAM] unsigned char 
  2670 ;; Return value:  Size  Location     Type
  2671 ;;                  1    wreg      unsigned char 
  2672 ;; Registers used:
  2673 ;;		wreg, fsr2l, fsr2h, status,2, status,0, prodl, prodh, cstack
  2674 ;; Tracked objects:
  2675 ;;		On entry : 0/0
  2676 ;;		On exit  : 0/0
  2677 ;;		Unchanged: 0/0
  2678 ;; Data sizes:     COMRAM   BANK0   BANK1   BANK2   BANK3   BANK4   BANK5   BANK6   BANK7   BANK8   BANK9  BANK10  BANK1
      +1  BANK12  BANK13  BANK14  BANK15
  2679 ;;      Params:         2       0       0       0       0       0       0       0       0       0       0       0       
      +0       0       0       0       0
  2680 ;;      Locals:         1       0       0       0       0       0       0       0       0       0       0       0       
      +0       0       0       0       0
  2681 ;;      Temps:          0       0       0       0       0       0       0       0       0       0       0       0       
      +0       0       0       0       0
  2682 ;;      Totals:         3       0       0       0       0       0       0       0       0       0       0       0       
      +0       0       0       0       0
  2683 ;;Total ram usage:        3 bytes
  2684 ;; Hardware stack levels used: 1
  2685 ;; Hardware stack levels required when called: 4
  2686 ;; This function calls:
  2687 ;;		_gpio_pin_direction_intialize
  2688 ;; This function is called by:
  2689 ;;		_Interrupt_INTx_Init
  2690 ;; This function uses a non-reentrant model
  2691 ;;
  2692                           
  2693                           	psect	text16
  2694   002284                     __ptext16:
  2695                           	callstack 0
  2696   002284                     _Interrupt_INTx_Pin_Init:
  2697                           	callstack 24
  2698   002284                     
  2699                           ;MCAL_Layer/Interrupt/mcal_external_interrupt.c: 462:     if(((void*)0) == int_obj){
  2700   002284  5076               	movf	Interrupt_INTx_Pin_Init@int_obj^0,w,c
  2701   002286  1077               	iorwf	(Interrupt_INTx_Pin_Init@int_obj+1)^0,w,c
  2702   002288  A4D8               	btfss	status,2,c
  2703   00228A  EF49  F011         	goto	u5451
  2704   00228E  EF4B  F011         	goto	u5450
  2705   002292                     u5451:
  2706   002292  EF4F  F011         	goto	l7188
  2707   002296                     u5450:
  2708   002296                     
  2709                           ;MCAL_Layer/Interrupt/mcal_external_interrupt.c: 463:         ret = (Std_ReturnType)0x00
      +                          ;
  2710   002296  0E00               	movlw	0
  2711   002298  6E78               	movwf	Interrupt_INTx_Pin_Init@ret^0,c
  2712                           
  2713                           ;MCAL_Layer/Interrupt/mcal_external_interrupt.c: 464:     }
  2714   00229A  EF58  F011         	goto	l7190
  2715   00229E                     l7188:
  2716                           
  2717                           ;MCAL_Layer/Interrupt/mcal_external_interrupt.c: 467:         ret = gpio_pin_direction_i
      +                          ntialize(&(int_obj->mcu_pin));
  2718   00229E  0E02               	movlw	2
  2719   0022A0  2476               	addwf	Interrupt_INTx_Pin_Init@int_obj^0,w,c
  2720   0022A2  6E6D               	movwf	gpio_pin_direction_intialize@_pin_config^0,c
  2721   0022A4  0E00               	movlw	0
  2722   0022A6  2077               	addwfc	(Interrupt_INTx_Pin_Init@int_obj+1)^0,w,c
  2723   0022A8  6E6E               	movwf	(gpio_pin_direction_intialize@_pin_config+1)^0,c
  2724   0022AA  EC1C  F00B         	call	_gpio_pin_direction_intialize	;wreg free
  2725   0022AE  6E78               	movwf	Interrupt_INTx_Pin_Init@ret^0,c
  2726   0022B0                     l7190:
  2727                           
  2728                           ;MCAL_Layer/Interrupt/mcal_external_interrupt.c: 469:     return ret;
  2729   0022B0  5078               	movf	Interrupt_INTx_Pin_Init@ret^0,w,c
  2730   0022B2  0012               	return		;funcret
  2731   0022B4                     __end_of_Interrupt_INTx_Pin_Init:
  2732                           	callstack 0
  2733                           
  2734 ;; *************** function _gpio_pin_direction_intialize *****************
  2735 ;; Defined at:
  2736 ;;		line 25 in file "MCAL_Layer/GPIO/hal_gpio.c"
  2737 ;; Parameters:    Size  Location     Type
  2738 ;;  _pin_config     2    4[COMRAM] PTR const struct .
  2739 ;;		 -> seg5_enable(1), seg4_enable(1), seg3_enable(1), seg2_enable(1), 
  2740 ;;		 -> seg1_enable(1), seg6_enable(1), int2_obj(6), int1_obj(6), 
  2741 ;;		 -> int0_obj(6), MSSP_SPI_Slave_Mode_GPIO_PIN_Configurations@SPI_SS(1), MSSP_SPI_Slave_Mode_GPIO_PIN_Configurations@
      +SPI_CLK(1), MSSP_SPI_Slave_Mode_GPIO_PIN_Configurations@SPI_SDI(1), 
  2742 ;;		 -> MSSP_SPI_Slave_Mode_GPIO_PIN_Configurations@SPI_SDO(1), MSSP_SPI_Msster_Mode_GPIO_PIN_Configurations@SPI_CLK(1),
      + MSSP_SPI_Msster_Mode_GPIO_PIN_Configurations@SPI_SDI(1), MSSP_SPI_Msster_Mode_GPIO_PIN_Configurations@SPI_SDO(1), 
  2743 ;;		 -> seg1.segment_pins(4), seg1(5), 
  2744 ;; Auto vars:     Size  Location     Type
  2745 ;;  ret             1   12[COMRAM] unsigned char 
  2746 ;; Return value:  Size  Location     Type
  2747 ;;                  1    wreg      unsigned char 
  2748 ;; Registers used:
  2749 ;;		wreg, fsr2l, fsr2h, status,2, status,0, prodl, prodh
  2750 ;; Tracked objects:
  2751 ;;		On entry : 0/0
  2752 ;;		On exit  : 0/0
  2753 ;;		Unchanged: 0/0
  2754 ;; Data sizes:     COMRAM   BANK0   BANK1   BANK2   BANK3   BANK4   BANK5   BANK6   BANK7   BANK8   BANK9  BANK10  BANK1
      +1  BANK12  BANK13  BANK14  BANK15
  2755 ;;      Params:         2       0       0       0       0       0       0       0       0       0       0       0       
      +0       0       0       0       0
  2756 ;;      Locals:         1       0       0       0       0       0       0       0       0       0       0       0       
      +0       0       0       0       0
  2757 ;;      Temps:          6       0       0       0       0       0       0       0       0       0       0       0       
      +0       0       0       0       0
  2758 ;;      Totals:         9       0       0       0       0       0       0       0       0       0       0       0       
      +0       0       0       0       0
  2759 ;;Total ram usage:        9 bytes
  2760 ;; Hardware stack levels used: 1
  2761 ;; Hardware stack levels required when called: 3
  2762 ;; This function calls:
  2763 ;;		Nothing
  2764 ;; This function is called by:
  2765 ;;		_gpio_pin_intialize
  2766 ;;		_Interrupt_INTx_Pin_Init
  2767 ;;		_button_initialize
  2768 ;;		_keypad_initialize
  2769 ;;		_Interrupt_RBx_Init
  2770 ;;		_MSSP_SPI_Msster_Mode_GPIO_PIN_Configurations
  2771 ;;		_MSSP_SPI_Slave_Mode_GPIO_PIN_Configurations
  2772 ;; This function uses a non-reentrant model
  2773 ;;
  2774                           
  2775                           	psect	text17
  2776   001638                     __ptext17:
  2777                           	callstack 0
  2778   001638                     _gpio_pin_direction_intialize:
  2779                           	callstack 25
  2780   001638                     
  2781                           ;MCAL_Layer/GPIO/hal_gpio.c: 26:     Std_ReturnType ret = (Std_ReturnType)0x01;
  2782   001638  0E01               	movlw	1
  2783   00163A  6E75               	movwf	gpio_pin_direction_intialize@ret^0,c
  2784   00163C                     
  2785                           ;MCAL_Layer/GPIO/hal_gpio.c: 27:     if(((void*)0) == _pin_config || _pin_config->pin > 
      +                          8 -1){
  2786   00163C  506D               	movf	gpio_pin_direction_intialize@_pin_config^0,w,c
  2787   00163E  106E               	iorwf	(gpio_pin_direction_intialize@_pin_config+1)^0,w,c
  2788   001640  B4D8               	btfsc	status,2,c
  2789   001642  EF25  F00B         	goto	u5241
  2790   001646  EF27  F00B         	goto	u5240
  2791   00164A                     u5241:
  2792   00164A  EF38  F00B         	goto	l7000
  2793   00164E                     u5240:
  2794   00164E  C06D  FFD9         	movff	gpio_pin_direction_intialize@_pin_config,fsr2l
  2795   001652  C06E  FFDA         	movff	gpio_pin_direction_intialize@_pin_config+1,fsr2h
  2796   001656  30DF               	rrcf	223,w,c
  2797   001658  32E8               	rrcf	wreg,f,c
  2798   00165A  32E8               	rrcf	wreg,f,c
  2799   00165C  0B07               	andlw	7
  2800   00165E  6E6F               	movwf	??_gpio_pin_direction_intialize^0,c
  2801   001660  0E07               	movlw	7
  2802   001662  646F               	cpfsgt	??_gpio_pin_direction_intialize^0,c
  2803   001664  EF36  F00B         	goto	u5251
  2804   001668  EF38  F00B         	goto	u5250
  2805   00166C                     u5251:
  2806   00166C  EF9B  F00B         	goto	l7008
  2807   001670                     u5250:
  2808   001670                     l7000:
  2809                           
  2810                           ;MCAL_Layer/GPIO/hal_gpio.c: 28:         ret = (Std_ReturnType)0x00;
  2811   001670  0E00               	movlw	0
  2812   001672  6E75               	movwf	gpio_pin_direction_intialize@ret^0,c
  2813                           
  2814                           ;MCAL_Layer/GPIO/hal_gpio.c: 29:     }
  2815   001674  EFBC  F00B         	goto	l7010
  2816   001678                     l7002:
  2817                           
  2818                           ;MCAL_Layer/GPIO/hal_gpio.c: 33:                 (*tris_registers[_pin_config->port] &= 
      +                          ~((uint8)1 << _pin_config->pin));
  2819   001678  C06D  FFD9         	movff	gpio_pin_direction_intialize@_pin_config,fsr2l
  2820   00167C  C06E  FFDA         	movff	gpio_pin_direction_intialize@_pin_config+1,fsr2h
  2821   001680  30DF               	rrcf	223,w,c
  2822   001682  32E8               	rrcf	wreg,f,c
  2823   001684  32E8               	rrcf	wreg,f,c
  2824   001686  0B07               	andlw	7
  2825   001688  6E6F               	movwf	??_gpio_pin_direction_intialize^0,c
  2826   00168A  0E01               	movlw	1
  2827   00168C  6E70               	movwf	(??_gpio_pin_direction_intialize+1)^0,c
  2828   00168E  2A6F               	incf	??_gpio_pin_direction_intialize^0,f,c
  2829   001690  EF4C  F00B         	goto	u5264
  2830   001694                     u5265:
  2831   001694  90D8               	bcf	status,0,c
  2832   001696  3670               	rlcf	(??_gpio_pin_direction_intialize+1)^0,f,c
  2833   001698                     u5264:
  2834   001698  2E6F               	decfsz	??_gpio_pin_direction_intialize^0,f,c
  2835   00169A  EF4A  F00B         	goto	u5265
  2836   00169E  5070               	movf	(??_gpio_pin_direction_intialize+1)^0,w,c
  2837   0016A0  0AFF               	xorlw	255
  2838   0016A2  6E71               	movwf	(??_gpio_pin_direction_intialize+2)^0,c
  2839   0016A4  C06D  FFD9         	movff	gpio_pin_direction_intialize@_pin_config,fsr2l
  2840   0016A8  C06E  FFDA         	movff	gpio_pin_direction_intialize@_pin_config+1,fsr2h
  2841   0016AC  50DF               	movf	223,w,c
  2842   0016AE  0B07               	andlw	7
  2843   0016B0  6E72               	movwf	(??_gpio_pin_direction_intialize+3)^0,c
  2844   0016B2  5072               	movf	(??_gpio_pin_direction_intialize+3)^0,w,c
  2845   0016B4  0D02               	mullw	2
  2846   0016B6  0E8A               	movlw	low _tris_registers
  2847   0016B8  24F3               	addwf	243,w,c
  2848   0016BA  6ED9               	movwf	fsr2l,c
  2849   0016BC  0E00               	movlw	high _tris_registers
  2850   0016BE  20F4               	addwfc	prodh,w,c
  2851   0016C0  6EDA               	movwf	fsr2h,c
  2852   0016C2  CFDE F073          	movff	postinc2,??_gpio_pin_direction_intialize+4
  2853   0016C6  CFDD F074          	movff	postdec2,??_gpio_pin_direction_intialize+5
  2854   0016CA  C073  FFD9         	movff	??_gpio_pin_direction_intialize+4,fsr2l
  2855   0016CE  C074  FFDA         	movff	??_gpio_pin_direction_intialize+5,fsr2h
  2856   0016D2  5071               	movf	(??_gpio_pin_direction_intialize+2)^0,w,c
  2857   0016D4  16DF               	andwf	indf2,f,c
  2858                           
  2859                           ;MCAL_Layer/GPIO/hal_gpio.c: 34:                 break;
  2860   0016D6  EFBC  F00B         	goto	l7010
  2861   0016DA                     l7004:
  2862                           
  2863                           ;MCAL_Layer/GPIO/hal_gpio.c: 36:                 (*tris_registers[_pin_config->port] |= 
      +                          ((uint8)1 << _pin_config->pin));
  2864   0016DA  C06D  FFD9         	movff	gpio_pin_direction_intialize@_pin_config,fsr2l
  2865   0016DE  C06E  FFDA         	movff	gpio_pin_direction_intialize@_pin_config+1,fsr2h
  2866   0016E2  30DF               	rrcf	223,w,c
  2867   0016E4  32E8               	rrcf	wreg,f,c
  2868   0016E6  32E8               	rrcf	wreg,f,c
  2869   0016E8  0B07               	andlw	7
  2870   0016EA  6E6F               	movwf	??_gpio_pin_direction_intialize^0,c
  2871   0016EC  0E01               	movlw	1
  2872   0016EE  6E70               	movwf	(??_gpio_pin_direction_intialize+1)^0,c
  2873   0016F0  2A6F               	incf	??_gpio_pin_direction_intialize^0,f,c
  2874   0016F2  EF7D  F00B         	goto	u5274
  2875   0016F6                     u5275:
  2876   0016F6  90D8               	bcf	status,0,c
  2877   0016F8  3670               	rlcf	(??_gpio_pin_direction_intialize+1)^0,f,c
  2878   0016FA                     u5274:
  2879   0016FA  2E6F               	decfsz	??_gpio_pin_direction_intialize^0,f,c
  2880   0016FC  EF7B  F00B         	goto	u5275
  2881   001700  C06D  FFD9         	movff	gpio_pin_direction_intialize@_pin_config,fsr2l
  2882   001704  C06E  FFDA         	movff	gpio_pin_direction_intialize@_pin_config+1,fsr2h
  2883   001708  50DF               	movf	223,w,c
  2884   00170A  0B07               	andlw	7
  2885   00170C  6E71               	movwf	(??_gpio_pin_direction_intialize+2)^0,c
  2886   00170E  5071               	movf	(??_gpio_pin_direction_intialize+2)^0,w,c
  2887   001710  0D02               	mullw	2
  2888   001712  0E8A               	movlw	low _tris_registers
  2889   001714  24F3               	addwf	243,w,c
  2890   001716  6ED9               	movwf	fsr2l,c
  2891   001718  0E00               	movlw	high _tris_registers
  2892   00171A  20F4               	addwfc	prodh,w,c
  2893   00171C  6EDA               	movwf	fsr2h,c
  2894   00171E  CFDE F072          	movff	postinc2,??_gpio_pin_direction_intialize+3
  2895   001722  CFDD F073          	movff	postdec2,??_gpio_pin_direction_intialize+4
  2896   001726  C072  FFD9         	movff	??_gpio_pin_direction_intialize+3,fsr2l
  2897   00172A  C073  FFDA         	movff	??_gpio_pin_direction_intialize+4,fsr2h
  2898   00172E  5070               	movf	(??_gpio_pin_direction_intialize+1)^0,w,c
  2899   001730  12DF               	iorwf	indf2,f,c
  2900                           
  2901                           ;MCAL_Layer/GPIO/hal_gpio.c: 37:                 break;
  2902   001732  EFBC  F00B         	goto	l7010
  2903   001736                     l7008:
  2904   001736  C06D  FFD9         	movff	gpio_pin_direction_intialize@_pin_config,fsr2l
  2905   00173A  C06E  FFDA         	movff	gpio_pin_direction_intialize@_pin_config+1,fsr2h
  2906   00173E  BCDF               	btfsc	indf2,6,c
  2907   001740  EFA4  F00B         	goto	u5281
  2908   001744  EFA7  F00B         	goto	u5280
  2909   001748                     u5281:
  2910   001748  0E01               	movlw	1
  2911   00174A  EFA8  F00B         	goto	u5290
  2912   00174E                     u5280:
  2913   00174E  0E00               	movlw	0
  2914   001750                     u5290:
  2915   001750  6E6F               	movwf	??_gpio_pin_direction_intialize^0,c
  2916   001752  6A70               	clrf	(??_gpio_pin_direction_intialize+1)^0,c
  2917                           
  2918                           ; Switch on 2 bytes has been partitioned into a top level switch of size 1, and 1 sub-sw
      +                          itches
  2919                           ; Switch size 1, requested type "simple"
  2920                           ; Number of cases is 1, Range of values is 0 to 0
  2921                           ; switch strategies available:
  2922                           ; Name         Instructions Cycles
  2923                           ; simple_byte            4     3 (average)
  2924                           ;	Chosen strategy is simple_byte
  2925   001754  5070               	movf	(??_gpio_pin_direction_intialize+1)^0,w,c
  2926   001756  0A00               	xorlw	0	; case 0
  2927   001758  B4D8               	btfsc	status,2,c
  2928   00175A  EFB1  F00B         	goto	l8256
  2929   00175E  EF38  F00B         	goto	l7000
  2930   001762                     l8256:
  2931                           
  2932                           ; Switch size 1, requested type "simple"
  2933                           ; Number of cases is 2, Range of values is 0 to 1
  2934                           ; switch strategies available:
  2935                           ; Name         Instructions Cycles
  2936                           ; simple_byte            7     4 (average)
  2937                           ;	Chosen strategy is simple_byte
  2938   001762  506F               	movf	??_gpio_pin_direction_intialize^0,w,c
  2939   001764  0A00               	xorlw	0	; case 0
  2940   001766  B4D8               	btfsc	status,2,c
  2941   001768  EF3C  F00B         	goto	l7002
  2942   00176C  0A01               	xorlw	1	; case 1
  2943   00176E  B4D8               	btfsc	status,2,c
  2944   001770  EF6D  F00B         	goto	l7004
  2945   001774  EF38  F00B         	goto	l7000
  2946   001778                     l7010:
  2947                           
  2948                           ;MCAL_Layer/GPIO/hal_gpio.c: 41:     return ret;
  2949   001778  5075               	movf	gpio_pin_direction_intialize@ret^0,w,c
  2950   00177A  0012               	return		;funcret
  2951   00177C                     __end_of_gpio_pin_direction_intialize:
  2952                           	callstack 0
  2953                           
  2954 ;; *************** function _Interrupt_INTx_Enable *****************
  2955 ;; Defined at:
  2956 ;;		line 292 in file "MCAL_Layer/Interrupt/mcal_external_interrupt.c"
  2957 ;; Parameters:    Size  Location     Type
  2958 ;;  int_obj         2    4[COMRAM] PTR const struct .
  2959 ;;		 -> int2_obj(6), int1_obj(6), int0_obj(6), 
  2960 ;; Auto vars:     Size  Location     Type
  2961 ;;  ret             1    8[COMRAM] unsigned char 
  2962 ;; Return value:  Size  Location     Type
  2963 ;;                  1    wreg      unsigned char 
  2964 ;; Registers used:
  2965 ;;		wreg, fsr2l, fsr2h, status,2, status,0
  2966 ;; Tracked objects:
  2967 ;;		On entry : 0/0
  2968 ;;		On exit  : 0/0
  2969 ;;		Unchanged: 0/0
  2970 ;; Data sizes:     COMRAM   BANK0   BANK1   BANK2   BANK3   BANK4   BANK5   BANK6   BANK7   BANK8   BANK9  BANK10  BANK1
      +1  BANK12  BANK13  BANK14  BANK15
  2971 ;;      Params:         2       0       0       0       0       0       0       0       0       0       0       0       
      +0       0       0       0       0
  2972 ;;      Locals:         1       0       0       0       0       0       0       0       0       0       0       0       
      +0       0       0       0       0
  2973 ;;      Temps:          2       0       0       0       0       0       0       0       0       0       0       0       
      +0       0       0       0       0
  2974 ;;      Totals:         5       0       0       0       0       0       0       0       0       0       0       0       
      +0       0       0       0       0
  2975 ;;Total ram usage:        5 bytes
  2976 ;; Hardware stack levels used: 1
  2977 ;; Hardware stack levels required when called: 3
  2978 ;; This function calls:
  2979 ;;		Nothing
  2980 ;; This function is called by:
  2981 ;;		_Interrupt_INTx_Init
  2982 ;; This function uses a non-reentrant model
  2983 ;;
  2984                           
  2985                           	psect	text18
  2986   001EA6                     __ptext18:
  2987                           	callstack 0
  2988   001EA6                     _Interrupt_INTx_Enable:
  2989                           	callstack 25
  2990   001EA6                     
  2991                           ;MCAL_Layer/Interrupt/mcal_external_interrupt.c: 294:     if(((void*)0) == int_obj){
  2992   001EA6  506D               	movf	Interrupt_INTx_Enable@int_obj^0,w,c
  2993   001EA8  106E               	iorwf	(Interrupt_INTx_Enable@int_obj+1)^0,w,c
  2994   001EAA  A4D8               	btfss	status,2,c
  2995   001EAC  EF5A  F00F         	goto	u5471
  2996   001EB0  EF5C  F00F         	goto	u5470
  2997   001EB4                     u5471:
  2998   001EB4  EF71  F00F         	goto	l7232
  2999   001EB8                     u5470:
  3000   001EB8                     l7222:
  3001                           
  3002                           ;MCAL_Layer/Interrupt/mcal_external_interrupt.c: 295:         ret = (Std_ReturnType)0x00
      +                          ;
  3003   001EB8  0E00               	movlw	0
  3004   001EBA  6E71               	movwf	Interrupt_INTx_Enable@ret^0,c
  3005                           
  3006                           ;MCAL_Layer/Interrupt/mcal_external_interrupt.c: 296:     }
  3007   001EBC  EF90  F00F         	goto	l7234
  3008   001EC0                     l1103:
  3009                           
  3010                           ;MCAL_Layer/Interrupt/mcal_external_interrupt.c: 303:                 (INTCONbits.GIE = 
      +                          1);
  3011   001EC0  8EF2               	bsf	242,7,c	;volatile
  3012                           
  3013                           ;MCAL_Layer/Interrupt/mcal_external_interrupt.c: 304:                 (INTCONbits.PEIE =
      +                           1);
  3014   001EC2  8CF2               	bsf	242,6,c	;volatile
  3015                           
  3016                           ;MCAL_Layer/Interrupt/mcal_external_interrupt.c: 306:                 (INTCONbits.INT0IE
      +                           = 1);
  3017   001EC4  88F2               	bsf	242,4,c	;volatile
  3018   001EC6                     l7224:
  3019                           
  3020                           ;MCAL_Layer/Interrupt/mcal_external_interrupt.c: 307:                 ret = (Std_ReturnT
      +                          ype)0x01;
  3021   001EC6  0E01               	movlw	1
  3022   001EC8  6E71               	movwf	Interrupt_INTx_Enable@ret^0,c
  3023                           
  3024                           ;MCAL_Layer/Interrupt/mcal_external_interrupt.c: 308:                 break;
  3025   001ECA  EF90  F00F         	goto	l7234
  3026   001ECE                     l1105:
  3027                           
  3028                           ;MCAL_Layer/Interrupt/mcal_external_interrupt.c: 320:                 (INTCONbits.GIE = 
      +                          1);
  3029   001ECE  8EF2               	bsf	242,7,c	;volatile
  3030                           
  3031                           ;MCAL_Layer/Interrupt/mcal_external_interrupt.c: 321:                 (INTCONbits.PEIE =
      +                           1);
  3032   001ED0  8CF2               	bsf	242,6,c	;volatile
  3033                           
  3034                           ;MCAL_Layer/Interrupt/mcal_external_interrupt.c: 323:                 (INTCON3bits.INT1I
      +                          E = 1);
  3035   001ED2  86F0               	bsf	240,3,c	;volatile
  3036   001ED4  EF63  F00F         	goto	l7224
  3037   001ED8                     l1106:
  3038                           
  3039                           ;MCAL_Layer/Interrupt/mcal_external_interrupt.c: 337:                 (INTCONbits.GIE = 
      +                          1);
  3040   001ED8  8EF2               	bsf	242,7,c	;volatile
  3041                           
  3042                           ;MCAL_Layer/Interrupt/mcal_external_interrupt.c: 338:                 (INTCONbits.PEIE =
      +                           1);
  3043   001EDA  8CF2               	bsf	242,6,c	;volatile
  3044                           
  3045                           ;MCAL_Layer/Interrupt/mcal_external_interrupt.c: 340:                 (INTCON3bits.INT2I
      +                          E = 1);
  3046   001EDC  88F0               	bsf	240,4,c	;volatile
  3047   001EDE  EF63  F00F         	goto	l7224
  3048   001EE2                     l7232:
  3049   001EE2  EE20 F004          	lfsr	2,4
  3050   001EE6  506D               	movf	Interrupt_INTx_Enable@int_obj^0,w,c
  3051   001EE8  26D9               	addwf	fsr2l,f,c
  3052   001EEA  506E               	movf	(Interrupt_INTx_Enable@int_obj+1)^0,w,c
  3053   001EEC  22DA               	addwfc	fsr2h,f,c
  3054   001EEE  50DF               	movf	indf2,w,c
  3055   001EF0  6E6F               	movwf	??_Interrupt_INTx_Enable^0,c
  3056   001EF2  6A70               	clrf	(??_Interrupt_INTx_Enable+1)^0,c
  3057                           
  3058                           ; Switch on 2 bytes has been partitioned into a top level switch of size 1, and 1 sub-sw
      +                          itches
  3059                           ; Switch size 1, requested type "simple"
  3060                           ; Number of cases is 1, Range of values is 0 to 0
  3061                           ; switch strategies available:
  3062                           ; Name         Instructions Cycles
  3063                           ; simple_byte            4     3 (average)
  3064                           ;	Chosen strategy is simple_byte
  3065   001EF4  5070               	movf	(??_Interrupt_INTx_Enable+1)^0,w,c
  3066   001EF6  0A00               	xorlw	0	; case 0
  3067   001EF8  B4D8               	btfsc	status,2,c
  3068   001EFA  EF81  F00F         	goto	l8258
  3069   001EFE  EF5C  F00F         	goto	l7222
  3070   001F02                     l8258:
  3071                           
  3072                           ; Switch size 1, requested type "simple"
  3073                           ; Number of cases is 3, Range of values is 0 to 2
  3074                           ; switch strategies available:
  3075                           ; Name         Instructions Cycles
  3076                           ; simple_byte           10     6 (average)
  3077                           ;	Chosen strategy is simple_byte
  3078   001F02  506F               	movf	??_Interrupt_INTx_Enable^0,w,c
  3079   001F04  0A00               	xorlw	0	; case 0
  3080   001F06  B4D8               	btfsc	status,2,c
  3081   001F08  EF60  F00F         	goto	l1103
  3082   001F0C  0A01               	xorlw	1	; case 1
  3083   001F0E  B4D8               	btfsc	status,2,c
  3084   001F10  EF67  F00F         	goto	l1105
  3085   001F14  0A03               	xorlw	3	; case 2
  3086   001F16  B4D8               	btfsc	status,2,c
  3087   001F18  EF6C  F00F         	goto	l1106
  3088   001F1C  EF5C  F00F         	goto	l7222
  3089   001F20                     l7234:
  3090                           
  3091                           ;MCAL_Layer/Interrupt/mcal_external_interrupt.c: 346:     return ret;
  3092   001F20  5071               	movf	Interrupt_INTx_Enable@ret^0,w,c
  3093   001F22  0012               	return		;funcret
  3094   001F24                     __end_of_Interrupt_INTx_Enable:
  3095                           	callstack 0
  3096                           
  3097 ;; *************** function _Interrupt_INTx_Edge_Init *****************
  3098 ;; Defined at:
  3099 ;;		line 422 in file "MCAL_Layer/Interrupt/mcal_external_interrupt.c"
  3100 ;; Parameters:    Size  Location     Type
  3101 ;;  int_obj         2    4[COMRAM] PTR const struct .
  3102 ;;		 -> int2_obj(6), int1_obj(6), int0_obj(6), 
  3103 ;; Auto vars:     Size  Location     Type
  3104 ;;  ret             1    8[COMRAM] unsigned char 
  3105 ;; Return value:  Size  Location     Type
  3106 ;;                  1    wreg      unsigned char 
  3107 ;; Registers used:
  3108 ;;		wreg, fsr2l, fsr2h, status,2, status,0
  3109 ;; Tracked objects:
  3110 ;;		On entry : 0/0
  3111 ;;		On exit  : 0/0
  3112 ;;		Unchanged: 0/0
  3113 ;; Data sizes:     COMRAM   BANK0   BANK1   BANK2   BANK3   BANK4   BANK5   BANK6   BANK7   BANK8   BANK9  BANK10  BANK1
      +1  BANK12  BANK13  BANK14  BANK15
  3114 ;;      Params:         2       0       0       0       0       0       0       0       0       0       0       0       
      +0       0       0       0       0
  3115 ;;      Locals:         1       0       0       0       0       0       0       0       0       0       0       0       
      +0       0       0       0       0
  3116 ;;      Temps:          2       0       0       0       0       0       0       0       0       0       0       0       
      +0       0       0       0       0
  3117 ;;      Totals:         5       0       0       0       0       0       0       0       0       0       0       0       
      +0       0       0       0       0
  3118 ;;Total ram usage:        5 bytes
  3119 ;; Hardware stack levels used: 1
  3120 ;; Hardware stack levels required when called: 3
  3121 ;; This function calls:
  3122 ;;		Nothing
  3123 ;; This function is called by:
  3124 ;;		_Interrupt_INTx_Init
  3125 ;; This function uses a non-reentrant model
  3126 ;;
  3127                           
  3128                           	psect	text19
  3129   0018A8                     __ptext19:
  3130                           	callstack 0
  3131   0018A8                     _Interrupt_INTx_Edge_Init:
  3132                           	callstack 25
  3133   0018A8                     
  3134                           ;MCAL_Layer/Interrupt/mcal_external_interrupt.c: 424:     if(((void*)0) == int_obj){
  3135   0018A8  506D               	movf	Interrupt_INTx_Edge_Init@int_obj^0,w,c
  3136   0018AA  106E               	iorwf	(Interrupt_INTx_Edge_Init@int_obj+1)^0,w,c
  3137   0018AC  A4D8               	btfss	status,2,c
  3138   0018AE  EF5B  F00C         	goto	u5381
  3139   0018B2  EF5D  F00C         	goto	u5380
  3140   0018B6                     u5381:
  3141   0018B6  EFC9  F00C         	goto	l7172
  3142   0018BA                     u5380:
  3143   0018BA                     l7138:
  3144                           
  3145                           ;MCAL_Layer/Interrupt/mcal_external_interrupt.c: 425:         ret = (Std_ReturnType)0x00
      +                          ;
  3146   0018BA  0E00               	movlw	0
  3147   0018BC  6E71               	movwf	Interrupt_INTx_Edge_Init@ret^0,c
  3148                           
  3149                           ;MCAL_Layer/Interrupt/mcal_external_interrupt.c: 426:     }
  3150   0018BE  EFE8  F00C         	goto	l7174
  3151   0018C2                     l7140:
  3152                           
  3153                           ;MCAL_Layer/Interrupt/mcal_external_interrupt.c: 430:                 if(INTERRUPT_FALLI
      +                          NG_EDGE == int_obj->edge){ (INTCON2bits.INTEDG0 = 0); }
  3154   0018C2  EE20 F003          	lfsr	2,3
  3155   0018C6  506D               	movf	Interrupt_INTx_Edge_Init@int_obj^0,w,c
  3156   0018C8  26D9               	addwf	fsr2l,f,c
  3157   0018CA  506E               	movf	(Interrupt_INTx_Edge_Init@int_obj+1)^0,w,c
  3158   0018CC  22DA               	addwfc	fsr2h,f,c
  3159   0018CE  50DF               	movf	indf2,w,c
  3160   0018D0  A4D8               	btfss	status,2,c
  3161   0018D2  EF6D  F00C         	goto	u5391
  3162   0018D6  EF6F  F00C         	goto	u5390
  3163   0018DA                     u5391:
  3164   0018DA  EF72  F00C         	goto	l7144
  3165   0018DE                     u5390:
  3166   0018DE  9CF1               	bcf	241,6,c	;volatile
  3167   0018E0  EF81  F00C         	goto	l7148
  3168   0018E4                     l7144:
  3169   0018E4  EE20 F003          	lfsr	2,3
  3170   0018E8  506D               	movf	Interrupt_INTx_Edge_Init@int_obj^0,w,c
  3171   0018EA  26D9               	addwf	fsr2l,f,c
  3172   0018EC  506E               	movf	(Interrupt_INTx_Edge_Init@int_obj+1)^0,w,c
  3173   0018EE  22DA               	addwfc	fsr2h,f,c
  3174   0018F0  04DE               	decf	postinc2,w,c
  3175   0018F2  A4D8               	btfss	status,2,c
  3176   0018F4  EF7E  F00C         	goto	u5401
  3177   0018F8  EF80  F00C         	goto	u5400
  3178   0018FC                     u5401:
  3179   0018FC  EF81  F00C         	goto	l7148
  3180   001900                     u5400:
  3181   001900  8CF1               	bsf	241,6,c	;volatile
  3182   001902                     l7148:
  3183                           
  3184                           ;MCAL_Layer/Interrupt/mcal_external_interrupt.c: 433:                 ret = (Std_ReturnT
      +                          ype)0x01;
  3185   001902  0E01               	movlw	1
  3186   001904  6E71               	movwf	Interrupt_INTx_Edge_Init@ret^0,c
  3187                           
  3188                           ;MCAL_Layer/Interrupt/mcal_external_interrupt.c: 434:                 break;
  3189   001906  EFE8  F00C         	goto	l7174
  3190   00190A                     l7150:
  3191                           
  3192                           ;MCAL_Layer/Interrupt/mcal_external_interrupt.c: 436:                 if(INTERRUPT_FALLI
      +                          NG_EDGE == int_obj->edge){ (INTCON2bits.INTEDG1 = 0); }
  3193   00190A  EE20 F003          	lfsr	2,3
  3194   00190E  506D               	movf	Interrupt_INTx_Edge_Init@int_obj^0,w,c
  3195   001910  26D9               	addwf	fsr2l,f,c
  3196   001912  506E               	movf	(Interrupt_INTx_Edge_Init@int_obj+1)^0,w,c
  3197   001914  22DA               	addwfc	fsr2h,f,c
  3198   001916  50DF               	movf	indf2,w,c
  3199   001918  A4D8               	btfss	status,2,c
  3200   00191A  EF91  F00C         	goto	u5411
  3201   00191E  EF93  F00C         	goto	u5410
  3202   001922                     u5411:
  3203   001922  EF96  F00C         	goto	l7154
  3204   001926                     u5410:
  3205   001926  9AF1               	bcf	241,5,c	;volatile
  3206   001928  EF81  F00C         	goto	l7148
  3207   00192C                     l7154:
  3208   00192C  EE20 F003          	lfsr	2,3
  3209   001930  506D               	movf	Interrupt_INTx_Edge_Init@int_obj^0,w,c
  3210   001932  26D9               	addwf	fsr2l,f,c
  3211   001934  506E               	movf	(Interrupt_INTx_Edge_Init@int_obj+1)^0,w,c
  3212   001936  22DA               	addwfc	fsr2h,f,c
  3213   001938  04DE               	decf	postinc2,w,c
  3214   00193A  A4D8               	btfss	status,2,c
  3215   00193C  EFA2  F00C         	goto	u5421
  3216   001940  EFA4  F00C         	goto	u5420
  3217   001944                     u5421:
  3218   001944  EF81  F00C         	goto	l7148
  3219   001948                     u5420:
  3220   001948  8AF1               	bsf	241,5,c	;volatile
  3221   00194A  EF81  F00C         	goto	l7148
  3222   00194E                     l7160:
  3223                           
  3224                           ;MCAL_Layer/Interrupt/mcal_external_interrupt.c: 442:                 if(INTERRUPT_FALLI
      +                          NG_EDGE == int_obj->edge){ (INTCON2bits.INTEDG2 = 0); }
  3225   00194E  EE20 F003          	lfsr	2,3
  3226   001952  506D               	movf	Interrupt_INTx_Edge_Init@int_obj^0,w,c
  3227   001954  26D9               	addwf	fsr2l,f,c
  3228   001956  506E               	movf	(Interrupt_INTx_Edge_Init@int_obj+1)^0,w,c
  3229   001958  22DA               	addwfc	fsr2h,f,c
  3230   00195A  50DF               	movf	indf2,w,c
  3231   00195C  A4D8               	btfss	status,2,c
  3232   00195E  EFB3  F00C         	goto	u5431
  3233   001962  EFB5  F00C         	goto	u5430
  3234   001966                     u5431:
  3235   001966  EFB8  F00C         	goto	l7164
  3236   00196A                     u5430:
  3237   00196A  98F1               	bcf	241,4,c	;volatile
  3238   00196C  EF81  F00C         	goto	l7148
  3239   001970                     l7164:
  3240   001970  EE20 F003          	lfsr	2,3
  3241   001974  506D               	movf	Interrupt_INTx_Edge_Init@int_obj^0,w,c
  3242   001976  26D9               	addwf	fsr2l,f,c
  3243   001978  506E               	movf	(Interrupt_INTx_Edge_Init@int_obj+1)^0,w,c
  3244   00197A  22DA               	addwfc	fsr2h,f,c
  3245   00197C  04DE               	decf	postinc2,w,c
  3246   00197E  A4D8               	btfss	status,2,c
  3247   001980  EFC4  F00C         	goto	u5441
  3248   001984  EFC6  F00C         	goto	u5440
  3249   001988                     u5441:
  3250   001988  EF81  F00C         	goto	l7148
  3251   00198C                     u5440:
  3252   00198C  88F1               	bsf	241,4,c	;volatile
  3253   00198E  EF81  F00C         	goto	l7148
  3254   001992                     l7172:
  3255   001992  EE20 F004          	lfsr	2,4
  3256   001996  506D               	movf	Interrupt_INTx_Edge_Init@int_obj^0,w,c
  3257   001998  26D9               	addwf	fsr2l,f,c
  3258   00199A  506E               	movf	(Interrupt_INTx_Edge_Init@int_obj+1)^0,w,c
  3259   00199C  22DA               	addwfc	fsr2h,f,c
  3260   00199E  50DF               	movf	indf2,w,c
  3261   0019A0  6E6F               	movwf	??_Interrupt_INTx_Edge_Init^0,c
  3262   0019A2  6A70               	clrf	(??_Interrupt_INTx_Edge_Init+1)^0,c
  3263                           
  3264                           ; Switch on 2 bytes has been partitioned into a top level switch of size 1, and 1 sub-sw
      +                          itches
  3265                           ; Switch size 1, requested type "simple"
  3266                           ; Number of cases is 1, Range of values is 0 to 0
  3267                           ; switch strategies available:
  3268                           ; Name         Instructions Cycles
  3269                           ; simple_byte            4     3 (average)
  3270                           ;	Chosen strategy is simple_byte
  3271   0019A4  5070               	movf	(??_Interrupt_INTx_Edge_Init+1)^0,w,c
  3272   0019A6  0A00               	xorlw	0	; case 0
  3273   0019A8  B4D8               	btfsc	status,2,c
  3274   0019AA  EFD9  F00C         	goto	l8260
  3275   0019AE  EF5D  F00C         	goto	l7138
  3276   0019B2                     l8260:
  3277                           
  3278                           ; Switch size 1, requested type "simple"
  3279                           ; Number of cases is 3, Range of values is 0 to 2
  3280                           ; switch strategies available:
  3281                           ; Name         Instructions Cycles
  3282                           ; simple_byte           10     6 (average)
  3283                           ;	Chosen strategy is simple_byte
  3284   0019B2  506F               	movf	??_Interrupt_INTx_Edge_Init^0,w,c
  3285   0019B4  0A00               	xorlw	0	; case 0
  3286   0019B6  B4D8               	btfsc	status,2,c
  3287   0019B8  EF61  F00C         	goto	l7140
  3288   0019BC  0A01               	xorlw	1	; case 1
  3289   0019BE  B4D8               	btfsc	status,2,c
  3290   0019C0  EF85  F00C         	goto	l7150
  3291   0019C4  0A03               	xorlw	3	; case 2
  3292   0019C6  B4D8               	btfsc	status,2,c
  3293   0019C8  EFA7  F00C         	goto	l7160
  3294   0019CC  EF5D  F00C         	goto	l7138
  3295   0019D0                     l7174:
  3296                           
  3297                           ;MCAL_Layer/Interrupt/mcal_external_interrupt.c: 450:     return ret;
  3298   0019D0  5071               	movf	Interrupt_INTx_Edge_Init@ret^0,w,c
  3299   0019D2  0012               	return		;funcret
  3300   0019D4                     __end_of_Interrupt_INTx_Edge_Init:
  3301                           	callstack 0
  3302                           
  3303 ;; *************** function _Interrupt_INTx_Disable *****************
  3304 ;; Defined at:
  3305 ;;		line 356 in file "MCAL_Layer/Interrupt/mcal_external_interrupt.c"
  3306 ;; Parameters:    Size  Location     Type
  3307 ;;  int_obj         2    4[COMRAM] PTR const struct .
  3308 ;;		 -> int2_obj(6), int1_obj(6), int0_obj(6), 
  3309 ;; Auto vars:     Size  Location     Type
  3310 ;;  ret             1    8[COMRAM] unsigned char 
  3311 ;; Return value:  Size  Location     Type
  3312 ;;                  1    wreg      unsigned char 
  3313 ;; Registers used:
  3314 ;;		wreg, fsr2l, fsr2h, status,2, status,0
  3315 ;; Tracked objects:
  3316 ;;		On entry : 0/0
  3317 ;;		On exit  : 0/0
  3318 ;;		Unchanged: 0/0
  3319 ;; Data sizes:     COMRAM   BANK0   BANK1   BANK2   BANK3   BANK4   BANK5   BANK6   BANK7   BANK8   BANK9  BANK10  BANK1
      +1  BANK12  BANK13  BANK14  BANK15
  3320 ;;      Params:         2       0       0       0       0       0       0       0       0       0       0       0       
      +0       0       0       0       0
  3321 ;;      Locals:         1       0       0       0       0       0       0       0       0       0       0       0       
      +0       0       0       0       0
  3322 ;;      Temps:          2       0       0       0       0       0       0       0       0       0       0       0       
      +0       0       0       0       0
  3323 ;;      Totals:         5       0       0       0       0       0       0       0       0       0       0       0       
      +0       0       0       0       0
  3324 ;;Total ram usage:        5 bytes
  3325 ;; Hardware stack levels used: 1
  3326 ;; Hardware stack levels required when called: 3
  3327 ;; This function calls:
  3328 ;;		Nothing
  3329 ;; This function is called by:
  3330 ;;		_Interrupt_INTx_Init
  3331 ;;		_Interrupt_INTx_DeInit
  3332 ;; This function uses a non-reentrant model
  3333 ;;
  3334                           
  3335                           	psect	text20
  3336   001F24                     __ptext20:
  3337                           	callstack 0
  3338   001F24                     _Interrupt_INTx_Disable:
  3339                           	callstack 25
  3340   001F24                     
  3341                           ;MCAL_Layer/Interrupt/mcal_external_interrupt.c: 358:     if(((void*)0) == int_obj){
  3342   001F24  506D               	movf	Interrupt_INTx_Disable@int_obj^0,w,c
  3343   001F26  106E               	iorwf	(Interrupt_INTx_Disable@int_obj+1)^0,w,c
  3344   001F28  A4D8               	btfss	status,2,c
  3345   001F2A  EF99  F00F         	goto	u5361
  3346   001F2E  EF9B  F00F         	goto	u5360
  3347   001F32                     u5361:
  3348   001F32  EFAA  F00F         	goto	l7100
  3349   001F36                     u5360:
  3350   001F36                     l7090:
  3351                           
  3352                           ;MCAL_Layer/Interrupt/mcal_external_interrupt.c: 359:         ret = (Std_ReturnType)0x00
      +                          ;
  3353   001F36  0E00               	movlw	0
  3354   001F38  6E71               	movwf	Interrupt_INTx_Disable@ret^0,c
  3355                           
  3356                           ;MCAL_Layer/Interrupt/mcal_external_interrupt.c: 360:     }
  3357   001F3A  EFC9  F00F         	goto	l7102
  3358   001F3E                     l1114:
  3359                           
  3360                           ;MCAL_Layer/Interrupt/mcal_external_interrupt.c: 364:                 (INTCONbits.INT0IE
      +                           = 0);
  3361   001F3E  98F2               	bcf	242,4,c	;volatile
  3362   001F40                     l7092:
  3363                           
  3364                           ;MCAL_Layer/Interrupt/mcal_external_interrupt.c: 365:                 ret = (Std_ReturnT
      +                          ype)0x01;
  3365   001F40  0E01               	movlw	1
  3366   001F42  6E71               	movwf	Interrupt_INTx_Disable@ret^0,c
  3367                           
  3368                           ;MCAL_Layer/Interrupt/mcal_external_interrupt.c: 366:                 break;
  3369   001F44  EFC9  F00F         	goto	l7102
  3370   001F48                     l1116:
  3371                           
  3372                           ;MCAL_Layer/Interrupt/mcal_external_interrupt.c: 368:                 (INTCON3bits.INT1I
      +                          E = 0);
  3373   001F48  96F0               	bcf	240,3,c	;volatile
  3374   001F4A  EFA0  F00F         	goto	l7092
  3375   001F4E                     l1117:
  3376                           
  3377                           ;MCAL_Layer/Interrupt/mcal_external_interrupt.c: 372:                 (INTCON3bits.INT2I
      +                          E = 0);
  3378   001F4E  98F0               	bcf	240,4,c	;volatile
  3379   001F50  EFA0  F00F         	goto	l7092
  3380   001F54                     l7100:
  3381   001F54  EE20 F004          	lfsr	2,4
  3382   001F58  506D               	movf	Interrupt_INTx_Disable@int_obj^0,w,c
  3383   001F5A  26D9               	addwf	fsr2l,f,c
  3384   001F5C  506E               	movf	(Interrupt_INTx_Disable@int_obj+1)^0,w,c
  3385   001F5E  22DA               	addwfc	fsr2h,f,c
  3386   001F60  50DF               	movf	indf2,w,c
  3387   001F62  6E6F               	movwf	??_Interrupt_INTx_Disable^0,c
  3388   001F64  6A70               	clrf	(??_Interrupt_INTx_Disable+1)^0,c
  3389                           
  3390                           ; Switch on 2 bytes has been partitioned into a top level switch of size 1, and 1 sub-sw
      +                          itches
  3391                           ; Switch size 1, requested type "simple"
  3392                           ; Number of cases is 1, Range of values is 0 to 0
  3393                           ; switch strategies available:
  3394                           ; Name         Instructions Cycles
  3395                           ; simple_byte            4     3 (average)
  3396                           ;	Chosen strategy is simple_byte
  3397   001F66  5070               	movf	(??_Interrupt_INTx_Disable+1)^0,w,c
  3398   001F68  0A00               	xorlw	0	; case 0
  3399   001F6A  B4D8               	btfsc	status,2,c
  3400   001F6C  EFBA  F00F         	goto	l8262
  3401   001F70  EF9B  F00F         	goto	l7090
  3402   001F74                     l8262:
  3403                           
  3404                           ; Switch size 1, requested type "simple"
  3405                           ; Number of cases is 3, Range of values is 0 to 2
  3406                           ; switch strategies available:
  3407                           ; Name         Instructions Cycles
  3408                           ; simple_byte           10     6 (average)
  3409                           ;	Chosen strategy is simple_byte
  3410   001F74  506F               	movf	??_Interrupt_INTx_Disable^0,w,c
  3411   001F76  0A00               	xorlw	0	; case 0
  3412   001F78  B4D8               	btfsc	status,2,c
  3413   001F7A  EF9F  F00F         	goto	l1114
  3414   001F7E  0A01               	xorlw	1	; case 1
  3415   001F80  B4D8               	btfsc	status,2,c
  3416   001F82  EFA4  F00F         	goto	l1116
  3417   001F86  0A03               	xorlw	3	; case 2
  3418   001F88  B4D8               	btfsc	status,2,c
  3419   001F8A  EFA7  F00F         	goto	l1117
  3420   001F8E  EF9B  F00F         	goto	l7090
  3421   001F92                     l7102:
  3422                           
  3423                           ;MCAL_Layer/Interrupt/mcal_external_interrupt.c: 378:     return ret;
  3424   001F92  5071               	movf	Interrupt_INTx_Disable@ret^0,w,c
  3425   001F94  0012               	return		;funcret
  3426   001F96                     __end_of_Interrupt_INTx_Disable:
  3427                           	callstack 0
  3428                           
  3429 ;; *************** function _Interrupt_INTx_Clear_Flag *****************
  3430 ;; Defined at:
  3431 ;;		line 479 in file "MCAL_Layer/Interrupt/mcal_external_interrupt.c"
  3432 ;; Parameters:    Size  Location     Type
  3433 ;;  int_obj         2    4[COMRAM] PTR const struct .
  3434 ;;		 -> int2_obj(6), int1_obj(6), int0_obj(6), 
  3435 ;; Auto vars:     Size  Location     Type
  3436 ;;  ret             1    8[COMRAM] unsigned char 
  3437 ;; Return value:  Size  Location     Type
  3438 ;;                  1    wreg      unsigned char 
  3439 ;; Registers used:
  3440 ;;		wreg, fsr2l, fsr2h, status,2, status,0
  3441 ;; Tracked objects:
  3442 ;;		On entry : 0/0
  3443 ;;		On exit  : 0/0
  3444 ;;		Unchanged: 0/0
  3445 ;; Data sizes:     COMRAM   BANK0   BANK1   BANK2   BANK3   BANK4   BANK5   BANK6   BANK7   BANK8   BANK9  BANK10  BANK1
      +1  BANK12  BANK13  BANK14  BANK15
  3446 ;;      Params:         2       0       0       0       0       0       0       0       0       0       0       0       
      +0       0       0       0       0
  3447 ;;      Locals:         1       0       0       0       0       0       0       0       0       0       0       0       
      +0       0       0       0       0
  3448 ;;      Temps:          2       0       0       0       0       0       0       0       0       0       0       0       
      +0       0       0       0       0
  3449 ;;      Totals:         5       0       0       0       0       0       0       0       0       0       0       0       
      +0       0       0       0       0
  3450 ;;Total ram usage:        5 bytes
  3451 ;; Hardware stack levels used: 1
  3452 ;; Hardware stack levels required when called: 3
  3453 ;; This function calls:
  3454 ;;		Nothing
  3455 ;; This function is called by:
  3456 ;;		_Interrupt_INTx_Init
  3457 ;; This function uses a non-reentrant model
  3458 ;;
  3459                           
  3460                           	psect	text21
  3461   001F96                     __ptext21:
  3462                           	callstack 0
  3463   001F96                     _Interrupt_INTx_Clear_Flag:
  3464                           	callstack 25
  3465   001F96                     
  3466                           ;MCAL_Layer/Interrupt/mcal_external_interrupt.c: 481:     if(((void*)0) == int_obj){
  3467   001F96  506D               	movf	Interrupt_INTx_Clear_Flag@int_obj^0,w,c
  3468   001F98  106E               	iorwf	(Interrupt_INTx_Clear_Flag@int_obj+1)^0,w,c
  3469   001F9A  A4D8               	btfss	status,2,c
  3470   001F9C  EFD2  F00F         	goto	u5371
  3471   001FA0  EFD4  F00F         	goto	u5370
  3472   001FA4                     u5371:
  3473   001FA4  EFE3  F00F         	goto	l7124
  3474   001FA8                     u5370:
  3475   001FA8                     l7114:
  3476                           
  3477                           ;MCAL_Layer/Interrupt/mcal_external_interrupt.c: 482:         ret = (Std_ReturnType)0x00
      +                          ;
  3478   001FA8  0E00               	movlw	0
  3479   001FAA  6E71               	movwf	Interrupt_INTx_Clear_Flag@ret^0,c
  3480                           
  3481                           ;MCAL_Layer/Interrupt/mcal_external_interrupt.c: 483:     }
  3482   001FAC  EF02  F010         	goto	l7126
  3483   001FB0                     l1153:
  3484                           
  3485                           ;MCAL_Layer/Interrupt/mcal_external_interrupt.c: 487:                 (INTCONbits.INT0IF
      +                           = 0);
  3486   001FB0  92F2               	bcf	242,1,c	;volatile
  3487   001FB2                     l7116:
  3488                           
  3489                           ;MCAL_Layer/Interrupt/mcal_external_interrupt.c: 488:                 ret = (Std_ReturnT
      +                          ype)0x01;
  3490   001FB2  0E01               	movlw	1
  3491   001FB4  6E71               	movwf	Interrupt_INTx_Clear_Flag@ret^0,c
  3492                           
  3493                           ;MCAL_Layer/Interrupt/mcal_external_interrupt.c: 489:                 break;
  3494   001FB6  EF02  F010         	goto	l7126
  3495   001FBA                     l1155:
  3496                           
  3497                           ;MCAL_Layer/Interrupt/mcal_external_interrupt.c: 491:                 (INTCON3bits.INT1I
      +                          F = 0);
  3498   001FBA  90F0               	bcf	240,0,c	;volatile
  3499   001FBC  EFD9  F00F         	goto	l7116
  3500   001FC0                     l1156:
  3501                           
  3502                           ;MCAL_Layer/Interrupt/mcal_external_interrupt.c: 495:                 (INTCON3bits.INT2I
      +                          F = 0);
  3503   001FC0  92F0               	bcf	240,1,c	;volatile
  3504   001FC2  EFD9  F00F         	goto	l7116
  3505   001FC6                     l7124:
  3506   001FC6  EE20 F004          	lfsr	2,4
  3507   001FCA  506D               	movf	Interrupt_INTx_Clear_Flag@int_obj^0,w,c
  3508   001FCC  26D9               	addwf	fsr2l,f,c
  3509   001FCE  506E               	movf	(Interrupt_INTx_Clear_Flag@int_obj+1)^0,w,c
  3510   001FD0  22DA               	addwfc	fsr2h,f,c
  3511   001FD2  50DF               	movf	indf2,w,c
  3512   001FD4  6E6F               	movwf	??_Interrupt_INTx_Clear_Flag^0,c
  3513   001FD6  6A70               	clrf	(??_Interrupt_INTx_Clear_Flag+1)^0,c
  3514                           
  3515                           ; Switch on 2 bytes has been partitioned into a top level switch of size 1, and 1 sub-sw
      +                          itches
  3516                           ; Switch size 1, requested type "simple"
  3517                           ; Number of cases is 1, Range of values is 0 to 0
  3518                           ; switch strategies available:
  3519                           ; Name         Instructions Cycles
  3520                           ; simple_byte            4     3 (average)
  3521                           ;	Chosen strategy is simple_byte
  3522   001FD8  5070               	movf	(??_Interrupt_INTx_Clear_Flag+1)^0,w,c
  3523   001FDA  0A00               	xorlw	0	; case 0
  3524   001FDC  B4D8               	btfsc	status,2,c
  3525   001FDE  EFF3  F00F         	goto	l8264
  3526   001FE2  EFD4  F00F         	goto	l7114
  3527   001FE6                     l8264:
  3528                           
  3529                           ; Switch size 1, requested type "simple"
  3530                           ; Number of cases is 3, Range of values is 0 to 2
  3531                           ; switch strategies available:
  3532                           ; Name         Instructions Cycles
  3533                           ; simple_byte           10     6 (average)
  3534                           ;	Chosen strategy is simple_byte
  3535   001FE6  506F               	movf	??_Interrupt_INTx_Clear_Flag^0,w,c
  3536   001FE8  0A00               	xorlw	0	; case 0
  3537   001FEA  B4D8               	btfsc	status,2,c
  3538   001FEC  EFD8  F00F         	goto	l1153
  3539   001FF0  0A01               	xorlw	1	; case 1
  3540   001FF2  B4D8               	btfsc	status,2,c
  3541   001FF4  EFDD  F00F         	goto	l1155
  3542   001FF8  0A03               	xorlw	3	; case 2
  3543   001FFA  B4D8               	btfsc	status,2,c
  3544   001FFC  EFE0  F00F         	goto	l1156
  3545   002000  EFD4  F00F         	goto	l7114
  3546   002004                     l7126:
  3547                           
  3548                           ;MCAL_Layer/Interrupt/mcal_external_interrupt.c: 501:     return ret;
  3549   002004  5071               	movf	Interrupt_INTx_Clear_Flag@ret^0,w,c
  3550   002006  0012               	return		;funcret
  3551   002008                     __end_of_Interrupt_INTx_Clear_Flag:
  3552                           	callstack 0
  3553                           
  3554 ;; *************** function ___awmod *****************
  3555 ;; Defined at:
  3556 ;;		line 7 in file "C:\Program Files\Microchip\xc8\v2.41\pic\sources\c99\common\awmod.c"
  3557 ;; Parameters:    Size  Location     Type
  3558 ;;  dividend        2    4[COMRAM] int 
  3559 ;;  divisor         2    6[COMRAM] int 
  3560 ;; Auto vars:     Size  Location     Type
  3561 ;;  sign            1    9[COMRAM] unsigned char 
  3562 ;;  counter         1    8[COMRAM] unsigned char 
  3563 ;; Return value:  Size  Location     Type
  3564 ;;                  2    4[COMRAM] int 
  3565 ;; Registers used:
  3566 ;;		wreg, status,2, status,0
  3567 ;; Tracked objects:
  3568 ;;		On entry : 0/0
  3569 ;;		On exit  : 0/0
  3570 ;;		Unchanged: 0/0
  3571 ;; Data sizes:     COMRAM   BANK0   BANK1   BANK2   BANK3   BANK4   BANK5   BANK6   BANK7   BANK8   BANK9  BANK10  BANK1
      +1  BANK12  BANK13  BANK14  BANK15
  3572 ;;      Params:         4       0       0       0       0       0       0       0       0       0       0       0       
      +0       0       0       0       0
  3573 ;;      Locals:         2       0       0       0       0       0       0       0       0       0       0       0       
      +0       0       0       0       0
  3574 ;;      Temps:          0       0       0       0       0       0       0       0       0       0       0       0       
      +0       0       0       0       0
  3575 ;;      Totals:         6       0       0       0       0       0       0       0       0       0       0       0       
      +0       0       0       0       0
  3576 ;;Total ram usage:        6 bytes
  3577 ;; Hardware stack levels used: 1
  3578 ;; Hardware stack levels required when called: 3
  3579 ;; This function calls:
  3580 ;;		Nothing
  3581 ;; This function is called by:
  3582 ;;		_main
  3583 ;; This function uses a non-reentrant model
  3584 ;;
  3585                           
  3586                           	psect	text22
  3587   001A98                     __ptext22:
  3588                           	callstack 0
  3589   001A98                     ___awmod:
  3590                           	callstack 27
  3591   001A98  0E00               	movlw	0
  3592   001A9A  6E72               	movwf	___awmod@sign^0,c
  3593   001A9C  BE6E               	btfsc	(___awmod@dividend+1)^0,7,c
  3594   001A9E  EF55  F00D         	goto	u4340
  3595   001AA2  EF53  F00D         	goto	u4341
  3596   001AA6                     u4341:
  3597   001AA6  EF5B  F00D         	goto	l6086
  3598   001AAA                     u4340:
  3599   001AAA  6C6D               	negf	___awmod@dividend^0,c
  3600   001AAC  1E6E               	comf	(___awmod@dividend+1)^0,f,c
  3601   001AAE  B0D8               	btfsc	status,0,c
  3602   001AB0  2A6E               	incf	(___awmod@dividend+1)^0,f,c
  3603   001AB2  0E01               	movlw	1
  3604   001AB4  6E72               	movwf	___awmod@sign^0,c
  3605   001AB6                     l6086:
  3606   001AB6  BE70               	btfsc	(___awmod@divisor+1)^0,7,c
  3607   001AB8  EF62  F00D         	goto	u4350
  3608   001ABC  EF60  F00D         	goto	u4351
  3609   001AC0                     u4351:
  3610   001AC0  EF66  F00D         	goto	l6090
  3611   001AC4                     u4350:
  3612   001AC4  6C6F               	negf	___awmod@divisor^0,c
  3613   001AC6  1E70               	comf	(___awmod@divisor+1)^0,f,c
  3614   001AC8  B0D8               	btfsc	status,0,c
  3615   001ACA  2A70               	incf	(___awmod@divisor+1)^0,f,c
  3616   001ACC                     l6090:
  3617   001ACC  506F               	movf	___awmod@divisor^0,w,c
  3618   001ACE  1070               	iorwf	(___awmod@divisor+1)^0,w,c
  3619   001AD0  B4D8               	btfsc	status,2,c
  3620   001AD2  EF6D  F00D         	goto	u4361
  3621   001AD6  EF6F  F00D         	goto	u4360
  3622   001ADA                     u4361:
  3623   001ADA  EF93  F00D         	goto	l6106
  3624   001ADE                     u4360:
  3625   001ADE  0E01               	movlw	1
  3626   001AE0  6E71               	movwf	___awmod@counter^0,c
  3627   001AE2  EF77  F00D         	goto	l6096
  3628   001AE6                     l6094:
  3629   001AE6  90D8               	bcf	status,0,c
  3630   001AE8  366F               	rlcf	___awmod@divisor^0,f,c
  3631   001AEA  3670               	rlcf	(___awmod@divisor+1)^0,f,c
  3632   001AEC  2A71               	incf	___awmod@counter^0,f,c
  3633   001AEE                     l6096:
  3634   001AEE  AE70               	btfss	(___awmod@divisor+1)^0,7,c
  3635   001AF0  EF7C  F00D         	goto	u4371
  3636   001AF4  EF7E  F00D         	goto	u4370
  3637   001AF8                     u4371:
  3638   001AF8  EF73  F00D         	goto	l6094
  3639   001AFC                     u4370:
  3640   001AFC                     l6098:
  3641   001AFC  506F               	movf	___awmod@divisor^0,w,c
  3642   001AFE  5C6D               	subwf	___awmod@dividend^0,w,c
  3643   001B00  5070               	movf	(___awmod@divisor+1)^0,w,c
  3644   001B02  586E               	subwfb	(___awmod@dividend+1)^0,w,c
  3645   001B04  A0D8               	btfss	status,0,c
  3646   001B06  EF87  F00D         	goto	u4381
  3647   001B0A  EF89  F00D         	goto	u4380
  3648   001B0E                     u4381:
  3649   001B0E  EF8D  F00D         	goto	l6102
  3650   001B12                     u4380:
  3651   001B12  506F               	movf	___awmod@divisor^0,w,c
  3652   001B14  5E6D               	subwf	___awmod@dividend^0,f,c
  3653   001B16  5070               	movf	(___awmod@divisor+1)^0,w,c
  3654   001B18  5A6E               	subwfb	(___awmod@dividend+1)^0,f,c
  3655   001B1A                     l6102:
  3656   001B1A  90D8               	bcf	status,0,c
  3657   001B1C  3270               	rrcf	(___awmod@divisor+1)^0,f,c
  3658   001B1E  326F               	rrcf	___awmod@divisor^0,f,c
  3659   001B20  2E71               	decfsz	___awmod@counter^0,f,c
  3660   001B22  EF7E  F00D         	goto	l6098
  3661   001B26                     l6106:
  3662   001B26  5072               	movf	___awmod@sign^0,w,c
  3663   001B28  B4D8               	btfsc	status,2,c
  3664   001B2A  EF99  F00D         	goto	u4391
  3665   001B2E  EF9B  F00D         	goto	u4390
  3666   001B32                     u4391:
  3667   001B32  EF9F  F00D         	goto	l6110
  3668   001B36                     u4390:
  3669   001B36  6C6D               	negf	___awmod@dividend^0,c
  3670   001B38  1E6E               	comf	(___awmod@dividend+1)^0,f,c
  3671   001B3A  B0D8               	btfsc	status,0,c
  3672   001B3C  2A6E               	incf	(___awmod@dividend+1)^0,f,c
  3673   001B3E                     l6110:
  3674   001B3E  C06D  F06D         	movff	___awmod@dividend,?___awmod
  3675   001B42  C06E  F06E         	movff	___awmod@dividend+1,?___awmod+1
  3676   001B46  0012               	return		;funcret
  3677   001B48                     __end_of___awmod:
  3678                           	callstack 0
  3679                           
  3680 ;; *************** function ___awdiv *****************
  3681 ;; Defined at:
  3682 ;;		line 7 in file "C:\Program Files\Microchip\xc8\v2.41\pic\sources\c99\common\awdiv.c"
  3683 ;; Parameters:    Size  Location     Type
  3684 ;;  dividend        2    4[COMRAM] int 
  3685 ;;  divisor         2    6[COMRAM] int 
  3686 ;; Auto vars:     Size  Location     Type
  3687 ;;  quotient        2   10[COMRAM] int 
  3688 ;;  sign            1    9[COMRAM] unsigned char 
  3689 ;;  counter         1    8[COMRAM] unsigned char 
  3690 ;; Return value:  Size  Location     Type
  3691 ;;                  2    4[COMRAM] int 
  3692 ;; Registers used:
  3693 ;;		wreg, status,2, status,0
  3694 ;; Tracked objects:
  3695 ;;		On entry : 0/0
  3696 ;;		On exit  : 0/0
  3697 ;;		Unchanged: 0/0
  3698 ;; Data sizes:     COMRAM   BANK0   BANK1   BANK2   BANK3   BANK4   BANK5   BANK6   BANK7   BANK8   BANK9  BANK10  BANK1
      +1  BANK12  BANK13  BANK14  BANK15
  3699 ;;      Params:         4       0       0       0       0       0       0       0       0       0       0       0       
      +0       0       0       0       0
  3700 ;;      Locals:         4       0       0       0       0       0       0       0       0       0       0       0       
      +0       0       0       0       0
  3701 ;;      Temps:          0       0       0       0       0       0       0       0       0       0       0       0       
      +0       0       0       0       0
  3702 ;;      Totals:         8       0       0       0       0       0       0       0       0       0       0       0       
      +0       0       0       0       0
  3703 ;;Total ram usage:        8 bytes
  3704 ;; Hardware stack levels used: 1
  3705 ;; Hardware stack levels required when called: 3
  3706 ;; This function calls:
  3707 ;;		Nothing
  3708 ;; This function is called by:
  3709 ;;		_main
  3710 ;; This function uses a non-reentrant model
  3711 ;;
  3712                           
  3713                           	psect	text23
  3714   0019D4                     __ptext23:
  3715                           	callstack 0
  3716   0019D4                     ___awdiv:
  3717                           	callstack 27
  3718   0019D4  0E00               	movlw	0
  3719   0019D6  6E72               	movwf	___awdiv@sign^0,c
  3720   0019D8  BE70               	btfsc	(___awdiv@divisor+1)^0,7,c
  3721   0019DA  EFF3  F00C         	goto	u4280
  3722   0019DE  EFF1  F00C         	goto	u4281
  3723   0019E2                     u4281:
  3724   0019E2  EFF9  F00C         	goto	l6042
  3725   0019E6                     u4280:
  3726   0019E6  6C6F               	negf	___awdiv@divisor^0,c
  3727   0019E8  1E70               	comf	(___awdiv@divisor+1)^0,f,c
  3728   0019EA  B0D8               	btfsc	status,0,c
  3729   0019EC  2A70               	incf	(___awdiv@divisor+1)^0,f,c
  3730   0019EE  0E01               	movlw	1
  3731   0019F0  6E72               	movwf	___awdiv@sign^0,c
  3732   0019F2                     l6042:
  3733   0019F2  BE6E               	btfsc	(___awdiv@dividend+1)^0,7,c
  3734   0019F4  EF00  F00D         	goto	u4290
  3735   0019F8  EFFE  F00C         	goto	u4291
  3736   0019FC                     u4291:
  3737   0019FC  EF06  F00D         	goto	l6048
  3738   001A00                     u4290:
  3739   001A00  6C6D               	negf	___awdiv@dividend^0,c
  3740   001A02  1E6E               	comf	(___awdiv@dividend+1)^0,f,c
  3741   001A04  B0D8               	btfsc	status,0,c
  3742   001A06  2A6E               	incf	(___awdiv@dividend+1)^0,f,c
  3743   001A08  0E01               	movlw	1
  3744   001A0A  1A72               	xorwf	___awdiv@sign^0,f,c
  3745   001A0C                     l6048:
  3746   001A0C  0E00               	movlw	0
  3747   001A0E  6E74               	movwf	(___awdiv@quotient+1)^0,c
  3748   001A10  0E00               	movlw	0
  3749   001A12  6E73               	movwf	___awdiv@quotient^0,c
  3750   001A14  506F               	movf	___awdiv@divisor^0,w,c
  3751   001A16  1070               	iorwf	(___awdiv@divisor+1)^0,w,c
  3752   001A18  B4D8               	btfsc	status,2,c
  3753   001A1A  EF11  F00D         	goto	u4301
  3754   001A1E  EF13  F00D         	goto	u4300
  3755   001A22                     u4301:
  3756   001A22  EF3B  F00D         	goto	l6070
  3757   001A26                     u4300:
  3758   001A26  0E01               	movlw	1
  3759   001A28  6E71               	movwf	___awdiv@counter^0,c
  3760   001A2A  EF1B  F00D         	goto	l6056
  3761   001A2E                     l6054:
  3762   001A2E  90D8               	bcf	status,0,c
  3763   001A30  366F               	rlcf	___awdiv@divisor^0,f,c
  3764   001A32  3670               	rlcf	(___awdiv@divisor+1)^0,f,c
  3765   001A34  2A71               	incf	___awdiv@counter^0,f,c
  3766   001A36                     l6056:
  3767   001A36  AE70               	btfss	(___awdiv@divisor+1)^0,7,c
  3768   001A38  EF20  F00D         	goto	u4311
  3769   001A3C  EF22  F00D         	goto	u4310
  3770   001A40                     u4311:
  3771   001A40  EF17  F00D         	goto	l6054
  3772   001A44                     u4310:
  3773   001A44                     l6058:
  3774   001A44  90D8               	bcf	status,0,c
  3775   001A46  3673               	rlcf	___awdiv@quotient^0,f,c
  3776   001A48  3674               	rlcf	(___awdiv@quotient+1)^0,f,c
  3777   001A4A  506F               	movf	___awdiv@divisor^0,w,c
  3778   001A4C  5C6D               	subwf	___awdiv@dividend^0,w,c
  3779   001A4E  5070               	movf	(___awdiv@divisor+1)^0,w,c
  3780   001A50  586E               	subwfb	(___awdiv@dividend+1)^0,w,c
  3781   001A52  A0D8               	btfss	status,0,c
  3782   001A54  EF2E  F00D         	goto	u4321
  3783   001A58  EF30  F00D         	goto	u4320
  3784   001A5C                     u4321:
  3785   001A5C  EF35  F00D         	goto	l6066
  3786   001A60                     u4320:
  3787   001A60  506F               	movf	___awdiv@divisor^0,w,c
  3788   001A62  5E6D               	subwf	___awdiv@dividend^0,f,c
  3789   001A64  5070               	movf	(___awdiv@divisor+1)^0,w,c
  3790   001A66  5A6E               	subwfb	(___awdiv@dividend+1)^0,f,c
  3791   001A68  8073               	bsf	___awdiv@quotient^0,0,c
  3792   001A6A                     l6066:
  3793   001A6A  90D8               	bcf	status,0,c
  3794   001A6C  3270               	rrcf	(___awdiv@divisor+1)^0,f,c
  3795   001A6E  326F               	rrcf	___awdiv@divisor^0,f,c
  3796   001A70  2E71               	decfsz	___awdiv@counter^0,f,c
  3797   001A72  EF22  F00D         	goto	l6058
  3798   001A76                     l6070:
  3799   001A76  5072               	movf	___awdiv@sign^0,w,c
  3800   001A78  B4D8               	btfsc	status,2,c
  3801   001A7A  EF41  F00D         	goto	u4331
  3802   001A7E  EF43  F00D         	goto	u4330
  3803   001A82                     u4331:
  3804   001A82  EF47  F00D         	goto	l6074
  3805   001A86                     u4330:
  3806   001A86  6C73               	negf	___awdiv@quotient^0,c
  3807   001A88  1E74               	comf	(___awdiv@quotient+1)^0,f,c
  3808   001A8A  B0D8               	btfsc	status,0,c
  3809   001A8C  2A74               	incf	(___awdiv@quotient+1)^0,f,c
  3810   001A8E                     l6074:
  3811   001A8E  C073  F06D         	movff	___awdiv@quotient,?___awdiv
  3812   001A92  C074  F06E         	movff	___awdiv@quotient+1,?___awdiv+1
  3813   001A96  0012               	return		;funcret
  3814   001A98                     __end_of___awdiv:
  3815                           	callstack 0
  3816                           
  3817 ;; *************** function _InterruptManager *****************
  3818 ;; Defined at:
  3819 ;;		line 32 in file "MCAL_Layer/Interrupt/mcal_interrupt_manager.c"
  3820 ;; Parameters:    Size  Location     Type
  3821 ;;		None
  3822 ;; Auto vars:     Size  Location     Type
  3823 ;;		None
  3824 ;; Return value:  Size  Location     Type
  3825 ;;                  1    wreg      void 
  3826 ;; Registers used:
  3827 ;;		wreg, status,2, status,0, pcl, pclath, pclatu, tosl, cstack
  3828 ;; Tracked objects:
  3829 ;;		On entry : 0/0
  3830 ;;		On exit  : 0/0
  3831 ;;		Unchanged: 0/0
  3832 ;; Data sizes:     COMRAM   BANK0   BANK1   BANK2   BANK3   BANK4   BANK5   BANK6   BANK7   BANK8   BANK9  BANK10  BANK1
      +1  BANK12  BANK13  BANK14  BANK15
  3833 ;;      Params:         0       0       0       0       0       0       0       0       0       0       0       0       
      +0       0       0       0       0
  3834 ;;      Locals:         0       0       0       0       0       0       0       0       0       0       0       0       
      +0       0       0       0       0
  3835 ;;      Temps:          3       0       0       0       0       0       0       0       0       0       0       0       
      +0       0       0       0       0
  3836 ;;      Totals:         3       0       0       0       0       0       0       0       0       0       0       0       
      +0       0       0       0       0
  3837 ;;Total ram usage:        3 bytes
  3838 ;; Hardware stack levels used: 1
  3839 ;; Hardware stack levels required when called: 2
  3840 ;; This function calls:
  3841 ;;		_ADC_ISR
  3842 ;;		_CCP1_ISR
  3843 ;;		_CCP2_ISR
  3844 ;;		_EUSART_RX_ISR
  3845 ;;		_EUSART_TX_ISR
  3846 ;;		_INT0_ISR
  3847 ;;		_INT1_ISR
  3848 ;;		_INT2_ISR
  3849 ;;		_MSSP_I2C_BC_ISR
  3850 ;;		_MSSP_I2C_ISR
  3851 ;;		_MSSP_SPI_ISR
  3852 ;;		_RB4_ISR
  3853 ;;		_RB5_ISR
  3854 ;;		_RB6_ISR
  3855 ;;		_RB7_ISR
  3856 ;;		_TMR0_ISR
  3857 ;;		_TMR1_ISR
  3858 ;;		_TMR2_ISR
  3859 ;;		_TMR3_ISR
  3860 ;; This function is called by:
  3861 ;;		Interrupt level 2
  3862 ;; This function uses a non-reentrant model
  3863 ;;
  3864                           
  3865                           	psect	intcode
  3866   000008                     __pintcode:
  3867                           	callstack 0
  3868   000008                     _InterruptManager:
  3869                           	callstack 23
  3870                           
  3871                           ;incstack = 0
  3872   000008  827B               	bsf	int$flags,1,c	;set compiler interrupt flag (level 2)
  3873   00000A  ED0B  F008         	call	int_func,f	;refresh shadow registers
  3874                           
  3875                           	psect	intcode_body
  3876   001016                     __pintcode_body:
  3877                           	callstack 23
  3878   001016                     int_func:
  3879                           	callstack 23
  3880   001016  0006               	pop		; remove dummy address from shadow register refresh
  3881   001018  CFFA F06B          	movff	pclath,??_InterruptManager+1
  3882   00101C  CFFB F06C          	movff	pclatu,??_InterruptManager+2
  3883   001020                     
  3884                           ;MCAL_Layer/Interrupt/mcal_interrupt_manager.c: 34:     if((1 == INTCONbits.INT0IE) && (
      +                          1 == INTCONbits.INT0IF)){
  3885   001020  A8F2               	btfss	242,4,c	;volatile
  3886   001022  EF15  F008         	goto	i2u251_41
  3887   001026  EF17  F008         	goto	i2u251_40
  3888   00102A                     i2u251_41:
  3889   00102A  EF20  F008         	goto	i2l1252
  3890   00102E                     i2u251_40:
  3891   00102E  A2F2               	btfss	242,1,c	;volatile
  3892   001030  EF1C  F008         	goto	i2u252_41
  3893   001034  EF1E  F008         	goto	i2u252_40
  3894   001038                     i2u252_41:
  3895   001038  EF20  F008         	goto	i2l1252
  3896   00103C                     i2u252_40:
  3897   00103C                     
  3898                           ;MCAL_Layer/Interrupt/mcal_interrupt_manager.c: 35:         INT0_ISR();
  3899   00103C  EC88  F011         	call	_INT0_ISR	;wreg free
  3900   001040                     i2l1252:
  3901                           
  3902                           ;MCAL_Layer/Interrupt/mcal_interrupt_manager.c: 38:     if((1 == INTCON3bits.INT1E) && (
      +                          1 == INTCON3bits.INT1F)){
  3903   001040  A6F0               	btfss	240,3,c	;volatile
  3904   001042  EF25  F008         	goto	i2u253_41
  3905   001046  EF27  F008         	goto	i2u253_40
  3906   00104A                     i2u253_41:
  3907   00104A  EF30  F008         	goto	i2l1254
  3908   00104E                     i2u253_40:
  3909   00104E  A0F0               	btfss	240,0,c	;volatile
  3910   001050  EF2C  F008         	goto	i2u254_41
  3911   001054  EF2E  F008         	goto	i2u254_40
  3912   001058                     i2u254_41:
  3913   001058  EF30  F008         	goto	i2l1254
  3914   00105C                     i2u254_40:
  3915   00105C                     
  3916                           ;MCAL_Layer/Interrupt/mcal_interrupt_manager.c: 39:         INT1_ISR();
  3917   00105C  EC71  F011         	call	_INT1_ISR	;wreg free
  3918   001060                     i2l1254:
  3919                           
  3920                           ;MCAL_Layer/Interrupt/mcal_interrupt_manager.c: 42:     if((1 == INTCON3bits.INT2IE) && 
      +                          (1 == INTCON3bits.INT2IF)){
  3921   001060  A8F0               	btfss	240,4,c	;volatile
  3922   001062  EF35  F008         	goto	i2u255_41
  3923   001066  EF37  F008         	goto	i2u255_40
  3924   00106A                     i2u255_41:
  3925   00106A  EF40  F008         	goto	i2l1256
  3926   00106E                     i2u255_40:
  3927   00106E  A2F0               	btfss	240,1,c	;volatile
  3928   001070  EF3C  F008         	goto	i2u256_41
  3929   001074  EF3E  F008         	goto	i2u256_40
  3930   001078                     i2u256_41:
  3931   001078  EF40  F008         	goto	i2l1256
  3932   00107C                     i2u256_40:
  3933   00107C                     
  3934                           ;MCAL_Layer/Interrupt/mcal_interrupt_manager.c: 43:         INT2_ISR();
  3935   00107C  EC5A  F011         	call	_INT2_ISR	;wreg free
  3936   001080                     i2l1256:
  3937                           
  3938                           ;MCAL_Layer/Interrupt/mcal_interrupt_manager.c: 49:     if((1 == INTCONbits.RBIE) && (1 
      +                          == INTCONbits.RBIF) &&
  3939   001080  A6F2               	btfss	242,3,c	;volatile
  3940   001082  EF45  F008         	goto	i2u257_41
  3941   001086  EF47  F008         	goto	i2u257_40
  3942   00108A                     i2u257_41:
  3943   00108A  EF62  F008         	goto	i2l1258
  3944   00108E                     i2u257_40:
  3945   00108E  A0F2               	btfss	242,0,c	;volatile
  3946   001090  EF4C  F008         	goto	i2u258_41
  3947   001094  EF4E  F008         	goto	i2u258_40
  3948   001098                     i2u258_41:
  3949   001098  EF62  F008         	goto	i2l1258
  3950   00109C                     i2u258_40:
  3951   00109C  A881               	btfss	129,4,c	;volatile
  3952   00109E  EF53  F008         	goto	i2u259_41
  3953   0010A2  EF55  F008         	goto	i2u259_40
  3954   0010A6                     i2u259_41:
  3955   0010A6  EF62  F008         	goto	i2l1258
  3956   0010AA                     i2u259_40:
  3957   0010AA  0457               	decf	_RB4_Flag^0,w,c	;volatile
  3958   0010AC  A4D8               	btfss	status,2,c
  3959   0010AE  EF5B  F008         	goto	i2u260_41
  3960   0010B2  EF5D  F008         	goto	i2u260_40
  3961   0010B6                     i2u260_41:
  3962   0010B6  EF62  F008         	goto	i2l1258
  3963   0010BA                     i2u260_40:
  3964   0010BA                     
  3965                           ;MCAL_Layer/Interrupt/mcal_interrupt_manager.c: 50:        (PORTBbits.RB4 == GPIO_HIGH) 
      +                          && (RB4_Flag == 1)){;MCAL_Layer/Interrupt/mcal_interrupt_manager.c: 51:         RB4_Flag
      +                           = 0;
  3966   0010BA  0E00               	movlw	0
  3967   0010BC  6E57               	movwf	_RB4_Flag^0,c	;volatile
  3968   0010BE                     
  3969                           ;MCAL_Layer/Interrupt/mcal_interrupt_manager.c: 52:         RB4_ISR(0);
  3970   0010BE  0E00               	movlw	0
  3971   0010C0  EC2F  F012         	call	_RB4_ISR
  3972   0010C4                     i2l1258:
  3973                           
  3974                           ;MCAL_Layer/Interrupt/mcal_interrupt_manager.c: 55:     if((1 == INTCONbits.RBIE) && (1 
      +                          == INTCONbits.RBIF) &&
  3975   0010C4  A6F2               	btfss	242,3,c	;volatile
  3976   0010C6  EF67  F008         	goto	i2u261_41
  3977   0010CA  EF69  F008         	goto	i2u261_40
  3978   0010CE                     i2u261_41:
  3979   0010CE  EF84  F008         	goto	i2l1260
  3980   0010D2                     i2u261_40:
  3981   0010D2  A0F2               	btfss	242,0,c	;volatile
  3982   0010D4  EF6E  F008         	goto	i2u262_41
  3983   0010D8  EF70  F008         	goto	i2u262_40
  3984   0010DC                     i2u262_41:
  3985   0010DC  EF84  F008         	goto	i2l1260
  3986   0010E0                     i2u262_40:
  3987   0010E0  B881               	btfsc	129,4,c	;volatile
  3988   0010E2  EF75  F008         	goto	i2u263_41
  3989   0010E6  EF77  F008         	goto	i2u263_40
  3990   0010EA                     i2u263_41:
  3991   0010EA  EF84  F008         	goto	i2l1260
  3992   0010EE                     i2u263_40:
  3993   0010EE  5057               	movf	_RB4_Flag^0,w,c	;volatile
  3994   0010F0  A4D8               	btfss	status,2,c
  3995   0010F2  EF7D  F008         	goto	i2u264_41
  3996   0010F6  EF7F  F008         	goto	i2u264_40
  3997   0010FA                     i2u264_41:
  3998   0010FA  EF84  F008         	goto	i2l1260
  3999   0010FE                     i2u264_40:
  4000   0010FE                     
  4001                           ;MCAL_Layer/Interrupt/mcal_interrupt_manager.c: 56:        (PORTBbits.RB4 == GPIO_LOW) &
      +                          & (RB4_Flag == 0)){;MCAL_Layer/Interrupt/mcal_interrupt_manager.c: 57:         RB4_Flag 
      +                          = 1;
  4002   0010FE  0E01               	movlw	1
  4003   001100  6E57               	movwf	_RB4_Flag^0,c	;volatile
  4004   001102                     
  4005                           ;MCAL_Layer/Interrupt/mcal_interrupt_manager.c: 58:         RB4_ISR(1);
  4006   001102  0E01               	movlw	1
  4007   001104  EC2F  F012         	call	_RB4_ISR
  4008   001108                     i2l1260:
  4009                           
  4010                           ;MCAL_Layer/Interrupt/mcal_interrupt_manager.c: 61:     if((1 == INTCONbits.RBIE) && (1 
      +                          == INTCONbits.RBIF) &&
  4011   001108  A6F2               	btfss	242,3,c	;volatile
  4012   00110A  EF89  F008         	goto	i2u265_41
  4013   00110E  EF8B  F008         	goto	i2u265_40
  4014   001112                     i2u265_41:
  4015   001112  EFA6  F008         	goto	i2l1262
  4016   001116                     i2u265_40:
  4017   001116  A0F2               	btfss	242,0,c	;volatile
  4018   001118  EF90  F008         	goto	i2u266_41
  4019   00111C  EF92  F008         	goto	i2u266_40
  4020   001120                     i2u266_41:
  4021   001120  EFA6  F008         	goto	i2l1262
  4022   001124                     i2u266_40:
  4023   001124  AA81               	btfss	129,5,c	;volatile
  4024   001126  EF97  F008         	goto	i2u267_41
  4025   00112A  EF99  F008         	goto	i2u267_40
  4026   00112E                     i2u267_41:
  4027   00112E  EFA6  F008         	goto	i2l1262
  4028   001132                     i2u267_40:
  4029   001132  0456               	decf	_RB5_Flag^0,w,c	;volatile
  4030   001134  A4D8               	btfss	status,2,c
  4031   001136  EF9F  F008         	goto	i2u268_41
  4032   00113A  EFA1  F008         	goto	i2u268_40
  4033   00113E                     i2u268_41:
  4034   00113E  EFA6  F008         	goto	i2l1262
  4035   001142                     i2u268_40:
  4036   001142                     
  4037                           ;MCAL_Layer/Interrupt/mcal_interrupt_manager.c: 62:        (PORTBbits.RB5 == GPIO_HIGH) 
      +                          && (RB5_Flag == 1)){;MCAL_Layer/Interrupt/mcal_interrupt_manager.c: 63:         RB5_Flag
      +                           = 0;
  4038   001142  0E00               	movlw	0
  4039   001144  6E56               	movwf	_RB5_Flag^0,c	;volatile
  4040   001146                     
  4041                           ;MCAL_Layer/Interrupt/mcal_interrupt_manager.c: 64:         RB5_ISR(0);
  4042   001146  0E00               	movlw	0
  4043   001148  EC22  F012         	call	_RB5_ISR
  4044   00114C                     i2l1262:
  4045                           
  4046                           ;MCAL_Layer/Interrupt/mcal_interrupt_manager.c: 67:     if((1 == INTCONbits.RBIE) && (1 
      +                          == INTCONbits.RBIF) &&
  4047   00114C  A6F2               	btfss	242,3,c	;volatile
  4048   00114E  EFAB  F008         	goto	i2u269_41
  4049   001152  EFAD  F008         	goto	i2u269_40
  4050   001156                     i2u269_41:
  4051   001156  EFC8  F008         	goto	i2l1264
  4052   00115A                     i2u269_40:
  4053   00115A  A0F2               	btfss	242,0,c	;volatile
  4054   00115C  EFB2  F008         	goto	i2u270_41
  4055   001160  EFB4  F008         	goto	i2u270_40
  4056   001164                     i2u270_41:
  4057   001164  EFC8  F008         	goto	i2l1264
  4058   001168                     i2u270_40:
  4059   001168  BA81               	btfsc	129,5,c	;volatile
  4060   00116A  EFB9  F008         	goto	i2u271_41
  4061   00116E  EFBB  F008         	goto	i2u271_40
  4062   001172                     i2u271_41:
  4063   001172  EFC8  F008         	goto	i2l1264
  4064   001176                     i2u271_40:
  4065   001176  5056               	movf	_RB5_Flag^0,w,c	;volatile
  4066   001178  A4D8               	btfss	status,2,c
  4067   00117A  EFC1  F008         	goto	i2u272_41
  4068   00117E  EFC3  F008         	goto	i2u272_40
  4069   001182                     i2u272_41:
  4070   001182  EFC8  F008         	goto	i2l1264
  4071   001186                     i2u272_40:
  4072   001186                     
  4073                           ;MCAL_Layer/Interrupt/mcal_interrupt_manager.c: 68:        (PORTBbits.RB5 == GPIO_LOW) &
      +                          & (RB5_Flag == 0)){;MCAL_Layer/Interrupt/mcal_interrupt_manager.c: 69:         RB5_Flag 
      +                          = 1;
  4074   001186  0E01               	movlw	1
  4075   001188  6E56               	movwf	_RB5_Flag^0,c	;volatile
  4076   00118A                     
  4077                           ;MCAL_Layer/Interrupt/mcal_interrupt_manager.c: 70:         RB5_ISR(1);
  4078   00118A  0E01               	movlw	1
  4079   00118C  EC22  F012         	call	_RB5_ISR
  4080   001190                     i2l1264:
  4081                           
  4082                           ;MCAL_Layer/Interrupt/mcal_interrupt_manager.c: 73:     if((1 == INTCONbits.RBIE) && (1 
      +                          == INTCONbits.RBIF) &&
  4083   001190  A6F2               	btfss	242,3,c	;volatile
  4084   001192  EFCD  F008         	goto	i2u273_41
  4085   001196  EFCF  F008         	goto	i2u273_40
  4086   00119A                     i2u273_41:
  4087   00119A  EFEA  F008         	goto	i2l1266
  4088   00119E                     i2u273_40:
  4089   00119E  A0F2               	btfss	242,0,c	;volatile
  4090   0011A0  EFD4  F008         	goto	i2u274_41
  4091   0011A4  EFD6  F008         	goto	i2u274_40
  4092   0011A8                     i2u274_41:
  4093   0011A8  EFEA  F008         	goto	i2l1266
  4094   0011AC                     i2u274_40:
  4095   0011AC  AC81               	btfss	129,6,c	;volatile
  4096   0011AE  EFDB  F008         	goto	i2u275_41
  4097   0011B2  EFDD  F008         	goto	i2u275_40
  4098   0011B6                     i2u275_41:
  4099   0011B6  EFEA  F008         	goto	i2l1266
  4100   0011BA                     i2u275_40:
  4101   0011BA  0455               	decf	_RB6_Flag^0,w,c	;volatile
  4102   0011BC  A4D8               	btfss	status,2,c
  4103   0011BE  EFE3  F008         	goto	i2u276_41
  4104   0011C2  EFE5  F008         	goto	i2u276_40
  4105   0011C6                     i2u276_41:
  4106   0011C6  EFEA  F008         	goto	i2l1266
  4107   0011CA                     i2u276_40:
  4108   0011CA                     
  4109                           ;MCAL_Layer/Interrupt/mcal_interrupt_manager.c: 74:        (PORTBbits.RB6 == GPIO_HIGH) 
      +                          && (RB6_Flag == 1)){;MCAL_Layer/Interrupt/mcal_interrupt_manager.c: 75:         RB6_Flag
      +                           = 0;
  4110   0011CA  0E00               	movlw	0
  4111   0011CC  6E55               	movwf	_RB6_Flag^0,c	;volatile
  4112   0011CE                     
  4113                           ;MCAL_Layer/Interrupt/mcal_interrupt_manager.c: 76:         RB6_ISR(0);
  4114   0011CE  0E00               	movlw	0
  4115   0011D0  EC15  F012         	call	_RB6_ISR
  4116   0011D4                     i2l1266:
  4117                           
  4118                           ;MCAL_Layer/Interrupt/mcal_interrupt_manager.c: 79:     if((1 == INTCONbits.RBIE) && (1 
      +                          == INTCONbits.RBIF) &&
  4119   0011D4  A6F2               	btfss	242,3,c	;volatile
  4120   0011D6  EFEF  F008         	goto	i2u277_41
  4121   0011DA  EFF1  F008         	goto	i2u277_40
  4122   0011DE                     i2u277_41:
  4123   0011DE  EF0C  F009         	goto	i2l1268
  4124   0011E2                     i2u277_40:
  4125   0011E2  A0F2               	btfss	242,0,c	;volatile
  4126   0011E4  EFF6  F008         	goto	i2u278_41
  4127   0011E8  EFF8  F008         	goto	i2u278_40
  4128   0011EC                     i2u278_41:
  4129   0011EC  EF0C  F009         	goto	i2l1268
  4130   0011F0                     i2u278_40:
  4131   0011F0  BC81               	btfsc	129,6,c	;volatile
  4132   0011F2  EFFD  F008         	goto	i2u279_41
  4133   0011F6  EFFF  F008         	goto	i2u279_40
  4134   0011FA                     i2u279_41:
  4135   0011FA  EF0C  F009         	goto	i2l1268
  4136   0011FE                     i2u279_40:
  4137   0011FE  5055               	movf	_RB6_Flag^0,w,c	;volatile
  4138   001200  A4D8               	btfss	status,2,c
  4139   001202  EF05  F009         	goto	i2u280_41
  4140   001206  EF07  F009         	goto	i2u280_40
  4141   00120A                     i2u280_41:
  4142   00120A  EF0C  F009         	goto	i2l1268
  4143   00120E                     i2u280_40:
  4144   00120E                     
  4145                           ;MCAL_Layer/Interrupt/mcal_interrupt_manager.c: 80:        (PORTBbits.RB6 == GPIO_LOW) &
      +                          & (RB6_Flag == 0)){;MCAL_Layer/Interrupt/mcal_interrupt_manager.c: 81:         RB6_Flag 
      +                          = 1;
  4146   00120E  0E01               	movlw	1
  4147   001210  6E55               	movwf	_RB6_Flag^0,c	;volatile
  4148   001212                     
  4149                           ;MCAL_Layer/Interrupt/mcal_interrupt_manager.c: 82:         RB6_ISR(1);
  4150   001212  0E01               	movlw	1
  4151   001214  EC15  F012         	call	_RB6_ISR
  4152   001218                     i2l1268:
  4153                           
  4154                           ;MCAL_Layer/Interrupt/mcal_interrupt_manager.c: 85:     if((1 == INTCONbits.RBIE) && (1 
      +                          == INTCONbits.RBIF) &&
  4155   001218  A6F2               	btfss	242,3,c	;volatile
  4156   00121A  EF11  F009         	goto	i2u281_41
  4157   00121E  EF13  F009         	goto	i2u281_40
  4158   001222                     i2u281_41:
  4159   001222  EF2E  F009         	goto	i2l1270
  4160   001226                     i2u281_40:
  4161   001226  A0F2               	btfss	242,0,c	;volatile
  4162   001228  EF18  F009         	goto	i2u282_41
  4163   00122C  EF1A  F009         	goto	i2u282_40
  4164   001230                     i2u282_41:
  4165   001230  EF2E  F009         	goto	i2l1270
  4166   001234                     i2u282_40:
  4167   001234  AE81               	btfss	129,7,c	;volatile
  4168   001236  EF1F  F009         	goto	i2u283_41
  4169   00123A  EF21  F009         	goto	i2u283_40
  4170   00123E                     i2u283_41:
  4171   00123E  EF2E  F009         	goto	i2l1270
  4172   001242                     i2u283_40:
  4173   001242  0454               	decf	_RB7_Flag^0,w,c	;volatile
  4174   001244  A4D8               	btfss	status,2,c
  4175   001246  EF27  F009         	goto	i2u284_41
  4176   00124A  EF29  F009         	goto	i2u284_40
  4177   00124E                     i2u284_41:
  4178   00124E  EF2E  F009         	goto	i2l1270
  4179   001252                     i2u284_40:
  4180   001252                     
  4181                           ;MCAL_Layer/Interrupt/mcal_interrupt_manager.c: 86:        (PORTBbits.RB7 == GPIO_HIGH) 
      +                          && (RB7_Flag == 1)){;MCAL_Layer/Interrupt/mcal_interrupt_manager.c: 87:         RB7_Flag
      +                           = 0;
  4182   001252  0E00               	movlw	0
  4183   001254  6E54               	movwf	_RB7_Flag^0,c	;volatile
  4184   001256                     
  4185                           ;MCAL_Layer/Interrupt/mcal_interrupt_manager.c: 88:         RB7_ISR(0);
  4186   001256  0E00               	movlw	0
  4187   001258  EC08  F012         	call	_RB7_ISR
  4188   00125C                     i2l1270:
  4189                           
  4190                           ;MCAL_Layer/Interrupt/mcal_interrupt_manager.c: 91:     if((1 == INTCONbits.RBIE) && (1 
      +                          == INTCONbits.RBIF) &&
  4191   00125C  A6F2               	btfss	242,3,c	;volatile
  4192   00125E  EF33  F009         	goto	i2u285_41
  4193   001262  EF35  F009         	goto	i2u285_40
  4194   001266                     i2u285_41:
  4195   001266  EF50  F009         	goto	i2l1272
  4196   00126A                     i2u285_40:
  4197   00126A  A0F2               	btfss	242,0,c	;volatile
  4198   00126C  EF3A  F009         	goto	i2u286_41
  4199   001270  EF3C  F009         	goto	i2u286_40
  4200   001274                     i2u286_41:
  4201   001274  EF50  F009         	goto	i2l1272
  4202   001278                     i2u286_40:
  4203   001278  BE81               	btfsc	129,7,c	;volatile
  4204   00127A  EF41  F009         	goto	i2u287_41
  4205   00127E  EF43  F009         	goto	i2u287_40
  4206   001282                     i2u287_41:
  4207   001282  EF50  F009         	goto	i2l1272
  4208   001286                     i2u287_40:
  4209   001286  5054               	movf	_RB7_Flag^0,w,c	;volatile
  4210   001288  A4D8               	btfss	status,2,c
  4211   00128A  EF49  F009         	goto	i2u288_41
  4212   00128E  EF4B  F009         	goto	i2u288_40
  4213   001292                     i2u288_41:
  4214   001292  EF50  F009         	goto	i2l1272
  4215   001296                     i2u288_40:
  4216   001296                     
  4217                           ;MCAL_Layer/Interrupt/mcal_interrupt_manager.c: 92:        (PORTBbits.RB7 == GPIO_LOW) &
      +                          & (RB7_Flag == 0)){;MCAL_Layer/Interrupt/mcal_interrupt_manager.c: 93:         RB7_Flag 
      +                          = 1;
  4218   001296  0E01               	movlw	1
  4219   001298  6E54               	movwf	_RB7_Flag^0,c	;volatile
  4220   00129A                     
  4221                           ;MCAL_Layer/Interrupt/mcal_interrupt_manager.c: 94:         RB7_ISR(1);
  4222   00129A  0E01               	movlw	1
  4223   00129C  EC08  F012         	call	_RB7_ISR
  4224   0012A0                     i2l1272:
  4225                           
  4226                           ;MCAL_Layer/Interrupt/mcal_interrupt_manager.c: 99:     if((1 == PIE1bits.ADIE) && (1 ==
      +                           PIR1bits.ADIF)){
  4227   0012A0  AC9D               	btfss	157,6,c	;volatile
  4228   0012A2  EF55  F009         	goto	i2u289_41
  4229   0012A6  EF57  F009         	goto	i2u289_40
  4230   0012AA                     i2u289_41:
  4231   0012AA  EF60  F009         	goto	i2l1274
  4232   0012AE                     i2u289_40:
  4233   0012AE  AC9E               	btfss	158,6,c	;volatile
  4234   0012B0  EF5C  F009         	goto	i2u290_41
  4235   0012B4  EF5E  F009         	goto	i2u290_40
  4236   0012B8                     i2u290_41:
  4237   0012B8  EF60  F009         	goto	i2l1274
  4238   0012BC                     i2u290_40:
  4239   0012BC                     
  4240                           ;MCAL_Layer/Interrupt/mcal_interrupt_manager.c: 100:         ADC_ISR();
  4241   0012BC  EC6D  F012         	call	_ADC_ISR	;wreg free
  4242   0012C0                     i2l1274:
  4243                           
  4244                           ;MCAL_Layer/Interrupt/mcal_interrupt_manager.c: 104:     if((1 == INTCONbits.TMR0IE) && 
      +                          (1 == INTCONbits.TMR0IF)){
  4245   0012C0  AAF2               	btfss	242,5,c	;volatile
  4246   0012C2  EF65  F009         	goto	i2u291_41
  4247   0012C6  EF67  F009         	goto	i2u291_40
  4248   0012CA                     i2u291_41:
  4249   0012CA  EF70  F009         	goto	i2l1276
  4250   0012CE                     i2u291_40:
  4251   0012CE  A4F2               	btfss	242,2,c	;volatile
  4252   0012D0  EF6C  F009         	goto	i2u292_41
  4253   0012D4  EF6E  F009         	goto	i2u292_40
  4254   0012D8                     i2u292_41:
  4255   0012D8  EF70  F009         	goto	i2l1276
  4256   0012DC                     i2u292_40:
  4257   0012DC                     
  4258                           ;MCAL_Layer/Interrupt/mcal_interrupt_manager.c: 105:         TMR0_ISR();
  4259   0012DC  EC0D  F011         	call	_TMR0_ISR	;wreg free
  4260   0012E0                     i2l1276:
  4261                           
  4262                           ;MCAL_Layer/Interrupt/mcal_interrupt_manager.c: 108:     if((1 == PIE1bits.TMR1IE) && (1
      +                           == PIR1bits.TMR1IF)){
  4263   0012E0  A09D               	btfss	157,0,c	;volatile
  4264   0012E2  EF75  F009         	goto	i2u293_41
  4265   0012E6  EF77  F009         	goto	i2u293_40
  4266   0012EA                     i2u293_41:
  4267   0012EA  EF80  F009         	goto	i2l1278
  4268   0012EE                     i2u293_40:
  4269   0012EE  A09E               	btfss	158,0,c	;volatile
  4270   0012F0  EF7C  F009         	goto	i2u294_41
  4271   0012F4  EF7E  F009         	goto	i2u294_40
  4272   0012F8                     i2u294_41:
  4273   0012F8  EF80  F009         	goto	i2l1278
  4274   0012FC                     i2u294_40:
  4275   0012FC                     
  4276                           ;MCAL_Layer/Interrupt/mcal_interrupt_manager.c: 109:         TMR1_ISR();
  4277   0012FC  EC52  F012         	call	_TMR1_ISR	;wreg free
  4278   001300                     i2l1278:
  4279                           
  4280                           ;MCAL_Layer/Interrupt/mcal_interrupt_manager.c: 112:     if((1 == PIE1bits.TMR2IE) && (1
      +                           == PIR1bits.TMR2IF)){
  4281   001300  A29D               	btfss	157,1,c	;volatile
  4282   001302  EF85  F009         	goto	i2u295_41
  4283   001306  EF87  F009         	goto	i2u295_40
  4284   00130A                     i2u295_41:
  4285   00130A  EF90  F009         	goto	i2l1280
  4286   00130E                     i2u295_40:
  4287   00130E  A29E               	btfss	158,1,c	;volatile
  4288   001310  EF8C  F009         	goto	i2u296_41
  4289   001314  EF8E  F009         	goto	i2u296_40
  4290   001318                     i2u296_41:
  4291   001318  EF90  F009         	goto	i2l1280
  4292   00131C                     i2u296_40:
  4293   00131C                     
  4294                           ;MCAL_Layer/Interrupt/mcal_interrupt_manager.c: 113:         TMR2_ISR();
  4295   00131C  EC58  F012         	call	_TMR2_ISR	;wreg free
  4296   001320                     i2l1280:
  4297                           
  4298                           ;MCAL_Layer/Interrupt/mcal_interrupt_manager.c: 116:     if((1 == PIE2bits.TMR3IE) && (1
      +                           == PIR2bits.TMR3IF)){
  4299   001320  A2A0               	btfss	160,1,c	;volatile
  4300   001322  EF95  F009         	goto	i2u297_41
  4301   001326  EF97  F009         	goto	i2u297_40
  4302   00132A                     i2u297_41:
  4303   00132A  EFA0  F009         	goto	i2l1282
  4304   00132E                     i2u297_40:
  4305   00132E  A2A1               	btfss	161,1,c	;volatile
  4306   001330  EF9C  F009         	goto	i2u298_41
  4307   001334  EF9E  F009         	goto	i2u298_40
  4308   001338                     i2u298_41:
  4309   001338  EFA0  F009         	goto	i2l1282
  4310   00133C                     i2u298_40:
  4311   00133C                     
  4312                           ;MCAL_Layer/Interrupt/mcal_interrupt_manager.c: 117:         TMR3_ISR();
  4313   00133C  EC4C  F012         	call	_TMR3_ISR	;wreg free
  4314   001340                     i2l1282:
  4315                           
  4316                           ;MCAL_Layer/Interrupt/mcal_interrupt_manager.c: 121:     if((1 == PIE1bits.TXIE) && (1 =
      +                          = PIR1bits.TXIF)){
  4317   001340  A89D               	btfss	157,4,c	;volatile
  4318   001342  EFA5  F009         	goto	i2u299_41
  4319   001346  EFA7  F009         	goto	i2u299_40
  4320   00134A                     i2u299_41:
  4321   00134A  EFB0  F009         	goto	i2l1284
  4322   00134E                     i2u299_40:
  4323   00134E  A89E               	btfss	158,4,c	;volatile
  4324   001350  EFAC  F009         	goto	i2u300_41
  4325   001354  EFAE  F009         	goto	i2u300_40
  4326   001358                     i2u300_41:
  4327   001358  EFB0  F009         	goto	i2l1284
  4328   00135C                     i2u300_40:
  4329   00135C                     
  4330                           ;MCAL_Layer/Interrupt/mcal_interrupt_manager.c: 122:         EUSART_TX_ISR();
  4331   00135C  EC67  F012         	call	_EUSART_TX_ISR	;wreg free
  4332   001360                     i2l1284:
  4333                           
  4334                           ;MCAL_Layer/Interrupt/mcal_interrupt_manager.c: 125:     if((1 == PIE1bits.RCIE) && (1 =
      +                          = PIR1bits.RCIF)){
  4335   001360  AA9D               	btfss	157,5,c	;volatile
  4336   001362  EFB5  F009         	goto	i2u301_41
  4337   001366  EFB7  F009         	goto	i2u301_40
  4338   00136A                     i2u301_41:
  4339   00136A  EFC0  F009         	goto	i2l1286
  4340   00136E                     i2u301_40:
  4341   00136E  AA9E               	btfss	158,5,c	;volatile
  4342   001370  EFBC  F009         	goto	i2u302_41
  4343   001374  EFBE  F009         	goto	i2u302_40
  4344   001378                     i2u302_41:
  4345   001378  EFC0  F009         	goto	i2l1286
  4346   00137C                     i2u302_40:
  4347   00137C                     
  4348                           ;MCAL_Layer/Interrupt/mcal_interrupt_manager.c: 126:         EUSART_RX_ISR();
  4349   00137C  ECF3  F011         	call	_EUSART_RX_ISR	;wreg free
  4350   001380                     i2l1286:
  4351                           
  4352                           ;MCAL_Layer/Interrupt/mcal_interrupt_manager.c: 131:     if((1 == PIE1bits.SSPIE) && (1 
      +                          == PIR1bits.SSPIF && (SSPCON1bits.SSPM > 5))){
  4353   001380  A69D               	btfss	157,3,c	;volatile
  4354   001382  EFC5  F009         	goto	i2u303_41
  4355   001386  EFC7  F009         	goto	i2u303_40
  4356   00138A                     i2u303_41:
  4357   00138A  EFDB  F009         	goto	i2l1288
  4358   00138E                     i2u303_40:
  4359   00138E  A69E               	btfss	158,3,c	;volatile
  4360   001390  EFCC  F009         	goto	i2u304_41
  4361   001394  EFCE  F009         	goto	i2u304_40
  4362   001398                     i2u304_41:
  4363   001398  EFDB  F009         	goto	i2l1288
  4364   00139C                     i2u304_40:
  4365   00139C  50C6               	movf	198,w,c	;volatile
  4366   00139E  0B0F               	andlw	15
  4367   0013A0  6E6A               	movwf	??_InterruptManager^0,c
  4368   0013A2  0E05               	movlw	5
  4369   0013A4  646A               	cpfsgt	??_InterruptManager^0,c
  4370   0013A6  EFD7  F009         	goto	i2u305_41
  4371   0013AA  EFD9  F009         	goto	i2u305_40
  4372   0013AE                     i2u305_41:
  4373   0013AE  EFDB  F009         	goto	i2l1288
  4374   0013B2                     i2u305_40:
  4375   0013B2                     
  4376                           ;MCAL_Layer/Interrupt/mcal_interrupt_manager.c: 132:         MSSP_I2C_ISR();
  4377   0013B2  EC5F  F012         	call	_MSSP_I2C_ISR	;wreg free
  4378   0013B6                     i2l1288:
  4379                           
  4380                           ;MCAL_Layer/Interrupt/mcal_interrupt_manager.c: 135:     if((1 == PIE2bits.BCLIE) && (1 
      +                          == PIR2bits.BCLIF) && (SSPCON1bits.SSPM > 5)){
  4381   0013B6  A6A0               	btfss	160,3,c	;volatile
  4382   0013B8  EFE0  F009         	goto	i2u306_41
  4383   0013BC  EFE2  F009         	goto	i2u306_40
  4384   0013C0                     i2u306_41:
  4385   0013C0  EFF6  F009         	goto	i2l1290
  4386   0013C4                     i2u306_40:
  4387   0013C4  A6A1               	btfss	161,3,c	;volatile
  4388   0013C6  EFE7  F009         	goto	i2u307_41
  4389   0013CA  EFE9  F009         	goto	i2u307_40
  4390   0013CE                     i2u307_41:
  4391   0013CE  EFF6  F009         	goto	i2l1290
  4392   0013D2                     i2u307_40:
  4393   0013D2  50C6               	movf	198,w,c	;volatile
  4394   0013D4  0B0F               	andlw	15
  4395   0013D6  6E6A               	movwf	??_InterruptManager^0,c
  4396   0013D8  0E05               	movlw	5
  4397   0013DA  646A               	cpfsgt	??_InterruptManager^0,c
  4398   0013DC  EFF2  F009         	goto	i2u308_41
  4399   0013E0  EFF4  F009         	goto	i2u308_40
  4400   0013E4                     i2u308_41:
  4401   0013E4  EFF6  F009         	goto	i2l1290
  4402   0013E8                     i2u308_40:
  4403   0013E8                     
  4404                           ;MCAL_Layer/Interrupt/mcal_interrupt_manager.c: 136:         MSSP_I2C_BC_ISR();
  4405   0013E8  EC61  F012         	call	_MSSP_I2C_BC_ISR	;wreg free
  4406   0013EC                     i2l1290:
  4407                           
  4408                           ;MCAL_Layer/Interrupt/mcal_interrupt_manager.c: 139:     if((1 == PIE1bits.SSPIE) && (1 
      +                          == PIR1bits.SSPIF) && (SSPCON1bits.SSPM <= 5) ){
  4409   0013EC  A69D               	btfss	157,3,c	;volatile
  4410   0013EE  EFFB  F009         	goto	i2u309_41
  4411   0013F2  EFFD  F009         	goto	i2u309_40
  4412   0013F6                     i2u309_41:
  4413   0013F6  EF11  F00A         	goto	i2l1292
  4414   0013FA                     i2u309_40:
  4415   0013FA  A69E               	btfss	158,3,c	;volatile
  4416   0013FC  EF02  F00A         	goto	i2u310_41
  4417   001400  EF04  F00A         	goto	i2u310_40
  4418   001404                     i2u310_41:
  4419   001404  EF11  F00A         	goto	i2l1292
  4420   001408                     i2u310_40:
  4421   001408  50C6               	movf	198,w,c	;volatile
  4422   00140A  0B0F               	andlw	15
  4423   00140C  6E6A               	movwf	??_InterruptManager^0,c
  4424   00140E  0E06               	movlw	6
  4425   001410  606A               	cpfslt	??_InterruptManager^0,c
  4426   001412  EF0D  F00A         	goto	i2u311_41
  4427   001416  EF0F  F00A         	goto	i2u311_40
  4428   00141A                     i2u311_41:
  4429   00141A  EF11  F00A         	goto	i2l1292
  4430   00141E                     i2u311_40:
  4431   00141E                     
  4432                           ;MCAL_Layer/Interrupt/mcal_interrupt_manager.c: 140:         MSSP_SPI_ISR();
  4433   00141E  EC5C  F012         	call	_MSSP_SPI_ISR	;wreg free
  4434   001422                     i2l1292:
  4435                           
  4436                           ;MCAL_Layer/Interrupt/mcal_interrupt_manager.c: 145:     if((1 == PIE1bits.CCP1IE) && (1
      +                           == PIR1bits.CCP1IF)){
  4437   001422  A49D               	btfss	157,2,c	;volatile
  4438   001424  EF16  F00A         	goto	i2u312_41
  4439   001428  EF18  F00A         	goto	i2u312_40
  4440   00142C                     i2u312_41:
  4441   00142C  EF21  F00A         	goto	i2l1294
  4442   001430                     i2u312_40:
  4443   001430  A49E               	btfss	158,2,c	;volatile
  4444   001432  EF1D  F00A         	goto	i2u313_41
  4445   001436  EF1F  F00A         	goto	i2u313_40
  4446   00143A                     i2u313_41:
  4447   00143A  EF21  F00A         	goto	i2l1294
  4448   00143E                     i2u313_40:
  4449   00143E                     
  4450                           ;MCAL_Layer/Interrupt/mcal_interrupt_manager.c: 146:         CCP1_ISR();
  4451   00143E  EC6B  F012         	call	_CCP1_ISR	;wreg free
  4452   001442                     i2l1294:
  4453                           
  4454                           ;MCAL_Layer/Interrupt/mcal_interrupt_manager.c: 149:     if((1 == PIE2bits.CCP2IE) && (1
      +                           == PIR2bits.CCP2IF)){
  4455   001442  A0A0               	btfss	160,0,c	;volatile
  4456   001444  EF26  F00A         	goto	i2u314_41
  4457   001448  EF28  F00A         	goto	i2u314_40
  4458   00144C                     i2u314_41:
  4459   00144C  EF31  F00A         	goto	i2l1297
  4460   001450                     i2u314_40:
  4461   001450  A0A1               	btfss	161,0,c	;volatile
  4462   001452  EF2D  F00A         	goto	i2u315_41
  4463   001456  EF2F  F00A         	goto	i2u315_40
  4464   00145A                     i2u315_41:
  4465   00145A  EF31  F00A         	goto	i2l1297
  4466   00145E                     i2u315_40:
  4467   00145E                     
  4468                           ;MCAL_Layer/Interrupt/mcal_interrupt_manager.c: 150:         CCP2_ISR();
  4469   00145E  EC69  F012         	call	_CCP2_ISR	;wreg free
  4470   001462                     i2l1297:
  4471   001462  C06C  FFFB         	movff	??_InterruptManager+2,pclatu
  4472   001466  C06B  FFFA         	movff	??_InterruptManager+1,pclath
  4473   00146A  927B               	bcf	int$flags,1,c	;clear compiler interrupt flag (level 2)
  4474   00146C  0011               	retfie		f
  4475   00146E                     __end_of_InterruptManager:
  4476                           	callstack 0
  4477                           
  4478 ;; *************** function _TMR3_ISR *****************
  4479 ;; Defined at:
  4480 ;;		line 102 in file "MCAL_Layer/Timer3/hal_timr3.c"
  4481 ;; Parameters:    Size  Location     Type
  4482 ;;		None
  4483 ;; Auto vars:     Size  Location     Type
  4484 ;;		None
  4485 ;; Return value:  Size  Location     Type
  4486 ;;                  1    wreg      void 
  4487 ;; Registers used:
  4488 ;;		wreg, status,2
  4489 ;; Tracked objects:
  4490 ;;		On entry : 0/0
  4491 ;;		On exit  : 0/0
  4492 ;;		Unchanged: 0/0
  4493 ;; Data sizes:     COMRAM   BANK0   BANK1   BANK2   BANK3   BANK4   BANK5   BANK6   BANK7   BANK8   BANK9  BANK10  BANK1
      +1  BANK12  BANK13  BANK14  BANK15
  4494 ;;      Params:         0       0       0       0       0       0       0       0       0       0       0       0       
      +0       0       0       0       0
  4495 ;;      Locals:         0       0       0       0       0       0       0       0       0       0       0       0       
      +0       0       0       0       0
  4496 ;;      Temps:          0       0       0       0       0       0       0       0       0       0       0       0       
      +0       0       0       0       0
  4497 ;;      Totals:         0       0       0       0       0       0       0       0       0       0       0       0       
      +0       0       0       0       0
  4498 ;;Total ram usage:        0 bytes
  4499 ;; Hardware stack levels used: 1
  4500 ;; This function calls:
  4501 ;;		Nothing
  4502 ;; This function is called by:
  4503 ;;		_InterruptManager
  4504 ;; This function uses a non-reentrant model
  4505 ;;
  4506                           
  4507                           	psect	text25
  4508   002498                     __ptext25:
  4509                           	callstack 0
  4510   002498                     _TMR3_ISR:
  4511                           	callstack 24
  4512   002498                     
  4513                           ;MCAL_Layer/Timer3/hal_timr3.c: 103:     (PIR2bits.TMR3IF = 0);
  4514   002498  92A1               	bcf	161,1,c	;volatile
  4515   00249A                     
  4516                           ;MCAL_Layer/Timer3/hal_timr3.c: 104:     TMR3H = (timer3_preload) >> 8;
  4517   00249A  500A               	movf	(_timer3_preload+1)^0,w,c
  4518   00249C  6EB3               	movwf	179,c	;volatile
  4519   00249E                     
  4520                           ;MCAL_Layer/Timer3/hal_timr3.c: 105:     TMR3L = (uint8)(timer3_preload);
  4521   00249E  C009  FFB2         	movff	_timer3_preload,4018	;volatile
  4522   0024A2  0012               	return		;funcret
  4523   0024A4                     __end_of_TMR3_ISR:
  4524                           	callstack 0
  4525                           
  4526 ;; *************** function _TMR2_ISR *****************
  4527 ;; Defined at:
  4528 ;;		line 95 in file "MCAL_Layer/Timer2/hal_timr2.c"
  4529 ;; Parameters:    Size  Location     Type
  4530 ;;		None
  4531 ;; Auto vars:     Size  Location     Type
  4532 ;;		None
  4533 ;; Return value:  Size  Location     Type
  4534 ;;                  1    wreg      void 
  4535 ;; Registers used:
  4536 ;;		None
  4537 ;; Tracked objects:
  4538 ;;		On entry : 0/0
  4539 ;;		On exit  : 0/0
  4540 ;;		Unchanged: 0/0
  4541 ;; Data sizes:     COMRAM   BANK0   BANK1   BANK2   BANK3   BANK4   BANK5   BANK6   BANK7   BANK8   BANK9  BANK10  BANK1
      +1  BANK12  BANK13  BANK14  BANK15
  4542 ;;      Params:         0       0       0       0       0       0       0       0       0       0       0       0       
      +0       0       0       0       0
  4543 ;;      Locals:         0       0       0       0       0       0       0       0       0       0       0       0       
      +0       0       0       0       0
  4544 ;;      Temps:          0       0       0       0       0       0       0       0       0       0       0       0       
      +0       0       0       0       0
  4545 ;;      Totals:         0       0       0       0       0       0       0       0       0       0       0       0       
      +0       0       0       0       0
  4546 ;;Total ram usage:        0 bytes
  4547 ;; Hardware stack levels used: 1
  4548 ;; This function calls:
  4549 ;;		Nothing
  4550 ;; This function is called by:
  4551 ;;		_InterruptManager
  4552 ;; This function uses a non-reentrant model
  4553 ;;
  4554                           
  4555                           	psect	text26
  4556   0024B0                     __ptext26:
  4557                           	callstack 0
  4558   0024B0                     _TMR2_ISR:
  4559                           	callstack 24
  4560   0024B0                     
  4561                           ;MCAL_Layer/Timer2/hal_timr2.c: 96:     (PIR1bits.TMR2IF = 0);
  4562   0024B0  929E               	bcf	158,1,c	;volatile
  4563                           
  4564                           ;MCAL_Layer/Timer2/hal_timr2.c: 97:     TMR2 = timer2_preload;
  4565   0024B2  C03E  FFCC         	movff	_timer2_preload,4044	;volatile
  4566   0024B6  0012               	return		;funcret
  4567   0024B8                     __end_of_TMR2_ISR:
  4568                           	callstack 0
  4569                           
  4570 ;; *************** function _TMR1_ISR *****************
  4571 ;; Defined at:
  4572 ;;		line 102 in file "MCAL_Layer/Timer1/hal_timr1.c"
  4573 ;; Parameters:    Size  Location     Type
  4574 ;;		None
  4575 ;; Auto vars:     Size  Location     Type
  4576 ;;		None
  4577 ;; Return value:  Size  Location     Type
  4578 ;;                  1    wreg      void 
  4579 ;; Registers used:
  4580 ;;		wreg, status,2
  4581 ;; Tracked objects:
  4582 ;;		On entry : 0/0
  4583 ;;		On exit  : 0/0
  4584 ;;		Unchanged: 0/0
  4585 ;; Data sizes:     COMRAM   BANK0   BANK1   BANK2   BANK3   BANK4   BANK5   BANK6   BANK7   BANK8   BANK9  BANK10  BANK1
      +1  BANK12  BANK13  BANK14  BANK15
  4586 ;;      Params:         0       0       0       0       0       0       0       0       0       0       0       0       
      +0       0       0       0       0
  4587 ;;      Locals:         0       0       0       0       0       0       0       0       0       0       0       0       
      +0       0       0       0       0
  4588 ;;      Temps:          0       0       0       0       0       0       0       0       0       0       0       0       
      +0       0       0       0       0
  4589 ;;      Totals:         0       0       0       0       0       0       0       0       0       0       0       0       
      +0       0       0       0       0
  4590 ;;Total ram usage:        0 bytes
  4591 ;; Hardware stack levels used: 1
  4592 ;; This function calls:
  4593 ;;		Nothing
  4594 ;; This function is called by:
  4595 ;;		_InterruptManager
  4596 ;; This function uses a non-reentrant model
  4597 ;;
  4598                           
  4599                           	psect	text27
  4600   0024A4                     __ptext27:
  4601                           	callstack 0
  4602   0024A4                     _TMR1_ISR:
  4603                           	callstack 24
  4604   0024A4                     
  4605                           ;MCAL_Layer/Timer1/hal_timr1.c: 103:     (PIR1bits.TMR1IF = 0);
  4606   0024A4  909E               	bcf	158,0,c	;volatile
  4607   0024A6                     
  4608                           ;MCAL_Layer/Timer1/hal_timr1.c: 104:     TMR1H = (timer1_preload) >> 8;
  4609   0024A6  5010               	movf	(_timer1_preload+1)^0,w,c	;volatile
  4610   0024A8  6ECF               	movwf	207,c	;volatile
  4611   0024AA                     
  4612                           ;MCAL_Layer/Timer1/hal_timr1.c: 105:     TMR1L = (uint8)(timer1_preload);
  4613   0024AA  C00F  FFCE         	movff	_timer1_preload,4046	;volatile
  4614   0024AE  0012               	return		;funcret
  4615   0024B0                     __end_of_TMR1_ISR:
  4616                           	callstack 0
  4617                           
  4618 ;; *************** function _TMR0_ISR *****************
  4619 ;; Defined at:
  4620 ;;		line 107 in file "MCAL_Layer/Timer0/hal_timr0.c"
  4621 ;; Parameters:    Size  Location     Type
  4622 ;;		None
  4623 ;; Auto vars:     Size  Location     Type
  4624 ;;		None
  4625 ;; Return value:  Size  Location     Type
  4626 ;;                  1    wreg      void 
  4627 ;; Registers used:
  4628 ;;		wreg, status,2, status,0, pcl, pclath, pclatu, tosl, cstack
  4629 ;; Tracked objects:
  4630 ;;		On entry : 0/0
  4631 ;;		On exit  : 0/0
  4632 ;;		Unchanged: 0/0
  4633 ;; Data sizes:     COMRAM   BANK0   BANK1   BANK2   BANK3   BANK4   BANK5   BANK6   BANK7   BANK8   BANK9  BANK10  BANK1
      +1  BANK12  BANK13  BANK14  BANK15
  4634 ;;      Params:         0       0       0       0       0       0       0       0       0       0       0       0       
      +0       0       0       0       0
  4635 ;;      Locals:         0       0       0       0       0       0       0       0       0       0       0       0       
      +0       0       0       0       0
  4636 ;;      Temps:          0       0       0       0       0       0       0       0       0       0       0       0       
      +0       0       0       0       0
  4637 ;;      Totals:         0       0       0       0       0       0       0       0       0       0       0       0       
      +0       0       0       0       0
  4638 ;;Total ram usage:        0 bytes
  4639 ;; Hardware stack levels used: 1
  4640 ;; Hardware stack levels required when called: 1
  4641 ;; This function calls:
  4642 ;;		NULL
  4643 ;;		_TMR0_DefaultInterruptHandler
  4644 ;; This function is called by:
  4645 ;;		_InterruptManager
  4646 ;; This function uses a non-reentrant model
  4647 ;;
  4648                           
  4649                           	psect	text28
  4650   00221A                     __ptext28:
  4651                           	callstack 0
  4652   00221A                     _TMR0_ISR:
  4653                           	callstack 23
  4654   00221A                     
  4655                           ;MCAL_Layer/Timer0/hal_timr0.c: 108:     (INTCONbits.TMR0IF = 0);
  4656   00221A  94F2               	bcf	242,2,c	;volatile
  4657   00221C                     
  4658                           ;MCAL_Layer/Timer0/hal_timr0.c: 109:     TMR0H = (timer0_preload) >> 8;
  4659   00221C  5014               	movf	(_timer0_preload+1)^0,w,c
  4660   00221E  6ED7               	movwf	215,c	;volatile
  4661   002220                     
  4662                           ;MCAL_Layer/Timer0/hal_timr0.c: 110:     TMR0L = (uint8)(timer0_preload);
  4663   002220  C013  FFD6         	movff	_timer0_preload,4054	;volatile
  4664   002224                     
  4665                           ;MCAL_Layer/Timer0/hal_timr0.c: 111:     if(TMR0_InterruptHandler){
  4666   002224  5015               	movf	_TMR0_InterruptHandler^0,w,c
  4667   002226  1016               	iorwf	(_TMR0_InterruptHandler+1)^0,w,c
  4668   002228  B4D8               	btfsc	status,2,c
  4669   00222A  EF19  F011         	goto	i2u94_41
  4670   00222E  EF1B  F011         	goto	i2u94_40
  4671   002232                     i2u94_41:
  4672   002232  EF27  F011         	goto	i2l1440
  4673   002236                     i2u94_40:
  4674   002236                     
  4675                           ;MCAL_Layer/Timer0/hal_timr0.c: 112:         TMR0_InterruptHandler();
  4676   002236  D802               	call	i2u95_48
  4677   002238  EF27  F011         	goto	i2u95_49
  4678   00223C                     i2u95_48:
  4679   00223C  0005               	push	
  4680   00223E  6EFA               	movwf	pclath,c
  4681   002240  5015               	movf	_TMR0_InterruptHandler^0,w,c
  4682   002242  6EFD               	movwf	tosl,c
  4683   002244  5016               	movf	(_TMR0_InterruptHandler+1)^0,w,c
  4684   002246  6EFE               	movwf	tosh,c
  4685   002248  6AFF               	clrf	tosu,c
  4686   00224A  50FA               	movf	pclath,w,c
  4687   00224C  0012               	return		;indir
  4688   00224E                     i2u95_49:
  4689   00224E                     i2l1440:
  4690   00224E  0012               	return		;funcret
  4691   002250                     __end_of_TMR0_ISR:
  4692                           	callstack 0
  4693                           
  4694 ;; *************** function _TMR0_DefaultInterruptHandler *****************
  4695 ;; Defined at:
  4696 ;;		line 114 in file "application.c"
  4697 ;; Parameters:    Size  Location     Type
  4698 ;;		None
  4699 ;; Auto vars:     Size  Location     Type
  4700 ;;		None
  4701 ;; Return value:  Size  Location     Type
  4702 ;;                  1    wreg      void 
  4703 ;; Registers used:
  4704 ;;		wreg, status,2, status,0
  4705 ;; Tracked objects:
  4706 ;;		On entry : 0/0
  4707 ;;		On exit  : 0/0
  4708 ;;		Unchanged: 0/0
  4709 ;; Data sizes:     COMRAM   BANK0   BANK1   BANK2   BANK3   BANK4   BANK5   BANK6   BANK7   BANK8   BANK9  BANK10  BANK1
      +1  BANK12  BANK13  BANK14  BANK15
  4710 ;;      Params:         0       0       0       0       0       0       0       0       0       0       0       0       
      +0       0       0       0       0
  4711 ;;      Locals:         0       0       0       0       0       0       0       0       0       0       0       0       
      +0       0       0       0       0
  4712 ;;      Temps:          0       0       0       0       0       0       0       0       0       0       0       0       
      +0       0       0       0       0
  4713 ;;      Totals:         0       0       0       0       0       0       0       0       0       0       0       0       
      +0       0       0       0       0
  4714 ;;Total ram usage:        0 bytes
  4715 ;; Hardware stack levels used: 1
  4716 ;; This function calls:
  4717 ;;		Nothing
  4718 ;; This function is called by:
  4719 ;;		_TMR0_ISR
  4720 ;; This function uses a non-reentrant model
  4721 ;;
  4722                           
  4723                           	psect	text29
  4724   002250                     __ptext29:
  4725                           	callstack 0
  4726   002250                     _TMR0_DefaultInterruptHandler:
  4727                           	callstack 23
  4728   002250                     
  4729                           ;application.c: 115:   seconds++;
  4730   002250  2A3D               	incf	_seconds^0,f,c
  4731   002252                     
  4732                           ;application.c: 116:   if (60 == seconds) {
  4733   002252  0E3C               	movlw	60
  4734   002254  183D               	xorwf	_seconds^0,w,c
  4735   002256  A4D8               	btfss	status,2,c
  4736   002258  EF30  F011         	goto	i2u43_41
  4737   00225C  EF32  F011         	goto	i2u43_40
  4738   002260                     i2u43_41:
  4739   002260  EF35  F011         	goto	i2l2968
  4740   002264                     i2u43_40:
  4741   002264                     
  4742                           ;application.c: 117:     seconds = 0;
  4743   002264  0E00               	movlw	0
  4744   002266  6E3D               	movwf	_seconds^0,c
  4745   002268                     
  4746                           ;application.c: 118:     minutes++;
  4747   002268  2A3C               	incf	_minutes^0,f,c
  4748   00226A                     i2l2968:
  4749                           
  4750                           ;application.c: 122:   if (60 == minutes) {
  4751   00226A  0E3C               	movlw	60
  4752   00226C  183C               	xorwf	_minutes^0,w,c
  4753   00226E  A4D8               	btfss	status,2,c
  4754   002270  EF3C  F011         	goto	i2u44_41
  4755   002274  EF3E  F011         	goto	i2u44_40
  4756   002278                     i2u44_41:
  4757   002278  EF41  F011         	goto	i2l1824
  4758   00227C                     i2u44_40:
  4759   00227C                     
  4760                           ;application.c: 123:     minutes = 0;
  4761   00227C  0E00               	movlw	0
  4762   00227E  6E3C               	movwf	_minutes^0,c
  4763   002280                     
  4764                           ;application.c: 124:     hours++;
  4765   002280  2A3B               	incf	_hours^0,f,c
  4766   002282                     i2l1824:
  4767   002282  0012               	return		;funcret
  4768   002284                     __end_of_TMR0_DefaultInterruptHandler:
  4769                           	callstack 0
  4770                           
  4771 ;; *************** function _RB7_ISR *****************
  4772 ;; Defined at:
  4773 ;;		line 164 in file "MCAL_Layer/Interrupt/mcal_external_interrupt.c"
  4774 ;; Parameters:    Size  Location     Type
  4775 ;;  RB7_Source      1    wreg     unsigned char 
  4776 ;; Auto vars:     Size  Location     Type
  4777 ;;  RB7_Source      1    0[COMRAM] unsigned char 
  4778 ;; Return value:  Size  Location     Type
  4779 ;;                  1    wreg      void 
  4780 ;; Registers used:
  4781 ;;		wreg, status,2, status,0
  4782 ;; Tracked objects:
  4783 ;;		On entry : 0/0
  4784 ;;		On exit  : 0/0
  4785 ;;		Unchanged: 0/0
  4786 ;; Data sizes:     COMRAM   BANK0   BANK1   BANK2   BANK3   BANK4   BANK5   BANK6   BANK7   BANK8   BANK9  BANK10  BANK1
      +1  BANK12  BANK13  BANK14  BANK15
  4787 ;;      Params:         0       0       0       0       0       0       0       0       0       0       0       0       
      +0       0       0       0       0
  4788 ;;      Locals:         1       0       0       0       0       0       0       0       0       0       0       0       
      +0       0       0       0       0
  4789 ;;      Temps:          0       0       0       0       0       0       0       0       0       0       0       0       
      +0       0       0       0       0
  4790 ;;      Totals:         1       0       0       0       0       0       0       0       0       0       0       0       
      +0       0       0       0       0
  4791 ;;Total ram usage:        1 bytes
  4792 ;; Hardware stack levels used: 1
  4793 ;; This function calls:
  4794 ;;		Nothing
  4795 ;; This function is called by:
  4796 ;;		_InterruptManager
  4797 ;; This function uses a non-reentrant model
  4798 ;;
  4799                           
  4800                           	psect	text30
  4801   002410                     __ptext30:
  4802                           	callstack 0
  4803   002410                     _RB7_ISR:
  4804                           	callstack 24
  4805                           
  4806                           ;incstack = 0
  4807                           ;RB7_ISR@RB7_Source stored from wreg
  4808   002410  6E69               	movwf	RB7_ISR@RB7_Source^0,c
  4809   002412                     
  4810                           ;MCAL_Layer/Interrupt/mcal_external_interrupt.c: 166:     (INTCONbits.RBIF = 0);
  4811   002412  90F2               	bcf	242,0,c	;volatile
  4812   002414                     
  4813                           ;MCAL_Layer/Interrupt/mcal_external_interrupt.c: 169:     if(0 == RB7_Source){
  4814   002414  5069               	movf	RB7_ISR@RB7_Source^0,w,c
  4815   002416  A4D8               	btfss	status,2,c
  4816   002418  EF10  F012         	goto	i2u93_41
  4817   00241C  EF12  F012         	goto	i2u93_40
  4818   002420                     i2u93_41:
  4819   002420  EF14  F012         	goto	i2l3304
  4820   002424                     i2u93_40:
  4821   002424  EF14  F012         	goto	i2l1075
  4822   002428                     i2l3304:
  4823   002428                     i2l1075:
  4824   002428  0012               	return		;funcret
  4825   00242A                     __end_of_RB7_ISR:
  4826                           	callstack 0
  4827                           
  4828 ;; *************** function _RB6_ISR *****************
  4829 ;; Defined at:
  4830 ;;		line 145 in file "MCAL_Layer/Interrupt/mcal_external_interrupt.c"
  4831 ;; Parameters:    Size  Location     Type
  4832 ;;  RB6_Source      1    wreg     unsigned char 
  4833 ;; Auto vars:     Size  Location     Type
  4834 ;;  RB6_Source      1    0[COMRAM] unsigned char 
  4835 ;; Return value:  Size  Location     Type
  4836 ;;                  1    wreg      void 
  4837 ;; Registers used:
  4838 ;;		wreg, status,2, status,0
  4839 ;; Tracked objects:
  4840 ;;		On entry : 0/0
  4841 ;;		On exit  : 0/0
  4842 ;;		Unchanged: 0/0
  4843 ;; Data sizes:     COMRAM   BANK0   BANK1   BANK2   BANK3   BANK4   BANK5   BANK6   BANK7   BANK8   BANK9  BANK10  BANK1
      +1  BANK12  BANK13  BANK14  BANK15
  4844 ;;      Params:         0       0       0       0       0       0       0       0       0       0       0       0       
      +0       0       0       0       0
  4845 ;;      Locals:         1       0       0       0       0       0       0       0       0       0       0       0       
      +0       0       0       0       0
  4846 ;;      Temps:          0       0       0       0       0       0       0       0       0       0       0       0       
      +0       0       0       0       0
  4847 ;;      Totals:         1       0       0       0       0       0       0       0       0       0       0       0       
      +0       0       0       0       0
  4848 ;;Total ram usage:        1 bytes
  4849 ;; Hardware stack levels used: 1
  4850 ;; This function calls:
  4851 ;;		Nothing
  4852 ;; This function is called by:
  4853 ;;		_InterruptManager
  4854 ;; This function uses a non-reentrant model
  4855 ;;
  4856                           
  4857                           	psect	text31
  4858   00242A                     __ptext31:
  4859                           	callstack 0
  4860   00242A                     _RB6_ISR:
  4861                           	callstack 24
  4862                           
  4863                           ;incstack = 0
  4864                           ;RB6_ISR@RB6_Source stored from wreg
  4865   00242A  6E69               	movwf	RB6_ISR@RB6_Source^0,c
  4866   00242C                     
  4867                           ;MCAL_Layer/Interrupt/mcal_external_interrupt.c: 147:     (INTCONbits.RBIF = 0);
  4868   00242C  90F2               	bcf	242,0,c	;volatile
  4869   00242E                     
  4870                           ;MCAL_Layer/Interrupt/mcal_external_interrupt.c: 150:     if(0 == RB6_Source){
  4871   00242E  5069               	movf	RB6_ISR@RB6_Source^0,w,c
  4872   002430  A4D8               	btfss	status,2,c
  4873   002432  EF1D  F012         	goto	i2u92_41
  4874   002436  EF1F  F012         	goto	i2u92_40
  4875   00243A                     i2u92_41:
  4876   00243A  EF21  F012         	goto	i2l3290
  4877   00243E                     i2u92_40:
  4878   00243E  EF21  F012         	goto	i2l1064
  4879   002442                     i2l3290:
  4880   002442                     i2l1064:
  4881   002442  0012               	return		;funcret
  4882   002444                     __end_of_RB6_ISR:
  4883                           	callstack 0
  4884                           
  4885 ;; *************** function _RB5_ISR *****************
  4886 ;; Defined at:
  4887 ;;		line 126 in file "MCAL_Layer/Interrupt/mcal_external_interrupt.c"
  4888 ;; Parameters:    Size  Location     Type
  4889 ;;  RB5_Source      1    wreg     unsigned char 
  4890 ;; Auto vars:     Size  Location     Type
  4891 ;;  RB5_Source      1    0[COMRAM] unsigned char 
  4892 ;; Return value:  Size  Location     Type
  4893 ;;                  1    wreg      void 
  4894 ;; Registers used:
  4895 ;;		wreg, status,2, status,0
  4896 ;; Tracked objects:
  4897 ;;		On entry : 0/0
  4898 ;;		On exit  : 0/0
  4899 ;;		Unchanged: 0/0
  4900 ;; Data sizes:     COMRAM   BANK0   BANK1   BANK2   BANK3   BANK4   BANK5   BANK6   BANK7   BANK8   BANK9  BANK10  BANK1
      +1  BANK12  BANK13  BANK14  BANK15
  4901 ;;      Params:         0       0       0       0       0       0       0       0       0       0       0       0       
      +0       0       0       0       0
  4902 ;;      Locals:         1       0       0       0       0       0       0       0       0       0       0       0       
      +0       0       0       0       0
  4903 ;;      Temps:          0       0       0       0       0       0       0       0       0       0       0       0       
      +0       0       0       0       0
  4904 ;;      Totals:         1       0       0       0       0       0       0       0       0       0       0       0       
      +0       0       0       0       0
  4905 ;;Total ram usage:        1 bytes
  4906 ;; Hardware stack levels used: 1
  4907 ;; This function calls:
  4908 ;;		Nothing
  4909 ;; This function is called by:
  4910 ;;		_InterruptManager
  4911 ;; This function uses a non-reentrant model
  4912 ;;
  4913                           
  4914                           	psect	text32
  4915   002444                     __ptext32:
  4916                           	callstack 0
  4917   002444                     _RB5_ISR:
  4918                           	callstack 24
  4919                           
  4920                           ;incstack = 0
  4921                           ;RB5_ISR@RB5_Source stored from wreg
  4922   002444  6E69               	movwf	RB5_ISR@RB5_Source^0,c
  4923   002446                     
  4924                           ;MCAL_Layer/Interrupt/mcal_external_interrupt.c: 128:     (INTCONbits.RBIF = 0);
  4925   002446  90F2               	bcf	242,0,c	;volatile
  4926   002448                     
  4927                           ;MCAL_Layer/Interrupt/mcal_external_interrupt.c: 131:     if(0 == RB5_Source){
  4928   002448  5069               	movf	RB5_ISR@RB5_Source^0,w,c
  4929   00244A  A4D8               	btfss	status,2,c
  4930   00244C  EF2A  F012         	goto	i2u91_41
  4931   002450  EF2C  F012         	goto	i2u91_40
  4932   002454                     i2u91_41:
  4933   002454  EF2E  F012         	goto	i2l3276
  4934   002458                     i2u91_40:
  4935   002458  EF2E  F012         	goto	i2l1053
  4936   00245C                     i2l3276:
  4937   00245C                     i2l1053:
  4938   00245C  0012               	return		;funcret
  4939   00245E                     __end_of_RB5_ISR:
  4940                           	callstack 0
  4941                           
  4942 ;; *************** function _RB4_ISR *****************
  4943 ;; Defined at:
  4944 ;;		line 107 in file "MCAL_Layer/Interrupt/mcal_external_interrupt.c"
  4945 ;; Parameters:    Size  Location     Type
  4946 ;;  RB4_Source      1    wreg     unsigned char 
  4947 ;; Auto vars:     Size  Location     Type
  4948 ;;  RB4_Source      1    0[COMRAM] unsigned char 
  4949 ;; Return value:  Size  Location     Type
  4950 ;;                  1    wreg      void 
  4951 ;; Registers used:
  4952 ;;		wreg, status,2, status,0
  4953 ;; Tracked objects:
  4954 ;;		On entry : 0/0
  4955 ;;		On exit  : 0/0
  4956 ;;		Unchanged: 0/0
  4957 ;; Data sizes:     COMRAM   BANK0   BANK1   BANK2   BANK3   BANK4   BANK5   BANK6   BANK7   BANK8   BANK9  BANK10  BANK1
      +1  BANK12  BANK13  BANK14  BANK15
  4958 ;;      Params:         0       0       0       0       0       0       0       0       0       0       0       0       
      +0       0       0       0       0
  4959 ;;      Locals:         1       0       0       0       0       0       0       0       0       0       0       0       
      +0       0       0       0       0
  4960 ;;      Temps:          0       0       0       0       0       0       0       0       0       0       0       0       
      +0       0       0       0       0
  4961 ;;      Totals:         1       0       0       0       0       0       0       0       0       0       0       0       
      +0       0       0       0       0
  4962 ;;Total ram usage:        1 bytes
  4963 ;; Hardware stack levels used: 1
  4964 ;; This function calls:
  4965 ;;		Nothing
  4966 ;; This function is called by:
  4967 ;;		_InterruptManager
  4968 ;; This function uses a non-reentrant model
  4969 ;;
  4970                           
  4971                           	psect	text33
  4972   00245E                     __ptext33:
  4973                           	callstack 0
  4974   00245E                     _RB4_ISR:
  4975                           	callstack 24
  4976                           
  4977                           ;incstack = 0
  4978                           ;RB4_ISR@RB4_Source stored from wreg
  4979   00245E  6E69               	movwf	RB4_ISR@RB4_Source^0,c
  4980   002460                     
  4981                           ;MCAL_Layer/Interrupt/mcal_external_interrupt.c: 109:     (INTCONbits.RBIF = 0);
  4982   002460  90F2               	bcf	242,0,c	;volatile
  4983   002462                     
  4984                           ;MCAL_Layer/Interrupt/mcal_external_interrupt.c: 112:     if(0 == RB4_Source){
  4985   002462  5069               	movf	RB4_ISR@RB4_Source^0,w,c
  4986   002464  A4D8               	btfss	status,2,c
  4987   002466  EF37  F012         	goto	i2u90_41
  4988   00246A  EF39  F012         	goto	i2u90_40
  4989   00246E                     i2u90_41:
  4990   00246E  EF3B  F012         	goto	i2l3262
  4991   002472                     i2u90_40:
  4992   002472  EF3B  F012         	goto	i2l1042
  4993   002476                     i2l3262:
  4994   002476                     i2l1042:
  4995   002476  0012               	return		;funcret
  4996   002478                     __end_of_RB4_ISR:
  4997                           	callstack 0
  4998                           
  4999 ;; *************** function _MSSP_SPI_ISR *****************
  5000 ;; Defined at:
  5001 ;;		line 130 in file "MCAL_Layer/SPI/hal_spi.c"
  5002 ;; Parameters:    Size  Location     Type
  5003 ;;		None
  5004 ;; Auto vars:     Size  Location     Type
  5005 ;;		None
  5006 ;; Return value:  Size  Location     Type
  5007 ;;                  1    wreg      void 
  5008 ;; Registers used:
  5009 ;;		None
  5010 ;; Tracked objects:
  5011 ;;		On entry : 0/0
  5012 ;;		On exit  : 0/0
  5013 ;;		Unchanged: 0/0
  5014 ;; Data sizes:     COMRAM   BANK0   BANK1   BANK2   BANK3   BANK4   BANK5   BANK6   BANK7   BANK8   BANK9  BANK10  BANK1
      +1  BANK12  BANK13  BANK14  BANK15
  5015 ;;      Params:         0       0       0       0       0       0       0       0       0       0       0       0       
      +0       0       0       0       0
  5016 ;;      Locals:         0       0       0       0       0       0       0       0       0       0       0       0       
      +0       0       0       0       0
  5017 ;;      Temps:          0       0       0       0       0       0       0       0       0       0       0       0       
      +0       0       0       0       0
  5018 ;;      Totals:         0       0       0       0       0       0       0       0       0       0       0       0       
      +0       0       0       0       0
  5019 ;;Total ram usage:        0 bytes
  5020 ;; Hardware stack levels used: 1
  5021 ;; This function calls:
  5022 ;;		Nothing
  5023 ;; This function is called by:
  5024 ;;		_InterruptManager
  5025 ;; This function uses a non-reentrant model
  5026 ;;
  5027                           
  5028                           	psect	text34
  5029   0024B8                     __ptext34:
  5030                           	callstack 0
  5031   0024B8                     _MSSP_SPI_ISR:
  5032                           	callstack 24
  5033   0024B8                     
  5034                           ;MCAL_Layer/SPI/hal_spi.c: 132:     (PIR1bits.SSPIF = 0);
  5035   0024B8  969E               	bcf	158,3,c	;volatile
  5036                           
  5037                           ;MCAL_Layer/SPI/hal_spi.c: 133:     (PIR1bits.SSPIF = 0);
  5038   0024BA  969E               	bcf	158,3,c	;volatile
  5039   0024BC  0012               	return		;funcret
  5040   0024BE                     __end_of_MSSP_SPI_ISR:
  5041                           	callstack 0
  5042                           
  5043 ;; *************** function _MSSP_I2C_ISR *****************
  5044 ;; Defined at:
  5045 ;;		line 329 in file "MCAL_Layer/I2C/hal_i2c.c"
  5046 ;; Parameters:    Size  Location     Type
  5047 ;;		None
  5048 ;; Auto vars:     Size  Location     Type
  5049 ;;		None
  5050 ;; Return value:  Size  Location     Type
  5051 ;;                  1    wreg      void 
  5052 ;; Registers used:
  5053 ;;		None
  5054 ;; Tracked objects:
  5055 ;;		On entry : 0/0
  5056 ;;		On exit  : 0/0
  5057 ;;		Unchanged: 0/0
  5058 ;; Data sizes:     COMRAM   BANK0   BANK1   BANK2   BANK3   BANK4   BANK5   BANK6   BANK7   BANK8   BANK9  BANK10  BANK1
      +1  BANK12  BANK13  BANK14  BANK15
  5059 ;;      Params:         0       0       0       0       0       0       0       0       0       0       0       0       
      +0       0       0       0       0
  5060 ;;      Locals:         0       0       0       0       0       0       0       0       0       0       0       0       
      +0       0       0       0       0
  5061 ;;      Temps:          0       0       0       0       0       0       0       0       0       0       0       0       
      +0       0       0       0       0
  5062 ;;      Totals:         0       0       0       0       0       0       0       0       0       0       0       0       
      +0       0       0       0       0
  5063 ;;Total ram usage:        0 bytes
  5064 ;; Hardware stack levels used: 1
  5065 ;; This function calls:
  5066 ;;		Nothing
  5067 ;; This function is called by:
  5068 ;;		_InterruptManager
  5069 ;; This function uses a non-reentrant model
  5070 ;;
  5071                           
  5072                           	psect	text35
  5073   0024BE                     __ptext35:
  5074                           	callstack 0
  5075   0024BE                     _MSSP_I2C_ISR:
  5076                           	callstack 24
  5077   0024BE                     
  5078                           ;MCAL_Layer/I2C/hal_i2c.c: 331:     (PIR1bits.SSPIF = 0);
  5079   0024BE  969E               	bcf	158,3,c	;volatile
  5080   0024C0  0012               	return		;funcret
  5081   0024C2                     __end_of_MSSP_I2C_ISR:
  5082                           	callstack 0
  5083                           
  5084 ;; *************** function _MSSP_I2C_BC_ISR *****************
  5085 ;; Defined at:
  5086 ;;		line 338 in file "MCAL_Layer/I2C/hal_i2c.c"
  5087 ;; Parameters:    Size  Location     Type
  5088 ;;		None
  5089 ;; Auto vars:     Size  Location     Type
  5090 ;;		None
  5091 ;; Return value:  Size  Location     Type
  5092 ;;                  1    wreg      void 
  5093 ;; Registers used:
  5094 ;;		None
  5095 ;; Tracked objects:
  5096 ;;		On entry : 0/0
  5097 ;;		On exit  : 0/0
  5098 ;;		Unchanged: 0/0
  5099 ;; Data sizes:     COMRAM   BANK0   BANK1   BANK2   BANK3   BANK4   BANK5   BANK6   BANK7   BANK8   BANK9  BANK10  BANK1
      +1  BANK12  BANK13  BANK14  BANK15
  5100 ;;      Params:         0       0       0       0       0       0       0       0       0       0       0       0       
      +0       0       0       0       0
  5101 ;;      Locals:         0       0       0       0       0       0       0       0       0       0       0       0       
      +0       0       0       0       0
  5102 ;;      Temps:          0       0       0       0       0       0       0       0       0       0       0       0       
      +0       0       0       0       0
  5103 ;;      Totals:         0       0       0       0       0       0       0       0       0       0       0       0       
      +0       0       0       0       0
  5104 ;;Total ram usage:        0 bytes
  5105 ;; Hardware stack levels used: 1
  5106 ;; This function calls:
  5107 ;;		Nothing
  5108 ;; This function is called by:
  5109 ;;		_InterruptManager
  5110 ;; This function uses a non-reentrant model
  5111 ;;
  5112                           
  5113                           	psect	text36
  5114   0024C2                     __ptext36:
  5115                           	callstack 0
  5116   0024C2                     _MSSP_I2C_BC_ISR:
  5117                           	callstack 24
  5118   0024C2                     
  5119                           ;MCAL_Layer/I2C/hal_i2c.c: 340:     (PIR2bits.BCLIF = 0);
  5120   0024C2  96A1               	bcf	161,3,c	;volatile
  5121   0024C4  0012               	return		;funcret
  5122   0024C6                     __end_of_MSSP_I2C_BC_ISR:
  5123                           	callstack 0
  5124                           
  5125 ;; *************** function _INT2_ISR *****************
  5126 ;; Defined at:
  5127 ;;		line 95 in file "MCAL_Layer/Interrupt/mcal_external_interrupt.c"
  5128 ;; Parameters:    Size  Location     Type
  5129 ;;		None
  5130 ;; Auto vars:     Size  Location     Type
  5131 ;;		None
  5132 ;; Return value:  Size  Location     Type
  5133 ;;                  1    wreg      void 
  5134 ;; Registers used:
  5135 ;;		wreg, status,2, status,0, pcl, pclath, pclatu, tosl, cstack
  5136 ;; Tracked objects:
  5137 ;;		On entry : 0/0
  5138 ;;		On exit  : 0/0
  5139 ;;		Unchanged: 0/0
  5140 ;; Data sizes:     COMRAM   BANK0   BANK1   BANK2   BANK3   BANK4   BANK5   BANK6   BANK7   BANK8   BANK9  BANK10  BANK1
      +1  BANK12  BANK13  BANK14  BANK15
  5141 ;;      Params:         0       0       0       0       0       0       0       0       0       0       0       0       
      +0       0       0       0       0
  5142 ;;      Locals:         0       0       0       0       0       0       0       0       0       0       0       0       
      +0       0       0       0       0
  5143 ;;      Temps:          0       0       0       0       0       0       0       0       0       0       0       0       
      +0       0       0       0       0
  5144 ;;      Totals:         0       0       0       0       0       0       0       0       0       0       0       0       
      +0       0       0       0       0
  5145 ;;Total ram usage:        0 bytes
  5146 ;; Hardware stack levels used: 1
  5147 ;; Hardware stack levels required when called: 1
  5148 ;; This function calls:
  5149 ;;		NULL
  5150 ;;		_Int0_APP_ISR
  5151 ;;		_Int1_APP_ISR
  5152 ;;		_Int2_APP_ISR
  5153 ;; This function is called by:
  5154 ;;		_InterruptManager
  5155 ;; This function uses a non-reentrant model
  5156 ;;
  5157                           
  5158                           	psect	text37
  5159   0022B4                     __ptext37:
  5160                           	callstack 0
  5161   0022B4                     _INT2_ISR:
  5162                           	callstack 23
  5163   0022B4                     
  5164                           ;MCAL_Layer/Interrupt/mcal_external_interrupt.c: 97:     (INTCON3bits.INT2IF = 0);
  5165   0022B4  92F0               	bcf	240,1,c	;volatile
  5166   0022B6                     
  5167                           ;MCAL_Layer/Interrupt/mcal_external_interrupt.c: 100:     if(INT2_InterruptHandler){ INT
      +                          2_InterruptHandler(); }
  5168   0022B6  5029               	movf	_INT2_InterruptHandler^0,w,c
  5169   0022B8  102A               	iorwf	(_INT2_InterruptHandler+1)^0,w,c
  5170   0022BA  B4D8               	btfsc	status,2,c
  5171   0022BC  EF62  F011         	goto	i2u88_41
  5172   0022C0  EF64  F011         	goto	i2u88_40
  5173   0022C4                     i2u88_41:
  5174   0022C4  EF70  F011         	goto	i2l1031
  5175   0022C8                     i2u88_40:
  5176   0022C8  D802               	call	i2u89_48
  5177   0022CA  EF70  F011         	goto	i2u89_49
  5178   0022CE                     i2u89_48:
  5179   0022CE  0005               	push	
  5180   0022D0  6EFA               	movwf	pclath,c
  5181   0022D2  5029               	movf	_INT2_InterruptHandler^0,w,c
  5182   0022D4  6EFD               	movwf	tosl,c
  5183   0022D6  502A               	movf	(_INT2_InterruptHandler+1)^0,w,c
  5184   0022D8  6EFE               	movwf	tosh,c
  5185   0022DA  6AFF               	clrf	tosu,c
  5186   0022DC  50FA               	movf	pclath,w,c
  5187   0022DE  0012               	return		;indir
  5188   0022E0                     i2u89_49:
  5189   0022E0                     i2l1031:
  5190   0022E0  0012               	return		;funcret
  5191   0022E2                     __end_of_INT2_ISR:
  5192                           	callstack 0
  5193                           
  5194 ;; *************** function _INT1_ISR *****************
  5195 ;; Defined at:
  5196 ;;		line 86 in file "MCAL_Layer/Interrupt/mcal_external_interrupt.c"
  5197 ;; Parameters:    Size  Location     Type
  5198 ;;		None
  5199 ;; Auto vars:     Size  Location     Type
  5200 ;;		None
  5201 ;; Return value:  Size  Location     Type
  5202 ;;                  1    wreg      void 
  5203 ;; Registers used:
  5204 ;;		wreg, status,2, status,0, pcl, pclath, pclatu, tosl, cstack
  5205 ;; Tracked objects:
  5206 ;;		On entry : 0/0
  5207 ;;		On exit  : 0/0
  5208 ;;		Unchanged: 0/0
  5209 ;; Data sizes:     COMRAM   BANK0   BANK1   BANK2   BANK3   BANK4   BANK5   BANK6   BANK7   BANK8   BANK9  BANK10  BANK1
      +1  BANK12  BANK13  BANK14  BANK15
  5210 ;;      Params:         0       0       0       0       0       0       0       0       0       0       0       0       
      +0       0       0       0       0
  5211 ;;      Locals:         0       0       0       0       0       0       0       0       0       0       0       0       
      +0       0       0       0       0
  5212 ;;      Temps:          0       0       0       0       0       0       0       0       0       0       0       0       
      +0       0       0       0       0
  5213 ;;      Totals:         0       0       0       0       0       0       0       0       0       0       0       0       
      +0       0       0       0       0
  5214 ;;Total ram usage:        0 bytes
  5215 ;; Hardware stack levels used: 1
  5216 ;; Hardware stack levels required when called: 1
  5217 ;; This function calls:
  5218 ;;		NULL
  5219 ;;		_Int0_APP_ISR
  5220 ;;		_Int1_APP_ISR
  5221 ;;		_Int2_APP_ISR
  5222 ;; This function is called by:
  5223 ;;		_InterruptManager
  5224 ;; This function uses a non-reentrant model
  5225 ;;
  5226                           
  5227                           	psect	text38
  5228   0022E2                     __ptext38:
  5229                           	callstack 0
  5230   0022E2                     _INT1_ISR:
  5231                           	callstack 23
  5232   0022E2                     
  5233                           ;MCAL_Layer/Interrupt/mcal_external_interrupt.c: 88:     (INTCON3bits.INT1IF = 0);
  5234   0022E2  90F0               	bcf	240,0,c	;volatile
  5235   0022E4                     
  5236                           ;MCAL_Layer/Interrupt/mcal_external_interrupt.c: 91:     if(INT1_InterruptHandler){ INT1
      +                          _InterruptHandler(); }
  5237   0022E4  502B               	movf	_INT1_InterruptHandler^0,w,c
  5238   0022E6  102C               	iorwf	(_INT1_InterruptHandler+1)^0,w,c
  5239   0022E8  B4D8               	btfsc	status,2,c
  5240   0022EA  EF79  F011         	goto	i2u86_41
  5241   0022EE  EF7B  F011         	goto	i2u86_40
  5242   0022F2                     i2u86_41:
  5243   0022F2  EF87  F011         	goto	i2l1026
  5244   0022F6                     i2u86_40:
  5245   0022F6  D802               	call	i2u87_48
  5246   0022F8  EF87  F011         	goto	i2u87_49
  5247   0022FC                     i2u87_48:
  5248   0022FC  0005               	push	
  5249   0022FE  6EFA               	movwf	pclath,c
  5250   002300  502B               	movf	_INT1_InterruptHandler^0,w,c
  5251   002302  6EFD               	movwf	tosl,c
  5252   002304  502C               	movf	(_INT1_InterruptHandler+1)^0,w,c
  5253   002306  6EFE               	movwf	tosh,c
  5254   002308  6AFF               	clrf	tosu,c
  5255   00230A  50FA               	movf	pclath,w,c
  5256   00230C  0012               	return		;indir
  5257   00230E                     i2u87_49:
  5258   00230E                     i2l1026:
  5259   00230E  0012               	return		;funcret
  5260   002310                     __end_of_INT1_ISR:
  5261                           	callstack 0
  5262                           
  5263 ;; *************** function _INT0_ISR *****************
  5264 ;; Defined at:
  5265 ;;		line 74 in file "MCAL_Layer/Interrupt/mcal_external_interrupt.c"
  5266 ;; Parameters:    Size  Location     Type
  5267 ;;		None
  5268 ;; Auto vars:     Size  Location     Type
  5269 ;;		None
  5270 ;; Return value:  Size  Location     Type
  5271 ;;                  1    wreg      void 
  5272 ;; Registers used:
  5273 ;;		wreg, status,2, status,0, pcl, pclath, pclatu, tosl, cstack
  5274 ;; Tracked objects:
  5275 ;;		On entry : 0/0
  5276 ;;		On exit  : 0/0
  5277 ;;		Unchanged: 0/0
  5278 ;; Data sizes:     COMRAM   BANK0   BANK1   BANK2   BANK3   BANK4   BANK5   BANK6   BANK7   BANK8   BANK9  BANK10  BANK1
      +1  BANK12  BANK13  BANK14  BANK15
  5279 ;;      Params:         0       0       0       0       0       0       0       0       0       0       0       0       
      +0       0       0       0       0
  5280 ;;      Locals:         0       0       0       0       0       0       0       0       0       0       0       0       
      +0       0       0       0       0
  5281 ;;      Temps:          0       0       0       0       0       0       0       0       0       0       0       0       
      +0       0       0       0       0
  5282 ;;      Totals:         0       0       0       0       0       0       0       0       0       0       0       0       
      +0       0       0       0       0
  5283 ;;Total ram usage:        0 bytes
  5284 ;; Hardware stack levels used: 1
  5285 ;; Hardware stack levels required when called: 1
  5286 ;; This function calls:
  5287 ;;		NULL
  5288 ;;		_Int0_APP_ISR
  5289 ;;		_Int1_APP_ISR
  5290 ;;		_Int2_APP_ISR
  5291 ;; This function is called by:
  5292 ;;		_InterruptManager
  5293 ;; This function uses a non-reentrant model
  5294 ;;
  5295                           
  5296                           	psect	text39
  5297   002310                     __ptext39:
  5298                           	callstack 0
  5299   002310                     _INT0_ISR:
  5300                           	callstack 23
  5301   002310                     
  5302                           ;MCAL_Layer/Interrupt/mcal_external_interrupt.c: 76:     (INTCONbits.INT0IF = 0);
  5303   002310  92F2               	bcf	242,1,c	;volatile
  5304   002312                     
  5305                           ;MCAL_Layer/Interrupt/mcal_external_interrupt.c: 79:     if(INT0_InterruptHandler){ INT0
      +                          _InterruptHandler(); }
  5306   002312  502D               	movf	_INT0_InterruptHandler^0,w,c
  5307   002314  102E               	iorwf	(_INT0_InterruptHandler+1)^0,w,c
  5308   002316  B4D8               	btfsc	status,2,c
  5309   002318  EF90  F011         	goto	i2u84_41
  5310   00231C  EF92  F011         	goto	i2u84_40
  5311   002320                     i2u84_41:
  5312   002320  EF9E  F011         	goto	i2l1021
  5313   002324                     i2u84_40:
  5314   002324  D802               	call	i2u85_48
  5315   002326  EF9E  F011         	goto	i2u85_49
  5316   00232A                     i2u85_48:
  5317   00232A  0005               	push	
  5318   00232C  6EFA               	movwf	pclath,c
  5319   00232E  502D               	movf	_INT0_InterruptHandler^0,w,c
  5320   002330  6EFD               	movwf	tosl,c
  5321   002332  502E               	movf	(_INT0_InterruptHandler+1)^0,w,c
  5322   002334  6EFE               	movwf	tosh,c
  5323   002336  6AFF               	clrf	tosu,c
  5324   002338  50FA               	movf	pclath,w,c
  5325   00233A  0012               	return		;indir
  5326   00233C                     i2u85_49:
  5327   00233C                     i2l1021:
  5328   00233C  0012               	return		;funcret
  5329   00233E                     __end_of_INT0_ISR:
  5330                           	callstack 0
  5331                           
  5332 ;; *************** function _Int1_APP_ISR *****************
  5333 ;; Defined at:
  5334 ;;		line 137 in file "application.c"
  5335 ;; Parameters:    Size  Location     Type
  5336 ;;		None
  5337 ;; Auto vars:     Size  Location     Type
  5338 ;;		None
  5339 ;; Return value:  Size  Location     Type
  5340 ;;                  1    wreg      void 
  5341 ;; Registers used:
  5342 ;;		None
  5343 ;; Tracked objects:
  5344 ;;		On entry : 0/0
  5345 ;;		On exit  : 0/0
  5346 ;;		Unchanged: 0/0
  5347 ;; Data sizes:     COMRAM   BANK0   BANK1   BANK2   BANK3   BANK4   BANK5   BANK6   BANK7   BANK8   BANK9  BANK10  BANK1
      +1  BANK12  BANK13  BANK14  BANK15
  5348 ;;      Params:         0       0       0       0       0       0       0       0       0       0       0       0       
      +0       0       0       0       0
  5349 ;;      Locals:         0       0       0       0       0       0       0       0       0       0       0       0       
      +0       0       0       0       0
  5350 ;;      Temps:          0       0       0       0       0       0       0       0       0       0       0       0       
      +0       0       0       0       0
  5351 ;;      Totals:         0       0       0       0       0       0       0       0       0       0       0       0       
      +0       0       0       0       0
  5352 ;;Total ram usage:        0 bytes
  5353 ;; Hardware stack levels used: 1
  5354 ;; This function calls:
  5355 ;;		Nothing
  5356 ;; This function is called by:
  5357 ;;		_INT0_ISR
  5358 ;;		_INT1_ISR
  5359 ;;		_INT2_ISR
  5360 ;; This function uses a non-reentrant model
  5361 ;;
  5362                           
  5363                           	psect	text40
  5364   0024C6                     __ptext40:
  5365                           	callstack 0
  5366   0024C6                     _Int1_APP_ISR:
  5367                           	callstack 23
  5368   0024C6  9ED5               	bcf	213,7,c	;volatile
  5369   0024C8  0012               	return		;funcret
  5370   0024CA                     __end_of_Int1_APP_ISR:
  5371                           	callstack 0
  5372                           
  5373 ;; *************** function _Int0_APP_ISR *****************
  5374 ;; Defined at:
  5375 ;;		line 136 in file "application.c"
  5376 ;; Parameters:    Size  Location     Type
  5377 ;;		None
  5378 ;; Auto vars:     Size  Location     Type
  5379 ;;		None
  5380 ;; Return value:  Size  Location     Type
  5381 ;;                  1    wreg      void 
  5382 ;; Registers used:
  5383 ;;		None
  5384 ;; Tracked objects:
  5385 ;;		On entry : 0/0
  5386 ;;		On exit  : 0/0
  5387 ;;		Unchanged: 0/0
  5388 ;; Data sizes:     COMRAM   BANK0   BANK1   BANK2   BANK3   BANK4   BANK5   BANK6   BANK7   BANK8   BANK9  BANK10  BANK1
      +1  BANK12  BANK13  BANK14  BANK15
  5389 ;;      Params:         0       0       0       0       0       0       0       0       0       0       0       0       
      +0       0       0       0       0
  5390 ;;      Locals:         0       0       0       0       0       0       0       0       0       0       0       0       
      +0       0       0       0       0
  5391 ;;      Temps:          0       0       0       0       0       0       0       0       0       0       0       0       
      +0       0       0       0       0
  5392 ;;      Totals:         0       0       0       0       0       0       0       0       0       0       0       0       
      +0       0       0       0       0
  5393 ;;Total ram usage:        0 bytes
  5394 ;; Hardware stack levels used: 1
  5395 ;; This function calls:
  5396 ;;		Nothing
  5397 ;; This function is called by:
  5398 ;;		_INT0_ISR
  5399 ;;		_INT1_ISR
  5400 ;;		_INT2_ISR
  5401 ;; This function uses a non-reentrant model
  5402 ;;
  5403                           
  5404                           	psect	text41
  5405   0024CA                     __ptext41:
  5406                           	callstack 0
  5407   0024CA                     _Int0_APP_ISR:
  5408                           	callstack 23
  5409   0024CA  8ED5               	bsf	213,7,c	;volatile
  5410   0024CC  0012               	return		;funcret
  5411   0024CE                     __end_of_Int0_APP_ISR:
  5412                           	callstack 0
  5413                           
  5414 ;; *************** function _Int2_APP_ISR *****************
  5415 ;; Defined at:
  5416 ;;		line 138 in file "application.c"
  5417 ;; Parameters:    Size  Location     Type
  5418 ;;		None
  5419 ;; Auto vars:     Size  Location     Type
  5420 ;;		None
  5421 ;; Return value:  Size  Location     Type
  5422 ;;                  1    wreg      void 
  5423 ;; Registers used:
  5424 ;;		wreg, status,2
  5425 ;; Tracked objects:
  5426 ;;		On entry : 0/0
  5427 ;;		On exit  : 0/0
  5428 ;;		Unchanged: 0/0
  5429 ;; Data sizes:     COMRAM   BANK0   BANK1   BANK2   BANK3   BANK4   BANK5   BANK6   BANK7   BANK8   BANK9  BANK10  BANK1
      +1  BANK12  BANK13  BANK14  BANK15
  5430 ;;      Params:         0       0       0       0       0       0       0       0       0       0       0       0       
      +0       0       0       0       0
  5431 ;;      Locals:         0       0       0       0       0       0       0       0       0       0       0       0       
      +0       0       0       0       0
  5432 ;;      Temps:          0       0       0       0       0       0       0       0       0       0       0       0       
      +0       0       0       0       0
  5433 ;;      Totals:         0       0       0       0       0       0       0       0       0       0       0       0       
      +0       0       0       0       0
  5434 ;;Total ram usage:        0 bytes
  5435 ;; Hardware stack levels used: 1
  5436 ;; This function calls:
  5437 ;;		Nothing
  5438 ;; This function is called by:
  5439 ;;		_INT0_ISR
  5440 ;;		_INT1_ISR
  5441 ;;		_INT2_ISR
  5442 ;; This function uses a non-reentrant model
  5443 ;;
  5444                           
  5445                           	psect	text42
  5446   002488                     __ptext42:
  5447                           	callstack 0
  5448   002488                     _Int2_APP_ISR:
  5449                           	callstack 23
  5450   002488                     
  5451                           ;application.c: 139:   seconds = 0, minutes = 0, hours = 0;
  5452   002488  0E00               	movlw	0
  5453   00248A  6E3D               	movwf	_seconds^0,c
  5454   00248C  0E00               	movlw	0
  5455   00248E  6E3C               	movwf	_minutes^0,c
  5456   002490  0E00               	movlw	0
  5457   002492  6E3B               	movwf	_hours^0,c
  5458   002494                     
  5459                           ;application.c: 140:   (T0CONbits.TMR0ON = 0);
  5460   002494  9ED5               	bcf	213,7,c	;volatile
  5461   002496  0012               	return		;funcret
  5462   002498                     __end_of_Int2_APP_ISR:
  5463                           	callstack 0
  5464                           
  5465 ;; *************** function _EUSART_TX_ISR *****************
  5466 ;; Defined at:
  5467 ;;		line 260 in file "MCAL_Layer/usart/hal_usart.c"
  5468 ;; Parameters:    Size  Location     Type
  5469 ;;		None
  5470 ;; Auto vars:     Size  Location     Type
  5471 ;;		None
  5472 ;; Return value:  Size  Location     Type
  5473 ;;                  1    wreg      void 
  5474 ;; Registers used:
  5475 ;;		None
  5476 ;; Tracked objects:
  5477 ;;		On entry : 0/0
  5478 ;;		On exit  : 0/0
  5479 ;;		Unchanged: 0/0
  5480 ;; Data sizes:     COMRAM   BANK0   BANK1   BANK2   BANK3   BANK4   BANK5   BANK6   BANK7   BANK8   BANK9  BANK10  BANK1
      +1  BANK12  BANK13  BANK14  BANK15
  5481 ;;      Params:         0       0       0       0       0       0       0       0       0       0       0       0       
      +0       0       0       0       0
  5482 ;;      Locals:         0       0       0       0       0       0       0       0       0       0       0       0       
      +0       0       0       0       0
  5483 ;;      Temps:          0       0       0       0       0       0       0       0       0       0       0       0       
      +0       0       0       0       0
  5484 ;;      Totals:         0       0       0       0       0       0       0       0       0       0       0       0       
      +0       0       0       0       0
  5485 ;;Total ram usage:        0 bytes
  5486 ;; Hardware stack levels used: 1
  5487 ;; This function calls:
  5488 ;;		Nothing
  5489 ;; This function is called by:
  5490 ;;		_InterruptManager
  5491 ;; This function uses a non-reentrant model
  5492 ;;
  5493                           
  5494                           	psect	text43
  5495   0024CE                     __ptext43:
  5496                           	callstack 0
  5497   0024CE                     _EUSART_TX_ISR:
  5498                           	callstack 24
  5499   0024CE                     
  5500                           ;MCAL_Layer/usart/hal_usart.c: 261:   (PIE1bits.TXIE = 0);
  5501   0024CE  989D               	bcf	157,4,c	;volatile
  5502   0024D0  0012               	return		;funcret
  5503   0024D2                     __end_of_EUSART_TX_ISR:
  5504                           	callstack 0
  5505                           
  5506 ;; *************** function _EUSART_RX_ISR *****************
  5507 ;; Defined at:
  5508 ;;		line 268 in file "MCAL_Layer/usart/hal_usart.c"
  5509 ;; Parameters:    Size  Location     Type
  5510 ;;		None
  5511 ;; Auto vars:     Size  Location     Type
  5512 ;;		None
  5513 ;; Return value:  Size  Location     Type
  5514 ;;                  1    wreg      void 
  5515 ;; Registers used:
  5516 ;;		wreg, status,2, status,0
  5517 ;; Tracked objects:
  5518 ;;		On entry : 0/0
  5519 ;;		On exit  : 0/0
  5520 ;;		Unchanged: 0/0
  5521 ;; Data sizes:     COMRAM   BANK0   BANK1   BANK2   BANK3   BANK4   BANK5   BANK6   BANK7   BANK8   BANK9  BANK10  BANK1
      +1  BANK12  BANK13  BANK14  BANK15
  5522 ;;      Params:         0       0       0       0       0       0       0       0       0       0       0       0       
      +0       0       0       0       0
  5523 ;;      Locals:         0       0       0       0       0       0       0       0       0       0       0       0       
      +0       0       0       0       0
  5524 ;;      Temps:          0       0       0       0       0       0       0       0       0       0       0       0       
      +0       0       0       0       0
  5525 ;;      Totals:         0       0       0       0       0       0       0       0       0       0       0       0       
      +0       0       0       0       0
  5526 ;;Total ram usage:        0 bytes
  5527 ;; Hardware stack levels used: 1
  5528 ;; This function calls:
  5529 ;;		Nothing
  5530 ;; This function is called by:
  5531 ;;		_InterruptManager
  5532 ;; This function uses a non-reentrant model
  5533 ;;
  5534                           
  5535                           	psect	text44
  5536   0023E6                     __ptext44:
  5537                           	callstack 0
  5538   0023E6                     _EUSART_RX_ISR:
  5539                           	callstack 24
  5540   0023E6                     
  5541                           ;MCAL_Layer/usart/hal_usart.c: 273:   if (EUSART_FramingErrorHandler && RCSTAbits.FERR) 
      +                          {
  5542   0023E6  5003               	movf	_EUSART_FramingErrorHandler^0,w,c
  5543   0023E8  1004               	iorwf	(_EUSART_FramingErrorHandler+1)^0,w,c
  5544   0023EA  B4D8               	btfsc	status,2,c
  5545   0023EC  EFFA  F011         	goto	i2u96_41
  5546   0023F0  EFFC  F011         	goto	i2u96_40
  5547   0023F4                     i2u96_41:
  5548   0023F4  EFFD  F011         	goto	i2l3356
  5549   0023F8                     i2u96_40:
  5550   0023F8                     
  5551                           ;MCAL_Layer/usart/hal_usart.c: 274:     EUSART_FramingErrorHandler();
  5552   0023F8  50AB               	movf	171,w,c	;volatile
  5553   0023FA                     i2l3356:
  5554                           
  5555                           ;MCAL_Layer/usart/hal_usart.c: 277:   if (EUSART_OverrunErrorHandler && RCSTAbits.OERR) 
      +                          {
  5556   0023FA  5001               	movf	_EUSART_OverrunErrorHandler^0,w,c
  5557   0023FC  1002               	iorwf	(_EUSART_OverrunErrorHandler+1)^0,w,c
  5558   0023FE  B4D8               	btfsc	status,2,c
  5559   002400  EF04  F012         	goto	i2u97_41
  5560   002404  EF06  F012         	goto	i2u97_40
  5561   002408                     i2u97_41:
  5562   002408  EF07  F012         	goto	i2l1752
  5563   00240C                     i2u97_40:
  5564   00240C                     
  5565                           ;MCAL_Layer/usart/hal_usart.c: 278:     EUSART_OverrunErrorHandler();
  5566   00240C  50AB               	movf	171,w,c	;volatile
  5567   00240E                     i2l1752:
  5568   00240E  0012               	return		;funcret
  5569   002410                     __end_of_EUSART_RX_ISR:
  5570                           	callstack 0
  5571                           
  5572 ;; *************** function _CCP2_ISR *****************
  5573 ;; Defined at:
  5574 ;;		line 254 in file "MCAL_Layer/CCP/hal_ccp.c"
  5575 ;; Parameters:    Size  Location     Type
  5576 ;;		None
  5577 ;; Auto vars:     Size  Location     Type
  5578 ;;		None
  5579 ;; Return value:  Size  Location     Type
  5580 ;;                  1    wreg      void 
  5581 ;; Registers used:
  5582 ;;		None
  5583 ;; Tracked objects:
  5584 ;;		On entry : 0/0
  5585 ;;		On exit  : 0/0
  5586 ;;		Unchanged: 0/0
  5587 ;; Data sizes:     COMRAM   BANK0   BANK1   BANK2   BANK3   BANK4   BANK5   BANK6   BANK7   BANK8   BANK9  BANK10  BANK1
      +1  BANK12  BANK13  BANK14  BANK15
  5588 ;;      Params:         0       0       0       0       0       0       0       0       0       0       0       0       
      +0       0       0       0       0
  5589 ;;      Locals:         0       0       0       0       0       0       0       0       0       0       0       0       
      +0       0       0       0       0
  5590 ;;      Temps:          0       0       0       0       0       0       0       0       0       0       0       0       
      +0       0       0       0       0
  5591 ;;      Totals:         0       0       0       0       0       0       0       0       0       0       0       0       
      +0       0       0       0       0
  5592 ;;Total ram usage:        0 bytes
  5593 ;; Hardware stack levels used: 1
  5594 ;; This function calls:
  5595 ;;		Nothing
  5596 ;; This function is called by:
  5597 ;;		_InterruptManager
  5598 ;; This function uses a non-reentrant model
  5599 ;;
  5600                           
  5601                           	psect	text45
  5602   0024D2                     __ptext45:
  5603                           	callstack 0
  5604   0024D2                     _CCP2_ISR:
  5605                           	callstack 24
  5606   0024D2                     
  5607                           ;MCAL_Layer/CCP/hal_ccp.c: 255:     (PIR2bits.CCP2IF = 0);
  5608   0024D2  90A1               	bcf	161,0,c	;volatile
  5609   0024D4  0012               	return		;funcret
  5610   0024D6                     __end_of_CCP2_ISR:
  5611                           	callstack 0
  5612                           
  5613 ;; *************** function _CCP1_ISR *****************
  5614 ;; Defined at:
  5615 ;;		line 246 in file "MCAL_Layer/CCP/hal_ccp.c"
  5616 ;; Parameters:    Size  Location     Type
  5617 ;;		None
  5618 ;; Auto vars:     Size  Location     Type
  5619 ;;		None
  5620 ;; Return value:  Size  Location     Type
  5621 ;;                  1    wreg      void 
  5622 ;; Registers used:
  5623 ;;		None
  5624 ;; Tracked objects:
  5625 ;;		On entry : 0/0
  5626 ;;		On exit  : 0/0
  5627 ;;		Unchanged: 0/0
  5628 ;; Data sizes:     COMRAM   BANK0   BANK1   BANK2   BANK3   BANK4   BANK5   BANK6   BANK7   BANK8   BANK9  BANK10  BANK1
      +1  BANK12  BANK13  BANK14  BANK15
  5629 ;;      Params:         0       0       0       0       0       0       0       0       0       0       0       0       
      +0       0       0       0       0
  5630 ;;      Locals:         0       0       0       0       0       0       0       0       0       0       0       0       
      +0       0       0       0       0
  5631 ;;      Temps:          0       0       0       0       0       0       0       0       0       0       0       0       
      +0       0       0       0       0
  5632 ;;      Totals:         0       0       0       0       0       0       0       0       0       0       0       0       
      +0       0       0       0       0
  5633 ;;Total ram usage:        0 bytes
  5634 ;; Hardware stack levels used: 1
  5635 ;; This function calls:
  5636 ;;		Nothing
  5637 ;; This function is called by:
  5638 ;;		_InterruptManager
  5639 ;; This function uses a non-reentrant model
  5640 ;;
  5641                           
  5642                           	psect	text46
  5643   0024D6                     __ptext46:
  5644                           	callstack 0
  5645   0024D6                     _CCP1_ISR:
  5646                           	callstack 24
  5647   0024D6                     
  5648                           ;MCAL_Layer/CCP/hal_ccp.c: 247:     (PIR1bits.CCP1IF = 0);
  5649   0024D6  949E               	bcf	158,2,c	;volatile
  5650   0024D8  0012               	return		;funcret
  5651   0024DA                     __end_of_CCP1_ISR:
  5652                           	callstack 0
  5653                           
  5654 ;; *************** function _ADC_ISR *****************
  5655 ;; Defined at:
  5656 ;;		line 296 in file "MCAL_Layer/ADC/hal_adc.c"
  5657 ;; Parameters:    Size  Location     Type
  5658 ;;		None
  5659 ;; Auto vars:     Size  Location     Type
  5660 ;;		None
  5661 ;; Return value:  Size  Location     Type
  5662 ;;                  1    wreg      void 
  5663 ;; Registers used:
  5664 ;;		None
  5665 ;; Tracked objects:
  5666 ;;		On entry : 0/0
  5667 ;;		On exit  : 0/0
  5668 ;;		Unchanged: 0/0
  5669 ;; Data sizes:     COMRAM   BANK0   BANK1   BANK2   BANK3   BANK4   BANK5   BANK6   BANK7   BANK8   BANK9  BANK10  BANK1
      +1  BANK12  BANK13  BANK14  BANK15
  5670 ;;      Params:         0       0       0       0       0       0       0       0       0       0       0       0       
      +0       0       0       0       0
  5671 ;;      Locals:         0       0       0       0       0       0       0       0       0       0       0       0       
      +0       0       0       0       0
  5672 ;;      Temps:          0       0       0       0       0       0       0       0       0       0       0       0       
      +0       0       0       0       0
  5673 ;;      Totals:         0       0       0       0       0       0       0       0       0       0       0       0       
      +0       0       0       0       0
  5674 ;;Total ram usage:        0 bytes
  5675 ;; Hardware stack levels used: 1
  5676 ;; This function calls:
  5677 ;;		Nothing
  5678 ;; This function is called by:
  5679 ;;		_InterruptManager
  5680 ;; This function uses a non-reentrant model
  5681 ;;
  5682                           
  5683                           	psect	text47
  5684   0024DA                     __ptext47:
  5685                           	callstack 0
  5686   0024DA                     _ADC_ISR:
  5687                           	callstack 24
  5688   0024DA                     
  5689                           ;MCAL_Layer/ADC/hal_adc.c: 297:     (PIR1bits.ADIF = 0);
  5690   0024DA  9C9E               	bcf	158,6,c	;volatile
  5691   0024DC  0012               	return		;funcret
  5692   0024DE                     __end_of_ADC_ISR:
  5693                           	callstack 0
  5694                           
  5695                           	psect	text48
  5696   000000                     __ptext48:
  5697                           	callstack 0
  5698   000000                     
  5699                           	psect	rparam
  5700   000000                     
  5701                           	psect	temp
  5702   00007B                     btemp:
  5703                           	callstack 0
  5704   00007B                     	ds	1
  5705   000000                     int$flags	set	btemp
  5706   000000                     wtemp8	set	btemp+1
  5707   000000                     ttemp5	set	btemp+1
  5708   000000                     ttemp6	set	btemp+4
  5709   000000                     ttemp7	set	btemp+8
  5710                           
  5711                           	psect	idloc
  5712                           
  5713                           ;Config register IDLOC0 @ 0x200000
  5714                           ;	unspecified, using default values
  5715   200000                     	org	2097152
  5716   200000  FF                 	db	255
  5717                           
  5718                           ;Config register IDLOC1 @ 0x200001
  5719                           ;	unspecified, using default values
  5720   200001                     	org	2097153
  5721   200001  FF                 	db	255
  5722                           
  5723                           ;Config register IDLOC2 @ 0x200002
  5724                           ;	unspecified, using default values
  5725   200002                     	org	2097154
  5726   200002  FF                 	db	255
  5727                           
  5728                           ;Config register IDLOC3 @ 0x200003
  5729                           ;	unspecified, using default values
  5730   200003                     	org	2097155
  5731   200003  FF                 	db	255
  5732                           
  5733                           ;Config register IDLOC4 @ 0x200004
  5734                           ;	unspecified, using default values
  5735   200004                     	org	2097156
  5736   200004  FF                 	db	255
  5737                           
  5738                           ;Config register IDLOC5 @ 0x200005
  5739                           ;	unspecified, using default values
  5740   200005                     	org	2097157
  5741   200005  FF                 	db	255
  5742                           
  5743                           ;Config register IDLOC6 @ 0x200006
  5744                           ;	unspecified, using default values
  5745   200006                     	org	2097158
  5746   200006  FF                 	db	255
  5747                           
  5748                           ;Config register IDLOC7 @ 0x200007
  5749                           ;	unspecified, using default values
  5750   200007                     	org	2097159
  5751   200007  FF                 	db	255
  5752                           
  5753                           	psect	config
  5754                           
  5755                           ; Padding undefined space
  5756   300000                     	org	3145728
  5757   300000  FF                 	db	255
  5758                           
  5759                           ;Config register CONFIG1H @ 0x300001
  5760                           ;	Oscillator Selection bits
  5761                           ;	OSC = HS, HS oscillator
  5762                           ;	Fail-Safe Clock Monitor Enable bit
  5763                           ;	FCMEN = OFF, Fail-Safe Clock Monitor disabled
  5764                           ;	Internal/External Oscillator Switchover bit
  5765                           ;	IESO = OFF, Oscillator Switchover mode disabled
  5766   300001                     	org	3145729
  5767   300001  02                 	db	2
  5768                           
  5769                           ;Config register CONFIG2L @ 0x300002
  5770                           ;	Power-up Timer Enable bit
  5771                           ;	PWRT = OFF, PWRT disabled
  5772                           ;	Brown-out Reset Enable bits
  5773                           ;	BOREN = OFF, Brown-out Reset disabled in hardware and software
  5774                           ;	Brown Out Reset Voltage bits
  5775                           ;	BORV = 1, 
  5776   300002                     	org	3145730
  5777   300002  09                 	db	9
  5778                           
  5779                           ;Config register CONFIG2H @ 0x300003
  5780                           ;	Watchdog Timer Enable bit
  5781                           ;	WDT = OFF, WDT disabled (control is placed on the SWDTEN bit)
  5782                           ;	Watchdog Timer Postscale Select bits
  5783                           ;	WDTPS = 512, 1:512
  5784   300003                     	org	3145731
  5785   300003  12                 	db	18
  5786                           
  5787                           ; Padding undefined space
  5788   300004                     	org	3145732
  5789   300004  FF                 	db	255
  5790                           
  5791                           ;Config register CONFIG3H @ 0x300005
  5792                           ;	CCP2 MUX bit
  5793                           ;	CCP2MX = PORTC, CCP2 input/output is multiplexed with RC1
  5794                           ;	PORTB A/D Enable bit
  5795                           ;	PBADEN = OFF, PORTB<4:0> pins are configured as digital I/O on Reset
  5796                           ;	Low-Power Timer1 Oscillator Enable bit
  5797                           ;	LPT1OSC = OFF, Timer1 configured for higher power operation
  5798                           ;	MCLR Pin Enable bit
  5799                           ;	MCLRE = ON, MCLR pin enabled; RE3 input pin disabled
  5800   300005                     	org	3145733
  5801   300005  81                 	db	129
  5802                           
  5803                           ;Config register CONFIG4L @ 0x300006
  5804                           ;	Stack Full/Underflow Reset Enable bit
  5805                           ;	STVREN = ON, Stack full/underflow will cause Reset
  5806                           ;	Single-Supply ICSP Enable bit
  5807                           ;	LVP = OFF, Single-Supply ICSP disabled
  5808                           ;	Extended Instruction Set Enable bit
  5809                           ;	XINST = OFF, Instruction set extension and Indexed Addressing mode disabled (Legacy mo
      +                          de)
  5810                           ;	Background Debugger Enable bit
  5811                           ;	DEBUG = 0x1, unprogrammed default
  5812   300006                     	org	3145734
  5813   300006  81                 	db	129
  5814                           
  5815                           ; Padding undefined space
  5816   300007                     	org	3145735
  5817   300007  FF                 	db	255
  5818                           
  5819                           ;Config register CONFIG5L @ 0x300008
  5820                           ;	Code Protection bit
  5821                           ;	CP0 = OFF, Block 0 (000800-003FFFh) not code-protected
  5822                           ;	Code Protection bit
  5823                           ;	CP1 = OFF, Block 1 (004000-007FFFh) not code-protected
  5824                           ;	Code Protection bit
  5825                           ;	CP2 = OFF, Block 2 (008000-00BFFFh) not code-protected
  5826                           ;	Code Protection bit
  5827                           ;	CP3 = OFF, Block 3 (00C000-00FFFFh) not code-protected
  5828   300008                     	org	3145736
  5829   300008  0F                 	db	15
  5830                           
  5831                           ;Config register CONFIG5H @ 0x300009
  5832                           ;	Boot Block Code Protection bit
  5833                           ;	CPB = OFF, Boot block (000000-0007FFh) not code-protected
  5834                           ;	Data EEPROM Code Protection bit
  5835                           ;	CPD = OFF, Data EEPROM not code-protected
  5836   300009                     	org	3145737
  5837   300009  C0                 	db	192
  5838                           
  5839                           ;Config register CONFIG6L @ 0x30000A
  5840                           ;	Write Protection bit
  5841                           ;	WRT0 = OFF, Block 0 (000800-003FFFh) not write-protected
  5842                           ;	Write Protection bit
  5843                           ;	WRT1 = OFF, Block 1 (004000-007FFFh) not write-protected
  5844                           ;	Write Protection bit
  5845                           ;	WRT2 = OFF, Block 2 (008000-00BFFFh) not write-protected
  5846                           ;	Write Protection bit
  5847                           ;	WRT3 = OFF, Block 3 (00C000-00FFFFh) not write-protected
  5848   30000A                     	org	3145738
  5849   30000A  0F                 	db	15
  5850                           
  5851                           ;Config register CONFIG6H @ 0x30000B
  5852                           ;	Configuration Register Write Protection bit
  5853                           ;	WRTC = OFF, Configuration registers (300000-3000FFh) not write-protected
  5854                           ;	Boot Block Write Protection bit
  5855                           ;	WRTB = OFF, Boot Block (000000-0007FFh) not write-protected
  5856                           ;	Data EEPROM Write Protection bit
  5857                           ;	WRTD = OFF, Data EEPROM not write-protected
  5858   30000B                     	org	3145739
  5859   30000B  E0                 	db	224
  5860                           
  5861                           ;Config register CONFIG7L @ 0x30000C
  5862                           ;	Table Read Protection bit
  5863                           ;	EBTR0 = OFF, Block 0 (000800-003FFFh) not protected from table reads executed in other
      +                           blocks
  5864                           ;	Table Read Protection bit
  5865                           ;	EBTR1 = OFF, Block 1 (004000-007FFFh) not protected from table reads executed in other
      +                           blocks
  5866                           ;	Table Read Protection bit
  5867                           ;	EBTR2 = OFF, Block 2 (008000-00BFFFh) not protected from table reads executed in other
      +                           blocks
  5868                           ;	Table Read Protection bit
  5869                           ;	EBTR3 = OFF, Block 3 (00C000-00FFFFh) not protected from table reads executed in other
      +                           blocks
  5870   30000C                     	org	3145740
  5871   30000C  0F                 	db	15
  5872                           
  5873                           ;Config register CONFIG7H @ 0x30000D
  5874                           ;	Boot Block Table Read Protection bit
  5875                           ;	EBTRB = OFF, Boot Block (000000-0007FFh) not protected from table reads executed in ot
      +                          her blocks
  5876   30000D                     	org	3145741
  5877   30000D  40                 	db	64
  5878                           tosu	equ	0xFFF
  5879                           tosh	equ	0xFFE
  5880                           tosl	equ	0xFFD
  5881                           stkptr	equ	0xFFC
  5882                           pclatu	equ	0xFFB
  5883                           pclath	equ	0xFFA
  5884                           pcl	equ	0xFF9
  5885                           tblptru	equ	0xFF8
  5886                           tblptrh	equ	0xFF7
  5887                           tblptrl	equ	0xFF6
  5888                           tablat	equ	0xFF5
  5889                           prodh	equ	0xFF4
  5890                           prodl	equ	0xFF3
  5891                           indf0	equ	0xFEF
  5892                           postinc0	equ	0xFEE
  5893                           postdec0	equ	0xFED
  5894                           preinc0	equ	0xFEC
  5895                           plusw0	equ	0xFEB
  5896                           fsr0h	equ	0xFEA
  5897                           fsr0l	equ	0xFE9
  5898                           wreg	equ	0xFE8
  5899                           indf1	equ	0xFE7
  5900                           postinc1	equ	0xFE6
  5901                           postdec1	equ	0xFE5
  5902                           preinc1	equ	0xFE4
  5903                           plusw1	equ	0xFE3
  5904                           fsr1h	equ	0xFE2
  5905                           fsr1l	equ	0xFE1
  5906                           bsr	equ	0xFE0
  5907                           indf2	equ	0xFDF
  5908                           postinc2	equ	0xFDE
  5909                           postdec2	equ	0xFDD
  5910                           preinc2	equ	0xFDC
  5911                           plusw2	equ	0xFDB
  5912                           fsr2h	equ	0xFDA
  5913                           fsr2l	equ	0xFD9
  5914                           status	equ	0xFD8

Data Sizes:
    Strings     3
    Constant    16
    Data        105
    BSS         68
    Persistent  0
    Stack       0

Auto Spaces:
    Space          Size  Autos    Used
    COMRAM          126     18     122
    BANK0           128      3      72
    BANK1           256      0       0
    BANK2           256      0       0
    BANK3           256      0       0
    BANK4           256      0       0
    BANK5           256      0       0
    BANK6           256      0       0
    BANK7           256      0       0
    BANK8           256      0       0
    BANK9           256      0       0
    BANK10          256      0       0
    BANK11          256      0       0
    BANK12          256      0       0
    BANK13          256      0       0
    BANK14          256      0       0
    BANK15          128      0       0

Pointer List with Targets:

    vfprintf$2	PTR PTR void  size(2) Largest target is 2
		 -> sprintf@ap(COMRAM[2]), 

    vfprintf$1	PTR const unsigned char  size(2) Largest target is 3
		 -> STR_3(CODE[3]), STR_2(CODE[3]), STR_1(CODE[3]), 

    vfprintf$0	PTR struct _IO_FILE size(2) Largest target is 12
		 -> sprintf@f(COMRAM[12]), 

    S5096$source	PTR const unsigned char  size(2) Largest target is 0

    f...source	PTR const unsigned char  size(2) Largest target is 0

    S5096$buffer	PTR unsigned char  size(2) Largest target is 0

    f...buffer	PTR unsigned char  size(2) Largest target is 0

    int2_obj.EXT_InterruptHandler	PTR FTN()void  size(2) Largest target is 1
		 -> Int2_APP_ISR(), Int1_APP_ISR(), Int0_APP_ISR(), 

    int1_obj.EXT_InterruptHandler	PTR FTN()void  size(2) Largest target is 1
		 -> Int2_APP_ISR(), Int1_APP_ISR(), Int0_APP_ISR(), 

    int0_obj.EXT_InterruptHandler	PTR FTN()void  size(2) Largest target is 1
		 -> Int2_APP_ISR(), Int1_APP_ISR(), Int0_APP_ISR(), 

    timer0.TMR0_InterruptHandler	PTR FTN()void  size(2) Largest target is 1
		 -> TMR0_DefaultInterruptHandler(), 

    EUSART_OverrunErrorHandler	PTR FTN()void  size(2) Largest target is 1
		 -> NULL(), 

    EUSART_FramingErrorHandler	PTR FTN()void  size(2) Largest target is 1
		 -> NULL(), 

    EUSART_RxInterruptHandler	PTR FTN()void  size(2) Largest target is 1
		 -> NULL(), 

    EUSART_ASYNC_RX_Init@_eusart.EUSART_OverrunErrorHandler	PTR FTN()void  size(2) Largest target is 0

    EUSART_ASYNC_RX_Init@_eusart.EUSART_FramingErrorHandler	PTR FTN()void  size(2) Largest target is 0

    EUSART_ASYNC_RX_Init@_eusart.EUSART_RxDefaultInterruptHandler	PTR FTN()void  size(2) Largest target is 0

    EUSART_ASYNC_RX_Init@_eusart.EUSART_TxDefaultInterruptHandler	PTR FTN()void  size(2) Largest target is 0

    EUSART_TxInterruptHandler	PTR FTN()void  size(2) Largest target is 1
		 -> NULL(), 

    EUSART_ASYNC_TX_Init@_eusart.EUSART_OverrunErrorHandler	PTR FTN()void  size(2) Largest target is 0

    EUSART_ASYNC_TX_Init@_eusart.EUSART_FramingErrorHandler	PTR FTN()void  size(2) Largest target is 0

    EUSART_ASYNC_TX_Init@_eusart.EUSART_RxDefaultInterruptHandler	PTR FTN()void  size(2) Largest target is 0

    EUSART_ASYNC_TX_Init@_eusart.EUSART_TxDefaultInterruptHandler	PTR FTN()void  size(2) Largest target is 0

    S4036$EUSART_OverrunErrorHandler	PTR FTN()void  size(2) Largest target is 0

    EUSART_Baud_Rate_Calculation@_eusart.EUSART_OverrunErrorHandler	PTR FTN()void  size(2) Largest target is 0

    S4036$EUSART_FramingErrorHandler	PTR FTN()void  size(2) Largest target is 0

    EUSART_Baud_Rate_Calculation@_eusart.EUSART_FramingErrorHandler	PTR FTN()void  size(2) Largest target is 0

    S4036$EUSART_RxDefaultInterruptHandler	PTR FTN()void  size(2) Largest target is 0

    EUSART_Baud_Rate_Calculation@_eusart.EUSART_RxDefaultInterruptHandler	PTR FTN()void  size(2) Largest target is 0

    S4036$EUSART_TxDefaultInterruptHandler	PTR FTN()void  size(2) Largest target is 0

    EUSART_Baud_Rate_Calculation@_eusart.EUSART_TxDefaultInterruptHandler	PTR FTN()void  size(2) Largest target is 0

    Timer3_Mode_Select@_timer.TMR3_InterruptHandler	PTR FTN()void  size(2) Largest target is 0

    TMR3_InterruptHandler	PTR FTN()void  size(2) Largest target is 1
		 -> NULL(), 

    S3842$TMR3_InterruptHandler	PTR FTN()void  size(2) Largest target is 0

    Timer3_Init@_timer.TMR3_InterruptHandler	PTR FTN()void  size(2) Largest target is 0

    TMR2_InterruptHandler	PTR FTN()void  size(2) Largest target is 1
		 -> NULL(), 

    S3713$TMR2_InterruptHandler	PTR FTN()void  size(2) Largest target is 0

    Timer2_Init@_timer.TMR2_InterruptHandler	PTR FTN()void  size(2) Largest target is 0

    Timer1_Mode_Select@_timer.TMR1_InterruptHandler	PTR FTN()void  size(2) Largest target is 0

    TMR1_InterruptHandler	PTR FTN()volatile void  size(2) Largest target is 1
		 -> NULL(), 

    S3523$TMR1_InterruptHandler	PTR FTN()void  size(2) Largest target is 0

    Timer1_Init@_timer.TMR1_InterruptHandler	PTR FTN()void  size(2) Largest target is 0

    Timer0_Register_Size_Config@_timer.TMR0_InterruptHandler	PTR FTN()void  size(2) Largest target is 1
		 -> TMR0_DefaultInterruptHandler(), 

    Timer0_Register_Size_Config@_timer	PTR const struct . size(2) Largest target is 7
		 -> timer0(BANK0[7]), 

    Timer0_Mode_Select@_timer.TMR0_InterruptHandler	PTR FTN()void  size(2) Largest target is 1
		 -> TMR0_DefaultInterruptHandler(), 

    Timer0_Mode_Select@_timer	PTR const struct . size(2) Largest target is 7
		 -> timer0(BANK0[7]), 

    Timer0_Prescaler_Config@_timer.TMR0_InterruptHandler	PTR FTN()void  size(2) Largest target is 1
		 -> TMR0_DefaultInterruptHandler(), 

    Timer0_Prescaler_Config@_timer	PTR const struct . size(2) Largest target is 7
		 -> timer0(BANK0[7]), 

    TMR0_InterruptHandler	PTR FTN()void  size(2) Largest target is 1
		 -> TMR0_DefaultInterruptHandler(), NULL(), 

    S3358$TMR0_InterruptHandler	PTR FTN()void  size(2) Largest target is 1
		 -> TMR0_DefaultInterruptHandler(), 

    Timer0_Init@_timer.TMR0_InterruptHandler	PTR FTN()void  size(2) Largest target is 1
		 -> TMR0_DefaultInterruptHandler(), 

    Timer0_Init@_timer	PTR const struct . size(2) Largest target is 7
		 -> timer0(BANK0[7]), 

    MSSP_SPI_Slave_Mode_GPIO_PIN_Configurations@Config.MSSP_SPI_InterruptHandler	PTR FTN()void  size(2) Largest target is 0

    MSSP_SPI_Interrupt_Init@Config.MSSP_SPI_InterruptHandler	PTR FTN()void  size(2) Largest target is 0

    SPI_InterruptHandler	PTR FTN()void  size(2) Largest target is 1
		 -> NULL(), 

    S3021$MSSP_SPI_InterruptHandler	PTR FTN()void  size(2) Largest target is 0

    SPI_Init@Config.MSSP_SPI_InterruptHandler	PTR FTN()void  size(2) Largest target is 0

    Interrupt_INTx_SetInterruptHandler@int_obj.EXT_InterruptHandler	PTR FTN()void  size(2) Largest target is 1
		 -> Int2_APP_ISR(), Int1_APP_ISR(), Int0_APP_ISR(), 

    Interrupt_INTx_SetInterruptHandler@int_obj	PTR const struct . size(2) Largest target is 6
		 -> int2_obj(BANK0[6]), int1_obj(BANK0[6]), int0_obj(COMRAM[6]), 

    INT2_SetInterruptHandler@InterruptHandler	PTR FTN()void  size(2) Largest target is 1
		 -> Int2_APP_ISR(), Int1_APP_ISR(), Int0_APP_ISR(), 

    INT1_SetInterruptHandler@InterruptHandler	PTR FTN()void  size(2) Largest target is 1
		 -> Int2_APP_ISR(), Int1_APP_ISR(), Int0_APP_ISR(), 

    INT0_SetInterruptHandler@InterruptHandler	PTR FTN()void  size(2) Largest target is 1
		 -> Int2_APP_ISR(), Int1_APP_ISR(), Int0_APP_ISR(), 

    Interrupt_INTx_Clear_Flag@int_obj.EXT_InterruptHandler	PTR FTN()void  size(2) Largest target is 1
		 -> Int2_APP_ISR(), Int1_APP_ISR(), Int0_APP_ISR(), 

    Interrupt_INTx_Clear_Flag@int_obj	PTR const struct . size(2) Largest target is 6
		 -> int2_obj(BANK0[6]), int1_obj(BANK0[6]), int0_obj(COMRAM[6]), 

    Interrupt_INTx_Pin_Init@int_obj.EXT_InterruptHandler	PTR FTN()void  size(2) Largest target is 1
		 -> Int2_APP_ISR(), Int1_APP_ISR(), Int0_APP_ISR(), 

    Interrupt_INTx_Pin_Init@int_obj	PTR const struct . size(2) Largest target is 6
		 -> int2_obj(BANK0[6]), int1_obj(BANK0[6]), int0_obj(COMRAM[6]), 

    Interrupt_INTx_Edge_Init@int_obj.EXT_InterruptHandler	PTR FTN()void  size(2) Largest target is 1
		 -> Int2_APP_ISR(), Int1_APP_ISR(), Int0_APP_ISR(), 

    Interrupt_INTx_Edge_Init@int_obj	PTR const struct . size(2) Largest target is 6
		 -> int2_obj(BANK0[6]), int1_obj(BANK0[6]), int0_obj(COMRAM[6]), 

    Interrupt_INTx_Disable@int_obj.EXT_InterruptHandler	PTR FTN()void  size(2) Largest target is 1
		 -> Int2_APP_ISR(), Int1_APP_ISR(), Int0_APP_ISR(), 

    Interrupt_INTx_Disable@int_obj	PTR const struct . size(2) Largest target is 6
		 -> int2_obj(BANK0[6]), int1_obj(BANK0[6]), int0_obj(COMRAM[6]), 

    S2398$EXT_InterruptHandler	PTR FTN()void  size(2) Largest target is 1
		 -> Int2_APP_ISR(), Int1_APP_ISR(), Int0_APP_ISR(), 

    Interrupt_INTx_Enable@int_obj.EXT_InterruptHandler	PTR FTN()void  size(2) Largest target is 1
		 -> Int2_APP_ISR(), Int1_APP_ISR(), Int0_APP_ISR(), 

    Interrupt_INTx_Enable@int_obj	PTR const struct . size(2) Largest target is 6
		 -> int2_obj(BANK0[6]), int1_obj(BANK0[6]), int0_obj(COMRAM[6]), 

    S2514$EXT_InterruptHandler_LOW	PTR FTN()void  size(2) Largest target is 0

    Interrupt_RBx_Init@int_obj.EXT_InterruptHandler_LOW	PTR FTN()void  size(2) Largest target is 0

    S2514$EXT_InterruptHandler_HIGH	PTR FTN()void  size(2) Largest target is 0

    Interrupt_RBx_Init@int_obj.EXT_InterruptHandler_HIGH	PTR FTN()void  size(2) Largest target is 0

    RB7_InterruptHandler_LOW	PTR FTN()void  size(2) Largest target is 1
		 -> NULL(), 

    RB7_InterruptHandler_HIGH	PTR FTN()void  size(2) Largest target is 1
		 -> NULL(), 

    RB6_InterruptHandler_LOW	PTR FTN()void  size(2) Largest target is 1
		 -> NULL(), 

    RB6_InterruptHandler_HIGH	PTR FTN()void  size(2) Largest target is 1
		 -> NULL(), 

    RB5_InterruptHandler_LOW	PTR FTN()void  size(2) Largest target is 1
		 -> NULL(), 

    RB5_InterruptHandler_HIGH	PTR FTN()void  size(2) Largest target is 1
		 -> NULL(), 

    RB4_InterruptHandler_LOW	PTR FTN()void  size(2) Largest target is 1
		 -> NULL(), 

    RB4_InterruptHandler_HIGH	PTR FTN()void  size(2) Largest target is 1
		 -> NULL(), 

    INT2_InterruptHandler	PTR FTN()void  size(2) Largest target is 1
		 -> Int2_APP_ISR(), Int1_APP_ISR(), Int0_APP_ISR(), NULL(), 

    INT1_InterruptHandler	PTR FTN()void  size(2) Largest target is 1
		 -> Int2_APP_ISR(), Int1_APP_ISR(), Int0_APP_ISR(), NULL(), 

    INT0_InterruptHandler	PTR FTN()void  size(2) Largest target is 1
		 -> Int2_APP_ISR(), Int1_APP_ISR(), Int0_APP_ISR(), NULL(), 

    Interrupt_INTx_Init@int_obj	PTR const struct . size(2) Largest target is 6
		 -> int2_obj(BANK0[6]), int1_obj(BANK0[6]), int0_obj(COMRAM[6]), 

    I2C_Report_Receive_Overflow_InterruptHandle	PTR FTN()void  size(2) Largest target is 1
		 -> NULL(), 

    MSSP_I2C_Interrupt_Configurations@i2c_obj.I2C_Report_Receive_Overflow	PTR FTN()void  size(2) Largest target is 0

    MSSP_I2C_Interrupt_Configurations@i2c_obj.I2C_DefaultInterruptHandler	PTR FTN()void  size(2) Largest target is 0

    MSSP_I2C_Interrupt_Configurations@i2c_obj.I2C_Report_Write_Collision	PTR FTN()void  size(2) Largest target is 0

    I2C_Slave_Mode_Configurations@i2c_obj.I2C_Report_Receive_Overflow	PTR FTN()void  size(2) Largest target is 0

    I2C_Slave_Mode_Configurations@i2c_obj.I2C_DefaultInterruptHandler	PTR FTN()void  size(2) Largest target is 0

    I2C_Slave_Mode_Configurations@i2c_obj.I2C_Report_Write_Collision	PTR FTN()void  size(2) Largest target is 0

    I2C_Master_Mode_Clock_Configurations@i2c_obj.I2C_Report_Receive_Overflow	PTR FTN()void  size(2) Largest target is 0

    I2C_Master_Mode_Clock_Configurations@i2c_obj.I2C_DefaultInterruptHandler	PTR FTN()void  size(2) Largest target is 0

    I2C_Master_Mode_Clock_Configurations@i2c_obj.I2C_Report_Write_Collision	PTR FTN()void  size(2) Largest target is 0

    I2C_Report_Write_Collision_InterruptHandler	PTR FTN()void  size(2) Largest target is 1
		 -> NULL(), 

    I2C_DefaultInterruptHandle	PTR FTN()void  size(2) Largest target is 1
		 -> NULL(), 

    S1856$I2C_Report_Receive_Overflow	PTR FTN()void  size(2) Largest target is 0

    MSSP_I2C_Init@i2c_obj.I2C_Report_Receive_Overflow	PTR FTN()void  size(2) Largest target is 0

    S1856$I2C_DefaultInterruptHandler	PTR FTN()void  size(2) Largest target is 0

    MSSP_I2C_Init@i2c_obj.I2C_DefaultInterruptHandler	PTR FTN()void  size(2) Largest target is 0

    S1856$I2C_Report_Write_Collision	PTR FTN()void  size(2) Largest target is 0

    MSSP_I2C_Init@i2c_obj.I2C_Report_Write_Collision	PTR FTN()void  size(2) Largest target is 0

    gpio_pin_intialize@_pin_config	PTR const struct . size(2) Largest target is 5
		 -> seg5_enable(COMRAM[1]), seg4_enable(COMRAM[1]), seg3_enable(COMRAM[1]), seg2_enable(COMRAM[1]), 
		 -> seg1_enable(COMRAM[1]), seg6_enable(COMRAM[1]), seg1.segment_pins(COMRAM[4]), seg1(COMRAM[5]), 

    gpio_pin_write_logic@_pin_config	PTR const struct . size(2) Largest target is 5
		 -> seg5_enable(COMRAM[1]), seg4_enable(COMRAM[1]), seg3_enable(COMRAM[1]), seg2_enable(COMRAM[1]), 
		 -> seg1_enable(COMRAM[1]), seg6_enable(COMRAM[1]), seg1.segment_pins(COMRAM[4]), seg1(COMRAM[5]), 

    gpio_pin_direction_intialize@_pin_config	PTR const struct . size(2) Largest target is 6
		 -> seg5_enable(COMRAM[1]), seg4_enable(COMRAM[1]), seg3_enable(COMRAM[1]), seg2_enable(COMRAM[1]), 
		 -> seg1_enable(COMRAM[1]), seg6_enable(COMRAM[1]), int2_obj(BANK0[6]), int1_obj(BANK0[6]), 
		 -> int0_obj(COMRAM[6]), MSSP_SPI_Slave_Mode_GPIO_PIN_Configurations@SPI_SS(COMRAM[1]), MSSP_SPI_Slave_Mode_GPIO_PIN_Configurations@SPI_CLK(COMRAM[1]), MSSP_SPI_Slave_Mode_GPIO_PIN_Configurations@SPI_SDI(COMRAM[1]), 
		 -> MSSP_SPI_Slave_Mode_GPIO_PIN_Configurations@SPI_SDO(COMRAM[1]), MSSP_SPI_Msster_Mode_GPIO_PIN_Configurations@SPI_CLK(COMRAM[1]), MSSP_SPI_Msster_Mode_GPIO_PIN_Configurations@SPI_SDI(COMRAM[1]), MSSP_SPI_Msster_Mode_GPIO_PIN_Configurations@SPI_SDO(COMRAM[1]), 
		 -> seg1.segment_pins(COMRAM[4]), seg1(COMRAM[5]), 

    port_registers	PTR volatile unsigned char [5] size(2) Largest target is 1
		 -> PORTE(BITBIGSFRlllll[1]), PORTD(BITBIGSFRlllll[1]), PORTC(BITBIGSFRlllll[1]), PORTB(BITBIGSFRlllll[1]), 
		 -> PORTA(BITBIGSFRlllll[1]), 

    lat_registers	PTR volatile unsigned char [5] size(2) Largest target is 1
		 -> LATE(BITBIGSFRllllh[1]), LATD(BITBIGSFRllllh[1]), LATC(BITBIGSFRllllh[1]), LATB(BITBIGSFRllllh[1]), 
		 -> LATA(BITBIGSFRlllll[1]), 

    tris_registers	PTR volatile unsigned char [5] size(2) Largest target is 1
		 -> TRISD(ABS[1]), TRISC(ABS[1]), TRISB(ABS[1]), TRISE(ABS[1]), 
		 -> TRISA(BITBIGSFRlllll[1]), 

    CCP_Compare_Mode_Config@_ccp_obj.CCP2_InterruptHandler	PTR FTN()void  size(2) Largest target is 0

    CCP_Compare_Mode_Config@_ccp_obj.CCP1_InterruptHandler	PTR FTN()void  size(2) Largest target is 0

    CCP_Capture_Mode_Config@_ccp_obj.CCP2_InterruptHandler	PTR FTN()void  size(2) Largest target is 0

    CCP_Capture_Mode_Config@_ccp_obj.CCP1_InterruptHandler	PTR FTN()void  size(2) Largest target is 0

    CCP_Mode_Timer_Select@_ccp_obj.CCP2_InterruptHandler	PTR FTN()void  size(2) Largest target is 0

    CCP_Mode_Timer_Select@_ccp_obj.CCP1_InterruptHandler	PTR FTN()void  size(2) Largest target is 0

    CCP_Interrupt_Config@_ccp_obj.CCP2_InterruptHandler	PTR FTN()void  size(2) Largest target is 0

    CCP_Interrupt_Config@_ccp_obj.CCP1_InterruptHandler	PTR FTN()void  size(2) Largest target is 0

    CCP_PWM_Mode_Config@_ccp_obj.CCP2_InterruptHandler	PTR FTN()void  size(2) Largest target is 0

    CCP_PWM_Mode_Config@_ccp_obj.CCP1_InterruptHandler	PTR FTN()void  size(2) Largest target is 0

    CCP2_InterruptHandler	PTR FTN()void  size(2) Largest target is 1
		 -> NULL(), 

    CCP1_InterruptHandler	PTR FTN()void  size(2) Largest target is 1
		 -> NULL(), 

    CCP_PWM_Stop@_ccp_obj.CCP2_InterruptHandler	PTR FTN()void  size(2) Largest target is 0

    CCP_PWM_Stop@_ccp_obj.CCP1_InterruptHandler	PTR FTN()void  size(2) Largest target is 0

    CCP_PWM_Start@_ccp_obj.CCP2_InterruptHandler	PTR FTN()void  size(2) Largest target is 0

    CCP_PWM_Start@_ccp_obj.CCP1_InterruptHandler	PTR FTN()void  size(2) Largest target is 0

    CCP_PWM_Set_Duty@_ccp_obj.CCP2_InterruptHandler	PTR FTN()void  size(2) Largest target is 0

    CCP_PWM_Set_Duty@_ccp_obj.CCP1_InterruptHandler	PTR FTN()void  size(2) Largest target is 0

    CCP_DeInit@_ccp_obj.CCP2_InterruptHandler	PTR FTN()void  size(2) Largest target is 0

    CCP_DeInit@_ccp_obj.CCP1_InterruptHandler	PTR FTN()void  size(2) Largest target is 0

    S1145$CCP2_InterruptHandler	PTR FTN()void  size(2) Largest target is 0

    CCP_Init@_ccp_obj.CCP2_InterruptHandler	PTR FTN()void  size(2) Largest target is 0

    S1145$CCP1_InterruptHandler	PTR FTN()void  size(2) Largest target is 0

    CCP_Init@_ccp_obj.CCP1_InterruptHandler	PTR FTN()void  size(2) Largest target is 0

    configure_voltage_reference@_adc.ADC_InterruptHandler	PTR FTN()void  size(2) Largest target is 0

    select_result_format@_adc.ADC_InterruptHandler	PTR FTN()void  size(2) Largest target is 0

    ADC_GetConversionResult@_adc.ADC_InterruptHandler	PTR FTN()void  size(2) Largest target is 0

    ADC_InterruptHandler	PTR FTN()void  size(2) Largest target is 1
		 -> NULL(), 

    S727$ADC_InterruptHandler	PTR FTN()void  size(2) Largest target is 0

    ADC_Init@_adc.ADC_InterruptHandler	PTR FTN()void  size(2) Largest target is 0

    sp__memset	PTR void  size(2) Largest target is 0

    seven_segement_write_number@seg	PTR const struct . size(2) Largest target is 5
		 -> seg1(COMRAM[5]), 

    seven_segement_intialize@seg	PTR const struct . size(2) Largest target is 5
		 -> seg1(COMRAM[5]), 


Critical Paths under _main in COMRAM

    _main->_seven_segement_write_number
    _seven_segement_write_number->_gpio_pin_write_logic
    _application_initialize->_Interrupt_INTx_Init
    _application_initialize->_gpio_pin_intialize
    _seven_segement_intialize->_gpio_pin_intialize
    _gpio_pin_intialize->_gpio_pin_write_logic
    _Timer0_Init->_Timer0_Prescaler_Config
    _Interrupt_INTx_Init->_Interrupt_INTx_Pin_Init
    _Interrupt_INTx_SetInterruptHandler->_INT0_SetInterruptHandler
    _Interrupt_INTx_SetInterruptHandler->_INT1_SetInterruptHandler
    _Interrupt_INTx_SetInterruptHandler->_INT2_SetInterruptHandler
    _Interrupt_INTx_Pin_Init->_gpio_pin_direction_intialize

Critical Paths under _InterruptManager in COMRAM

    _InterruptManager->_RB4_ISR
    _InterruptManager->_RB5_ISR
    _InterruptManager->_RB6_ISR
    _InterruptManager->_RB7_ISR

Critical Paths under _main in BANK0

    _ecu_layer_init->_seven_segement_intialize

Critical Paths under _InterruptManager in BANK0

    None.

Critical Paths under _main in BANK1

    None.

Critical Paths under _InterruptManager in BANK1

    None.

Critical Paths under _main in BANK2

    None.

Critical Paths under _InterruptManager in BANK2

    None.

Critical Paths under _main in BANK3

    None.

Critical Paths under _InterruptManager in BANK3

    None.

Critical Paths under _main in BANK4

    None.

Critical Paths under _InterruptManager in BANK4

    None.

Critical Paths under _main in BANK5

    None.

Critical Paths under _InterruptManager in BANK5

    None.

Critical Paths under _main in BANK6

    None.

Critical Paths under _InterruptManager in BANK6

    None.

Critical Paths under _main in BANK7

    None.

Critical Paths under _InterruptManager in BANK7

    None.

Critical Paths under _main in BANK8

    None.

Critical Paths under _InterruptManager in BANK8

    None.

Critical Paths under _main in BANK9

    None.

Critical Paths under _InterruptManager in BANK9

    None.

Critical Paths under _main in BANK10

    None.

Critical Paths under _InterruptManager in BANK10

    None.

Critical Paths under _main in BANK11

    None.

Critical Paths under _InterruptManager in BANK11

    None.

Critical Paths under _main in BANK12

    None.

Critical Paths under _InterruptManager in BANK12

    None.

Critical Paths under _main in BANK13

    None.

Critical Paths under _InterruptManager in BANK13

    None.

Critical Paths under _main in BANK14

    None.

Critical Paths under _InterruptManager in BANK14

    None.

Critical Paths under _main in BANK15

    None.

Critical Paths under _InterruptManager in BANK15

    None.

Call Graph Tables:

 ---------------------------------------------------------------------------------
 (Depth) Function   	        Calls       Base Space   Used Autos Params    Refs
 ---------------------------------------------------------------------------------
 (0) _main                                                 1     1      0   48879
                            ___awdiv
                            ___awmod
             _application_initialize
               _gpio_pin_write_logic
        _seven_segement_write_number
 ---------------------------------------------------------------------------------
 (1) _seven_segement_write_number                          4     1      3    9796
                                             14 COMRAM     4     1      3
                            ___awdiv (ARG)
                            ___awmod (ARG)
               _gpio_pin_write_logic
 ---------------------------------------------------------------------------------
 (1) _application_initialize                               1     1      0   29161
                _Interrupt_INTx_Init
                        _Timer0_Init
                     _ecu_layer_init
                 _gpio_pin_intialize
 ---------------------------------------------------------------------------------
 (2) _ecu_layer_init                                       1     1      0   12352
           _seven_segement_intialize
 ---------------------------------------------------------------------------------
 (3) _seven_segement_intialize                             3     1      2   12346
                                              0 BANK0      3     1      2
                 _gpio_pin_intialize
 ---------------------------------------------------------------------------------
 (2) _gpio_pin_intialize                                   4     2      2   12052
                                             14 COMRAM     4     2      2
       _gpio_pin_direction_intialize
               _gpio_pin_write_logic
 ---------------------------------------------------------------------------------
 (2) _gpio_pin_write_logic                                10     7      3    8357
                                              4 COMRAM    10     7      3
 ---------------------------------------------------------------------------------
 (2) _Timer0_Init                                          5     3      2     703
                                              7 COMRAM     5     3      2
                 _Timer0_Mode_Select
            _Timer0_Prescaler_Config
        _Timer0_Register_Size_Config
 ---------------------------------------------------------------------------------
 (3) _Timer0_Register_Size_Config                          2     0      2     120
                                              4 COMRAM     2     0      2
 ---------------------------------------------------------------------------------
 (3) _Timer0_Prescaler_Config                              3     1      2     142
                                              4 COMRAM     3     1      2
 ---------------------------------------------------------------------------------
 (3) _Timer0_Mode_Select                                   2     0      2     164
                                              4 COMRAM     2     0      2
 ---------------------------------------------------------------------------------
 (2) _Interrupt_INTx_Init                                  3     1      2    4021
                                             16 COMRAM     2     0      2
                                              0 BANK0      1     1      0
          _Interrupt_INTx_Clear_Flag
             _Interrupt_INTx_Disable
           _Interrupt_INTx_Edge_Init
              _Interrupt_INTx_Enable
            _Interrupt_INTx_Pin_Init
 _Interrupt_INTx_SetInterruptHandler
 ---------------------------------------------------------------------------------
 (3) _Interrupt_INTx_SetInterruptHandler                   5     3      2     870
                                              7 COMRAM     5     3      2
           _INT0_SetInterruptHandler
           _INT1_SetInterruptHandler
           _INT2_SetInterruptHandler
 ---------------------------------------------------------------------------------
 (4) _INT2_SetInterruptHandler                             3     1      2     192
                                              4 COMRAM     3     1      2
 ---------------------------------------------------------------------------------
 (4) _INT1_SetInterruptHandler                             3     1      2     192
                                              4 COMRAM     3     1      2
 ---------------------------------------------------------------------------------
 (4) _INT0_SetInterruptHandler                             3     1      2     192
                                              4 COMRAM     3     1      2
 ---------------------------------------------------------------------------------
 (3) _Interrupt_INTx_Pin_Init                              3     1      2    1529
                                             13 COMRAM     3     1      2
       _gpio_pin_direction_intialize
 ---------------------------------------------------------------------------------
 (3) _gpio_pin_direction_intialize                         9     7      2    1337
                                              4 COMRAM     9     7      2
 ---------------------------------------------------------------------------------
 (3) _Interrupt_INTx_Enable                                5     3      2     201
                                              4 COMRAM     5     3      2
 ---------------------------------------------------------------------------------
 (3) _Interrupt_INTx_Edge_Init                             5     3      2     387
                                              4 COMRAM     5     3      2
 ---------------------------------------------------------------------------------
 (3) _Interrupt_INTx_Disable                               5     3      2     291
                                              4 COMRAM     5     3      2
 ---------------------------------------------------------------------------------
 (3) _Interrupt_INTx_Clear_Flag                            5     3      2     201
                                              4 COMRAM     5     3      2
 ---------------------------------------------------------------------------------
 (1) ___awmod                                              6     2      4     752
                                              4 COMRAM     6     2      4
 ---------------------------------------------------------------------------------
 (1) ___awdiv                                              8     4      4     756
                                              4 COMRAM     8     4      4
 ---------------------------------------------------------------------------------
 Estimated maximum stack depth 4
 ---------------------------------------------------------------------------------
 (Depth) Function   	        Calls       Base Space   Used Autos Params    Refs
 ---------------------------------------------------------------------------------
 (6) _InterruptManager                                     3     3      0     120
                                              1 COMRAM     3     3      0
                            _ADC_ISR
                           _CCP1_ISR
                           _CCP2_ISR
                      _EUSART_RX_ISR
                      _EUSART_TX_ISR
                           _INT0_ISR
                           _INT1_ISR
                           _INT2_ISR
                    _MSSP_I2C_BC_ISR
                       _MSSP_I2C_ISR
                       _MSSP_SPI_ISR
                            _RB4_ISR
                            _RB5_ISR
                            _RB6_ISR
                            _RB7_ISR
                           _TMR0_ISR
                           _TMR1_ISR
                           _TMR2_ISR
                           _TMR3_ISR
 ---------------------------------------------------------------------------------
 (7) _TMR3_ISR                                             0     0      0       0
 ---------------------------------------------------------------------------------
 (7) _TMR2_ISR                                             0     0      0       0
 ---------------------------------------------------------------------------------
 (7) _TMR1_ISR                                             0     0      0       0
 ---------------------------------------------------------------------------------
 (7) _TMR0_ISR                                             0     0      0       0
                                NULL *
       _TMR0_DefaultInterruptHandler *
 ---------------------------------------------------------------------------------
 (8) _TMR0_DefaultInterruptHandler                         0     0      0       0
 ---------------------------------------------------------------------------------
 (7) _RB7_ISR                                              1     1      0      30
                                              0 COMRAM     1     1      0
 ---------------------------------------------------------------------------------
 (7) _RB6_ISR                                              1     1      0      30
                                              0 COMRAM     1     1      0
 ---------------------------------------------------------------------------------
 (7) _RB5_ISR                                              1     1      0      30
                                              0 COMRAM     1     1      0
 ---------------------------------------------------------------------------------
 (7) _RB4_ISR                                              1     1      0      30
                                              0 COMRAM     1     1      0
 ---------------------------------------------------------------------------------
 (7) _MSSP_SPI_ISR                                         0     0      0       0
 ---------------------------------------------------------------------------------
 (7) _MSSP_I2C_ISR                                         0     0      0       0
 ---------------------------------------------------------------------------------
 (7) _MSSP_I2C_BC_ISR                                      0     0      0       0
 ---------------------------------------------------------------------------------
 (7) _INT2_ISR                                             0     0      0       0
                                NULL *
                       _Int0_APP_ISR *
                       _Int1_APP_ISR *
                       _Int2_APP_ISR *
 ---------------------------------------------------------------------------------
 (7) _INT1_ISR                                             0     0      0       0
                                NULL *
                       _Int0_APP_ISR *
                       _Int1_APP_ISR *
                       _Int2_APP_ISR *
 ---------------------------------------------------------------------------------
 (7) _INT0_ISR                                             0     0      0       0
                                NULL *
                       _Int0_APP_ISR *
                       _Int1_APP_ISR *
                       _Int2_APP_ISR *
 ---------------------------------------------------------------------------------
 (8) _Int2_APP_ISR                                         0     0      0       0
 ---------------------------------------------------------------------------------
 (8) _Int1_APP_ISR                                         0     0      0       0
 ---------------------------------------------------------------------------------
 (8) _Int0_APP_ISR                                         0     0      0       0
 ---------------------------------------------------------------------------------
 (8) NULL(Fake)                                            0     0      0       0
 ---------------------------------------------------------------------------------
 (7) _EUSART_TX_ISR                                        0     0      0       0
 ---------------------------------------------------------------------------------
 (7) _EUSART_RX_ISR                                        0     0      0       0
 ---------------------------------------------------------------------------------
 (7) _CCP2_ISR                                             0     0      0       0
 ---------------------------------------------------------------------------------
 (7) _CCP1_ISR                                             0     0      0       0
 ---------------------------------------------------------------------------------
 (7) _ADC_ISR                                              0     0      0       0
 ---------------------------------------------------------------------------------
 Estimated maximum stack depth 8
 ---------------------------------------------------------------------------------

 Call Graph Graphs:

 _main (ROOT)
   ___awdiv
   ___awmod
   _application_initialize
     _Interrupt_INTx_Init
       _Interrupt_INTx_Clear_Flag
       _Interrupt_INTx_Disable
       _Interrupt_INTx_Edge_Init
       _Interrupt_INTx_Enable
       _Interrupt_INTx_Pin_Init
         _gpio_pin_direction_intialize
       _Interrupt_INTx_SetInterruptHandler
         _INT0_SetInterruptHandler
         _INT1_SetInterruptHandler
         _INT2_SetInterruptHandler
     _Timer0_Init
       _Timer0_Mode_Select
       _Timer0_Prescaler_Config
       _Timer0_Register_Size_Config
     _ecu_layer_init
       _seven_segement_intialize
         _gpio_pin_intialize
           _gpio_pin_direction_intialize
           _gpio_pin_write_logic
     _gpio_pin_intialize
   _gpio_pin_write_logic
   _seven_segement_write_number
     ___awdiv (ARG)
     ___awmod (ARG)
     _gpio_pin_write_logic (ARG)

 _InterruptManager (ROOT)
   _ADC_ISR
   _CCP1_ISR
   _CCP2_ISR
   _EUSART_RX_ISR
   _EUSART_TX_ISR
   _INT0_ISR
     NULL(Fake) *
     _Int0_APP_ISR *
     _Int1_APP_ISR *
     _Int2_APP_ISR *
   _INT1_ISR
     NULL(Fake) *
     _Int0_APP_ISR *
     _Int1_APP_ISR *
     _Int2_APP_ISR *
   _INT2_ISR
     NULL(Fake) *
     _Int0_APP_ISR *
     _Int1_APP_ISR *
     _Int2_APP_ISR *
   _MSSP_I2C_BC_ISR
   _MSSP_I2C_ISR
   _MSSP_SPI_ISR
   _RB4_ISR
   _RB5_ISR
   _RB6_ISR
   _RB7_ISR
   _TMR0_ISR
     NULL(Fake) *
     _TMR0_DefaultInterruptHandler *
   _TMR1_ISR
   _TMR2_ISR
   _TMR3_ISR

 Address spaces:
Name               Size   Autos  Total    Cost      Usage
BIGRAM             F7F      0       0      49        0.0%
EEDATA             400      0       0       0        0.0%
BITBANK14          100      0       0      33        0.0%
BANK14             100      0       0      34        0.0%
BITBANK13          100      0       0      31        0.0%
BANK13             100      0       0      32        0.0%
BITBANK12          100      0       0      29        0.0%
BANK12             100      0       0      30        0.0%
BITBANK11          100      0       0      27        0.0%
BANK11             100      0       0      28        0.0%
BITBANK10          100      0       0      25        0.0%
BANK10             100      0       0      26        0.0%
BITBANK9           100      0       0      23        0.0%
BANK9              100      0       0      24        0.0%
BITBANK8           100      0       0      21        0.0%
BANK8              100      0       0      22        0.0%
BITBANK7           100      0       0      19        0.0%
BANK7              100      0       0      20        0.0%
BITBANK6           100      0       0      17        0.0%
BANK6              100      0       0      18        0.0%
BITBANK5           100      0       0      15        0.0%
BANK5              100      0       0      16        0.0%
BITBANK4           100      0       0      13        0.0%
BANK4              100      0       0      14        0.0%
BITBANK3           100      0       0      10        0.0%
BANK3              100      0       0      11        0.0%
BITBANK2           100      0       0       8        0.0%
BANK2              100      0       0       9        0.0%
BITBANK1           100      0       0       6        0.0%
BANK1              100      0       0       7        0.0%
BITBANK15           80      0       0      35        0.0%
BANK15              80      0       0      36        0.0%
BITBANK0            80      0       0       4        0.0%
BANK0               80      3      48       5       56.2%
BITCOMRAM           7E      0       0       0        0.0%
COMRAM              7E     12      7A       1       96.8%
BITBIGSFRhlhhlh     18      0       0      38        0.0%
BITBIGSFRhh          D      0       0      37        0.0%
BITBIGSFRlllhh       6      0       0      46        0.0%
BITBIGSFRhlhhll      5      0       0      39        0.0%
BITBIGSFRllhllh      4      0       0      43        0.0%
BITBIGSFRllllh       4      0       0      47        0.0%
BITBIGSFRllhllh      4      0       0      44        0.0%
BITBIGSFRlllll       4      0       0      48        0.0%
BITBIGSFRllhllh      1      0       0      42        0.0%
BITBIGSFRllhlh       1      0       0      41        0.0%
BITBIGSFRllhh        1      0       0      40        0.0%
BITBIGSFRllhlll      1      0       0      45        0.0%
BIGSFR               0      0       0     200        0.0%
BITSFR               0      0       0     200        0.0%
SFR                  0      0       0     200        0.0%
STACK                0      0       0       2        0.0%
NULL                 0      0       0       0        0.0%
ABS                  0      0      C2      12        0.0%
DATA                 0      0      C2       3        0.0%
CODE                 0      0       0       0        0.0%


Microchip Technology PIC18 Macro Assembler V2.41 build 20230208172133 
Symbol Table                                                                                   Tue Nov 28 11:47:29 2023

                               ??_InterruptManager 006A                                                  l9 2072  
                                      _SSPSTATbits 0FC7                                                 l14 1D28  
                                     ___awdiv@sign 0072                                                l353 2486  
                                              l716 177A                                                l735 18A6  
                                              l756 20DE                                                _PR2 0FCB  
                       ??_INT0_SetInterruptHandler 006F                          _RB5_InterruptHandler_HIGH 0023  
                                  __end_of_ADC_ISR 24DE                                       ___awmod@sign 0072  
                                              prod 0FF3                                                tosl 0FFD  
                                              wreg 0FE8                                    __end_of_RB4_ISR 2478  
                                  __end_of_RB5_ISR 245E                                    __end_of_RB6_ISR 2444  
                                  __end_of_RB7_ISR 242A                                               l1103 1EC0  
                                             l1016 1DA8                                               l1105 1ECE  
                                             l1114 1F3E                                               l1106 1ED8  
                                             l1116 1F48                                               l1108 1F22  
                                             l1117 1F4E                                               l1142 19D2  
                                             l1119 1F94                                               l1153 1FB0  
                                             l1155 1FBA                                               l1147 22B2  
                                             l1163 23E4                                               l1156 1FC0  
                                             l1173 2390                                               l1421 1C94  
                                             l1158 2006                                               l2080 1B46  
                                             l1168 23BA                                               l1184 1BF0  
                                             l2067 1A96                                               l1419 1C0C  
                                             l1447 219A                                               l1457 1EA4  
                                             l1465 2218                                               l1458 1EA4  
                                             l1817 1E26                                               l6100 1B12  
                                             l6110 1B3E                                               l6102 1B1A  
                                             l6040 19EE                                               l6104 1B20  
                                             l7000 1670                                               l6050 1A14  
                                             l6042 19F2                                               l6034 19D4  
                                             l6106 1B26                                               l7002 1678  
                                             l7010 1778                                               l6060 1A4A  
                                             l6052 1A26                                               l6044 1A00  
                                             l6036 19D8                                               l6108 1B36  
                                             l7100 1F54                                               l7004 16DA  
                                             l7020 2074                                               l6062 1A60  
                                             l6054 1A2E                                               l6070 1A76  
                                             l6046 1A08                                               l6038 19E6  
                                             l7110 1F96                                               l7102 1F92  
                                             l7022 2086                                               l6072 1A86  
                                             l6064 1A68                                               l6056 1A36  
                                             l6048 1A0C                                               l6080 1A9C  
                                             l7112 1F96                                               l7008 1736  
                                             l7040 23DE                                               l7032 23BC  
                                             l7200 1B62                                               l7024 20A8  
                                             l6074 1A8E                                               l6066 1A6A  
                                             l6058 1A44                                               l6090 1ACC  
                                             l6082 1AAA                                               l7114 1FA8  
                                             l7042 23E2                                               l7034 23BC  
                                             l7050 23A4                                               l7202 1B7C  
                                             l7210 1BEE                                               l7026 20B0  
                                             l7018 2074                                               l6068 1A70  
                                             l6092 1ADE                                               l6084 1AB2  
                                             l7116 1FB2                                               l7124 1FC6  
                                             l7140 18C2                                               l7220 1EA6  
                                             l7036 23CE                                               l7052 23AC  
                                             l7060 2368                                               l7204 1B96  
                                             l7028 20DC                                               l8100 15CE  
                                             l6094 1AE6                                               l6086 1AB6  
                                             l6078 1A98                                               l7126 2004  
                                             l7150 190A                                               l7142 18DE  
                                             l7134 18A8                                               l7222 1EB8  
                                             l7038 23D6                                               l7054 23B4  
                                             l7046 2392                                               l7070 238E  
                                             l7062 2368                                               l8110 1628  
                                             l8102 15DE                                               l6096 1AEE  
                                             l6088 1AC4                                               l7160 194E  
                                             l7152 1926                                               l7144 18E4  
                                             l7136 18A8                                               l7224 1EC6  
                                             l7232 1EE2                                               l7056 23B8  
                                             l7048 2392                                               l7064 237A  
                                             l7208 1BB0                                               l7320 1D2A  
                                             l7080 2024                                               l8104 15E6  
                                             l6098 1AFC                                               l7090 1F36  
                                             l7162 196A                                               l7154 192C  
                                             l7146 1900                                               l7138 18BA  
                                             l7234 1F20                                               l7218 1EA6  
                                             l7066 2382                                               l7330 1D86  
                                             l7322 1D2A                                               l7082 2070  
                                             l7074 2008                                               l8106 15F6  
                                             l7092 1F40                                               l7164 1970  
                                             l7156 1948                                               l7148 1902  
                                             l7172 1992                                               l7068 238A  
                                             l7332 1D96                                               l7324 1D3C  
                                             l5900 1C74                                               l7076 2008  
                                             l7316 2478                                               l7340 1C96  
                                             l8108 1618                                               l8060 146E  
                                             l7086 1F24                                               l7166 198C  
                                             l7174 19D0                                               l7190 22B0  
                                             l7182 2284                                               l7334 1DA6  
                                             l7326 1D46                                               l5910 1C8C  
                                             l5902 1C76                                               l7078 201C  
                                             l7318 2478                                               l7430 1DAA  
                                             l7342 1CA8                                               l8070 14B6  
                                             l8062 1472                                               l7088 1F24  
                                             l7184 2284                                               l7328 1D76  
                                             l5760 2160                                               l5912 1C8E  
                                             l5904 1C78                                               l7440 1DD2  
                                             l7432 1DAA                                               l7344 1CB8  
                                             l8080 1508                                               l8072 14BE  
                                             l8064 1474                                               l7186 2296  
                                             l7194 1B48                                               l5770 1E48  
                                             l5762 217E                                               l5906 1C88  
                                             l5914 1C92                                               l7450 1E0E  
                                             l7442 1DDE                                               l7434 1DAE  
                                             l7346 1CC0                                               l7338 1C96  
                                             l8090 1562                                               l8082 1518  
                                             l8074 14CE                                               l8066 1484  
                                             l8058 146E                                               l8260 19B2  
                                             l7188 229E                                               l7196 1B48  
                                             l5780 1E9E                                               l5772 1E62  
                                             l5764 2198                                               l5756 2144  
                                             l5908 1C8A                                               l8252 188E  
                                             l7452 1E1A                                               l7444 1DEA  
                                             l7436 1DBA                                               l7348 1D26  
                                             l8092 1584                                               l8084 153A  
                                             l8076 14F0                                               l8068 14A6  
                                             l8262 1F74                                               l8254 1BD0  
                                             l7198 1B5A                                               l5774 1E64  
                                             l5766 1E28                                               l5758 215E  
                                             l5782 21DC                                               l7446 1DF6  
                                             l7438 1DC6                                               l8094 1594  
                                             l8086 154A                                               l8078 1500  
                                             l8264 1FE6                                               l8256 1762  
                                             l5776 1E7E                                               l5768 1E42  
                                             l5784 21F6                                               l7448 1E02  
                                             l8096 159C                                               l8088 1552  
                                             l8258 1F02                                               l5778 1E84  
                                             l5786 21FC                                               l5890 1C04  
                                             l8098 15AC                                               l5788 2216  
                                             l5892 1C0E                                               l5894 1C32  
                                             l5886 1BF2                                               l5896 1C50  
                                             l5888 1BF2                                               l5898 1C60  
                                             l6970 177C                                               l6980 181E  
                                             l6972 1780                                               l6974 1792  
                                             l6984 187A                                               l6976 17B4  
                                             l6994 1638                                               l6978 17BC  
                                             l6986 18A4                                               l6996 163C  
                                             l6998 164E                                               STR_1 1011  
                                             _LATA 0F89                                               _LATB 0F8A  
                                             _LATC 0F8B                                               _LATD 0F8C  
                                             _LATE 0F8D                                               u4100 21F6  
                                             u4101 21F2                                               u4110 2216  
                                             u4111 2212                                               u4040 215E  
                                             u4041 215A                                               u4050 2198  
                                             u4051 2194                                               u4300 1A26  
                                             u4060 1E42                                               u4301 1A22  
                                             u4061 1E3E                                               u4310 1A44  
                                             u4070 1E62                                               u4311 1A40  
                                             u4071 1E5E                                               u4320 1A60  
                                             u4080 1E7E                                               u5200 1792  
                                             u4321 1A5C                                               u4081 1E7A  
                                             u5201 178E                                               u4330 1A86  
                                             u4090 1E9E                                               u4170 1C04  
                                             u5210 17B4                                               u4331 1A82  
                                             u4091 1E9A                                               u4171 1C00  
                                             u5211 17B0                                               u4340 1AAA  
                                             u5300 2086                                               u4341 1AA6  
                                             u5301 2082                                               u4350 1AC4  
                                             u5310 20A8                                               u4351 1AC0  
                                             u5311 20A4                                               u4280 19E6  
                                             u4360 1ADE                                               u5400 1900  
                                             u5240 164E                                               u5320 23CE  
                                             u5224 17DC                                               u4281 19E2  
                                             u4361 1ADA                                               u5401 18FC  
                                             u5241 164A                                               u5321 23CA  
                                             u5225 17D8                                               u4290 1A00  
                                             u4370 1AFC                                               u5410 1926  
                                             u5250 1670                                               u5330 23A4  
                                             u5234 183E                                               u4291 19FC  
                                             u4371 1AF8                                               u5411 1922  
                                             u5251 166C                                               u5331 23A0  
                                             u5235 183A                                               u4380 1B12  
                                             u5420 1948                                               u5340 237A  
                                             u4381 1B0E                                               u5421 1944  
                                             u5341 2376                                               u4390 1B36  
                                             u5430 196A                                               u5350 201C  
                                             u4391 1B32                                               u5431 1966  
                                             u5351 2018                                               u6207 15E0  
                                             u5360 1F36                                               u5440 198C  
                                             u5280 174E                                               u5264 1698  
                                             u5520 1D3C                                               u5361 1F32  
                                             u5441 1988                                               u5281 1748  
                                             u5265 1694                                               u5521 1D38  
                                             u6217 162A                                               u5370 1FA8  
                                             u5290 1750                                               u5274 16FA  
                                             u5450 2296                                               u5530 1CA8  
                                             u5371 1FA4                                               u5275 16F6  
                                             u5451 2292                                               u5531 1CA4  
                                             u5380 18BA                                               u5460 1B5A  
                                             u5540 1CB8                                               u5381 18B6  
                                             u5461 1B56                                               u5541 1CB4  
                                             u5390 18DE                                               u5470 1EB8  
                                             u5391 18DA                                               u5471 1EB4  
                                             u6167 14B8                                               u6177 1502  
                                             u6187 154C                                               u6197 1596  
                                             _TMR2 0FCC                           _RB4_InterruptHandler_LOW 0025  
                                             _seg1 005E                                               _main 146E  
                                 __end_of_CCP1_ISR 24DA                                   __end_of_CCP2_ISR 24D6  
                         _RB7_InterruptHandler_LOW 0019                                               fsr2h 0FDA  
                                             indf2 0FDF                                               fsr1l 0FE1  
                                             fsr2l 0FD9                                               btemp 007B  
                        ?_INT2_SetInterruptHandler 006D                                               prodl 0FF3  
                                             start 000E                                       ___param_bank 0000  
                             __end_of_Int0_APP_ISR 24CE                               _gpio_pin_write_logic 177C  
                             __end_of_Int1_APP_ISR 24CA                                   __end_of_INT0_ISR 233E  
                                 __end_of_INT1_ISR 2310                                   __end_of_INT2_ISR 22E2  
                             __end_of_Int2_APP_ISR 2498                     ??_TMR0_DefaultInterruptHandler 0069  
                        ?_Interrupt_INTx_Edge_Init 006D                                      _EUSART_RX_ISR 23E6  
                                    _EUSART_TX_ISR 24CE                                              ?_main 0069  
                         ??_application_initialize 007B                                    __end_of___awdiv 1A98  
                                            _EEADR 0FA9                                    __end_of___awmod 1B48  
                                  ___awdiv@divisor 006F                                              i2l571 24D8  
                                            i2l479 24DC                                              i2l576 24D4  
                                            i2l953 24C0                                    ___awdiv@counter 0071  
                                            i2l957 24C4                                              _RCREG 0FAE  
                                            _TMR0H 0FD7                                              _TMR1H 0FCF  
                                            _TMR0L 0FD6                                              _TMR1L 0FCE  
                                            _TMR3H 0FB3                                              _TMR3L 0FB2  
                                            _SPBRG 0FAF                                              _PORTA 0F80  
                                            _PORTB 0F81                                              _PORTC 0F82  
                                            _PORTD 0F83                                              _PORTE 0F84  
                                            _TRISA 0F92                                              _TRISB 0F93  
                                            _TRISC 0F94                                              _TRISD 0F95  
                                            _TRISE 0F96                                  Timer0_Init@_timer 0070  
                                            _TXREG 0FAD                                   __end_of_TMR0_ISR 2250  
                                 __end_of_TMR1_ISR 24B0                                   __end_of_TMR2_ISR 24B8  
                                 __end_of_TMR3_ISR 24A4                                              _lcd_1 00A6  
                                            _lcd_2 0094                           Interrupt_INTx_Enable@ret 0071  
                                            _hours 003B                           _INT1_SetInterruptHandler 2392  
                                            pclath 0FFA                                              pclatu 0FFB  
                                            tablat 0FF5                                              ttemp5 007C  
                                            ttemp6 007F                                              ttemp7 0083  
                                            status 0FD8                                              wtemp8 007C  
                           _Interrupt_INTx_Disable 1F24                            _Timer0_Prescaler_Config 2144  
        Interrupt_INTx_SetInterruptHandler@int_obj 0070                                    __initialization 20E0  
                                     __end_of_main 1638                              ?_gpio_pin_write_logic 006D  
                                        ??_ADC_ISR 0069                                     ?_EUSART_RX_ISR 0069  
                                   ?_EUSART_TX_ISR 0069                                      _lat_registers 003F  
                      INT1_SetInterruptHandler@ret 006F                                             ??_main 007B  
                                    __activetblptr 0003                              _TMR3_InterruptHandler 000B  
                                        ??_RB4_ISR 0069                                          ??_RB5_ISR 0069  
                                        ??_RB6_ISR 0069                                          ??_RB7_ISR 0069  
                 __end_of_seven_segement_intialize 2074                         _EUSART_OverrunErrorHandler 0001  
                                           _ADRESH 0FC4                                             _EEADRH 0FAA  
                                           _ADRESL 0FC3                                             _EEDATA 0FA8  
                                           _CCPR1L 0FBE                                             _CCPR2L 0FBB  
                                           _EECON2 0FA7                                   ___awdiv@dividend 006D  
                                           i2l1021 233C                                             i2l1031 22E0  
                                           i2l1026 230E                                             i2l1042 2476  
                                           i2l1053 245C                                             i2l1064 2442  
                                           i2l1075 2428                                             i2l1260 1108  
                                           i2l1252 1040                                             i2l1270 125C  
                                           i2l1262 114C                                             i2l1254 1060  
                                           i2l1440 224E                                             i2l1280 1320  
                                           i2l1272 12A0                                             i2l1264 1190  
                                           i2l1256 1080                                             i2l1290 13EC  
                                           i2l1282 1340                                             i2l1274 12C0  
                                           i2l1266 11D4                                             i2l1258 10C4  
                                           i2l3132 24D6                                             i2l1604 24A2  
                                           i2l1292 1422                                             i2l1284 1360  
                                           i2l1276 12E0                                             i2l1268 1218  
                                           i2l1509 24AE                                             i2l1374 24BC  
                                           i2l3310 221A                                             i2l1294 1442  
                                           i2l1286 1380                                             i2l1278 1300  
                                           i2l3128 24DA                                             i2l3240 2324  
                                           i2l3232 24C2                                             i2l3304 2428  
                                           i2l3312 221C                                             i2l3320 24A4  
                                           i2l1560 24B6                                             i2l1288 13B6  
                                           i2l1297 1462                                             i2l3138 24D2  
                                           i2l3242 22E2                                             i2l3250 22B6  
                                           i2l3314 2220                                             i2l3322 24A6  
                                           i2l3340 24CE                                             i2l3236 2310  
                                           i2l3244 22E4                                             i2l3252 22C8  
                                           i2l3228 24BE                                             i2l3316 2224  
                                           i2l3324 24AA                                             i2l3332 2498  
                                           i2l3350 23E6                                             i2l1830 24C8  
                                           i2l3238 2312                                             i2l3246 22F6  
                                           i2l3262 2476                                             i2l3254 2460  
                                           i2l3270 2448                                             i2l3318 2236  
                                           i2l3334 249A                                             i2l1743 24D0  
                                           i2l1752 240E                                             i2l3352 23F8  
                                           i2l3248 22B4                                             i2l3256 2462  
                                           i2l1824 2282                                             i2l3328 24B0  
                                           i2l3336 249E                                             i2l1833 2496  
                                           i2l3346 23E6                                             i2l3362 24B8  
                                           i2l3290 2442                                             i2l3282 242C  
                     Interrupt_INTx_Enable@int_obj 006D                                             i2l1827 24CC  
                                           i2l3356 23FA                                             i2l3276 245C  
                                           i2l3268 2446                                             i2l3284 242E  
                                           i2l3358 240C                                             i2l3296 2412  
                                           i2l3298 2414                                             i2l2960 2250  
                                           i2l4800 11AC                                             i2l2970 227C  
                                           i2l2962 2252                                             i2l4810 11F0  
                                           i2l4802 11BA                                             i2l2980 2494  
                                           i2l2972 2280                                             i2l2964 2264  
                                           i2l4820 1234                                             i2l4812 11FE  
                                           i2l4804 11CA                                             i2l2974 24CA  
                                           i2l2966 2268                                             i2l4830 1278  
                                           i2l4822 1242                                             i2l4814 120E  
                                           i2l4806 11CE                                             i2l4750 104E  
                                           i2l2976 24C6                                             i2l2968 226A  
                                           i2l4840 12BC                                             i2l4832 1286  
                                           i2l4824 1252                                             i2l4816 1212  
                                           i2l4808 11E2                                             i2l4760 109C  
                                           i2l4752 105C                                             i2l4744 1020  
                                           i2l2978 2488                                             i2l4850 130E  
                                           i2l4842 12CE                                             i2l4834 1296  
                                           i2l4826 1256                                             i2l4818 1226  
                                           i2l4770 10E0                                             i2l4762 10AA  
                                           i2l4754 106E                                             i2l4746 102E  
                                           i2l4860 135C                                             i2l4852 131C  
                                           i2l4844 12DC                                             i2l4836 129A  
                                           i2l4828 126A                                             i2l4780 1124  
                                           i2l4772 10EE                                             i2l4764 10BA  
                                           i2l4756 107C                                             i2l4748 103C  
                                           i2l4870 13B2                                             i2l4862 136E  
                                           i2l4854 132E                                             i2l4846 12EE  
                                           i2l4838 12AE                                             i2l4790 1168  
                                           i2l4782 1132                                             i2l4774 10FE  
                                           i2l4766 10BE                                             i2l4758 108E  
                                           i2l4880 1408                                             i2l4872 13C4  
                                           i2l4864 137C                                             i2l4856 133C  
                                           i2l4848 12FC                                             i2l4792 1176  
                                           i2l4784 1142                                             i2l4776 1102  
                                           i2l4768 10D2                                             i2l4890 145E  
                                           i2l4882 141E                                             i2l4874 13D2  
                                           i2l4866 138E                                             i2l4858 134E  
                                           i2l4794 1186                                             i2l4786 1146  
                                           i2l4778 1116                                             i2l4884 1430  
                                           i2l4876 13E8                                             i2l4868 139C  
                                           i2l4796 118A                                             i2l4788 115A  
                                           i2l4886 143E                                             i2l4878 13FA  
                                           i2l4798 119E                                             i2l4888 1450  
                                           _SPBRGH 0FB0                                             _SSPADD 0FC8  
                                           _SSPBUF 0FC9                         ?_Interrupt_INTx_Clear_Flag 006D  
                                    ??_Timer0_Init 0072                        seven_segement_intialize@seg 00C5  
                     ?_Timer0_Register_Size_Config 006D                        seven_segement_intialize@ret 00C7  
                                        ??___awdiv 0071                                          ??___awmod 0071  
                Timer0_Register_Size_Config@_timer 006D                                             clear_0 2134  
                                 ___awdiv@quotient 0073                                    ___awmod@divisor 006F  
                                           _timer0 00AC                                             isa$std 0001  
                                  ___awmod@counter 0071                      __end_of_Interrupt_INTx_Enable 1F24  
          gpio_pin_direction_intialize@_pin_config 006D        _I2C_Report_Receive_Overflow_InterruptHandle 002F  
                                        ?_CCP1_ISR 0069                                       __pdataCOMRAM 003F  
                                        ?_CCP2_ISR 0069                                       __mediumconst 0000  
                                           tblptrh 0FF7                                             tblptrl 0FF6  
                                           tblptru 0FF8           INT2_SetInterruptHandler@InterruptHandler 006D  
         INT1_SetInterruptHandler@InterruptHandler 006D           INT0_SetInterruptHandler@InterruptHandler 006D  
                        ??_Timer0_Prescaler_Config 006F                                         __accesstop 0080  
                          __end_of__initialization 213A                                          ?_INT0_ISR 0069  
                                        ?_INT1_ISR 0069                                          ?_INT2_ISR 0069  
                                    ___rparam_used 0001                  __end_of_Interrupt_INTx_Clear_Flag 2008  
                          _Interrupt_INTx_Pin_Init 2284                                  RB5_ISR@RB5_Source 0069  
                           ??_gpio_pin_write_logic 0070                                     __pcstackCOMRAM 0069  
                       _I2C_DefaultInterruptHandle 0031                                       __pidataBANK0 219C  
                                        ?_TMR0_ISR 0069                                    ??_EUSART_RX_ISR 0069  
                                        ?_TMR1_ISR 0069                                          ?_TMR2_ISR 0069  
                                        ?_TMR3_ISR 0069                                    ??_EUSART_TX_ISR 0069  
                    ??_Timer0_Register_Size_Config 006F                                __end_of_Timer0_Init 1C96  
                                       ??_CCP1_ISR 0069                                         ??_CCP2_ISR 0069  
                 __end_of_INT2_SetInterruptHandler 2392                        __end_of_Interrupt_INTx_Init 1DAA  
                                       _dc_motor_1 004B                                         _dc_motor_2 0049  
                                     _Int0_APP_ISR 24CA                                       _Int1_APP_ISR 24C6  
                                       __pbssBANK0 00BF                                       _Int2_APP_ISR 2488  
                            _INT0_InterruptHandler 002D                                         ??_INT0_ISR 0069  
                                       ??_INT1_ISR 0069                                         ??_INT2_ISR 0069  
                           _application_initialize 1DAA                   __end_of_Interrupt_INTx_Edge_Init 19D4  
                                       ??_TMR0_ISR 0069                                         ??_TMR1_ISR 0069  
                                       ??_TMR2_ISR 0069                                         ??_TMR3_ISR 0069  
                        ?_seven_segement_intialize 00C5                                            _ADC_ISR 24DA  
       __end_of_Interrupt_INTx_SetInterruptHandler 1BF2               ??_Interrupt_INTx_SetInterruptHandler 0072  
              ?_Interrupt_INTx_SetInterruptHandler 0070                 _Interrupt_INTx_SetInterruptHandler 1B48  
                                RB7_ISR@RB7_Source 0069                         ??_INT1_SetInterruptHandler 006F  
                                          _RB4_ISR 245E                                            _RB5_ISR 2444  
                                          _RB6_ISR 242A                                            _RB7_ISR 2410  
                        _RB6_InterruptHandler_HIGH 001F                                      ?_MSSP_I2C_ISR 0069  
                                          i2u43_40 2264                                            i2u43_41 2260  
                                          i2u44_40 227C                                            i2u44_41 2278  
                                          i2u90_40 2472                                            i2u90_41 246E  
                                          i2u91_40 2458                                            i2u91_41 2454  
                                          i2u84_40 2324                                            i2u92_40 243E  
                                          i2u84_41 2320                                            i2u92_41 243A  
                                          i2u93_40 2424                                            i2u93_41 2420  
                                          i2u85_48 232A                                            i2u86_40 22F6  
                                          i2u94_40 2236                                            i2u85_49 233C  
                                          i2u86_41 22F2                                            i2u94_41 2232  
                                          i2u96_40 23F8                                            i2u87_48 22FC  
                                          i2u88_40 22C8                                            i2u95_48 223C  
                                          i2u96_41 23F4                                            i2u87_49 230E  
                                          i2u88_41 22C4                                            i2u95_49 224E  
                                          i2u97_40 240C                                            i2u97_41 2408  
                                          i2u89_48 22CE                                            i2u89_49 22E0  
                                       _btn_values 1001                            ?_Interrupt_INTx_Disable 006D  
                                   _tris_registers 008A                           _RB6_InterruptHandler_LOW 001D  
                        ??_Interrupt_INTx_Pin_Init 0078                          ?_INT0_SetInterruptHandler 006D  
                                    ?_MSSP_SPI_ISR 0069                                  ??_MSSP_I2C_BC_ISR 0069  
                             _ADC_InterruptHandler 0039                                            __Hparam 0000  
                                      _Timer0_Init 1BF2                                            __Lparam 0000  
                     ?_seven_segement_write_number 0077                               _SPI_InterruptHandler 0017  
                                          ___awdiv 19D4                                            ___awmod 1A98  
                                     __psmallconst 1000                         __end_of_gpio_pin_intialize 20E0  
                                          __pcinit 20E0                                            __ramtop 1000  
                                          __ptext0 146E                                            __ptext1 1C96  
                                          __ptext2 1DAA                                            __ptext3 2478  
                                          __ptext4 2008                                            __ptext5 2074  
                                          __ptext6 177C                                            __ptext7 1BF2  
                                          __ptext8 21DC                                            __ptext9 2144  
                                        _T0CONbits 0FD5                                          _T1CONbits 0FCD  
                                   ??_MSSP_I2C_ISR 0069                                          _T2CONbits 0FCA  
                                          _keypad1 009E                                          _T3CONbits 0FB1  
                                 ___awmod@dividend 006D                                            _minutes 003C  
                                          _seconds 003D                     __end_of_Interrupt_INTx_Disable 1F96  
                                   __pintcode_body 1016                               end_of_initialization 213A  
                         _INT2_SetInterruptHandler 2368                                            int_func 1016  
                                   ??_MSSP_SPI_ISR 0069                        ??_Interrupt_INTx_Clear_Flag 006F  
                            gpio_pin_intialize@ret 007A                                          _RCSTAbits 0FAB  
                                          postdec1 0FE5                                            postdec2 0FDD  
                         _Interrupt_INTx_Edge_Init 18A8                                            postinc0 0FEE  
                                          postinc2 0FDE                      ??_seven_segement_write_number 007A  
                                   _ecu_layer_init 2478                              _INT1_InterruptHandler 002B  
                                        _PORTBbits 0F81                                   _InterruptManager 0008  
                    gpio_pin_intialize@_pin_config 0077                        INT2_SetInterruptHandler@ret 006F  
             __end_of_gpio_pin_direction_intialize 177C                       _gpio_pin_direction_intialize 1638  
                                        _TRISCbits 0F94                      Timer0_Prescaler_Config@_timer 006D  
                      Interrupt_INTx_Edge_Init@ret 0071                                        _CCP1CONbits 0FBD  
                                      _CCP2CONbits 0FBA                                          _TXSTAbits 0FAC  
                       __end_of_Timer0_Mode_Select 1EA6                             __end_of_ecu_layer_init 2488  
                           Interrupt_INTx_Init@ret 00C5                      convert_uint16_to_string@F3702 00BF  
                                      _BAUDCONbits 0FB8                                      __pidataCOMRAM 233E  
                                   _timer0_preload 0013                      Interrupt_INTx_Disable@int_obj 006D  
                        _Interrupt_INTx_Clear_Flag 1F96                                     _timer1_preload 000F  
                                   _timer2_preload 003E                              _Interrupt_INTx_Enable 1EA6  
                              start_initialization 20E0                                     _timer3_preload 0009  
MSSP_SPI_Msster_Mode_GPIO_PIN_Configurations@F3600 0051   MSSP_SPI_Slave_Mode_GPIO_PIN_Configurations@F3611 004D  
 MSSP_SPI_Slave_Mode_GPIO_PIN_Configurations@F3605 0050   MSSP_SPI_Slave_Mode_GPIO_PIN_Configurations@F3607 004F  
 MSSP_SPI_Slave_Mode_GPIO_PIN_Configurations@F3609 004E  MSSP_SPI_Msster_Mode_GPIO_PIN_Configurations@F3596 0053  
MSSP_SPI_Msster_Mode_GPIO_PIN_Configurations@F3598 0052                      ?_gpio_pin_direction_intialize 006D  
                          ?_application_initialize 0069                          _EUSART_RxInterruptHandler 0005  
                             __end_of_MSSP_I2C_ISR 24C2                         _EUSART_FramingErrorHandler 0003  
                                  ?_ecu_layer_init 0069                                        __pdataBANK0 0080  
                                         ?_ADC_ISR 0069                              __end_of_EUSART_RX_ISR 2410  
                            __end_of_EUSART_TX_ISR 24D2                               __end_of_MSSP_SPI_ISR 24BE  
                                         ?_RB4_ISR 0069                                           ?_RB5_ISR 0069  
                                         ?_RB6_ISR 0069                                           ?_RB7_ISR 0069  
                                      __pbssCOMRAM 0001                   __end_of_INT0_SetInterruptHandler 23E6  
      _I2C_Report_Write_Collision_InterruptHandler 0033                                      __pcstackBANK0 00C5  
                   __end_of_application_initialize 1E28                           ?_Timer0_Prescaler_Config 006D  
                                  _MSSP_I2C_BC_ISR 24C2                              _INT2_InterruptHandler 0029  
                  gpio_pin_direction_intialize@ret 0075                              _TMR0_InterruptHandler 0015  
                                     ?_Timer0_Init 0070                     seven_segement_write_number@seg 0077  
                   seven_segement_write_number@ret 007A                __end_of_Timer0_Register_Size_Config 221A  
                      _Timer0_Register_Size_Config 21DC                                          __pintcode 0008  
                  gpio_pin_write_logic@_pin_config 006D                                           ?___awdiv 006D  
                                         ?___awmod 006D                          gpio_pin_write_logic@logic 006F  
                           ?_Interrupt_INTx_Enable 006D                                        __smallconst 1000  
                        _RB4_InterruptHandler_HIGH 0027                         ??_INT2_SetInterruptHandler 006F  
                                         _CCP1_ISR 24D6                                           _CCP2_ISR 24D2  
                        _RB7_InterruptHandler_HIGH 001B                                 _gpio_pin_intialize 2074  
                  Interrupt_INTx_Edge_Init@int_obj 006D                     ??_gpio_pin_direction_intialize 006F  
                       ??_Interrupt_INTx_Edge_Init 006F                           _RB5_InterruptHandler_LOW 0021  
                                         _INT0_ISR 2310                                           _INT1_ISR 22E2  
                                         _INT2_ISR 22B4                                           _RB4_Flag 0057  
                                         _RB5_Flag 0056                                           _RB6_Flag 0055  
                                         _RB7_Flag 0054                                  RB4_ISR@RB4_Source 0069  
                              ?_gpio_pin_intialize 0077                          ?_INT1_SetInterruptHandler 006D  
                         __end_of_InterruptManager 146E                                           _PIE1bits 0F9D  
                                         _PIE2bits 0FA0                           _seven_segement_intialize 2008  
                                         i2u300_40 135C                                           i2u300_41 1358  
                                         i2u301_40 136E                                           i2u301_41 136A  
                                         i2u310_40 1408                                           i2u302_40 137C  
                                         i2u310_41 1404                                           i2u302_41 1378  
                                         i2u311_40 141E                                           i2u303_40 138E  
                                         i2u311_41 141A                                           i2u303_41 138A  
                                         i2u312_40 1430                                           i2u304_40 139C  
                                         i2u312_41 142C                                           i2u304_41 1398  
                                         i2u313_40 143E                                           i2u305_40 13B2  
                                         i2u313_41 143A                                           i2u305_41 13AE  
                                         i2u314_40 1450                                           i2u306_40 13C4  
                                         i2u314_41 144C                                           i2u306_41 13C0  
                                         i2u315_40 145E                                           i2u307_40 13D2  
                                         i2u251_40 102E                                           i2u315_41 145A  
                                         i2u307_41 13CE                                           i2u251_41 102A  
                                         i2u308_40 13E8                                           i2u260_40 10BA  
                                         i2u252_40 103C                                           i2u308_41 13E4  
                                         i2u260_41 10B6                                           i2u252_41 1038  
                                         i2u309_40 13FA                                           i2u261_40 10D2  
                                         i2u253_40 104E                                           i2u309_41 13F6  
                                         i2u261_41 10CE                                           i2u253_41 104A  
                                         i2u270_40 1168                                           i2u262_40 10E0  
                                         i2u254_40 105C                                           i2u270_41 1164  
                                         i2u262_41 10DC                                           i2u254_41 1058  
                                         i2u271_40 1176                                           i2u263_40 10EE  
                                         i2u255_40 106E                                           i2u271_41 1172  
                                         i2u263_41 10EA                                           i2u255_41 106A  
                                         i2u280_40 120E                                           i2u272_40 1186  
                                         i2u264_40 10FE                                           i2u256_40 107C  
                                         i2u280_41 120A                                           i2u272_41 1182  
                                         i2u264_41 10FA                                           i2u256_41 1078  
                                         i2u281_40 1226                                           i2u273_40 119E  
                                         i2u265_40 1116                                           i2u257_40 108E  
                                         i2u281_41 1222                                           i2u273_41 119A  
                                         i2u265_41 1112                                           i2u257_41 108A  
                                         _PIR1bits 0F9E                                           i2u290_40 12BC  
                                         i2u282_40 1234                                           i2u274_40 11AC  
                                         i2u266_40 1124                                           i2u258_40 109C  
                                         i2u290_41 12B8                                           i2u282_41 1230  
                                         i2u274_41 11A8                                           i2u266_41 1120  
                                         i2u258_41 1098                                           i2u291_40 12CE  
                                         i2u283_40 1242                                           i2u275_40 11BA  
                                         i2u267_40 1132                                           i2u259_40 10AA  
                                         i2u291_41 12CA                                           i2u283_41 123E  
                                         i2u275_41 11B6                                           i2u267_41 112E  
                                         i2u259_41 10A6                                           _PIR2bits 0FA1  
                                         i2u292_40 12DC                                           i2u284_40 1252  
                                         i2u276_40 11CA                                           i2u268_40 1142  
                                         i2u292_41 12D8                                           i2u284_41 124E  
                                         i2u276_41 11C6                                           i2u268_41 113E  
                                         i2u293_40 12EE                                           i2u285_40 126A  
                                         i2u277_40 11E2                                           i2u269_40 115A  
                                         i2u293_41 12EA                                           i2u285_41 1266  
                                         i2u277_41 11DE                                           i2u269_41 1156  
                                         i2u294_40 12FC                                           i2u286_40 1278  
                                         i2u278_40 11F0                                           i2u294_41 12F8  
                                         i2u286_41 1274                                           i2u278_41 11EC  
                                         i2u295_40 130E                                           i2u287_40 1286  
                                         i2u279_40 11FE                                           i2u295_41 130A  
                                         i2u287_41 1282                                           i2u279_41 11FA  
                                         i2u296_40 131C                                           i2u288_40 1296  
                                         i2u296_41 1318                                           i2u288_41 1292  
                                         i2u297_40 132E                                           i2u289_40 12AE  
                                         i2u297_41 132A                                           i2u289_41 12AA  
                                         i2u298_40 133C                                           i2u298_41 1338  
                                         i2u299_40 134E                                           i2u299_41 134A  
                   Interrupt_INTx_Pin_Init@int_obj 0076                                           _TMR0_ISR 221A  
                                         _TMR1_ISR 24A4                                           _TMR2_ISR 24B0  
                                         _TMR3_ISR 2498                                         _ADCON0bits 0FC2  
                                       _ADCON1bits 0FC1                                         _ADCON2bits 0FC0  
                          __end_of_MSSP_I2C_BC_ISR 24C6                    __end_of_Timer0_Prescaler_Config 219C  
                             ??_gpio_pin_intialize 0079                                    fp__Int0_APP_ISR 0000  
                                  fp__Int1_APP_ISR 0000                                    fp__Int2_APP_ISR 0000  
                                      _seg1_enable 0068                                        _seg2_enable 0067  
                                      _seg3_enable 0066                                        _seg4_enable 0065  
                          gpio_pin_write_logic@ret 0076                                        _INTCON2bits 0FF1  
                                      _INTCON3bits 0FF0                                        _seg5_enable 0064  
                                        copy_data0 20F4                                          copy_data1 2114  
                                      _seg6_enable 0063                           ?_Interrupt_INTx_Pin_Init 0076  
                         _INT0_SetInterruptHandler 23BC                                         _EECON1bits 0FA6  
                                         __Hrparam 0000                                           __Lrparam 0000  
                      INT0_SetInterruptHandler@ret 006F                                  RB6_ISR@RB6_Source 0069  
                            _CCP1_InterruptHandler 0037                          Interrupt_INTx_Disable@ret 0071  
                       Interrupt_INTx_Init@int_obj 0079                                 _Timer0_Mode_Select 1E28  
                               __end_of_btn_values 1011                              _TMR1_InterruptHandler 0011  
                                     _MSSP_I2C_ISR 24BE                                ?_Timer0_Mode_Select 006D  
                                         __ptext10 1E28                                           __ptext11 1D2A  
                                         __ptext20 1F24                                           __ptext12 1B48  
                                         __ptext21 1F96                                           __ptext13 2368  
                                         __ptext30 2410                                           __ptext22 1A98  
                                         __ptext14 2392                                           __ptext31 242A  
                                         __ptext23 19D4                                           __ptext15 23BC  
                                         __ptext40 24C6                                           __ptext32 2444  
                                         __ptext16 2284                                           __ptext41 24CA  
                                         __ptext33 245E                                           __ptext25 2498  
                                         __ptext17 1638                                           __ptext42 2488  
                                         __ptext34 24B8                                           __ptext26 24B0  
                                         __ptext18 1EA6                                           __ptext43 24CE  
                                         __ptext35 24BE                                           __ptext27 24A4  
                                         __ptext19 18A8                                           __ptext44 23E6  
                                         __ptext36 24C2                                           __ptext28 221A  
                                         __ptext45 24D2                                           __ptext37 22B4  
                                         __ptext29 2250                                           __ptext46 24D6  
                                         __ptext38 22E2                                           __ptext47 24DA  
                                         __ptext39 2310                                           __ptext48 0000  
                                    ?_Int0_APP_ISR 0069                                           _int0_obj 0058  
                                         _int1_obj 00B9                                           _int2_obj 00B3  
                                    ?_Int1_APP_ISR 0069                   Interrupt_INTx_Clear_Flag@int_obj 006D  
                                    ?_Int2_APP_ISR 0069                                       _MSSP_SPI_ISR 24B8  
                                 ??_ecu_layer_init 007B               __end_of_TMR0_DefaultInterruptHandler 2284  
                     _TMR0_DefaultInterruptHandler 2250                __end_of_seven_segement_write_number 1D2A  
                      _seven_segement_write_number 1C96                               ??_Timer0_Mode_Select 006F  
                                         isa$xinst 0000                                           int$flags 007B  
                                   Timer0_Init@ret 0074                           Timer0_Mode_Select@_timer 006D  
                         ??_Interrupt_INTx_Disable 006F                                   ?_MSSP_I2C_BC_ISR 0069  
                              _Interrupt_INTx_Init 1D2A                                         _INTCONbits 0FF2  
                  __end_of_Interrupt_INTx_Pin_Init 22B4                                     ??_Int0_APP_ISR 0069  
                     __end_of_gpio_pin_write_logic 18A8                                     ??_Int1_APP_ISR 0069  
                                   ??_Int2_APP_ISR 0069                                           intlevel2 0000  
                seven_segement_write_number@number 0079                          _EUSART_TxInterruptHandler 0007  
                     Interrupt_INTx_Clear_Flag@ret 0071                               ?_Interrupt_INTx_Init 0079  
            Interrupt_INTx_SetInterruptHandler@ret 0074                    fp__TMR0_DefaultInterruptHandler 0000  
                    ?_TMR0_DefaultInterruptHandler 0069                         Interrupt_INTx_Pin_Init@ret 0078  
                          ??_Interrupt_INTx_Enable 006F                                     _port_registers 0080  
                 __end_of_INT1_SetInterruptHandler 23BC                                        _SSPCON1bits 0FC6  
                                      _SSPCON2bits 0FC5                         ??_seven_segement_intialize 007B  
                            _CCP2_InterruptHandler 0035                              ??_Interrupt_INTx_Init 007B  
                            _TMR2_InterruptHandler 000D                                  ?_InterruptManager 0069  
