

Microchip MPLAB XC8 Assembler V2.41 build 20230208172133 
                                                                                               Fri Nov 24 20:54:48 2023

Microchip MPLAB XC8 C Compiler v2.41 (Free license) build 20230208172133 Og1 
     1                           	processor	18F4620
     2                           	fnconf	rparam,??,?,0
     3                           	pagewidth 120
     4                           	opt	flic
     5                           	psect	idataCOMRAM,global,class=CODE,delta=1,noexec
     6                           	psect	idataBANK0,global,class=CODE,delta=1,noexec
     7                           	psect	smallconst,global,reloc=2,class=SMALLCONST,delta=1,noexec
     8                           	psect	nvCOMRAM,global,class=COMRAM,space=1,delta=1,lowdata,noexec
     9                           	psect	nvBANK0,global,class=BANK0,space=1,delta=1,lowdata,noexec
    10                           	psect	cinit,global,reloc=2,class=CODE,delta=1
    11                           	psect	bssCOMRAM,global,class=COMRAM,space=1,delta=1,lowdata,noexec
    12                           	psect	dataCOMRAM,global,class=COMRAM,space=1,delta=1,lowdata,noexec
    13                           	psect	bssBANK0,global,class=BANK0,space=1,delta=1,lowdata,noexec
    14                           	psect	dataBANK0,global,class=BANK0,space=1,delta=1,lowdata,noexec
    15                           	psect	cstackBANK1,global,class=BANK1,space=1,delta=1,lowdata,noexec
    16                           	psect	cstackBANK0,global,class=BANK0,space=1,delta=1,lowdata,noexec
    17                           	psect	cstackCOMRAM,global,class=COMRAM,space=1,delta=1,lowdata,noexec
    18                           	psect	text0,global,reloc=2,class=CODE,delta=1
    19                           	psect	text1,global,reloc=2,class=CODE,delta=1
    20                           	psect	text2,global,reloc=2,class=CODE,delta=1
    21                           	psect	text3,global,reloc=2,class=CODE,delta=1
    22                           	psect	text4,global,reloc=2,class=CODE,delta=1
    23                           	psect	text5,global,reloc=2,class=CODE,delta=1
    24                           	psect	text6,global,reloc=2,class=CODE,delta=1
    25                           	psect	text7,global,reloc=2,class=CODE,delta=1
    26                           	psect	text8,global,reloc=2,class=CODE,delta=1
    27                           	psect	text9,global,reloc=2,class=CODE,delta=1,inline
    28                           	psect	text10,global,reloc=2,class=CODE,delta=1,inline
    29                           	psect	text11,global,reloc=2,class=CODE,delta=1,inline
    30                           	psect	text12,global,reloc=2,class=CODE,delta=1
    31                           	psect	text13,global,reloc=2,class=CODE,delta=1
    32                           	psect	text14,global,reloc=2,class=CODE,delta=1
    33                           	psect	text15,global,reloc=2,class=CODE,delta=1
    34                           	psect	text16,global,reloc=2,class=CODE,delta=1
    35                           	psect	text17,global,reloc=2,class=CODE,delta=1
    36                           	psect	text18,global,reloc=2,class=CODE,delta=1
    37                           	psect	text19,global,reloc=2,class=CODE,delta=1
    38                           	psect	text20,global,reloc=2,class=CODE,delta=1
    39                           	psect	text21,global,reloc=2,class=CODE,delta=1
    40                           	psect	text22,global,reloc=2,class=CODE,delta=1
    41                           	psect	text23,global,reloc=2,class=CODE,delta=1,group=1
    42                           	psect	text24,global,reloc=2,class=CODE,delta=1,group=1
    43                           	psect	text25,global,reloc=2,class=CODE,delta=1
    44                           	psect	text26,global,reloc=2,class=CODE,delta=1
    45                           	psect	text27,global,reloc=2,class=CODE,delta=1
    46                           	psect	text28,global,reloc=2,class=CODE,delta=1
    47                           	psect	text29,global,reloc=2,class=CODE,delta=1
    48                           	psect	text30,global,reloc=2,class=CODE,delta=1
    49                           	psect	text31,global,reloc=2,class=CODE,delta=1
    50                           	psect	text32,global,reloc=2,class=CODE,delta=1
    51                           	psect	text33,global,reloc=2,class=CODE,delta=1
    52                           	psect	text34,global,reloc=2,class=CODE,delta=1
    53                           	psect	text35,global,reloc=2,class=CODE,delta=1
    54                           	psect	text36,global,reloc=2,class=CODE,delta=1
    55                           	psect	text37,global,reloc=2,class=CODE,delta=1
    56                           	psect	text38,global,reloc=2,class=CODE,delta=1
    57                           	psect	text39,global,reloc=2,class=CODE,delta=1
    58                           	psect	intcode,global,reloc=2,class=CODE,delta=1
    59                           	psect	intcode_body,global,reloc=2,class=CODE,delta=1
    60                           	psect	text41,global,reloc=2,class=CODE,delta=1
    61                           	psect	text42,global,reloc=2,class=CODE,delta=1
    62                           	psect	text43,global,reloc=2,class=CODE,delta=1
    63                           	psect	text44,global,reloc=2,class=CODE,delta=1
    64                           	psect	text45,global,reloc=2,class=CODE,delta=1
    65                           	psect	text46,global,reloc=2,class=CODE,delta=1
    66                           	psect	text47,global,reloc=2,class=CODE,delta=1
    67                           	psect	text48,global,reloc=2,class=CODE,delta=1
    68                           	psect	text49,global,reloc=2,class=CODE,delta=1
    69                           	psect	text50,global,reloc=2,class=CODE,delta=1
    70                           	psect	text51,global,reloc=2,class=CODE,delta=1
    71                           	psect	text52,global,reloc=2,class=CODE,delta=1
    72                           	psect	text53,global,reloc=2,class=CODE,delta=1
    73                           	psect	text54,global,reloc=2,class=CODE,delta=1
    74                           	psect	text55,global,reloc=2,class=CODE,delta=1
    75                           	psect	text56,global,reloc=2,class=CODE,delta=1
    76                           	psect	text57,global,reloc=2,class=CODE,delta=1
    77                           	psect	text58,global,reloc=2,class=CODE,delta=1
    78                           	psect	text59,global,reloc=2,class=CODE,delta=1
    79                           	psect	text60,global,reloc=2,class=CODE,delta=1
    80                           	psect	text61,global,reloc=2,class=CODE,delta=1
    81                           	psect	text62,global,reloc=2,class=CODE,delta=1
    82                           	psect	text63,global,reloc=2,class=CODE,delta=1
    83                           	psect	text64,global,reloc=2,class=CODE,delta=1
    84                           	psect	text65,global,reloc=2,class=CODE,delta=1
    85                           	psect	text66,global,reloc=2,class=CODE,delta=1
    86                           	psect	text67,global,reloc=2,class=CODE,delta=1
    87                           	psect	intsave_regs,global,class=BIGRAM,space=1,delta=1,noexec
    88                           	psect	text68,global,reloc=2,class=CODE,delta=1
    89                           	psect	rparam,global,class=COMRAM,space=1,delta=1,noexec
    90                           	psect	temp,global,ovrld,common,class=COMRAM,space=1,delta=1
    91                           	psect	idloc,global,abs,ovrld,class=IDLOC,space=5,delta=1,noexec
    92                           	psect	config,global,abs,ovrld,class=CONFIG,space=4,delta=1,noexec
    93   000000                     
    94                           ; Generated 23/03/2023 GMT
    95                           ; 
    96                           ; Copyright © 2023, Microchip Technology Inc. and its subsidiaries ("Microchip")
    97                           ; All rights reserved.
    98                           ; 
    99                           ; This software is developed by Microchip Technology Inc. and its subsidiaries ("Microch
      +                          ip").
   100                           ; 
   101                           ; Redistribution and use in source and binary forms, with or without modification, are
   102                           ; permitted provided that the following conditions are met:
   103                           ; 
   104                           ;     1. Redistributions of source code must retain the above copyright notice, this lis
      +                          t of
   105                           ;        conditions and the following disclaimer.
   106                           ; 
   107                           ;     2. Redistributions in binary form must reproduce the above copyright notice, this 
      +                          list
   108                           ;        of conditions and the following disclaimer in the documentation and/or other
   109                           ;        materials provided with the distribution. Publication is not required when
   110                           ;        this file is used in an embedded application.
   111                           ; 
   112                           ;     3. Microchip's name may not be used to endorse or promote products derived from th
      +                          is
   113                           ;        software without specific prior written permission.
   114                           ; 
   115                           ; THIS SOFTWARE IS PROVIDED BY MICROCHIP "AS IS" AND ANY EXPRESS OR IMPLIED WARRANTIES,
   116                           ; INCLUDING, BUT NOT LIMITED TO, THE IMPLIED WARRANTIES OF MERCHANTABILITY AND FITNESS F
      +                          OR
   117                           ; PURPOSE ARE DISCLAIMED.  IN NO EVENT SHALL MICROCHIP BE LIABLE FOR ANY DIRECT, INDIREC
      +                          T,
   118                           ; INCIDENTAL, SPECIAL, EXEMPLARY, OR CONSEQUENTIAL DAMAGES (INCLUDING BUT NOT LIMITED TO
   119                           ; PROCUREMENT OF SUBSTITUTE GOODS OR SERVICES; LOSS OF USE, DATA OR PROFITS; OR BUSINESS
   120                           ; INTERRUPTION) HOWSOEVER CAUSED AND ON ANY THEORY OF LIABILITY, WHETHER IN CONTRACT, ST
      +                          RICT
   121                           ; LIABILITY, OR TORT (INCLUDING NEGLIGENCE OR OTHERWISE) ARISING IN ANY WAY OUT OF THE U
      +                          SE OF
   122                           ; THIS SOFTWARE, EVEN IF ADVISED OF THE POSSIBILITY OF SUCH DAMAGE.
   123                           ; 
   124                           ; 
   125                           ; Code-generator required, PIC18F4620 Definitions
   126                           ; 
   127                           ; SFR Addresses
   128   000000                     
   129                           	psect	idataCOMRAM
   130   003026                     __pidataCOMRAM:
   131                           	callstack 0
   132                           
   133                           ;initializer for MSSP_SPI_Slave_Mode_GPIO_PIN_Configurations@F3611
   134   003026  68                 	db	104
   135                           
   136                           ;initializer for MSSP_SPI_Slave_Mode_GPIO_PIN_Configurations@F3609
   137   003027  5A                 	db	90
   138                           
   139                           ;initializer for MSSP_SPI_Slave_Mode_GPIO_PIN_Configurations@F3607
   140   003028  62                 	db	98
   141                           
   142                           ;initializer for MSSP_SPI_Slave_Mode_GPIO_PIN_Configurations@F3605
   143   003029  2A                 	db	42
   144                           
   145                           ;initializer for MSSP_SPI_Msster_Mode_GPIO_PIN_Configurations@F3600
   146   00302A  1A                 	db	26
   147                           
   148                           ;initializer for MSSP_SPI_Msster_Mode_GPIO_PIN_Configurations@F3598
   149   00302B  62                 	db	98
   150                           
   151                           ;initializer for MSSP_SPI_Msster_Mode_GPIO_PIN_Configurations@F3596
   152   00302C  2A                 	db	42
   153                           
   154                           ;initializer for _RB7_Flag
   155   00302D  01                 	db	1
   156                           
   157                           ;initializer for _RB6_Flag
   158   00302E  01                 	db	1
   159                           
   160                           ;initializer for _RB5_Flag
   161   00302F  01                 	db	1
   162                           
   163                           ;initializer for _RB4_Flag
   164   003030  01                 	db	1
   165                           
   166                           ;initializer for _ready_yellow
   167   003031  28                 	db	40
   168                           
   169                           ;initializer for _led_green_people
   170   003032  18                 	db	24
   171                           
   172                           ;initializer for _led_red_people
   173   003033  10                 	db	16
   174                           
   175                           ;initializer for _led_green_car
   176   003034  08                 	db	8
   177                           
   178                           	psect	idataBANK0
   179   002BDA                     __pidataBANK0:
   180                           	callstack 0
   181                           
   182                           ;initializer for _port_registers
   183   002BDA  80                 	db	128
   184   002BDB  0F                 	db	15
   185   002BDC  81                 	db	129
   186   002BDD  0F                 	db	15
   187   002BDE  82                 	db	130
   188   002BDF  0F                 	db	15
   189   002BE0  83                 	db	131
   190   002BE1  0F                 	db	15
   191   002BE2  84                 	db	132
   192   002BE3  0F                 	db	15
   193                           
   194                           ;initializer for _lat_registers
   195   002BE4  89                 	db	137
   196   002BE5  0F                 	db	15
   197   002BE6  8A                 	db	138
   198   002BE7  0F                 	db	15
   199   002BE8  8B                 	db	139
   200   002BE9  0F                 	db	15
   201   002BEA  8C                 	db	140
   202   002BEB  0F                 	db	15
   203   002BEC  8D                 	db	141
   204   002BED  0F                 	db	15
   205                           
   206                           ;initializer for _tris_registers
   207   002BEE  92                 	db	146
   208   002BEF  0F                 	db	15
   209   002BF0  93                 	db	147
   210   002BF1  0F                 	db	15
   211   002BF2  94                 	db	148
   212   002BF3  0F                 	db	15
   213   002BF4  95                 	db	149
   214   002BF5  0F                 	db	15
   215   002BF6  96                 	db	150
   216   002BF7  0F                 	db	15
   217                           
   218                           ;initializer for _lcd_2
   219   002BF8  32                 	db	50
   220   002BF9  3A                 	db	58
   221   002BFA  03                 	db	3
   222   002BFB  0B                 	db	11
   223   002BFC  13                 	db	19
   224   002BFD  1B                 	db	27
   225   002BFE  23                 	db	35
   226   002BFF  2B                 	db	43
   227   002C00  33                 	db	51
   228   002C01  3B                 	db	59
   229                           
   230                           ;initializer for _keypad1
   231   002C02  32                 	db	50
   232   002C03  3A                 	db	58
   233   002C04  03                 	db	3
   234   002C05  0B                 	db	11
   235   002C06  53                 	db	83
   236   002C07  5B                 	db	91
   237   002C08  63                 	db	99
   238   002C09  6B                 	db	107
   239                           
   240                           ;initializer for _timer0
   241   002C0A  C8                 	db	low _TMR0_DefualtInterruptHandler
   242   002C0B  20                 	db	high _TMR0_DefualtInterruptHandler
   243   002C0C  00                 	db	0
   244   002C0D  03                 	db	3
   245   002C0E  6D84               	dw	28036
   246   002C10  07                 	db	7
   247                           
   248                           ;initializer for _int0_obj
   249   002C11  84                 	db	low _Int0_APP_ISR
   250   002C12  2B                 	db	high _Int0_APP_ISR
   251   002C13  41                 	db	65
   252   002C14  01                 	db	1
   253   002C15  00                 	db	0
   254   002C16  01                 	db	1
   255                           
   256                           ;initializer for _lcd_1
   257   002C17  03                 	db	3
   258   002C18  0B                 	db	11
   259   002C19  13                 	db	19
   260   002C1A  1B                 	db	27
   261   002C1B  23                 	db	35
   262   002C1C  2B                 	db	43
   263                           
   264                           ;initializer for _seg2
   265   002C1D  22                 	db	34
   266   002C1E  2A                 	db	42
   267   002C1F  32                 	db	50
   268   002C20  3A                 	db	58
   269   002C21  01                 	db	1
   270                           
   271                           ;initializer for _seg1
   272   002C22  02                 	db	2
   273   002C23  0A                 	db	10
   274   002C24  12                 	db	18
   275   002C25  1A                 	db	26
   276   002C26  01                 	db	1
   277                           
   278                           	psect	smallconst
   279   001000                     __psmallconst:
   280                           	callstack 0
   281   001000  00                 	db	0
   282   001001                     _btn_values:
   283                           	callstack 0
   284   001001  37                 	db	55
   285   001002  38                 	db	56
   286   001003  39                 	db	57
   287   001004  2F                 	db	47
   288   001005  34                 	db	52
   289   001006  35                 	db	53
   290   001007  36                 	db	54
   291   001008  2A                 	db	42
   292   001009  31                 	db	49
   293   00100A  32                 	db	50
   294   00100B  33                 	db	51
   295   00100C  2D                 	db	45
   296   00100D  23                 	db	35
   297   00100E  30                 	db	48
   298   00100F  3D                 	db	61
   299   001010  2B                 	db	43
   300   001011                     __end_of_btn_values:
   301                           	callstack 0
   302   000000                     _SPBRGH	set	4016
   303   000000                     _SPBRG	set	4015
   304   000000                     _TXREG	set	4013
   305   000000                     _TXSTAbits	set	4012
   306   000000                     _RCREG	set	4014
   307   000000                     _RCSTAbits	set	4011
   308   000000                     _TMR3L	set	4018
   309   000000                     _TMR3H	set	4019
   310   000000                     _TMR1L	set	4046
   311   000000                     _TMR1H	set	4047
   312   000000                     _TMR0L	set	4054
   313   000000                     _TMR0H	set	4055
   314   000000                     _INTCON2bits	set	4081
   315   000000                     _SSPSTATbits	set	4039
   316   000000                     _SSPADD	set	4040
   317   000000                     _SSPCON2bits	set	4037
   318   000000                     _SSPCON1bits	set	4038
   319   000000                     _EECON2	set	4007
   320   000000                     _CCPR1H	set	4031
   321   000000                     _CCPR1L	set	4030
   322   000000                     _ADCON1bits	set	4033
   323   000000                     _ADRESL	set	4035
   324   000000                     _ADRESH	set	4036
   325   000000                     _INTCONbits	set	4082
   326   000000                     _TRISD	set	3989
   327   000000                     _TRISC	set	3988
   328   000000                     _TRISB	set	3987
   329   000000                     _TRISE	set	3990
   330   001011                     STR_4:
   331   001011  50                 	db	80	;'P'
   332   001012  65                 	db	101	;'e'
   333   001013  64                 	db	100	;'d'
   334   001014  65                 	db	101	;'e'
   335   001015  73                 	db	115	;'s'
   336   001016  74                 	db	116	;'t'
   337   001017  72                 	db	114	;'r'
   338   001018  69                 	db	105	;'i'
   339   001019  61                 	db	97	;'a'
   340   00101A  6E                 	db	110	;'n'
   341   00101B  73                 	db	115	;'s'
   342   00101C  20                 	db	32
   343   00101D  62                 	db	98	;'b'
   344   00101E  65                 	db	101	;'e'
   345   00101F  20                 	db	32
   346   001020  52                 	db	82	;'R'
   347   001021  65                 	db	101	;'e'
   348   001022  61                 	db	97	;'a'
   349   001023  64                 	db	100	;'d'
   350   001024  79                 	db	121	;'y'
   351   001025  20                 	db	32
   352   001026  00                 	db	0
   353   001027                     STR_14:
   354   001027  50                 	db	80	;'P'
   355   001028  65                 	db	101	;'e'
   356   001029  64                 	db	100	;'d'
   357   00102A  65                 	db	101	;'e'
   358   00102B  73                 	db	115	;'s'
   359   00102C  74                 	db	116	;'t'
   360   00102D  72                 	db	114	;'r'
   361   00102E  69                 	db	105	;'i'
   362   00102F  61                 	db	97	;'a'
   363   001030  6E                 	db	110	;'n'
   364   001031  20                 	db	32
   365   001032  4D                 	db	77	;'M'
   366   001033  4F                 	db	79	;'O'
   367   001034  56                 	db	86	;'V'
   368   001035  45                 	db	69	;'E'
   369   001036  20                 	db	32
   370   001037  3D                 	db	61	;'='
   371   001038  3E                 	db	62	;'>'
   372   001039  3D                 	db	61	;'='
   373   00103A  3E                 	db	62	;'>'
   374   00103B  00                 	db	0
   375   00103C                     STR_13:
   376   00103C  50                 	db	80	;'P'
   377   00103D  65                 	db	101	;'e'
   378   00103E  64                 	db	100	;'d'
   379   00103F  65                 	db	101	;'e'
   380   001040  73                 	db	115	;'s'
   381   001041  74                 	db	116	;'t'
   382   001042  72                 	db	114	;'r'
   383   001043  69                 	db	105	;'i'
   384   001044  61                 	db	97	;'a'
   385   001045  6E                 	db	110	;'n'
   386   001046  73                 	db	115	;'s'
   387   001047  20                 	db	32
   388   001048  53                 	db	83	;'S'
   389   001049  54                 	db	84	;'T'
   390   00104A  4F                 	db	79	;'O'
   391   00104B  50                 	db	80	;'P'
   392   00104C  21                 	db	33
   393   00104D  21                 	db	33
   394   00104E  20                 	db	32
   395   00104F  00                 	db	0
   396   001050                     STR_9:
   397   001050  54                 	db	84	;'T'
   398   001051  6F                 	db	111	;'o'
   399   001052  20                 	db	32
   400   001053  5B                 	db	91	;'['
   401   001054  20                 	db	32
   402   001055  4D                 	db	77	;'M'
   403   001056  4F                 	db	79	;'O'
   404   001057  56                 	db	86	;'V'
   405   001058  45                 	db	69	;'E'
   406   001059  20                 	db	32
   407   00105A  5D                 	db	93	;']'
   408   00105B  20                 	db	32
   409   00105C  3D                 	db	61	;'='
   410   00105D  3E                 	db	62	;'>'
   411   00105E  3D                 	db	61	;'='
   412   00105F  3E                 	db	62	;'>'
   413   001060  00                 	db	0
   414   001061                     STR_10:
   415   001061  50                 	db	80	;'P'
   416   001062  65                 	db	101	;'e'
   417   001063  64                 	db	100	;'d'
   418   001064  65                 	db	101	;'e'
   419   001065  73                 	db	115	;'s'
   420   001066  74                 	db	116	;'t'
   421   001067  72                 	db	114	;'r'
   422   001068  69                 	db	105	;'i'
   423   001069  61                 	db	97	;'a'
   424   00106A  6E                 	db	110	;'n'
   425   00106B  73                 	db	115	;'s'
   426   00106C  20                 	db	32
   427   00106D  62                 	db	98	;'b'
   428   00106E  65                 	db	101	;'e'
   429   00106F  20                 	db	32
   430   001070  00                 	db	0
   431   001071                     STR_7:
   432   001071  52                 	db	82	;'R'
   433   001072  65                 	db	101	;'e'
   434   001073  61                 	db	97	;'a'
   435   001074  64                 	db	100	;'d'
   436   001075  79                 	db	121	;'y'
   437   001076  20                 	db	32
   438   001077  74                 	db	116	;'t'
   439   001078  6F                 	db	111	;'o'
   440   001079  20                 	db	32
   441   00107A  53                 	db	83	;'S'
   442   00107B  54                 	db	84	;'T'
   443   00107C  4F                 	db	79	;'O'
   444   00107D  50                 	db	80	;'P'
   445   00107E  21                 	db	33
   446   00107F  21                 	db	33
   447   001080  00                 	db	0
   448   001081                     STR_8:
   449   001081  43                 	db	67	;'C'
   450   001082  61                 	db	97	;'a'
   451   001083  72                 	db	114	;'r'
   452   001084  73                 	db	115	;'s'
   453   001085  20                 	db	32
   454   001086  62                 	db	98	;'b'
   455   001087  65                 	db	101	;'e'
   456   001088  20                 	db	32
   457   001089  52                 	db	82	;'R'
   458   00108A  65                 	db	101	;'e'
   459   00108B  61                 	db	97	;'a'
   460   00108C  64                 	db	100	;'d'
   461   00108D  79                 	db	121	;'y'
   462   00108E  20                 	db	32
   463   00108F  00                 	db	0
   464   001090                     STR_12:
   465   001090  43                 	db	67	;'C'
   466   001091  61                 	db	97	;'a'
   467   001092  72                 	db	114	;'r'
   468   001093  73                 	db	115	;'s'
   469   001094  20                 	db	32
   470   001095  4D                 	db	77	;'M'
   471   001096  4F                 	db	79	;'O'
   472   001097  56                 	db	86	;'V'
   473   001098  45                 	db	69	;'E'
   474   001099  20                 	db	32
   475   00109A  3D                 	db	61	;'='
   476   00109B  3E                 	db	62	;'>'
   477   00109C  3D                 	db	61	;'='
   478   00109D  3E                 	db	62	;'>'
   479   00109E  00                 	db	0
   480   00109F                     STR_15:
   481   00109F  43                 	db	67	;'C'
   482   0010A0  61                 	db	97	;'a'
   483   0010A1  72                 	db	114	;'r'
   484   0010A2  73                 	db	115	;'s'
   485   0010A3  20                 	db	32
   486   0010A4  53                 	db	83	;'S'
   487   0010A5  54                 	db	84	;'T'
   488   0010A6  4F                 	db	79	;'O'
   489   0010A7  50                 	db	80	;'P'
   490   0010A8  21                 	db	33
   491   0010A9  21                 	db	33
   492   0010AA  20                 	db	32
   493   0010AB  00                 	db	0
   494   0010AC                     STR_5:
   495   0010AC  54                 	db	84	;'T'
   496   0010AD  6F                 	db	111	;'o'
   497   0010AE  20                 	db	32
   498   0010AF  4D                 	db	77	;'M'
   499   0010B0  4F                 	db	79	;'O'
   500   0010B1  56                 	db	86	;'V'
   501   0010B2  45                 	db	69	;'E'
   502   0010B3  20                 	db	32
   503   0010B4  3D                 	db	61	;'='
   504   0010B5  3E                 	db	62	;'>'
   505   0010B6  3D                 	db	61	;'='
   506   0010B7  3E                 	db	62	;'>'
   507   0010B8  00                 	db	0
   508   0010B9                     STR_6:
   509   0010B9  43                 	db	67	;'C'
   510   0010BA  61                 	db	97	;'a'
   511   0010BB  72                 	db	114	;'r'
   512   0010BC  73                 	db	115	;'s'
   513   0010BD  20                 	db	32
   514   0010BE  62                 	db	98	;'b'
   515   0010BF  65                 	db	101	;'e'
   516   0010C0  20                 	db	32
   517   0010C1  00                 	db	0
   518   0010C2                     STR_1:
   519   0010C2  25                 	db	37
   520   0010C3  69                 	db	105	;'i'
   521   0010C4  00                 	db	0
   522   0010C5  00                 	db	0	; dummy byte at the end
   523   000000                     
   524                           	psect	nvCOMRAM
   525   000060                     __pnvCOMRAM:
   526                           	callstack 0
   527   000060                     _traffic_light_event:
   528                           	callstack 0
   529   000060                     	ds	1
   530                           
   531                           	psect	nvBANK0
   532   0000FD                     __pnvBANK0:
   533                           	callstack 0
   534   0000FD                     _traffic_light_state:
   535                           	callstack 0
   536   0000FD                     	ds	1
   537   0000FE                     _ret:
   538                           	callstack 0
   539   0000FE                     	ds	1
   540   0000FF                     _next_traffic_light_event:
   541                           	callstack 0
   542   0000FF                     	ds	1
   543   000000                     _PORTBbits	set	3969
   544   000000                     _TRISCbits	set	3988
   545   000000                     _PIE1bits	set	3997
   546   000000                     _ADCON2bits	set	4032
   547   000000                     _ADCON0bits	set	4034
   548   000000                     _PORTE	set	3972
   549   000000                     _PORTD	set	3971
   550   000000                     _PORTC	set	3970
   551   000000                     _PORTB	set	3969
   552   000000                     _PORTA	set	3968
   553   000000                     _LATA	set	3977
   554   000000                     _TRISA	set	3986
   555   000000                     _PIE2bits	set	4000
   556   000000                     _CCP2CONbits	set	4026
   557   000000                     _CCP1CONbits	set	4029
   558   000000                     _PIR1bits	set	3998
   559   000000                     _EECON1bits	set	4006
   560   000000                     _EEDATA	set	4008
   561   000000                     _EEADR	set	4009
   562   000000                     _EEADRH	set	4010
   563   000000                     _T3CONbits	set	4017
   564   000000                     _PIR2bits	set	4001
   565   000000                     _LATE	set	3981
   566   000000                     _LATD	set	3980
   567   000000                     _LATC	set	3979
   568   000000                     _LATB	set	3978
   569   000000                     _TMR2	set	4044
   570   000000                     _T2CONbits	set	4042
   571   000000                     _T1CONbits	set	4045
   572   000000                     _T0CONbits	set	4053
   573   000000                     _INTCON3bits	set	4080
   574   000000                     _SSPBUF	set	4041
   575   000000                     _BAUDCONbits	set	4024
   576                           
   577                           ; #config settings
   578                           
   579                           	psect	cinit
   580   002ACA                     __pcinit:
   581                           	callstack 0
   582   002ACA                     start_initialization:
   583                           	callstack 0
   584   002ACA                     __initialization:
   585                           	callstack 0
   586                           
   587                           ; Initialize objects allocated to BANK0 (77 bytes)
   588                           ; load TBLPTR registers with __pidataBANK0
   589   002ACA  0EDA               	movlw	low __pidataBANK0
   590   002ACC  6EF6               	movwf	tblptrl,c
   591   002ACE  0E2B               	movlw	high __pidataBANK0
   592   002AD0  6EF7               	movwf	tblptrh,c
   593   002AD2  0E00               	movlw	low (__pidataBANK0 shr (0+16))
   594   002AD4  6EF8               	movwf	tblptru,c
   595   002AD6  EE00  F080         	lfsr	0,__pdataBANK0
   596   002ADA  EE10 F04D          	lfsr	1,77
   597   002ADE                     copy_data0:
   598   002ADE  0009               	tblrd		*+
   599   002AE0  CFF5 FFEE          	movff	tablat,postinc0
   600   002AE4  50E5               	movf	postdec1,w,c
   601   002AE6  50E1               	movf	fsr1l,w,c
   602   002AE8  E1FA               	bnz	copy_data0
   603                           
   604                           ; Initialize objects allocated to COMRAM (15 bytes)
   605                           ; load TBLPTR registers with __pidataCOMRAM
   606   002AEA  0E26               	movlw	low __pidataCOMRAM
   607   002AEC  6EF6               	movwf	tblptrl,c
   608   002AEE  0E30               	movlw	high __pidataCOMRAM
   609   002AF0  6EF7               	movwf	tblptrh,c
   610   002AF2  0E00               	movlw	low (__pidataCOMRAM shr (0+16))
   611   002AF4  6EF8               	movwf	tblptru,c
   612   002AF6  EE00  F051         	lfsr	0,__pdataCOMRAM
   613   002AFA  EE10 F00F          	lfsr	1,15
   614   002AFE                     copy_data1:
   615   002AFE  0009               	tblrd		*+
   616   002B00  CFF5 FFEE          	movff	tablat,postinc0
   617   002B04  50E5               	movf	postdec1,w,c
   618   002B06  50E1               	movf	fsr1l,w,c
   619   002B08  E1FA               	bnz	copy_data1
   620                           
   621                           ; Clear objects allocated to BANK0 (24 bytes)
   622   002B0A  EE00  F0CD         	lfsr	0,__pbssBANK0
   623   002B0E  0E18               	movlw	24
   624   002B10                     clear_0:
   625   002B10  6AEE               	clrf	postinc0,c
   626   002B12  06E8               	decf	wreg,f,c
   627   002B14  E1FD               	bnz	clear_0
   628                           
   629                           ; Clear objects allocated to COMRAM (46 bytes)
   630   002B16  EE00  F001         	lfsr	0,__pbssCOMRAM
   631   002B1A  0E2E               	movlw	46
   632   002B1C                     clear_1:
   633   002B1C  6AEE               	clrf	postinc0,c
   634   002B1E  06E8               	decf	wreg,f,c
   635   002B20  E1FD               	bnz	clear_1
   636   002B22                     end_of_initialization:
   637                           	callstack 0
   638   002B22                     __end_of__initialization:
   639                           	callstack 0
   640   002B22  9061               	bcf	int$flags,0,c	;clear compiler interrupt flag (level 1)
   641   002B24  9261               	bcf	int$flags,1,c	;clear compiler interrupt flag (level 2)
   642   002B26  0100               	movlb	0
   643   002B28  EFB1  F00D         	goto	_main	;jump to C main() function
   644                           
   645                           	psect	bssCOMRAM
   646   000001                     __pbssCOMRAM:
   647                           	callstack 0
   648   000001                     _timer3_preload:
   649                           	callstack 0
   650   000001                     	ds	2
   651   000003                     _timer1_preload:
   652                           	callstack 0
   653   000003                     	ds	2
   654   000005                     _timer0_preload:
   655                           	callstack 0
   656   000005                     	ds	2
   657   000007                     _TMR0_InterruptHandler:
   658                           	callstack 0
   659   000007                     	ds	2
   660   000009                     _RB7_InterruptHandler_LOW:
   661                           	callstack 0
   662   000009                     	ds	2
   663   00000B                     _RB7_InterruptHandler_HIGH:
   664                           	callstack 0
   665   00000B                     	ds	2
   666   00000D                     _RB6_InterruptHandler_LOW:
   667                           	callstack 0
   668   00000D                     	ds	2
   669   00000F                     _RB6_InterruptHandler_HIGH:
   670                           	callstack 0
   671   00000F                     	ds	2
   672   000011                     _RB5_InterruptHandler_LOW:
   673                           	callstack 0
   674   000011                     	ds	2
   675   000013                     _RB5_InterruptHandler_HIGH:
   676                           	callstack 0
   677   000013                     	ds	2
   678   000015                     _RB4_InterruptHandler_LOW:
   679                           	callstack 0
   680   000015                     	ds	2
   681   000017                     _RB4_InterruptHandler_HIGH:
   682                           	callstack 0
   683   000017                     	ds	2
   684   000019                     _INT2_InterruptHandler:
   685                           	callstack 0
   686   000019                     	ds	2
   687   00001B                     _INT1_InterruptHandler:
   688                           	callstack 0
   689   00001B                     	ds	2
   690   00001D                     _INT0_InterruptHandler:
   691                           	callstack 0
   692   00001D                     	ds	2
   693   00001F                     _I2C_DefaultInterruptHandle:
   694                           	callstack 0
   695   00001F                     	ds	2
   696   000021                     _I2C_Report_Write_Collision_InterruptHandler:
   697                           	callstack 0
   698   000021                     	ds	2
   699   000023                     CCP1_Capture_Mode_Read_Value@F3598:
   700                           	callstack 0
   701   000023                     	ds	2
   702   000025                     _CCP2_InterruptHandler:
   703                           	callstack 0
   704   000025                     	ds	2
   705   000027                     _CCP1_InterruptHandler:
   706                           	callstack 0
   707   000027                     	ds	2
   708   000029                     _ADC_InterruptHandler:
   709                           	callstack 0
   710   000029                     	ds	2
   711   00002B                     _next_state:
   712                           	callstack 0
   713   00002B                     	ds	1
   714   00002C                     _seven_seg_cnt:
   715                           	callstack 0
   716   00002C                     	ds	1
   717   00002D                     _timer2_preload:
   718                           	callstack 0
   719   00002D                     	ds	1
   720   00002E                     _led_red_car:
   721                           	callstack 0
   722   00002E                     	ds	1
   723                           
   724                           	psect	dataCOMRAM
   725   000051                     __pdataCOMRAM:
   726                           	callstack 0
   727   000051                     MSSP_SPI_Slave_Mode_GPIO_PIN_Configurations@F3611:
   728                           	callstack 0
   729   000051                     	ds	1
   730   000052                     MSSP_SPI_Slave_Mode_GPIO_PIN_Configurations@F3609:
   731                           	callstack 0
   732   000052                     	ds	1
   733   000053                     MSSP_SPI_Slave_Mode_GPIO_PIN_Configurations@F3607:
   734                           	callstack 0
   735   000053                     	ds	1
   736   000054                     MSSP_SPI_Slave_Mode_GPIO_PIN_Configurations@F3605:
   737                           	callstack 0
   738   000054                     	ds	1
   739   000055                     MSSP_SPI_Msster_Mode_GPIO_PIN_Configurations@F3600:
   740                           	callstack 0
   741   000055                     	ds	1
   742   000056                     MSSP_SPI_Msster_Mode_GPIO_PIN_Configurations@F3598:
   743                           	callstack 0
   744   000056                     	ds	1
   745   000057                     MSSP_SPI_Msster_Mode_GPIO_PIN_Configurations@F3596:
   746                           	callstack 0
   747   000057                     	ds	1
   748   000058                     _RB7_Flag:
   749                           	callstack 0
   750   000058                     	ds	1
   751   000059                     _RB6_Flag:
   752                           	callstack 0
   753   000059                     	ds	1
   754   00005A                     _RB5_Flag:
   755                           	callstack 0
   756   00005A                     	ds	1
   757   00005B                     _RB4_Flag:
   758                           	callstack 0
   759   00005B                     	ds	1
   760   00005C                     _ready_yellow:
   761                           	callstack 0
   762   00005C                     	ds	1
   763   00005D                     _led_green_people:
   764                           	callstack 0
   765   00005D                     	ds	1
   766   00005E                     _led_red_people:
   767                           	callstack 0
   768   00005E                     	ds	1
   769   00005F                     _led_green_car:
   770                           	callstack 0
   771   00005F                     	ds	1
   772                           
   773                           	psect	bssBANK0
   774   0000CD                     __pbssBANK0:
   775                           	callstack 0
   776   0000CD                     	ds	6
   777   0000D3                     _EUSART_OverrunErrorHandler:
   778                           	callstack 0
   779   0000D3                     	ds	2
   780   0000D5                     _EUSART_FramingErrorHandler:
   781                           	callstack 0
   782   0000D5                     	ds	2
   783   0000D7                     _EUSART_RxInterruptHandler:
   784                           	callstack 0
   785   0000D7                     	ds	2
   786   0000D9                     _EUSART_TxInterruptHandler:
   787                           	callstack 0
   788   0000D9                     	ds	2
   789   0000DB                     _TMR3_InterruptHandler:
   790                           	callstack 0
   791   0000DB                     	ds	2
   792   0000DD                     _TMR2_InterruptHandler:
   793                           	callstack 0
   794   0000DD                     	ds	2
   795   0000DF                     _TMR1_InterruptHandler:
   796                           	callstack 0
   797   0000DF                     	ds	2
   798   0000E1                     _SPI_InterruptHandler:
   799                           	callstack 0
   800   0000E1                     	ds	2
   801   0000E3                     _I2C_Report_Receive_Overflow_InterruptHandle:
   802                           	callstack 0
   803   0000E3                     	ds	2
   804                           
   805                           	psect	dataBANK0
   806   000080                     __pdataBANK0:
   807                           	callstack 0
   808   000080                     _port_registers:
   809                           	callstack 0
   810   000080                     	ds	10
   811   00008A                     _lat_registers:
   812                           	callstack 0
   813   00008A                     	ds	10
   814   000094                     _tris_registers:
   815                           	callstack 0
   816   000094                     	ds	10
   817   00009E                     _lcd_2:
   818                           	callstack 0
   819   00009E                     	ds	10
   820   0000A8                     _keypad1:
   821                           	callstack 0
   822   0000A8                     	ds	8
   823   0000B0                     _timer0:
   824                           	callstack 0
   825   0000B0                     	ds	7
   826   0000B7                     _int0_obj:
   827                           	callstack 0
   828   0000B7                     	ds	6
   829   0000BD                     _lcd_1:
   830                           	callstack 0
   831   0000BD                     	ds	6
   832   0000C3                     _seg2:
   833                           	callstack 0
   834   0000C3                     	ds	5
   835   0000C8                     _seg1:
   836                           	callstack 0
   837   0000C8                     	ds	5
   838                           
   839                           	psect	cstackBANK1
   840   000100                     __pcstackBANK1:
   841                           	callstack 0
   842   000100                     lcd_4bit_send_string_pos@lcd:
   843                           	callstack 0
   844                           
   845                           ; 2 bytes @ 0x0
   846   000100                     	ds	2
   847   000102                     lcd_4bit_send_string_pos@row:
   848                           	callstack 0
   849                           
   850                           ; 1 bytes @ 0x2
   851   000102                     	ds	1
   852   000103                     lcd_4bit_send_string_pos@column:
   853                           	callstack 0
   854                           
   855                           ; 1 bytes @ 0x3
   856   000103                     	ds	1
   857   000104                     lcd_4bit_send_string_pos@str:
   858                           	callstack 0
   859                           
   860                           ; 2 bytes @ 0x4
   861   000104                     	ds	2
   862                           
   863                           	psect	cstackBANK0
   864   0000E5                     __pcstackBANK0:
   865                           	callstack 0
   866   0000E5                     ??_gpio_pin_write_logic:
   867   0000E5                     ??_gpio_pin_direction_intialize:
   868   0000E5                     ??_gpio_pin_toggle_logic:
   869   0000E5                     Interrupt_INTx_Enable@ret:
   870                           	callstack 0
   871   0000E5                     Interrupt_INTx_Disable@ret:
   872                           	callstack 0
   873   0000E5                     Interrupt_INTx_Edge_Init@ret:
   874                           	callstack 0
   875   0000E5                     Interrupt_INTx_Clear_Flag@ret:
   876                           	callstack 0
   877   0000E5                     ___awdiv@counter:
   878                           	callstack 0
   879   0000E5                     ___awmod@counter:
   880                           	callstack 0
   881   0000E5                     Interrupt_INTx_SetInterruptHandler@int_obj:
   882                           	callstack 0
   883   0000E5                     Timer0_Init@_timer:
   884                           	callstack 0
   885                           
   886                           ; 2 bytes @ 0x0
   887   0000E5                     	ds	1
   888   0000E6                     ___awdiv@sign:
   889                           	callstack 0
   890   0000E6                     ___awmod@sign:
   891                           	callstack 0
   892                           
   893                           ; 1 bytes @ 0x1
   894   0000E6                     	ds	1
   895   0000E7                     ??_Interrupt_INTx_SetInterruptHandler:
   896   0000E7                     ??_Timer0_Init:
   897   0000E7                     ___awdiv@quotient:
   898                           	callstack 0
   899                           
   900                           ; 2 bytes @ 0x2
   901   0000E7                     	ds	3
   902   0000EA                     led_turn_toggle@ret:
   903                           	callstack 0
   904                           
   905                           ; 1 bytes @ 0x5
   906   0000EA                     	ds	1
   907   0000EB                     seven_segement_write_number@seg:
   908                           	callstack 0
   909   0000EB                     lcd_send_4bits@lcd:
   910                           	callstack 0
   911   0000EB                     lcd_4bit_send_enable_signal@lcd:
   912                           	callstack 0
   913   0000EB                     led_turn_on@led:
   914                           	callstack 0
   915   0000EB                     led_turn_off@led:
   916                           	callstack 0
   917   0000EB                     gpio_pin_intialize@_pin_config:
   918                           	callstack 0
   919   0000EB                     Interrupt_INTx_Pin_Init@int_obj:
   920                           	callstack 0
   921                           
   922                           ; 2 bytes @ 0x6
   923   0000EB                     	ds	2
   924   0000ED                     ??_gpio_pin_intialize:
   925   0000ED                     seven_segement_write_number@number:
   926                           	callstack 0
   927   0000ED                     lcd_send_4bits@_data_command:
   928                           	callstack 0
   929   0000ED                     lcd_4bit_send_enable_signal@ret:
   930                           	callstack 0
   931   0000ED                     led_turn_on@ret:
   932                           	callstack 0
   933   0000ED                     led_turn_off@ret:
   934                           	callstack 0
   935   0000ED                     Interrupt_INTx_Init@int_obj:
   936                           	callstack 0
   937                           
   938                           ; 2 bytes @ 0x8
   939   0000ED                     	ds	1
   940   0000EE                     seven_segement_write_number@ret:
   941                           	callstack 0
   942   0000EE                     lcd_send_4bits@ret:
   943                           	callstack 0
   944   0000EE                     gpio_pin_intialize@ret:
   945                           	callstack 0
   946                           
   947                           ; 1 bytes @ 0x9
   948   0000EE                     	ds	1
   949   0000EF                     Interrupt_INTx_Init@ret:
   950                           	callstack 0
   951   0000EF                     seven_segement_intialize@seg:
   952                           	callstack 0
   953   0000EF                     lcd_4bit_send_command@lcd:
   954                           	callstack 0
   955   0000EF                     lcd_4bit_send_char_data@lcd:
   956                           	callstack 0
   957   0000EF                     led_initialize@led:
   958                           	callstack 0
   959                           
   960                           ; 2 bytes @ 0xA
   961   0000EF                     	ds	2
   962   0000F1                     seven_segement_intialize@ret:
   963                           	callstack 0
   964   0000F1                     lcd_4bit_send_command@command:
   965                           	callstack 0
   966   0000F1                     lcd_4bit_send_char_data@data:
   967                           	callstack 0
   968   0000F1                     led_initialize@ret:
   969                           	callstack 0
   970                           
   971                           ; 1 bytes @ 0xC
   972   0000F1                     	ds	1
   973   0000F2                     lcd_4bit_send_command@ret:
   974                           	callstack 0
   975   0000F2                     lcd_4bit_send_char_data@ret:
   976                           	callstack 0
   977                           
   978                           ; 1 bytes @ 0xD
   979   0000F2                     	ds	1
   980   0000F3                     lcd_4bit_intialize@lcd:
   981                           	callstack 0
   982   0000F3                     lcd_4bit_set_cursor@lcd:
   983                           	callstack 0
   984                           
   985                           ; 2 bytes @ 0xE
   986   0000F3                     	ds	2
   987   0000F5                     ??_lcd_4bit_intialize:
   988   0000F5                     lcd_4bit_set_cursor@row:
   989                           	callstack 0
   990                           
   991                           ; 1 bytes @ 0x10
   992   0000F5                     	ds	1
   993   0000F6                     lcd_4bit_set_cursor@coulmn:
   994                           	callstack 0
   995                           
   996                           ; 1 bytes @ 0x11
   997   0000F6                     	ds	1
   998   0000F7                     ??_lcd_4bit_set_cursor:
   999   0000F7                     lcd_4bit_intialize@l_data_pins_counter:
  1000                           	callstack 0
  1001                           
  1002                           ; 1 bytes @ 0x12
  1003   0000F7                     	ds	1
  1004   0000F8                     lcd_4bit_intialize@ret:
  1005                           	callstack 0
  1006                           
  1007                           ; 1 bytes @ 0x13
  1008   0000F8                     	ds	1
  1009   0000F9                     lcd_4bit_set_cursor@ret:
  1010                           	callstack 0
  1011                           
  1012                           ; 1 bytes @ 0x14
  1013   0000F9                     	ds	1
  1014   0000FA                     lcd_4bit_send_string_pos@ret:
  1015                           	callstack 0
  1016                           
  1017                           ; 1 bytes @ 0x15
  1018   0000FA                     	ds	1
  1019   0000FB                     ??_main:
  1020                           
  1021                           ; 1 bytes @ 0x16
  1022   0000FB                     	ds	2
  1023                           
  1024                           	psect	cstackCOMRAM
  1025   00002F                     __pcstackCOMRAM:
  1026                           	callstack 0
  1027   00002F                     RB4_ISR@RB4_Source:
  1028                           	callstack 0
  1029   00002F                     RB5_ISR@RB5_Source:
  1030                           	callstack 0
  1031   00002F                     RB6_ISR@RB6_Source:
  1032                           	callstack 0
  1033   00002F                     RB7_ISR@RB7_Source:
  1034                           	callstack 0
  1035   00002F                     i2gpio_pin_write_logic@_pin_config:
  1036                           	callstack 0
  1037                           
  1038                           ; 2 bytes @ 0x0
  1039   00002F                     	ds	2
  1040   000031                     i2gpio_pin_write_logic@logic:
  1041                           	callstack 0
  1042                           
  1043                           ; 1 bytes @ 0x2
  1044   000031                     	ds	1
  1045   000032                     ??i2_gpio_pin_write_logic:
  1046                           
  1047                           ; 1 bytes @ 0x3
  1048   000032                     	ds	6
  1049   000038                     i2gpio_pin_write_logic@ret:
  1050                           	callstack 0
  1051                           
  1052                           ; 1 bytes @ 0x9
  1053   000038                     	ds	1
  1054   000039                     i2lcd_send_4bits@lcd:
  1055                           	callstack 0
  1056   000039                     i2lcd_4bit_send_enable_signal@lcd:
  1057                           	callstack 0
  1058   000039                     i2led_turn_off@led:
  1059                           	callstack 0
  1060                           
  1061                           ; 2 bytes @ 0xA
  1062   000039                     	ds	2
  1063   00003B                     i2lcd_send_4bits@_data_command:
  1064                           	callstack 0
  1065   00003B                     i2lcd_4bit_send_enable_signal@ret:
  1066                           	callstack 0
  1067   00003B                     i2led_turn_off@ret:
  1068                           	callstack 0
  1069                           
  1070                           ; 1 bytes @ 0xC
  1071   00003B                     	ds	1
  1072   00003C                     i2lcd_send_4bits@ret:
  1073                           	callstack 0
  1074                           
  1075                           ; 1 bytes @ 0xD
  1076   00003C                     	ds	1
  1077   00003D                     i2lcd_4bit_send_command@lcd:
  1078                           	callstack 0
  1079                           
  1080                           ; 2 bytes @ 0xE
  1081   00003D                     	ds	2
  1082   00003F                     i2lcd_4bit_send_command@command:
  1083                           	callstack 0
  1084                           
  1085                           ; 1 bytes @ 0x10
  1086   00003F                     	ds	1
  1087   000040                     i2lcd_4bit_send_command@ret:
  1088                           	callstack 0
  1089                           
  1090                           ; 1 bytes @ 0x11
  1091   000040                     	ds	1
  1092   000041                     lcd_4bit_clear@lcd:
  1093                           	callstack 0
  1094                           
  1095                           ; 2 bytes @ 0x12
  1096   000041                     	ds	2
  1097   000043                     lcd_4bit_clear@ret:
  1098                           	callstack 0
  1099                           
  1100                           ; 1 bytes @ 0x14
  1101   000043                     	ds	1
  1102   000044                     ??_TMR0_DefualtInterruptHandler:
  1103   000044                     
  1104                           ; 1 bytes @ 0x15
  1105   000044                     	ds	2
  1106   000046                     ??_InterruptManager:
  1107                           
  1108                           ; 1 bytes @ 0x17
  1109   000046                     	ds	7
  1110   00004D                     ?___awdiv:
  1111                           	callstack 0
  1112   00004D                     ?___awmod:
  1113                           	callstack 0
  1114   00004D                     gpio_pin_direction_intialize@_pin_config:
  1115                           	callstack 0
  1116   00004D                     gpio_pin_write_logic@_pin_config:
  1117                           	callstack 0
  1118   00004D                     gpio_pin_toggle_logic@_pin_config:
  1119                           	callstack 0
  1120   00004D                     Interrupt_INTx_Enable@int_obj:
  1121                           	callstack 0
  1122   00004D                     Interrupt_INTx_Disable@int_obj:
  1123                           	callstack 0
  1124   00004D                     Interrupt_INTx_Edge_Init@int_obj:
  1125                           	callstack 0
  1126   00004D                     Interrupt_INTx_Clear_Flag@int_obj:
  1127                           	callstack 0
  1128   00004D                     INT0_SetInterruptHandler@InterruptHandler:
  1129                           	callstack 0
  1130   00004D                     INT1_SetInterruptHandler@InterruptHandler:
  1131                           	callstack 0
  1132   00004D                     INT2_SetInterruptHandler@InterruptHandler:
  1133                           	callstack 0
  1134   00004D                     Timer0_Prescaler_Config@_timer:
  1135                           	callstack 0
  1136   00004D                     Timer0_Mode_Select@_timer:
  1137                           	callstack 0
  1138   00004D                     Timer0_Register_Size_Config@_timer:
  1139                           	callstack 0
  1140   00004D                     ___awdiv@dividend:
  1141                           	callstack 0
  1142   00004D                     ___awmod@dividend:
  1143                           	callstack 0
  1144                           
  1145                           ; 2 bytes @ 0x1E
  1146   00004D                     	ds	2
  1147   00004F                     ??_Interrupt_INTx_Disable:
  1148   00004F                     ??_Interrupt_INTx_Clear_Flag:
  1149   00004F                     ??_Interrupt_INTx_Edge_Init:
  1150   00004F                     ??_Interrupt_INTx_Enable:
  1151   00004F                     ??_Timer0_Prescaler_Config:
  1152   00004F                     gpio_pin_direction_intialize@ret:
  1153                           	callstack 0
  1154   00004F                     gpio_pin_write_logic@logic:
  1155                           	callstack 0
  1156   00004F                     INT0_SetInterruptHandler@ret:
  1157                           	callstack 0
  1158   00004F                     INT1_SetInterruptHandler@ret:
  1159                           	callstack 0
  1160   00004F                     INT2_SetInterruptHandler@ret:
  1161                           	callstack 0
  1162   00004F                     led_turn_toggle@led:
  1163                           	callstack 0
  1164   00004F                     ___awdiv@divisor:
  1165                           	callstack 0
  1166   00004F                     ___awmod@divisor:
  1167                           	callstack 0
  1168                           
  1169                           ; 2 bytes @ 0x20
  1170   00004F                     	ds	1
  1171   000050                     gpio_pin_write_logic@ret:
  1172                           	callstack 0
  1173   000050                     Interrupt_INTx_Pin_Init@ret:
  1174                           	callstack 0
  1175   000050                     Interrupt_INTx_SetInterruptHandler@ret:
  1176                           	callstack 0
  1177   000050                     Timer0_Init@ret:
  1178                           	callstack 0
  1179                           
  1180                           ; 1 bytes @ 0x21
  1181   000050                     	ds	1
  1182   000051                     
  1183                           ; 1 bytes @ 0x22
  1184 ;;
  1185 ;;Main: autosize = 0, tempsize = 2, incstack = 0, save=0
  1186 ;;
  1187 ;; *************** function _main *****************
  1188 ;; Defined at:
  1189 ;;		line 64 in file "application.c"
  1190 ;; Parameters:    Size  Location     Type
  1191 ;;		None
  1192 ;; Auto vars:     Size  Location     Type
  1193 ;;		None
  1194 ;; Return value:  Size  Location     Type
  1195 ;;                  2  1786[None  ] int 
  1196 ;; Registers used:
  1197 ;;		wreg, fsr2l, fsr2h, status,2, status,0, tblptrl, tblptrh, tblptru, prodl, prodh, cstack
  1198 ;; Tracked objects:
  1199 ;;		On entry : 0/0
  1200 ;;		On exit  : 0/0
  1201 ;;		Unchanged: 0/0
  1202 ;; Data sizes:     COMRAM   BANK0   BANK1   BANK2   BANK3   BANK4   BANK5   BANK6   BANK7   BANK8   BANK9  BANK10  BANK1
      +1  BANK12  BANK13  BANK14  BANK15
  1203 ;;      Params:         0       0       0       0       0       0       0       0       0       0       0       0       
      +0       0       0       0       0
  1204 ;;      Locals:         0       0       0       0       0       0       0       0       0       0       0       0       
      +0       0       0       0       0
  1205 ;;      Temps:          0       2       0       0       0       0       0       0       0       0       0       0       
      +0       0       0       0       0
  1206 ;;      Totals:         0       2       0       0       0       0       0       0       0       0       0       0       
      +0       0       0       0       0
  1207 ;;Total ram usage:        2 bytes
  1208 ;; Hardware stack levels required when called: 13
  1209 ;; This function calls:
  1210 ;;		_ReadyTimeOfCarsToMoveFinishedHandler
  1211 ;;		_ReadyTimeOfPedestriansToMoveFinishedHandler
  1212 ;;		_TimeOfCarsMoveFinishedHandler
  1213 ;;		_TimeOfPedestriansMoveFinishedHandler
  1214 ;;		___awdiv
  1215 ;;		___awmod
  1216 ;;		_application_initialize
  1217 ;;		_seven_segement_write_number
  1218 ;; This function is called by:
  1219 ;;		Startup code after reset
  1220 ;; This function uses a non-reentrant model
  1221 ;;
  1222                           
  1223                           	psect	text0
  1224   001B62                     __ptext0:
  1225                           	callstack 0
  1226   001B62                     _main:
  1227                           	callstack 18
  1228   001B62                     
  1229                           ;application.c: 65:   application_initialize();
  1230   001B62  ECCE  F017         	call	_application_initialize	;wreg free
  1231   001B66                     
  1232                           ;application.c: 73:   traffic_light_state = CARS_READY_TO_MOVE_PEDESTRIANS_STOP_STATE;
  1233   001B66  0E02               	movlw	2
  1234   001B68  0100               	movlb	0	; () banked
  1235   001B6A  6FFD               	movwf	_traffic_light_state& (0+255),b
  1236   001B6C                     
  1237                           ; BSR set to: 0
  1238                           ;application.c: 74:   traffic_light_event = READY_TIME_OF_CARS_TO_MOVE_FINISHED_EVENT;
  1239   001B6C  0E02               	movlw	2
  1240   001B6E  6E60               	movwf	_traffic_light_event^0,c
  1241   001B70                     
  1242                           ; BSR set to: 0
  1243                           ;application.c: 75:   next_traffic_light_event = traffic_light_event;
  1244   001B70  C060  F0FF         	movff	_traffic_light_event,_next_traffic_light_event
  1245   001B74                     l1787:
  1246                           
  1247                           ; BSR set to: 0
  1248                           ;application.c: 77:     ret = seven_segement_write_number(&seg1, seven_seg_cnt / 10);
  1249   001B74  0EC8               	movlw	low _seg1
  1250   001B76  6FEB               	movwf	seven_segement_write_number@seg& (0+255),b
  1251   001B78  0E00               	movlw	high _seg1
  1252   001B7A  6FEC               	movwf	(seven_segement_write_number@seg+1)& (0+255),b
  1253   001B7C  C02C  F04D         	movff	_seven_seg_cnt,___awdiv@dividend
  1254   001B80  6A4E               	clrf	(___awdiv@dividend+1)^0,c
  1255   001B82  0E00               	movlw	0
  1256   001B84  6E50               	movwf	(___awdiv@divisor+1)^0,c
  1257   001B86  0E0A               	movlw	10
  1258   001B88  6E4F               	movwf	___awdiv@divisor^0,c
  1259   001B8A  EC3D  F00E         	call	___awdiv	;wreg free
  1260   001B8E  504D               	movf	?___awdiv^0,w,c
  1261   001B90  0100               	movlb	0	; () banked
  1262   001B92  6FED               	movwf	seven_segement_write_number@number& (0+255),b
  1263   001B94  EC0D  F011         	call	_seven_segement_write_number	;wreg free
  1264   001B98  0100               	movlb	0	; () banked
  1265   001B9A  6FFE               	movwf	_ret& (0+255),b
  1266                           
  1267                           ;application.c: 78:     ret = seven_segement_write_number(&seg2, seven_seg_cnt % 10);
  1268   001B9C  0EC3               	movlw	low _seg2
  1269   001B9E  6FEB               	movwf	seven_segement_write_number@seg& (0+255),b
  1270   001BA0  0E00               	movlw	high _seg2
  1271   001BA2  6FEC               	movwf	(seven_segement_write_number@seg+1)& (0+255),b
  1272   001BA4  C02C  F04D         	movff	_seven_seg_cnt,___awmod@dividend
  1273   001BA8  6A4E               	clrf	(___awmod@dividend+1)^0,c
  1274   001BAA  0E00               	movlw	0
  1275   001BAC  6E50               	movwf	(___awmod@divisor+1)^0,c
  1276   001BAE  0E0A               	movlw	10
  1277   001BB0  6E4F               	movwf	___awmod@divisor^0,c
  1278   001BB2  EC5C  F00F         	call	___awmod	;wreg free
  1279   001BB6  504D               	movf	?___awmod^0,w,c
  1280   001BB8  0100               	movlb	0	; () banked
  1281   001BBA  6FED               	movwf	seven_segement_write_number@number& (0+255),b
  1282   001BBC  EC0D  F011         	call	_seven_segement_write_number	;wreg free
  1283   001BC0  0100               	movlb	0	; () banked
  1284   001BC2  6FFE               	movwf	_ret& (0+255),b
  1285                           
  1286                           ;application.c: 79:     switch(traffic_light_state){
  1287   001BC4  EF1E  F00E         	goto	l9173
  1288   001BC8                     l9155:
  1289                           
  1290                           ; BSR set to: 0
  1291                           ;application.c: 81:             if(TIME_OF_CARS_MOVE_FINISHED_EVENT == traffic_light_eve
      +                          nt){
  1292   001BC8  5060               	movf	_traffic_light_event^0,w,c
  1293   001BCA  A4D8               	btfss	status,2,c
  1294   001BCC  EFEA  F00D         	goto	u7531
  1295   001BD0  EFEC  F00D         	goto	u7530
  1296   001BD4                     u7531:
  1297   001BD4  EFBA  F00D         	goto	l1787
  1298   001BD8                     u7530:
  1299   001BD8                     
  1300                           ; BSR set to: 0
  1301                           ;application.c: 82:                 traffic_light_state = TimeOfCarsMoveFinishedHandler(
      +                          );
  1302   001BD8  ECFE  F00E         	call	_TimeOfCarsMoveFinishedHandler	;wreg free
  1303   001BDC  0100               	movlb	0	; () banked
  1304   001BDE  6FFD               	movwf	_traffic_light_state& (0+255),b
  1305   001BE0  EFBA  F00D         	goto	l1787
  1306   001BE4                     l9159:
  1307                           
  1308                           ; BSR set to: 0
  1309                           ;application.c: 86:             if(TIME_OF_PEDESTRAINS_MOVE_FINISHED_EVENT == traffic_li
      +                          ght_event){
  1310   001BE4  0460               	decf	_traffic_light_event^0,w,c
  1311   001BE6  A4D8               	btfss	status,2,c
  1312   001BE8  EFF8  F00D         	goto	u7541
  1313   001BEC  EFFA  F00D         	goto	u7540
  1314   001BF0                     u7541:
  1315   001BF0  EFBA  F00D         	goto	l1787
  1316   001BF4                     u7540:
  1317   001BF4                     
  1318                           ; BSR set to: 0
  1319                           ;application.c: 87:                 traffic_light_state = TimeOfPedestriansMoveFinishedH
      +                          andler();
  1320   001BF4  ECA0  F00E         	call	_TimeOfPedestriansMoveFinishedHandler	;wreg free
  1321   001BF8  0100               	movlb	0	; () banked
  1322   001BFA  6FFD               	movwf	_traffic_light_state& (0+255),b
  1323   001BFC  EFBA  F00D         	goto	l1787
  1324   001C00                     l9163:
  1325                           
  1326                           ; BSR set to: 0
  1327                           ;application.c: 91:             if(READY_TIME_OF_CARS_TO_MOVE_FINISHED_EVENT == traffic_
      +                          light_event){
  1328   001C00  0E02               	movlw	2
  1329   001C02  1860               	xorwf	_traffic_light_event^0,w,c
  1330   001C04  A4D8               	btfss	status,2,c
  1331   001C06  EF07  F00E         	goto	u7551
  1332   001C0A  EF09  F00E         	goto	u7550
  1333   001C0E                     u7551:
  1334   001C0E  EFBA  F00D         	goto	l1787
  1335   001C12                     u7550:
  1336   001C12                     
  1337                           ; BSR set to: 0
  1338                           ;application.c: 92:                 traffic_light_state = ReadyTimeOfCarsToMoveFinishedH
      +                          andler();
  1339   001C12  EC64  F013         	call	_ReadyTimeOfCarsToMoveFinishedHandler	;wreg free
  1340   001C16  0100               	movlb	0	; () banked
  1341   001C18  6FFD               	movwf	_traffic_light_state& (0+255),b
  1342   001C1A  EFBA  F00D         	goto	l1787
  1343   001C1E                     l9167:
  1344                           
  1345                           ; BSR set to: 0
  1346                           ;application.c: 96:             if(READY_TIME_OF_PEDESTRIANS_TO_MOVE_FINISHED_EVENT == t
      +                          raffic_light_event){
  1347   001C1E  0E03               	movlw	3
  1348   001C20  1860               	xorwf	_traffic_light_event^0,w,c
  1349   001C22  A4D8               	btfss	status,2,c
  1350   001C24  EF16  F00E         	goto	u7561
  1351   001C28  EF18  F00E         	goto	u7560
  1352   001C2C                     u7561:
  1353   001C2C  EFBA  F00D         	goto	l1787
  1354   001C30                     u7560:
  1355   001C30                     
  1356                           ; BSR set to: 0
  1357                           ;application.c: 97:                 traffic_light_state = ReadyTimeOfPedestriansToMoveFi
      +                          nishedHandler();
  1358   001C30  EC27  F013         	call	_ReadyTimeOfPedestriansToMoveFinishedHandler	;wreg free
  1359   001C34  0100               	movlb	0	; () banked
  1360   001C36  6FFD               	movwf	_traffic_light_state& (0+255),b
  1361   001C38  EFBA  F00D         	goto	l1787
  1362   001C3C                     l9173:
  1363                           
  1364                           ; BSR set to: 0
  1365   001C3C  51FD               	movf	_traffic_light_state& (0+255),w,b
  1366   001C3E  6FFB               	movwf	??_main& (0+255),b
  1367   001C40  6BFC               	clrf	(??_main+1)& (0+255),b
  1368                           
  1369                           ; Switch on 2 bytes has been partitioned into a top level switch of size 1, and 1 sub-sw
      +                          itches
  1370                           ; Switch size 1, requested type "simple"
  1371                           ; Number of cases is 1, Range of values is 0 to 0
  1372                           ; switch strategies available:
  1373                           ; Name         Instructions Cycles
  1374                           ; simple_byte            4     3 (average)
  1375                           ;	Chosen strategy is simple_byte
  1376   001C42  51FC               	movf	(??_main+1)& (0+255),w,b
  1377   001C44  0A00               	xorlw	0	; case 0
  1378   001C46  B4D8               	btfsc	status,2,c
  1379   001C48  EF28  F00E         	goto	l9421
  1380   001C4C  EFBA  F00D         	goto	l1787
  1381   001C50                     l9421:
  1382                           
  1383                           ; BSR set to: 0
  1384                           ; Switch size 1, requested type "simple"
  1385                           ; Number of cases is 4, Range of values is 0 to 3
  1386                           ; switch strategies available:
  1387                           ; Name         Instructions Cycles
  1388                           ; simple_byte           13     7 (average)
  1389                           ;	Chosen strategy is simple_byte
  1390   001C50  51FB               	movf	??_main& (0+255),w,b
  1391   001C52  0A00               	xorlw	0	; case 0
  1392   001C54  B4D8               	btfsc	status,2,c
  1393   001C56  EFE4  F00D         	goto	l9155
  1394   001C5A  0A01               	xorlw	1	; case 1
  1395   001C5C  B4D8               	btfsc	status,2,c
  1396   001C5E  EFF2  F00D         	goto	l9159
  1397   001C62  0A03               	xorlw	3	; case 2
  1398   001C64  B4D8               	btfsc	status,2,c
  1399   001C66  EF00  F00E         	goto	l9163
  1400   001C6A  0A01               	xorlw	1	; case 3
  1401   001C6C  B4D8               	btfsc	status,2,c
  1402   001C6E  EF0F  F00E         	goto	l9167
  1403   001C72  EFBA  F00D         	goto	l1787
  1404   001C76  EF07  F000         	goto	start
  1405   001C7A                     __end_of_main:
  1406                           	callstack 0
  1407                           
  1408 ;; *************** function _seven_segement_write_number *****************
  1409 ;; Defined at:
  1410 ;;		line 39 in file "ECU_Layer/7_Segment/ecu_seven_segment.c"
  1411 ;; Parameters:    Size  Location     Type
  1412 ;;  seg             2    6[BANK0 ] PTR const struct .
  1413 ;;		 -> seg2(5), seg1(5), 
  1414 ;;  number          1    8[BANK0 ] unsigned char 
  1415 ;; Auto vars:     Size  Location     Type
  1416 ;;  ret             1    9[BANK0 ] unsigned char 
  1417 ;; Return value:  Size  Location     Type
  1418 ;;                  1    wreg      unsigned char 
  1419 ;; Registers used:
  1420 ;;		wreg, fsr2l, fsr2h, status,2, status,0, prodl, prodh, cstack
  1421 ;; Tracked objects:
  1422 ;;		On entry : 0/0
  1423 ;;		On exit  : 0/0
  1424 ;;		Unchanged: 0/0
  1425 ;; Data sizes:     COMRAM   BANK0   BANK1   BANK2   BANK3   BANK4   BANK5   BANK6   BANK7   BANK8   BANK9  BANK10  BANK1
      +1  BANK12  BANK13  BANK14  BANK15
  1426 ;;      Params:         0       3       0       0       0       0       0       0       0       0       0       0       
      +0       0       0       0       0
  1427 ;;      Locals:         0       1       0       0       0       0       0       0       0       0       0       0       
      +0       0       0       0       0
  1428 ;;      Temps:          0       0       0       0       0       0       0       0       0       0       0       0       
      +0       0       0       0       0
  1429 ;;      Totals:         0       4       0       0       0       0       0       0       0       0       0       0       
      +0       0       0       0       0
  1430 ;;Total ram usage:        4 bytes
  1431 ;; Hardware stack levels used: 1
  1432 ;; Hardware stack levels required when called: 8
  1433 ;; This function calls:
  1434 ;;		_gpio_pin_write_logic
  1435 ;; This function is called by:
  1436 ;;		_main
  1437 ;; This function uses a non-reentrant model
  1438 ;;
  1439                           
  1440                           	psect	text1
  1441   00221A                     __ptext1:
  1442                           	callstack 0
  1443   00221A                     _seven_segement_write_number:
  1444                           	callstack 22
  1445   00221A                     
  1446                           ;ECU_Layer/7_Segment/ecu_seven_segment.c: 41:     if((((void*)0) == seg) && (number > 9)
      +                          ){
  1447   00221A  0100               	movlb	0	; () banked
  1448   00221C  51EB               	movf	seven_segement_write_number@seg& (0+255),w,b
  1449   00221E  11EC               	iorwf	(seven_segement_write_number@seg+1)& (0+255),w,b
  1450   002220  A4D8               	btfss	status,2,c
  1451   002222  EF15  F011         	goto	u6871
  1452   002226  EF17  F011         	goto	u6870
  1453   00222A                     u6871:
  1454   00222A  EF23  F011         	goto	l8457
  1455   00222E                     u6870:
  1456   00222E                     
  1457                           ; BSR set to: 0
  1458   00222E  0E09               	movlw	9
  1459   002230  65ED               	cpfsgt	seven_segement_write_number@number& (0+255),b
  1460   002232  EF1D  F011         	goto	u6881
  1461   002236  EF1F  F011         	goto	u6880
  1462   00223A                     u6881:
  1463   00223A  EF23  F011         	goto	l8457
  1464   00223E                     u6880:
  1465   00223E                     
  1466                           ; BSR set to: 0
  1467                           ;ECU_Layer/7_Segment/ecu_seven_segment.c: 42:         ret = (Std_ReturnType)0x00;
  1468   00223E  0E00               	movlw	0
  1469   002240  6FEE               	movwf	seven_segement_write_number@ret& (0+255),b
  1470                           
  1471                           ;ECU_Layer/7_Segment/ecu_seven_segment.c: 43:     }
  1472   002242  EF5A  F011         	goto	l8459
  1473   002246                     l8457:
  1474                           
  1475                           ; BSR set to: 0
  1476                           ;ECU_Layer/7_Segment/ecu_seven_segment.c: 45:             ret = gpio_pin_write_logic(&(s
      +                          eg->segment_pins[0]), number & 0x01);
  1477   002246  C0EB  F04D         	movff	seven_segement_write_number@seg,gpio_pin_write_logic@_pin_config
  1478   00224A  C0EC  F04E         	movff	seven_segement_write_number@seg+1,gpio_pin_write_logic@_pin_config+1
  1479   00224E  51ED               	movf	seven_segement_write_number@number& (0+255),w,b
  1480   002250  0B01               	andlw	1
  1481   002252  6E4F               	movwf	gpio_pin_write_logic@logic^0,c
  1482   002254  ECEA  F00B         	call	_gpio_pin_write_logic	;wreg free
  1483   002258  0100               	movlb	0	; () banked
  1484   00225A  6FEE               	movwf	seven_segement_write_number@ret& (0+255),b
  1485                           
  1486                           ;ECU_Layer/7_Segment/ecu_seven_segment.c: 46:             ret = gpio_pin_write_logic(&(s
      +                          eg->segment_pins[1]), (number>>1) & 0x01);
  1487   00225C  0E01               	movlw	1
  1488   00225E  25EB               	addwf	seven_segement_write_number@seg& (0+255),w,b
  1489   002260  6E4D               	movwf	gpio_pin_write_logic@_pin_config^0,c
  1490   002262  0E00               	movlw	0
  1491   002264  21EC               	addwfc	(seven_segement_write_number@seg+1)& (0+255),w,b
  1492   002266  6E4E               	movwf	(gpio_pin_write_logic@_pin_config+1)^0,c
  1493   002268  90D8               	bcf	status,0,c
  1494   00226A  31ED               	rrcf	seven_segement_write_number@number& (0+255),w,b
  1495   00226C  0B01               	andlw	1
  1496   00226E  6E4F               	movwf	gpio_pin_write_logic@logic^0,c
  1497   002270  ECEA  F00B         	call	_gpio_pin_write_logic	;wreg free
  1498   002274  0100               	movlb	0	; () banked
  1499   002276  6FEE               	movwf	seven_segement_write_number@ret& (0+255),b
  1500                           
  1501                           ;ECU_Layer/7_Segment/ecu_seven_segment.c: 47:             ret = gpio_pin_write_logic(&(s
      +                          eg->segment_pins[2]), (number>>2) & 0x01);
  1502   002278  0E02               	movlw	2
  1503   00227A  25EB               	addwf	seven_segement_write_number@seg& (0+255),w,b
  1504   00227C  6E4D               	movwf	gpio_pin_write_logic@_pin_config^0,c
  1505   00227E  0E00               	movlw	0
  1506   002280  21EC               	addwfc	(seven_segement_write_number@seg+1)& (0+255),w,b
  1507   002282  6E4E               	movwf	(gpio_pin_write_logic@_pin_config+1)^0,c
  1508   002284  41ED               	rrncf	seven_segement_write_number@number& (0+255),w,b
  1509   002286  42E8               	rrncf	wreg,f,c
  1510   002288  0B3F               	andlw	63
  1511   00228A  0B01               	andlw	1
  1512   00228C  6E4F               	movwf	gpio_pin_write_logic@logic^0,c
  1513   00228E  ECEA  F00B         	call	_gpio_pin_write_logic	;wreg free
  1514   002292  0100               	movlb	0	; () banked
  1515   002294  6FEE               	movwf	seven_segement_write_number@ret& (0+255),b
  1516                           
  1517                           ;ECU_Layer/7_Segment/ecu_seven_segment.c: 48:             ret = gpio_pin_write_logic(&(s
      +                          eg->segment_pins[3]), (number>>3) & 0x01);
  1518   002296  0E03               	movlw	3
  1519   002298  25EB               	addwf	seven_segement_write_number@seg& (0+255),w,b
  1520   00229A  6E4D               	movwf	gpio_pin_write_logic@_pin_config^0,c
  1521   00229C  0E00               	movlw	0
  1522   00229E  21EC               	addwfc	(seven_segement_write_number@seg+1)& (0+255),w,b
  1523   0022A0  6E4E               	movwf	(gpio_pin_write_logic@_pin_config+1)^0,c
  1524   0022A2  39ED               	swapf	seven_segement_write_number@number& (0+255),w,b
  1525   0022A4  46E8               	rlncf	wreg,f,c
  1526   0022A6  0B1F               	andlw	31
  1527   0022A8  0B01               	andlw	1
  1528   0022AA  6E4F               	movwf	gpio_pin_write_logic@logic^0,c
  1529   0022AC  ECEA  F00B         	call	_gpio_pin_write_logic	;wreg free
  1530   0022B0  0100               	movlb	0	; () banked
  1531   0022B2  6FEE               	movwf	seven_segement_write_number@ret& (0+255),b
  1532   0022B4                     l8459:
  1533                           
  1534                           ; BSR set to: 0
  1535                           ;ECU_Layer/7_Segment/ecu_seven_segment.c: 50:     return ret;
  1536   0022B4  51EE               	movf	seven_segement_write_number@ret& (0+255),w,b
  1537   0022B6                     
  1538                           ; BSR set to: 0
  1539   0022B6  0012               	return		;funcret
  1540   0022B8                     __end_of_seven_segement_write_number:
  1541                           	callstack 0
  1542                           
  1543 ;; *************** function _application_initialize *****************
  1544 ;; Defined at:
  1545 ;;		line 108 in file "application.c"
  1546 ;; Parameters:    Size  Location     Type
  1547 ;;		None
  1548 ;; Auto vars:     Size  Location     Type
  1549 ;;  ret             1    0        unsigned char 
  1550 ;; Return value:  Size  Location     Type
  1551 ;;                  1    wreg      void 
  1552 ;; Registers used:
  1553 ;;		wreg, fsr2l, fsr2h, status,2, status,0, prodl, prodh, cstack
  1554 ;; Tracked objects:
  1555 ;;		On entry : 0/0
  1556 ;;		On exit  : 0/0
  1557 ;;		Unchanged: 0/0
  1558 ;; Data sizes:     COMRAM   BANK0   BANK1   BANK2   BANK3   BANK4   BANK5   BANK6   BANK7   BANK8   BANK9  BANK10  BANK1
      +1  BANK12  BANK13  BANK14  BANK15
  1559 ;;      Params:         0       0       0       0       0       0       0       0       0       0       0       0       
      +0       0       0       0       0
  1560 ;;      Locals:         0       0       0       0       0       0       0       0       0       0       0       0       
      +0       0       0       0       0
  1561 ;;      Temps:          0       0       0       0       0       0       0       0       0       0       0       0       
      +0       0       0       0       0
  1562 ;;      Totals:         0       0       0       0       0       0       0       0       0       0       0       0       
      +0       0       0       0       0
  1563 ;;Total ram usage:        0 bytes
  1564 ;; Hardware stack levels used: 1
  1565 ;; Hardware stack levels required when called: 12
  1566 ;; This function calls:
  1567 ;;		_Interrupt_INTx_Init
  1568 ;;		_Timer0_Init
  1569 ;;		_ecu_layer_init
  1570 ;; This function is called by:
  1571 ;;		_main
  1572 ;; This function uses a non-reentrant model
  1573 ;;
  1574                           
  1575                           	psect	text2
  1576   002F9C                     __ptext2:
  1577                           	callstack 0
  1578   002F9C                     _application_initialize:
  1579                           	callstack 18
  1580   002F9C                     
  1581                           ;application.c: 110:   ecu_layer_init();
  1582   002F9C  EC17  F014         	call	_ecu_layer_init	;wreg free
  1583   002FA0  0EB0               	movlw	low _timer0
  1584   002FA2  0100               	movlb	0	; () banked
  1585   002FA4  6FE5               	movwf	Timer0_Init@_timer& (0+255),b
  1586   002FA6  0E00               	movlw	high _timer0
  1587   002FA8  6FE6               	movwf	(Timer0_Init@_timer+1)& (0+255),b
  1588   002FAA  ECB9  F010         	call	_Timer0_Init	;wreg free
  1589   002FAE  0EB7               	movlw	low _int0_obj
  1590   002FB0  0100               	movlb	0	; () banked
  1591   002FB2  6FED               	movwf	Interrupt_INTx_Init@int_obj& (0+255),b
  1592   002FB4  0E00               	movlw	high _int0_obj
  1593   002FB6  6FEE               	movwf	(Interrupt_INTx_Init@int_obj+1)& (0+255),b
  1594   002FB8  EC2A  F012         	call	_Interrupt_INTx_Init	;wreg free
  1595   002FBC  0012               	return		;funcret
  1596   002FBE                     __end_of_application_initialize:
  1597                           	callstack 0
  1598                           
  1599 ;; *************** function _ecu_layer_init *****************
  1600 ;; Defined at:
  1601 ;;		line 161 in file "ECU_Layer/ecu_layer_init.c"
  1602 ;; Parameters:    Size  Location     Type
  1603 ;;		None
  1604 ;; Auto vars:     Size  Location     Type
  1605 ;;  ret             1    0        unsigned char 
  1606 ;; Return value:  Size  Location     Type
  1607 ;;                  1    wreg      void 
  1608 ;; Registers used:
  1609 ;;		wreg, fsr2l, fsr2h, status,2, status,0, prodl, prodh, cstack
  1610 ;; Tracked objects:
  1611 ;;		On entry : 0/0
  1612 ;;		On exit  : 0/0
  1613 ;;		Unchanged: 0/0
  1614 ;; Data sizes:     COMRAM   BANK0   BANK1   BANK2   BANK3   BANK4   BANK5   BANK6   BANK7   BANK8   BANK9  BANK10  BANK1
      +1  BANK12  BANK13  BANK14  BANK15
  1615 ;;      Params:         0       0       0       0       0       0       0       0       0       0       0       0       
      +0       0       0       0       0
  1616 ;;      Locals:         0       0       0       0       0       0       0       0       0       0       0       0       
      +0       0       0       0       0
  1617 ;;      Temps:          0       0       0       0       0       0       0       0       0       0       0       0       
      +0       0       0       0       0
  1618 ;;      Totals:         0       0       0       0       0       0       0       0       0       0       0       0       
      +0       0       0       0       0
  1619 ;;Total ram usage:        0 bytes
  1620 ;; Hardware stack levels used: 1
  1621 ;; Hardware stack levels required when called: 11
  1622 ;; This function calls:
  1623 ;;		_lcd_4bit_intialize
  1624 ;;		_led_initialize
  1625 ;;		_seven_segement_intialize
  1626 ;; This function is called by:
  1627 ;;		_application_initialize
  1628 ;; This function uses a non-reentrant model
  1629 ;;
  1630                           
  1631                           	psect	text3
  1632   00282E                     __ptext3:
  1633                           	callstack 0
  1634   00282E                     _ecu_layer_init:
  1635                           	callstack 18
  1636   00282E  0EC8               	movlw	low _seg1
  1637   002830  0100               	movlb	0	; () banked
  1638   002832  6FEF               	movwf	seven_segement_intialize@seg& (0+255),b
  1639   002834  0E00               	movlw	high _seg1
  1640   002836  6FF0               	movwf	(seven_segement_intialize@seg+1)& (0+255),b
  1641   002838  ECFB  F014         	call	_seven_segement_intialize	;wreg free
  1642   00283C  0EC3               	movlw	low _seg2
  1643   00283E  0100               	movlb	0	; () banked
  1644   002840  6FEF               	movwf	seven_segement_intialize@seg& (0+255),b
  1645   002842  0E00               	movlw	high _seg2
  1646   002844  6FF0               	movwf	(seven_segement_intialize@seg+1)& (0+255),b
  1647   002846  ECFB  F014         	call	_seven_segement_intialize	;wreg free
  1648   00284A  0E2E               	movlw	low _led_red_car
  1649   00284C  0100               	movlb	0	; () banked
  1650   00284E  6FEF               	movwf	led_initialize@led& (0+255),b
  1651   002850  0E00               	movlw	high _led_red_car
  1652   002852  6FF0               	movwf	(led_initialize@led+1)& (0+255),b
  1653   002854  ECBD  F016         	call	_led_initialize	;wreg free
  1654   002858  0E5F               	movlw	low _led_green_car
  1655   00285A  0100               	movlb	0	; () banked
  1656   00285C  6FEF               	movwf	led_initialize@led& (0+255),b
  1657   00285E  0E00               	movlw	high _led_green_car
  1658   002860  6FF0               	movwf	(led_initialize@led+1)& (0+255),b
  1659   002862  ECBD  F016         	call	_led_initialize	;wreg free
  1660   002866  0E5E               	movlw	low _led_red_people
  1661   002868  0100               	movlb	0	; () banked
  1662   00286A  6FEF               	movwf	led_initialize@led& (0+255),b
  1663   00286C  0E00               	movlw	high _led_red_people
  1664   00286E  6FF0               	movwf	(led_initialize@led+1)& (0+255),b
  1665   002870  ECBD  F016         	call	_led_initialize	;wreg free
  1666   002874  0E5D               	movlw	low _led_green_people
  1667   002876  0100               	movlb	0	; () banked
  1668   002878  6FEF               	movwf	led_initialize@led& (0+255),b
  1669   00287A  0E00               	movlw	high _led_green_people
  1670   00287C  6FF0               	movwf	(led_initialize@led+1)& (0+255),b
  1671   00287E  ECBD  F016         	call	_led_initialize	;wreg free
  1672   002882  0E5C               	movlw	low _ready_yellow
  1673   002884  0100               	movlb	0	; () banked
  1674   002886  6FEF               	movwf	led_initialize@led& (0+255),b
  1675   002888  0E00               	movlw	high _ready_yellow
  1676   00288A  6FF0               	movwf	(led_initialize@led+1)& (0+255),b
  1677   00288C  ECBD  F016         	call	_led_initialize	;wreg free
  1678   002890  0EBD               	movlw	low _lcd_1
  1679   002892  0100               	movlb	0	; () banked
  1680   002894  6FF3               	movwf	lcd_4bit_intialize@lcd& (0+255),b
  1681   002896  0E00               	movlw	high _lcd_1
  1682   002898  6FF4               	movwf	(lcd_4bit_intialize@lcd+1)& (0+255),b
  1683   00289A  EC9F  F00A         	call	_lcd_4bit_intialize	;wreg free
  1684   00289E  0012               	return		;funcret
  1685   0028A0                     __end_of_ecu_layer_init:
  1686                           	callstack 0
  1687                           
  1688 ;; *************** function _seven_segement_intialize *****************
  1689 ;; Defined at:
  1690 ;;		line 17 in file "ECU_Layer/7_Segment/ecu_seven_segment.c"
  1691 ;; Parameters:    Size  Location     Type
  1692 ;;  seg             2   10[BANK0 ] PTR const struct .
  1693 ;;		 -> seg2(5), seg1(5), 
  1694 ;; Auto vars:     Size  Location     Type
  1695 ;;  ret             1   12[BANK0 ] unsigned char 
  1696 ;; Return value:  Size  Location     Type
  1697 ;;                  1    wreg      unsigned char 
  1698 ;; Registers used:
  1699 ;;		wreg, fsr2l, fsr2h, status,2, status,0, prodl, prodh, cstack
  1700 ;; Tracked objects:
  1701 ;;		On entry : 0/0
  1702 ;;		On exit  : 0/0
  1703 ;;		Unchanged: 0/0
  1704 ;; Data sizes:     COMRAM   BANK0   BANK1   BANK2   BANK3   BANK4   BANK5   BANK6   BANK7   BANK8   BANK9  BANK10  BANK1
      +1  BANK12  BANK13  BANK14  BANK15
  1705 ;;      Params:         0       2       0       0       0       0       0       0       0       0       0       0       
      +0       0       0       0       0
  1706 ;;      Locals:         0       1       0       0       0       0       0       0       0       0       0       0       
      +0       0       0       0       0
  1707 ;;      Temps:          0       0       0       0       0       0       0       0       0       0       0       0       
      +0       0       0       0       0
  1708 ;;      Totals:         0       3       0       0       0       0       0       0       0       0       0       0       
      +0       0       0       0       0
  1709 ;;Total ram usage:        3 bytes
  1710 ;; Hardware stack levels used: 1
  1711 ;; Hardware stack levels required when called: 9
  1712 ;; This function calls:
  1713 ;;		_gpio_pin_intialize
  1714 ;; This function is called by:
  1715 ;;		_ecu_layer_init
  1716 ;; This function uses a non-reentrant model
  1717 ;;
  1718                           
  1719                           	psect	text4
  1720   0029F6                     __ptext4:
  1721                           	callstack 0
  1722   0029F6                     _seven_segement_intialize:
  1723                           	callstack 19
  1724   0029F6                     
  1725                           ;ECU_Layer/7_Segment/ecu_seven_segment.c: 19:     if(((void*)0) == seg){
  1726   0029F6  0100               	movlb	0	; () banked
  1727   0029F8  51EF               	movf	seven_segement_intialize@seg& (0+255),w,b
  1728   0029FA  11F0               	iorwf	(seven_segement_intialize@seg+1)& (0+255),w,b
  1729   0029FC  A4D8               	btfss	status,2,c
  1730   0029FE  EF03  F015         	goto	u6571
  1731   002A02  EF05  F015         	goto	u6570
  1732   002A06                     u6571:
  1733   002A06  EF09  F015         	goto	l8021
  1734   002A0A                     u6570:
  1735   002A0A                     
  1736                           ; BSR set to: 0
  1737                           ;ECU_Layer/7_Segment/ecu_seven_segment.c: 20:         ret = (Std_ReturnType)0x00;
  1738   002A0A  0E00               	movlw	0
  1739   002A0C  6FF1               	movwf	seven_segement_intialize@ret& (0+255),b
  1740                           
  1741                           ;ECU_Layer/7_Segment/ecu_seven_segment.c: 21:     }
  1742   002A0E  EF2F  F015         	goto	l8023
  1743   002A12                     l8021:
  1744                           
  1745                           ; BSR set to: 0
  1746                           ;ECU_Layer/7_Segment/ecu_seven_segment.c: 23:         ret = gpio_pin_intialize(&(seg->se
      +                          gment_pins[0]));
  1747   002A12  C0EF  F0EB         	movff	seven_segement_intialize@seg,gpio_pin_intialize@_pin_config
  1748   002A16  C0F0  F0EC         	movff	seven_segement_intialize@seg+1,gpio_pin_intialize@_pin_config+1
  1749   002A1A  EC50  F014         	call	_gpio_pin_intialize	;wreg free
  1750   002A1E  0100               	movlb	0	; () banked
  1751   002A20  6FF1               	movwf	seven_segement_intialize@ret& (0+255),b
  1752                           
  1753                           ;ECU_Layer/7_Segment/ecu_seven_segment.c: 24:         ret = gpio_pin_intialize(&(seg->se
      +                          gment_pins[1]));
  1754   002A22  0E01               	movlw	1
  1755   002A24  25EF               	addwf	seven_segement_intialize@seg& (0+255),w,b
  1756   002A26  6FEB               	movwf	gpio_pin_intialize@_pin_config& (0+255),b
  1757   002A28  0E00               	movlw	0
  1758   002A2A  21F0               	addwfc	(seven_segement_intialize@seg+1)& (0+255),w,b
  1759   002A2C  6FEC               	movwf	(gpio_pin_intialize@_pin_config+1)& (0+255),b
  1760   002A2E  EC50  F014         	call	_gpio_pin_intialize	;wreg free
  1761   002A32  0100               	movlb	0	; () banked
  1762   002A34  6FF1               	movwf	seven_segement_intialize@ret& (0+255),b
  1763                           
  1764                           ;ECU_Layer/7_Segment/ecu_seven_segment.c: 25:         ret = gpio_pin_intialize(&(seg->se
      +                          gment_pins[2]));
  1765   002A36  0E02               	movlw	2
  1766   002A38  25EF               	addwf	seven_segement_intialize@seg& (0+255),w,b
  1767   002A3A  6FEB               	movwf	gpio_pin_intialize@_pin_config& (0+255),b
  1768   002A3C  0E00               	movlw	0
  1769   002A3E  21F0               	addwfc	(seven_segement_intialize@seg+1)& (0+255),w,b
  1770   002A40  6FEC               	movwf	(gpio_pin_intialize@_pin_config+1)& (0+255),b
  1771   002A42  EC50  F014         	call	_gpio_pin_intialize	;wreg free
  1772   002A46  0100               	movlb	0	; () banked
  1773   002A48  6FF1               	movwf	seven_segement_intialize@ret& (0+255),b
  1774                           
  1775                           ;ECU_Layer/7_Segment/ecu_seven_segment.c: 26:         ret = gpio_pin_intialize(&(seg->se
      +                          gment_pins[3]));
  1776   002A4A  0E03               	movlw	3
  1777   002A4C  25EF               	addwf	seven_segement_intialize@seg& (0+255),w,b
  1778   002A4E  6FEB               	movwf	gpio_pin_intialize@_pin_config& (0+255),b
  1779   002A50  0E00               	movlw	0
  1780   002A52  21F0               	addwfc	(seven_segement_intialize@seg+1)& (0+255),w,b
  1781   002A54  6FEC               	movwf	(gpio_pin_intialize@_pin_config+1)& (0+255),b
  1782   002A56  EC50  F014         	call	_gpio_pin_intialize	;wreg free
  1783   002A5A  0100               	movlb	0	; () banked
  1784   002A5C  6FF1               	movwf	seven_segement_intialize@ret& (0+255),b
  1785   002A5E                     l8023:
  1786                           
  1787                           ; BSR set to: 0
  1788                           ;ECU_Layer/7_Segment/ecu_seven_segment.c: 28:     return ret;
  1789   002A5E  51F1               	movf	seven_segement_intialize@ret& (0+255),w,b
  1790   002A60                     
  1791                           ; BSR set to: 0
  1792   002A60  0012               	return		;funcret
  1793   002A62                     __end_of_seven_segement_intialize:
  1794                           	callstack 0
  1795                           
  1796 ;; *************** function _led_initialize *****************
  1797 ;; Defined at:
  1798 ;;		line 17 in file "ECU_Layer/LED/ecu_led.c"
  1799 ;; Parameters:    Size  Location     Type
  1800 ;;  led             2   10[BANK0 ] PTR const struct .
  1801 ;;		 -> ready_yellow(1), led_green_people(1), led_red_people(1), led_green_car(1), 
  1802 ;;		 -> led_red_car(1), 
  1803 ;; Auto vars:     Size  Location     Type
  1804 ;;  ret             1   12[BANK0 ] unsigned char 
  1805 ;; Return value:  Size  Location     Type
  1806 ;;                  1    wreg      unsigned char 
  1807 ;; Registers used:
  1808 ;;		wreg, fsr2l, fsr2h, status,2, status,0, prodl, prodh, cstack
  1809 ;; Tracked objects:
  1810 ;;		On entry : 0/0
  1811 ;;		On exit  : 0/0
  1812 ;;		Unchanged: 0/0
  1813 ;; Data sizes:     COMRAM   BANK0   BANK1   BANK2   BANK3   BANK4   BANK5   BANK6   BANK7   BANK8   BANK9  BANK10  BANK1
      +1  BANK12  BANK13  BANK14  BANK15
  1814 ;;      Params:         0       2       0       0       0       0       0       0       0       0       0       0       
      +0       0       0       0       0
  1815 ;;      Locals:         0       1       0       0       0       0       0       0       0       0       0       0       
      +0       0       0       0       0
  1816 ;;      Temps:          0       0       0       0       0       0       0       0       0       0       0       0       
      +0       0       0       0       0
  1817 ;;      Totals:         0       3       0       0       0       0       0       0       0       0       0       0       
      +0       0       0       0       0
  1818 ;;Total ram usage:        3 bytes
  1819 ;; Hardware stack levels used: 1
  1820 ;; Hardware stack levels required when called: 9
  1821 ;; This function calls:
  1822 ;;		_gpio_pin_intialize
  1823 ;; This function is called by:
  1824 ;;		_ecu_layer_init
  1825 ;; This function uses a non-reentrant model
  1826 ;;
  1827                           
  1828                           	psect	text5
  1829   002D7A                     __ptext5:
  1830                           	callstack 0
  1831   002D7A                     _led_initialize:
  1832                           	callstack 19
  1833   002D7A                     
  1834                           ;ECU_Layer/LED/ecu_led.c: 18:     Std_ReturnType ret = (Std_ReturnType)0x01;
  1835   002D7A  0E01               	movlw	1
  1836   002D7C  0100               	movlb	0	; () banked
  1837   002D7E  6FF1               	movwf	led_initialize@ret& (0+255),b
  1838   002D80                     
  1839                           ; BSR set to: 0
  1840                           ;ECU_Layer/LED/ecu_led.c: 19:     if(((void*)0) == led){
  1841   002D80  51EF               	movf	led_initialize@led& (0+255),w,b
  1842   002D82  11F0               	iorwf	(led_initialize@led+1)& (0+255),w,b
  1843   002D84  A4D8               	btfss	status,2,c
  1844   002D86  EFC7  F016         	goto	u6611
  1845   002D8A  EFC9  F016         	goto	u6610
  1846   002D8E                     u6611:
  1847   002D8E  EFCD  F016         	goto	l8113
  1848   002D92                     u6610:
  1849   002D92                     
  1850                           ; BSR set to: 0
  1851                           ;ECU_Layer/LED/ecu_led.c: 20:         ret = (Std_ReturnType)0x00;
  1852   002D92  0E00               	movlw	0
  1853   002D94  6FF1               	movwf	led_initialize@ret& (0+255),b
  1854                           
  1855                           ;ECU_Layer/LED/ecu_led.c: 21:     }
  1856   002D96  EFD3  F016         	goto	l8115
  1857   002D9A                     l8113:
  1858                           
  1859                           ; BSR set to: 0
  1860                           ;ECU_Layer/LED/ecu_led.c: 24:         gpio_pin_intialize(&(led->_led));
  1861   002D9A  C0EF  F0EB         	movff	led_initialize@led,gpio_pin_intialize@_pin_config
  1862   002D9E  C0F0  F0EC         	movff	led_initialize@led+1,gpio_pin_intialize@_pin_config+1
  1863   002DA2  EC50  F014         	call	_gpio_pin_intialize	;wreg free
  1864   002DA6                     l8115:
  1865                           
  1866                           ;ECU_Layer/LED/ecu_led.c: 26:     return ret;
  1867   002DA6  0100               	movlb	0	; () banked
  1868   002DA8  51F1               	movf	led_initialize@ret& (0+255),w,b
  1869   002DAA                     
  1870                           ; BSR set to: 0
  1871   002DAA  0012               	return		;funcret
  1872   002DAC                     __end_of_led_initialize:
  1873                           	callstack 0
  1874                           
  1875 ;; *************** function _lcd_4bit_intialize *****************
  1876 ;; Defined at:
  1877 ;;		line 23 in file "ECU_Layer/Chr_LCD/ecu_chr_lcd.c"
  1878 ;; Parameters:    Size  Location     Type
  1879 ;;  lcd             2   14[BANK0 ] PTR const struct .
  1880 ;;		 -> lcd_1(6), 
  1881 ;; Auto vars:     Size  Location     Type
  1882 ;;  ret             1   19[BANK0 ] unsigned char 
  1883 ;;  l_data_pins_    1   18[BANK0 ] unsigned char 
  1884 ;; Return value:  Size  Location     Type
  1885 ;;                  1    wreg      unsigned char 
  1886 ;; Registers used:
  1887 ;;		wreg, fsr2l, fsr2h, status,2, status,0, prodl, prodh, cstack
  1888 ;; Tracked objects:
  1889 ;;		On entry : 0/0
  1890 ;;		On exit  : 0/0
  1891 ;;		Unchanged: 0/0
  1892 ;; Data sizes:     COMRAM   BANK0   BANK1   BANK2   BANK3   BANK4   BANK5   BANK6   BANK7   BANK8   BANK9  BANK10  BANK1
      +1  BANK12  BANK13  BANK14  BANK15
  1893 ;;      Params:         0       2       0       0       0       0       0       0       0       0       0       0       
      +0       0       0       0       0
  1894 ;;      Locals:         0       2       0       0       0       0       0       0       0       0       0       0       
      +0       0       0       0       0
  1895 ;;      Temps:          0       2       0       0       0       0       0       0       0       0       0       0       
      +0       0       0       0       0
  1896 ;;      Totals:         0       6       0       0       0       0       0       0       0       0       0       0       
      +0       0       0       0       0
  1897 ;;Total ram usage:        6 bytes
  1898 ;; Hardware stack levels used: 1
  1899 ;; Hardware stack levels required when called: 10
  1900 ;; This function calls:
  1901 ;;		_gpio_pin_intialize
  1902 ;;		_lcd_4bit_send_command
  1903 ;; This function is called by:
  1904 ;;		_ecu_layer_init
  1905 ;; This function uses a non-reentrant model
  1906 ;;
  1907                           
  1908                           	psect	text6
  1909   00153E                     __ptext6:
  1910                           	callstack 0
  1911   00153E                     _lcd_4bit_intialize:
  1912                           	callstack 18
  1913   00153E                     
  1914                           ;ECU_Layer/Chr_LCD/ecu_chr_lcd.c: 25:     uint8 l_data_pins_counter = 0;
  1915   00153E  0E00               	movlw	0
  1916   001540  0100               	movlb	0	; () banked
  1917   001542  6FF7               	movwf	lcd_4bit_intialize@l_data_pins_counter& (0+255),b
  1918   001544                     
  1919                           ; BSR set to: 0
  1920                           ;ECU_Layer/Chr_LCD/ecu_chr_lcd.c: 26:     if(((void*)0) == lcd){
  1921   001544  51F3               	movf	lcd_4bit_intialize@lcd& (0+255),w,b
  1922   001546  11F4               	iorwf	(lcd_4bit_intialize@lcd+1)& (0+255),w,b
  1923   001548  A4D8               	btfss	status,2,c
  1924   00154A  EFA9  F00A         	goto	u6581
  1925   00154E  EFAB  F00A         	goto	u6580
  1926   001552                     u6581:
  1927   001552  EFAF  F00A         	goto	l8033
  1928   001556                     u6580:
  1929   001556                     
  1930                           ; BSR set to: 0
  1931                           ;ECU_Layer/Chr_LCD/ecu_chr_lcd.c: 27:         ret = (Std_ReturnType)0x00;
  1932   001556  0E00               	movlw	0
  1933   001558  6FF8               	movwf	lcd_4bit_intialize@ret& (0+255),b
  1934                           
  1935                           ;ECU_Layer/Chr_LCD/ecu_chr_lcd.c: 28:     }
  1936   00155A  EF43  F00B         	goto	l8069
  1937   00155E                     l8033:
  1938                           
  1939                           ; BSR set to: 0
  1940                           ;ECU_Layer/Chr_LCD/ecu_chr_lcd.c: 30:         ret = gpio_pin_intialize(&(lcd->lcd_rs));
  1941   00155E  C0F3  F0EB         	movff	lcd_4bit_intialize@lcd,gpio_pin_intialize@_pin_config
  1942   001562  C0F4  F0EC         	movff	lcd_4bit_intialize@lcd+1,gpio_pin_intialize@_pin_config+1
  1943   001566  EC50  F014         	call	_gpio_pin_intialize	;wreg free
  1944   00156A  0100               	movlb	0	; () banked
  1945   00156C  6FF8               	movwf	lcd_4bit_intialize@ret& (0+255),b
  1946                           
  1947                           ;ECU_Layer/Chr_LCD/ecu_chr_lcd.c: 31:         ret = gpio_pin_intialize(&(lcd->lcd_en));
  1948   00156E  0E01               	movlw	1
  1949   001570  25F3               	addwf	lcd_4bit_intialize@lcd& (0+255),w,b
  1950   001572  6FEB               	movwf	gpio_pin_intialize@_pin_config& (0+255),b
  1951   001574  0E00               	movlw	0
  1952   001576  21F4               	addwfc	(lcd_4bit_intialize@lcd+1)& (0+255),w,b
  1953   001578  6FEC               	movwf	(gpio_pin_intialize@_pin_config+1)& (0+255),b
  1954   00157A  EC50  F014         	call	_gpio_pin_intialize	;wreg free
  1955   00157E  0100               	movlb	0	; () banked
  1956   001580  6FF8               	movwf	lcd_4bit_intialize@ret& (0+255),b
  1957   001582                     
  1958                           ; BSR set to: 0
  1959                           ;ECU_Layer/Chr_LCD/ecu_chr_lcd.c: 32:         for(l_data_pins_counter=0; l_data_pins_cou
      +                          nter<4; l_data_pins_counter++){
  1960   001582  0E00               	movlw	0
  1961   001584  6FF7               	movwf	lcd_4bit_intialize@l_data_pins_counter& (0+255),b
  1962   001586                     l8041:
  1963                           
  1964                           ; BSR set to: 0
  1965   001586  51F7               	movf	lcd_4bit_intialize@l_data_pins_counter& (0+255),w,b
  1966   001588  25F3               	addwf	lcd_4bit_intialize@lcd& (0+255),w,b
  1967   00158A  6FF5               	movwf	??_lcd_4bit_intialize& (0+255),b
  1968   00158C  0E00               	movlw	0
  1969   00158E  21F4               	addwfc	(lcd_4bit_intialize@lcd+1)& (0+255),w,b
  1970   001590  6FF6               	movwf	(??_lcd_4bit_intialize+1)& (0+255),b
  1971   001592  0E02               	movlw	2
  1972   001594  25F5               	addwf	??_lcd_4bit_intialize& (0+255),w,b
  1973   001596  6FEB               	movwf	gpio_pin_intialize@_pin_config& (0+255),b
  1974   001598  0E00               	movlw	0
  1975   00159A  21F6               	addwfc	(??_lcd_4bit_intialize+1)& (0+255),w,b
  1976   00159C  6FEC               	movwf	(gpio_pin_intialize@_pin_config+1)& (0+255),b
  1977   00159E  EC50  F014         	call	_gpio_pin_intialize	;wreg free
  1978   0015A2                     
  1979                           ;ECU_Layer/Chr_LCD/ecu_chr_lcd.c: 34:         }
  1980   0015A2  0100               	movlb	0	; () banked
  1981   0015A4  2BF7               	incf	lcd_4bit_intialize@l_data_pins_counter& (0+255),f,b
  1982   0015A6                     
  1983                           ; BSR set to: 0
  1984   0015A6  0E03               	movlw	3
  1985   0015A8  65F7               	cpfsgt	lcd_4bit_intialize@l_data_pins_counter& (0+255),b
  1986   0015AA  EFD9  F00A         	goto	u6591
  1987   0015AE  EFDB  F00A         	goto	u6590
  1988   0015B2                     u6591:
  1989   0015B2  EFC3  F00A         	goto	l8041
  1990   0015B6                     u6590:
  1991   0015B6                     
  1992                           ; BSR set to: 0
  1993                           ;ECU_Layer/Chr_LCD/ecu_chr_lcd.c: 35:         _delay((unsigned long)((20)*(8000000UL/400
      +                          0.0)));
  1994   0015B6  0E34               	movlw	52
  1995   0015B8  0100               	movlb	0	; () banked
  1996   0015BA  6FF5               	movwf	??_lcd_4bit_intialize& (0+255),b
  1997   0015BC  0EF1               	movlw	241
  1998   0015BE                     u7577:
  1999   0015BE  2EE8               	decfsz	wreg,f,c
  2000   0015C0  D7FE               	bra	u7577
  2001   0015C2  2FF5               	decfsz	??_lcd_4bit_intialize& (0+255),f,b
  2002   0015C4  D7FC               	bra	u7577
  2003   0015C6  D000               	nop2	
  2004   0015C8  C0F3  F0EF         	movff	lcd_4bit_intialize@lcd,lcd_4bit_send_command@lcd
  2005   0015CC  C0F4  F0F0         	movff	lcd_4bit_intialize@lcd+1,lcd_4bit_send_command@lcd+1
  2006   0015D0  0E38               	movlw	56
  2007   0015D2  0100               	movlb	0	; () banked
  2008   0015D4  6FF1               	movwf	lcd_4bit_send_command@command& (0+255),b
  2009   0015D6  ECA9  F012         	call	_lcd_4bit_send_command	;wreg free
  2010   0015DA                     
  2011                           ;ECU_Layer/Chr_LCD/ecu_chr_lcd.c: 37:         _delay((unsigned long)((5)*(8000000UL/4000
      +                          .0)));
  2012   0015DA  0E0D               	movlw	13
  2013   0015DC  0100               	movlb	0	; () banked
  2014   0015DE  6FF5               	movwf	??_lcd_4bit_intialize& (0+255),b
  2015   0015E0  0EFB               	movlw	251
  2016   0015E2                     u7587:
  2017   0015E2  2EE8               	decfsz	wreg,f,c
  2018   0015E4  D7FE               	bra	u7587
  2019   0015E6  2FF5               	decfsz	??_lcd_4bit_intialize& (0+255),f,b
  2020   0015E8  D7FC               	bra	u7587
  2021   0015EA  D000               	nop2	
  2022   0015EC  C0F3  F0EF         	movff	lcd_4bit_intialize@lcd,lcd_4bit_send_command@lcd
  2023   0015F0  C0F4  F0F0         	movff	lcd_4bit_intialize@lcd+1,lcd_4bit_send_command@lcd+1
  2024   0015F4  0E38               	movlw	56
  2025   0015F6  0100               	movlb	0	; () banked
  2026   0015F8  6FF1               	movwf	lcd_4bit_send_command@command& (0+255),b
  2027   0015FA  ECA9  F012         	call	_lcd_4bit_send_command	;wreg free
  2028   0015FE                     
  2029                           ;ECU_Layer/Chr_LCD/ecu_chr_lcd.c: 39:         _delay((unsigned long)((150)*(8000000UL/40
      +                          00000.0)));
  2030   0015FE  0E64               	movlw	100
  2031   001600                     u7597:
  2032   001600  2EE8               	decfsz	wreg,f,c
  2033   001602  D7FE               	bra	u7597
  2034   001604  C0F3  F0EF         	movff	lcd_4bit_intialize@lcd,lcd_4bit_send_command@lcd
  2035   001608  C0F4  F0F0         	movff	lcd_4bit_intialize@lcd+1,lcd_4bit_send_command@lcd+1
  2036   00160C  0E38               	movlw	56
  2037   00160E  0100               	movlb	0	; () banked
  2038   001610  6FF1               	movwf	lcd_4bit_send_command@command& (0+255),b
  2039   001612  ECA9  F012         	call	_lcd_4bit_send_command	;wreg free
  2040   001616  C0F3  F0EF         	movff	lcd_4bit_intialize@lcd,lcd_4bit_send_command@lcd
  2041   00161A  C0F4  F0F0         	movff	lcd_4bit_intialize@lcd+1,lcd_4bit_send_command@lcd+1
  2042   00161E  0E01               	movlw	1
  2043   001620  0100               	movlb	0	; () banked
  2044   001622  6FF1               	movwf	lcd_4bit_send_command@command& (0+255),b
  2045   001624  ECA9  F012         	call	_lcd_4bit_send_command	;wreg free
  2046   001628  C0F3  F0EF         	movff	lcd_4bit_intialize@lcd,lcd_4bit_send_command@lcd
  2047   00162C  C0F4  F0F0         	movff	lcd_4bit_intialize@lcd+1,lcd_4bit_send_command@lcd+1
  2048   001630  0E02               	movlw	2
  2049   001632  0100               	movlb	0	; () banked
  2050   001634  6FF1               	movwf	lcd_4bit_send_command@command& (0+255),b
  2051   001636  ECA9  F012         	call	_lcd_4bit_send_command	;wreg free
  2052   00163A  C0F3  F0EF         	movff	lcd_4bit_intialize@lcd,lcd_4bit_send_command@lcd
  2053   00163E  C0F4  F0F0         	movff	lcd_4bit_intialize@lcd+1,lcd_4bit_send_command@lcd+1
  2054   001642  0E06               	movlw	6
  2055   001644  0100               	movlb	0	; () banked
  2056   001646  6FF1               	movwf	lcd_4bit_send_command@command& (0+255),b
  2057   001648  ECA9  F012         	call	_lcd_4bit_send_command	;wreg free
  2058   00164C  C0F3  F0EF         	movff	lcd_4bit_intialize@lcd,lcd_4bit_send_command@lcd
  2059   001650  C0F4  F0F0         	movff	lcd_4bit_intialize@lcd+1,lcd_4bit_send_command@lcd+1
  2060   001654  0E0C               	movlw	12
  2061   001656  0100               	movlb	0	; () banked
  2062   001658  6FF1               	movwf	lcd_4bit_send_command@command& (0+255),b
  2063   00165A  ECA9  F012         	call	_lcd_4bit_send_command	;wreg free
  2064   00165E  C0F3  F0EF         	movff	lcd_4bit_intialize@lcd,lcd_4bit_send_command@lcd
  2065   001662  C0F4  F0F0         	movff	lcd_4bit_intialize@lcd+1,lcd_4bit_send_command@lcd+1
  2066   001666  0E28               	movlw	40
  2067   001668  0100               	movlb	0	; () banked
  2068   00166A  6FF1               	movwf	lcd_4bit_send_command@command& (0+255),b
  2069   00166C  ECA9  F012         	call	_lcd_4bit_send_command	;wreg free
  2070   001670                     
  2071                           ;ECU_Layer/Chr_LCD/ecu_chr_lcd.c: 47:         ret = lcd_4bit_send_command(lcd, 0x80);
  2072   001670  C0F3  F0EF         	movff	lcd_4bit_intialize@lcd,lcd_4bit_send_command@lcd
  2073   001674  C0F4  F0F0         	movff	lcd_4bit_intialize@lcd+1,lcd_4bit_send_command@lcd+1
  2074   001678  0E80               	movlw	128
  2075   00167A  0100               	movlb	0	; () banked
  2076   00167C  6FF1               	movwf	lcd_4bit_send_command@command& (0+255),b
  2077   00167E  ECA9  F012         	call	_lcd_4bit_send_command	;wreg free
  2078   001682  0100               	movlb	0	; () banked
  2079   001684  6FF8               	movwf	lcd_4bit_intialize@ret& (0+255),b
  2080   001686                     l8069:
  2081                           
  2082                           ; BSR set to: 0
  2083                           ;ECU_Layer/Chr_LCD/ecu_chr_lcd.c: 49:     return ret;
  2084   001686  51F8               	movf	lcd_4bit_intialize@ret& (0+255),w,b
  2085   001688                     
  2086                           ; BSR set to: 0
  2087   001688  0012               	return		;funcret
  2088   00168A                     __end_of_lcd_4bit_intialize:
  2089                           	callstack 0
  2090                           
  2091 ;; *************** function _gpio_pin_intialize *****************
  2092 ;; Defined at:
  2093 ;;		line 144 in file "MCAL_Layer/GPIO/hal_gpio.c"
  2094 ;; Parameters:    Size  Location     Type
  2095 ;;  _pin_config     2    6[BANK0 ] PTR const struct .
  2096 ;;		 -> ready_yellow(1), led_green_people(1), led_red_people(1), led_green_car(1), 
  2097 ;;		 -> led_red_car(1), lcd_1.lcd_data(4), lcd_1(6), seg2.segment_pins(4), 
  2098 ;;		 -> seg2(5), seg1.segment_pins(4), seg1(5), 
  2099 ;; Auto vars:     Size  Location     Type
  2100 ;;  ret             1    9[BANK0 ] unsigned char 
  2101 ;; Return value:  Size  Location     Type
  2102 ;;                  1    wreg      unsigned char 
  2103 ;; Registers used:
  2104 ;;		wreg, fsr2l, fsr2h, status,2, status,0, prodl, prodh, cstack
  2105 ;; Tracked objects:
  2106 ;;		On entry : 0/0
  2107 ;;		On exit  : 0/0
  2108 ;;		Unchanged: 0/0
  2109 ;; Data sizes:     COMRAM   BANK0   BANK1   BANK2   BANK3   BANK4   BANK5   BANK6   BANK7   BANK8   BANK9  BANK10  BANK1
      +1  BANK12  BANK13  BANK14  BANK15
  2110 ;;      Params:         0       2       0       0       0       0       0       0       0       0       0       0       
      +0       0       0       0       0
  2111 ;;      Locals:         0       1       0       0       0       0       0       0       0       0       0       0       
      +0       0       0       0       0
  2112 ;;      Temps:          0       1       0       0       0       0       0       0       0       0       0       0       
      +0       0       0       0       0
  2113 ;;      Totals:         0       4       0       0       0       0       0       0       0       0       0       0       
      +0       0       0       0       0
  2114 ;;Total ram usage:        4 bytes
  2115 ;; Hardware stack levels used: 1
  2116 ;; Hardware stack levels required when called: 8
  2117 ;; This function calls:
  2118 ;;		_gpio_pin_direction_intialize
  2119 ;;		_gpio_pin_write_logic
  2120 ;; This function is called by:
  2121 ;;		_seven_segement_intialize
  2122 ;;		_lcd_4bit_intialize
  2123 ;;		_led_initialize
  2124 ;;		_lcd_8bit_intialize
  2125 ;;		_dc_motor_initialize
  2126 ;;		_keypad_initialize
  2127 ;;		_relay_initialize
  2128 ;;		_Ultrasonic_Init
  2129 ;;		_CCP_Init
  2130 ;; This function uses a non-reentrant model
  2131 ;;
  2132                           
  2133                           	psect	text7
  2134   0028A0                     __ptext7:
  2135                           	callstack 0
  2136   0028A0                     _gpio_pin_intialize:
  2137                           	callstack 19
  2138   0028A0                     
  2139                           ;MCAL_Layer/GPIO/hal_gpio.c: 146:     if(((void*)0) == _pin_config || _pin_config->pin >
      +                           8 -1){
  2140   0028A0  0100               	movlb	0	; () banked
  2141   0028A2  51EB               	movf	gpio_pin_intialize@_pin_config& (0+255),w,b
  2142   0028A4  11EC               	iorwf	(gpio_pin_intialize@_pin_config+1)& (0+255),w,b
  2143   0028A6  B4D8               	btfsc	status,2,c
  2144   0028A8  EF58  F014         	goto	u6511
  2145   0028AC  EF5A  F014         	goto	u6510
  2146   0028B0                     u6511:
  2147   0028B0  EF6B  F014         	goto	l7953
  2148   0028B4                     u6510:
  2149   0028B4                     
  2150                           ; BSR set to: 0
  2151   0028B4  C0EB  FFD9         	movff	gpio_pin_intialize@_pin_config,fsr2l
  2152   0028B8  C0EC  FFDA         	movff	gpio_pin_intialize@_pin_config+1,fsr2h
  2153   0028BC  30DF               	rrcf	223,w,c
  2154   0028BE  32E8               	rrcf	wreg,f,c
  2155   0028C0  32E8               	rrcf	wreg,f,c
  2156   0028C2  0B07               	andlw	7
  2157   0028C4  6FED               	movwf	??_gpio_pin_intialize& (0+255),b
  2158   0028C6  0E07               	movlw	7
  2159   0028C8  65ED               	cpfsgt	??_gpio_pin_intialize& (0+255),b
  2160   0028CA  EF69  F014         	goto	u6521
  2161   0028CE  EF6B  F014         	goto	u6520
  2162   0028D2                     u6521:
  2163   0028D2  EF6F  F014         	goto	l7955
  2164   0028D6                     u6520:
  2165   0028D6                     l7953:
  2166                           
  2167                           ; BSR set to: 0
  2168                           ;MCAL_Layer/GPIO/hal_gpio.c: 147:         ret = (Std_ReturnType)0x00;
  2169   0028D6  0E00               	movlw	0
  2170   0028D8  6FEE               	movwf	gpio_pin_intialize@ret& (0+255),b
  2171                           
  2172                           ;MCAL_Layer/GPIO/hal_gpio.c: 148:     }
  2173   0028DA  EF87  F014         	goto	l7957
  2174   0028DE                     l7955:
  2175                           
  2176                           ; BSR set to: 0
  2177                           ;MCAL_Layer/GPIO/hal_gpio.c: 150:         ret = gpio_pin_direction_intialize(_pin_config
      +                          );
  2178   0028DE  C0EB  F04D         	movff	gpio_pin_intialize@_pin_config,gpio_pin_direction_intialize@_pin_config
  2179   0028E2  C0EC  F04E         	movff	gpio_pin_intialize@_pin_config+1,gpio_pin_direction_intialize@_pin_config+1
  2180   0028E6  EC45  F00B         	call	_gpio_pin_direction_intialize	;wreg free
  2181   0028EA  0100               	movlb	0	; () banked
  2182   0028EC  6FEE               	movwf	gpio_pin_intialize@ret& (0+255),b
  2183                           
  2184                           ;MCAL_Layer/GPIO/hal_gpio.c: 151:         ret = gpio_pin_write_logic(_pin_config, _pin_c
      +                          onfig->logic);
  2185   0028EE  C0EB  F04D         	movff	gpio_pin_intialize@_pin_config,gpio_pin_write_logic@_pin_config
  2186   0028F2  C0EC  F04E         	movff	gpio_pin_intialize@_pin_config+1,gpio_pin_write_logic@_pin_config+1
  2187   0028F6  C0EB  FFD9         	movff	gpio_pin_intialize@_pin_config,fsr2l
  2188   0028FA  C0EC  FFDA         	movff	gpio_pin_intialize@_pin_config+1,fsr2h
  2189   0028FE  0E00               	movlw	0
  2190   002900  BEDF               	btfsc	indf2,7,c
  2191   002902  0E01               	movlw	1
  2192   002904  6E4F               	movwf	gpio_pin_write_logic@logic^0,c
  2193   002906  ECEA  F00B         	call	_gpio_pin_write_logic	;wreg free
  2194   00290A  0100               	movlb	0	; () banked
  2195   00290C  6FEE               	movwf	gpio_pin_intialize@ret& (0+255),b
  2196   00290E                     l7957:
  2197                           
  2198                           ; BSR set to: 0
  2199                           ;MCAL_Layer/GPIO/hal_gpio.c: 153:     return ret;
  2200   00290E  51EE               	movf	gpio_pin_intialize@ret& (0+255),w,b
  2201   002910                     
  2202                           ; BSR set to: 0
  2203   002910  0012               	return		;funcret
  2204   002912                     __end_of_gpio_pin_intialize:
  2205                           	callstack 0
  2206                           
  2207 ;; *************** function _Timer0_Init *****************
  2208 ;; Defined at:
  2209 ;;		line 19 in file "MCAL_Layer/Timer0/hal_timr0.c"
  2210 ;; Parameters:    Size  Location     Type
  2211 ;;  _timer          2    0[BANK0 ] PTR const struct .
  2212 ;;		 -> timer0(7), 
  2213 ;; Auto vars:     Size  Location     Type
  2214 ;;  ret             1   33[COMRAM] unsigned char 
  2215 ;; Return value:  Size  Location     Type
  2216 ;;                  1    wreg      unsigned char 
  2217 ;; Registers used:
  2218 ;;		wreg, fsr2l, fsr2h, status,2, status,0, cstack
  2219 ;; Tracked objects:
  2220 ;;		On entry : 0/0
  2221 ;;		On exit  : 0/0
  2222 ;;		Unchanged: 0/0
  2223 ;; Data sizes:     COMRAM   BANK0   BANK1   BANK2   BANK3   BANK4   BANK5   BANK6   BANK7   BANK8   BANK9  BANK10  BANK1
      +1  BANK12  BANK13  BANK14  BANK15
  2224 ;;      Params:         0       2       0       0       0       0       0       0       0       0       0       0       
      +0       0       0       0       0
  2225 ;;      Locals:         1       0       0       0       0       0       0       0       0       0       0       0       
      +0       0       0       0       0
  2226 ;;      Temps:          0       2       0       0       0       0       0       0       0       0       0       0       
      +0       0       0       0       0
  2227 ;;      Totals:         1       4       0       0       0       0       0       0       0       0       0       0       
      +0       0       0       0       0
  2228 ;;Total ram usage:        5 bytes
  2229 ;; Hardware stack levels used: 1
  2230 ;; Hardware stack levels required when called: 8
  2231 ;; This function calls:
  2232 ;;		_Timer0_Mode_Select
  2233 ;;		_Timer0_Prescaler_Config
  2234 ;;		_Timer0_Register_Size_Config
  2235 ;; This function is called by:
  2236 ;;		_application_initialize
  2237 ;; This function uses a non-reentrant model
  2238 ;;
  2239                           
  2240                           	psect	text8
  2241   002172                     __ptext8:
  2242                           	callstack 0
  2243   002172                     _Timer0_Init:
  2244                           	callstack 21
  2245   002172                     
  2246                           ;MCAL_Layer/Timer0/hal_timr0.c: 21:     if(((void*)0) == _timer){
  2247   002172  0100               	movlb	0	; () banked
  2248   002174  51E5               	movf	Timer0_Init@_timer& (0+255),w,b
  2249   002176  11E6               	iorwf	(Timer0_Init@_timer+1)& (0+255),w,b
  2250   002178  A4D8               	btfss	status,2,c
  2251   00217A  EFC1  F010         	goto	u6861
  2252   00217E  EFC3  F010         	goto	u6860
  2253   002182                     u6861:
  2254   002182  EFC7  F010         	goto	l1385
  2255   002186                     u6860:
  2256   002186                     
  2257                           ; BSR set to: 0
  2258                           ;MCAL_Layer/Timer0/hal_timr0.c: 22:         ret = (Std_ReturnType)0x00;
  2259   002186  0E00               	movlw	0
  2260   002188  6E50               	movwf	Timer0_Init@ret^0,c
  2261                           
  2262                           ;MCAL_Layer/Timer0/hal_timr0.c: 23:     }
  2263   00218A  EF0B  F011         	goto	l8445
  2264   00218E                     l1385:
  2265                           
  2266                           ; BSR set to: 0
  2267                           ;MCAL_Layer/Timer0/hal_timr0.c: 25:         (T0CONbits.TMR0ON = 0);
  2268   00218E  9ED5               	bcf	213,7,c	;volatile
  2269   002190                     
  2270                           ; BSR set to: 0
  2271                           ;MCAL_Layer/Timer0/hal_timr0.c: 26:         Timer0_Prescaler_Config(_timer);
  2272   002190  C0E5  F04D         	movff	Timer0_Init@_timer,Timer0_Prescaler_Config@_timer
  2273   002194  C0E6  F04E         	movff	Timer0_Init@_timer+1,Timer0_Prescaler_Config@_timer+1
  2274   002198  EC96  F015         	call	_Timer0_Prescaler_Config	;wreg free
  2275                           
  2276                           ;MCAL_Layer/Timer0/hal_timr0.c: 27:         Timer0_Mode_Select(_timer);
  2277   00219C  C0E5  F04D         	movff	Timer0_Init@_timer,Timer0_Mode_Select@_timer
  2278   0021A0  C0E6  F04E         	movff	Timer0_Init@_timer+1,Timer0_Mode_Select@_timer+1
  2279   0021A4  EC6A  F012         	call	_Timer0_Mode_Select	;wreg free
  2280                           
  2281                           ;MCAL_Layer/Timer0/hal_timr0.c: 28:         Timer0_Register_Size_Config(_timer);
  2282   0021A8  C0E5  F04D         	movff	Timer0_Init@_timer,Timer0_Register_Size_Config@_timer
  2283   0021AC  C0E6  F04E         	movff	Timer0_Init@_timer+1,Timer0_Register_Size_Config@_timer+1
  2284   0021B0  EC14  F016         	call	_Timer0_Register_Size_Config	;wreg free
  2285   0021B4                     
  2286                           ;MCAL_Layer/Timer0/hal_timr0.c: 29:         TMR0H = (_timer->timer0_preload_value) >> 8;
  2287   0021B4  0100               	movlb	0	; () banked
  2288   0021B6  EE20 F004          	lfsr	2,4
  2289   0021BA  51E5               	movf	Timer0_Init@_timer& (0+255),w,b
  2290   0021BC  26D9               	addwf	fsr2l,f,c
  2291   0021BE  51E6               	movf	(Timer0_Init@_timer+1)& (0+255),w,b
  2292   0021C0  22DA               	addwfc	fsr2h,f,c
  2293   0021C2  CFDE F0E7          	movff	postinc2,??_Timer0_Init
  2294   0021C6  CFDD F0E8          	movff	postdec2,??_Timer0_Init+1
  2295   0021CA  C0E8  F0E7         	movff	??_Timer0_Init+1,??_Timer0_Init
  2296   0021CE  6BE8               	clrf	(??_Timer0_Init+1)& (0+255),b
  2297   0021D0  51E7               	movf	??_Timer0_Init& (0+255),w,b
  2298   0021D2  6ED7               	movwf	215,c	;volatile
  2299   0021D4                     
  2300                           ; BSR set to: 0
  2301                           ;MCAL_Layer/Timer0/hal_timr0.c: 30:         TMR0L = (uint8)(_timer->timer0_preload_value
      +                          );
  2302   0021D4  EE20 F004          	lfsr	2,4
  2303   0021D8  51E5               	movf	Timer0_Init@_timer& (0+255),w,b
  2304   0021DA  26D9               	addwf	fsr2l,f,c
  2305   0021DC  51E6               	movf	(Timer0_Init@_timer+1)& (0+255),w,b
  2306   0021DE  22DA               	addwfc	fsr2h,f,c
  2307   0021E0  50DF               	movf	indf2,w,c
  2308   0021E2  6ED6               	movwf	214,c	;volatile
  2309   0021E4                     
  2310                           ; BSR set to: 0
  2311                           ;MCAL_Layer/Timer0/hal_timr0.c: 31:         timer0_preload = _timer->timer0_preload_valu
      +                          e;
  2312   0021E4  EE20 F004          	lfsr	2,4
  2313   0021E8  51E5               	movf	Timer0_Init@_timer& (0+255),w,b
  2314   0021EA  26D9               	addwf	fsr2l,f,c
  2315   0021EC  51E6               	movf	(Timer0_Init@_timer+1)& (0+255),w,b
  2316   0021EE  22DA               	addwfc	fsr2h,f,c
  2317   0021F0  CFDE F005          	movff	postinc2,_timer0_preload
  2318   0021F4  CFDD F006          	movff	postdec2,_timer0_preload+1
  2319   0021F8                     
  2320                           ; BSR set to: 0
  2321                           ;MCAL_Layer/Timer0/hal_timr0.c: 34:         (INTCONbits.TMR0IE = 1);
  2322   0021F8  8AF2               	bsf	242,5,c	;volatile
  2323   0021FA                     
  2324                           ; BSR set to: 0
  2325                           ;MCAL_Layer/Timer0/hal_timr0.c: 35:         (INTCONbits.TMR0IF = 0);
  2326   0021FA  94F2               	bcf	242,2,c	;volatile
  2327   0021FC                     
  2328                           ; BSR set to: 0
  2329                           ;MCAL_Layer/Timer0/hal_timr0.c: 36:         TMR0_InterruptHandler = _timer->TMR0_Interru
      +                          ptHandler;
  2330   0021FC  C0E5  FFD9         	movff	Timer0_Init@_timer,fsr2l
  2331   002200  C0E6  FFDA         	movff	Timer0_Init@_timer+1,fsr2h
  2332   002204  CFDE F007          	movff	postinc2,_TMR0_InterruptHandler
  2333   002208  CFDD F008          	movff	postdec2,_TMR0_InterruptHandler+1
  2334   00220C                     
  2335                           ; BSR set to: 0
  2336                           ;MCAL_Layer/Timer0/hal_timr0.c: 53:         (INTCONbits.GIE = 1);
  2337   00220C  8EF2               	bsf	242,7,c	;volatile
  2338   00220E                     
  2339                           ; BSR set to: 0
  2340                           ;MCAL_Layer/Timer0/hal_timr0.c: 54:         (INTCONbits.PEIE = 1);
  2341   00220E  8CF2               	bsf	242,6,c	;volatile
  2342   002210                     
  2343                           ; BSR set to: 0
  2344                           ;MCAL_Layer/Timer0/hal_timr0.c: 58:         (T0CONbits.TMR0ON = 1);
  2345   002210  8ED5               	bsf	213,7,c	;volatile
  2346   002212                     
  2347                           ; BSR set to: 0
  2348                           ;MCAL_Layer/Timer0/hal_timr0.c: 59:         ret = (Std_ReturnType)0x01;
  2349   002212  0E01               	movlw	1
  2350   002214  6E50               	movwf	Timer0_Init@ret^0,c
  2351   002216                     l8445:
  2352                           
  2353                           ; BSR set to: 0
  2354                           ;MCAL_Layer/Timer0/hal_timr0.c: 61:     return ret;
  2355   002216  5050               	movf	Timer0_Init@ret^0,w,c
  2356   002218                     
  2357                           ; BSR set to: 0
  2358   002218  0012               	return		;funcret
  2359   00221A                     __end_of_Timer0_Init:
  2360                           	callstack 0
  2361                           
  2362 ;; *************** function _Timer0_Register_Size_Config *****************
  2363 ;; Defined at:
  2364 ;;		line 144 in file "MCAL_Layer/Timer0/hal_timr0.c"
  2365 ;; Parameters:    Size  Location     Type
  2366 ;;  _timer          2   30[COMRAM] PTR const struct .
  2367 ;;		 -> timer0(7), 
  2368 ;; Auto vars:     Size  Location     Type
  2369 ;;		None
  2370 ;; Return value:  Size  Location     Type
  2371 ;;                  1    wreg      void 
  2372 ;; Registers used:
  2373 ;;		wreg, fsr2l, fsr2h, status,2, status,0
  2374 ;; Tracked objects:
  2375 ;;		On entry : 0/0
  2376 ;;		On exit  : 0/0
  2377 ;;		Unchanged: 0/0
  2378 ;; Data sizes:     COMRAM   BANK0   BANK1   BANK2   BANK3   BANK4   BANK5   BANK6   BANK7   BANK8   BANK9  BANK10  BANK1
      +1  BANK12  BANK13  BANK14  BANK15
  2379 ;;      Params:         2       0       0       0       0       0       0       0       0       0       0       0       
      +0       0       0       0       0
  2380 ;;      Locals:         0       0       0       0       0       0       0       0       0       0       0       0       
      +0       0       0       0       0
  2381 ;;      Temps:          0       0       0       0       0       0       0       0       0       0       0       0       
      +0       0       0       0       0
  2382 ;;      Totals:         2       0       0       0       0       0       0       0       0       0       0       0       
      +0       0       0       0       0
  2383 ;;Total ram usage:        2 bytes
  2384 ;; Hardware stack levels used: 1
  2385 ;; Hardware stack levels required when called: 7
  2386 ;; This function calls:
  2387 ;;		Nothing
  2388 ;; This function is called by:
  2389 ;;		_Timer0_Init
  2390 ;; This function uses a non-reentrant model
  2391 ;;
  2392                           
  2393                           	psect	text9
  2394   002C28                     __ptext9:
  2395                           	callstack 0
  2396   002C28                     _Timer0_Register_Size_Config:
  2397                           	callstack 21
  2398   002C28                     
  2399                           ;MCAL_Layer/Timer0/hal_timr0.c: 145:     if(1 == _timer->timer0_register_size){
  2400   002C28  EE20 F006          	lfsr	2,6
  2401   002C2C  504D               	movf	Timer0_Register_Size_Config@_timer^0,w,c
  2402   002C2E  26D9               	addwf	fsr2l,f,c
  2403   002C30  504E               	movf	(Timer0_Register_Size_Config@_timer+1)^0,w,c
  2404   002C32  22DA               	addwfc	fsr2h,f,c
  2405   002C34  A6DF               	btfss	indf2,3,c
  2406   002C36  EF1F  F016         	goto	u4181
  2407   002C3A  EF21  F016         	goto	u4180
  2408   002C3E                     u4181:
  2409   002C3E  EF24  F016         	goto	l6037
  2410   002C42                     u4180:
  2411   002C42                     
  2412                           ;MCAL_Layer/Timer0/hal_timr0.c: 146:         (T0CONbits.T08BIT = 1);
  2413   002C42  8CD5               	bsf	213,6,c	;volatile
  2414                           
  2415                           ;MCAL_Layer/Timer0/hal_timr0.c: 147:     }
  2416   002C44  EF32  F016         	goto	l1431
  2417   002C48                     l6037:
  2418   002C48  EE20 F006          	lfsr	2,6
  2419   002C4C  504D               	movf	Timer0_Register_Size_Config@_timer^0,w,c
  2420   002C4E  26D9               	addwf	fsr2l,f,c
  2421   002C50  504E               	movf	(Timer0_Register_Size_Config@_timer+1)^0,w,c
  2422   002C52  22DA               	addwfc	fsr2h,f,c
  2423   002C54  B6DF               	btfsc	indf2,3,c
  2424   002C56  EF2F  F016         	goto	u4191
  2425   002C5A  EF31  F016         	goto	u4190
  2426   002C5E                     u4191:
  2427   002C5E  EF32  F016         	goto	l1431
  2428   002C62                     u4190:
  2429   002C62                     
  2430                           ;MCAL_Layer/Timer0/hal_timr0.c: 149:         (T0CONbits.T08BIT = 0);
  2431   002C62  9CD5               	bcf	213,6,c	;volatile
  2432   002C64                     l1431:
  2433   002C64  0012               	return		;funcret
  2434   002C66                     __end_of_Timer0_Register_Size_Config:
  2435                           	callstack 0
  2436                           
  2437 ;; *************** function _Timer0_Prescaler_Config *****************
  2438 ;; Defined at:
  2439 ;;		line 116 in file "MCAL_Layer/Timer0/hal_timr0.c"
  2440 ;; Parameters:    Size  Location     Type
  2441 ;;  _timer          2   30[COMRAM] PTR const struct .
  2442 ;;		 -> timer0(7), 
  2443 ;; Auto vars:     Size  Location     Type
  2444 ;;		None
  2445 ;; Return value:  Size  Location     Type
  2446 ;;                  1    wreg      void 
  2447 ;; Registers used:
  2448 ;;		wreg, fsr2l, fsr2h, status,2, status,0
  2449 ;; Tracked objects:
  2450 ;;		On entry : 0/0
  2451 ;;		On exit  : 0/0
  2452 ;;		Unchanged: 0/0
  2453 ;; Data sizes:     COMRAM   BANK0   BANK1   BANK2   BANK3   BANK4   BANK5   BANK6   BANK7   BANK8   BANK9  BANK10  BANK1
      +1  BANK12  BANK13  BANK14  BANK15
  2454 ;;      Params:         2       0       0       0       0       0       0       0       0       0       0       0       
      +0       0       0       0       0
  2455 ;;      Locals:         0       0       0       0       0       0       0       0       0       0       0       0       
      +0       0       0       0       0
  2456 ;;      Temps:          1       0       0       0       0       0       0       0       0       0       0       0       
      +0       0       0       0       0
  2457 ;;      Totals:         3       0       0       0       0       0       0       0       0       0       0       0       
      +0       0       0       0       0
  2458 ;;Total ram usage:        3 bytes
  2459 ;; Hardware stack levels used: 1
  2460 ;; Hardware stack levels required when called: 7
  2461 ;; This function calls:
  2462 ;;		Nothing
  2463 ;; This function is called by:
  2464 ;;		_Timer0_Init
  2465 ;; This function uses a non-reentrant model
  2466 ;;
  2467                           
  2468                           	psect	text10
  2469   002B2C                     __ptext10:
  2470                           	callstack 0
  2471   002B2C                     _Timer0_Prescaler_Config:
  2472                           	callstack 21
  2473   002B2C                     
  2474                           ;MCAL_Layer/Timer0/hal_timr0.c: 117:     if(1 == _timer->prescaler_enable){
  2475   002B2C  EE20 F006          	lfsr	2,6
  2476   002B30  504D               	movf	Timer0_Prescaler_Config@_timer^0,w,c
  2477   002B32  26D9               	addwf	fsr2l,f,c
  2478   002B34  504E               	movf	(Timer0_Prescaler_Config@_timer+1)^0,w,c
  2479   002B36  22DA               	addwfc	fsr2h,f,c
  2480   002B38  A0DF               	btfss	indf2,0,c
  2481   002B3A  EFA1  F015         	goto	u4121
  2482   002B3E  EFA3  F015         	goto	u4120
  2483   002B42                     u4121:
  2484   002B42  EFB3  F015         	goto	l6013
  2485   002B46                     u4120:
  2486   002B46                     
  2487                           ;MCAL_Layer/Timer0/hal_timr0.c: 118:         (T0CONbits.PSA = 0);
  2488   002B46  96D5               	bcf	213,3,c	;volatile
  2489   002B48                     
  2490                           ;MCAL_Layer/Timer0/hal_timr0.c: 119:         T0CONbits.T0PS = _timer->prescaler_value;
  2491   002B48  EE20 F003          	lfsr	2,3
  2492   002B4C  504D               	movf	Timer0_Prescaler_Config@_timer^0,w,c
  2493   002B4E  26D9               	addwf	fsr2l,f,c
  2494   002B50  504E               	movf	(Timer0_Prescaler_Config@_timer+1)^0,w,c
  2495   002B52  22DA               	addwfc	fsr2h,f,c
  2496   002B54  50DF               	movf	indf2,w,c
  2497   002B56  6E4F               	movwf	??_Timer0_Prescaler_Config^0,c
  2498   002B58  50D5               	movf	213,w,c	;volatile
  2499   002B5A  184F               	xorwf	??_Timer0_Prescaler_Config^0,w,c
  2500   002B5C  0BF8               	andlw	-8
  2501   002B5E  184F               	xorwf	??_Timer0_Prescaler_Config^0,w,c
  2502   002B60  6ED5               	movwf	213,c	;volatile
  2503                           
  2504                           ;MCAL_Layer/Timer0/hal_timr0.c: 120:     }
  2505   002B62  EFC1  F015         	goto	l1413
  2506   002B66                     l6013:
  2507   002B66  EE20 F006          	lfsr	2,6
  2508   002B6A  504D               	movf	Timer0_Prescaler_Config@_timer^0,w,c
  2509   002B6C  26D9               	addwf	fsr2l,f,c
  2510   002B6E  504E               	movf	(Timer0_Prescaler_Config@_timer+1)^0,w,c
  2511   002B70  22DA               	addwfc	fsr2h,f,c
  2512   002B72  B0DF               	btfsc	indf2,0,c
  2513   002B74  EFBE  F015         	goto	u4131
  2514   002B78  EFC0  F015         	goto	u4130
  2515   002B7C                     u4131:
  2516   002B7C  EFC1  F015         	goto	l1413
  2517   002B80                     u4130:
  2518   002B80                     
  2519                           ;MCAL_Layer/Timer0/hal_timr0.c: 122:         (T0CONbits.PSA = 1);
  2520   002B80  86D5               	bsf	213,3,c	;volatile
  2521   002B82                     l1413:
  2522   002B82  0012               	return		;funcret
  2523   002B84                     __end_of_Timer0_Prescaler_Config:
  2524                           	callstack 0
  2525                           
  2526 ;; *************** function _Timer0_Mode_Select *****************
  2527 ;; Defined at:
  2528 ;;		line 127 in file "MCAL_Layer/Timer0/hal_timr0.c"
  2529 ;; Parameters:    Size  Location     Type
  2530 ;;  _timer          2   30[COMRAM] PTR const struct .
  2531 ;;		 -> timer0(7), 
  2532 ;; Auto vars:     Size  Location     Type
  2533 ;;		None
  2534 ;; Return value:  Size  Location     Type
  2535 ;;                  1    wreg      void 
  2536 ;; Registers used:
  2537 ;;		wreg, fsr2l, fsr2h, status,2, status,0
  2538 ;; Tracked objects:
  2539 ;;		On entry : 0/0
  2540 ;;		On exit  : 0/0
  2541 ;;		Unchanged: 0/0
  2542 ;; Data sizes:     COMRAM   BANK0   BANK1   BANK2   BANK3   BANK4   BANK5   BANK6   BANK7   BANK8   BANK9  BANK10  BANK1
      +1  BANK12  BANK13  BANK14  BANK15
  2543 ;;      Params:         2       0       0       0       0       0       0       0       0       0       0       0       
      +0       0       0       0       0
  2544 ;;      Locals:         0       0       0       0       0       0       0       0       0       0       0       0       
      +0       0       0       0       0
  2545 ;;      Temps:          0       0       0       0       0       0       0       0       0       0       0       0       
      +0       0       0       0       0
  2546 ;;      Totals:         2       0       0       0       0       0       0       0       0       0       0       0       
      +0       0       0       0       0
  2547 ;;Total ram usage:        2 bytes
  2548 ;; Hardware stack levels used: 1
  2549 ;; Hardware stack levels required when called: 7
  2550 ;; This function calls:
  2551 ;;		Nothing
  2552 ;; This function is called by:
  2553 ;;		_Timer0_Init
  2554 ;; This function uses a non-reentrant model
  2555 ;;
  2556                           
  2557                           	psect	text11
  2558   0024D4                     __ptext11:
  2559                           	callstack 0
  2560   0024D4                     _Timer0_Mode_Select:
  2561                           	callstack 21
  2562   0024D4                     
  2563                           ;MCAL_Layer/Timer0/hal_timr0.c: 128:     if(1 == _timer->timer0_mode){
  2564   0024D4  EE20 F006          	lfsr	2,6
  2565   0024D8  504D               	movf	Timer0_Mode_Select@_timer^0,w,c
  2566   0024DA  26D9               	addwf	fsr2l,f,c
  2567   0024DC  504E               	movf	(Timer0_Mode_Select@_timer+1)^0,w,c
  2568   0024DE  22DA               	addwfc	fsr2h,f,c
  2569   0024E0  A4DF               	btfss	indf2,2,c
  2570   0024E2  EF75  F012         	goto	u4141
  2571   0024E6  EF77  F012         	goto	u4140
  2572   0024EA                     u4141:
  2573   0024EA  EF7A  F012         	goto	l6021
  2574   0024EE                     u4140:
  2575   0024EE                     
  2576                           ;MCAL_Layer/Timer0/hal_timr0.c: 129:         (T0CONbits.T0CS = 0);
  2577   0024EE  9AD5               	bcf	213,5,c	;volatile
  2578                           
  2579                           ;MCAL_Layer/Timer0/hal_timr0.c: 130:     }
  2580   0024F0  EFA8  F012         	goto	l1424
  2581   0024F4                     l6021:
  2582   0024F4  EE20 F006          	lfsr	2,6
  2583   0024F8  504D               	movf	Timer0_Mode_Select@_timer^0,w,c
  2584   0024FA  26D9               	addwf	fsr2l,f,c
  2585   0024FC  504E               	movf	(Timer0_Mode_Select@_timer+1)^0,w,c
  2586   0024FE  22DA               	addwfc	fsr2h,f,c
  2587   002500  B4DF               	btfsc	indf2,2,c
  2588   002502  EF85  F012         	goto	u4151
  2589   002506  EF87  F012         	goto	u4150
  2590   00250A                     u4151:
  2591   00250A  EFA8  F012         	goto	l1424
  2592   00250E                     u4150:
  2593   00250E                     
  2594                           ;MCAL_Layer/Timer0/hal_timr0.c: 132:         (T0CONbits.T0CS = 1);
  2595   00250E  8AD5               	bsf	213,5,c	;volatile
  2596   002510                     
  2597                           ;MCAL_Layer/Timer0/hal_timr0.c: 133:         if(1 == _timer->timer0_counter_edge){
  2598   002510  EE20 F006          	lfsr	2,6
  2599   002514  504D               	movf	Timer0_Mode_Select@_timer^0,w,c
  2600   002516  26D9               	addwf	fsr2l,f,c
  2601   002518  504E               	movf	(Timer0_Mode_Select@_timer+1)^0,w,c
  2602   00251A  22DA               	addwfc	fsr2h,f,c
  2603   00251C  A2DF               	btfss	indf2,1,c
  2604   00251E  EF93  F012         	goto	u4161
  2605   002522  EF95  F012         	goto	u4160
  2606   002526                     u4161:
  2607   002526  EF98  F012         	goto	l6029
  2608   00252A                     u4160:
  2609   00252A                     
  2610                           ;MCAL_Layer/Timer0/hal_timr0.c: 134:             (T0CONbits.T0SE = 0);
  2611   00252A  98D5               	bcf	213,4,c	;volatile
  2612                           
  2613                           ;MCAL_Layer/Timer0/hal_timr0.c: 135:         }
  2614   00252C  EFA8  F012         	goto	l1424
  2615   002530                     l6029:
  2616   002530  EE20 F006          	lfsr	2,6
  2617   002534  504D               	movf	Timer0_Mode_Select@_timer^0,w,c
  2618   002536  26D9               	addwf	fsr2l,f,c
  2619   002538  504E               	movf	(Timer0_Mode_Select@_timer+1)^0,w,c
  2620   00253A  22DA               	addwfc	fsr2h,f,c
  2621   00253C  B2DF               	btfsc	indf2,1,c
  2622   00253E  EFA3  F012         	goto	u4171
  2623   002542  EFA5  F012         	goto	u4170
  2624   002546                     u4171:
  2625   002546  EFA8  F012         	goto	l1423
  2626   00254A                     u4170:
  2627   00254A                     
  2628                           ;MCAL_Layer/Timer0/hal_timr0.c: 137:             (T0CONbits.T0SE = 1);
  2629   00254A  88D5               	bsf	213,4,c	;volatile
  2630                           
  2631                           ;MCAL_Layer/Timer0/hal_timr0.c: 138:         }
  2632   00254C  EFA8  F012         	goto	l1424
  2633   002550                     l1423:
  2634   002550                     l1424:
  2635   002550  0012               	return		;funcret
  2636   002552                     __end_of_Timer0_Mode_Select:
  2637                           	callstack 0
  2638                           
  2639 ;; *************** function _Interrupt_INTx_Init *****************
  2640 ;; Defined at:
  2641 ;;		line 49 in file "MCAL_Layer/Interrupt/mcal_external_interrupt.c"
  2642 ;; Parameters:    Size  Location     Type
  2643 ;;  int_obj         2    8[BANK0 ] PTR const struct .
  2644 ;;		 -> int0_obj(6), 
  2645 ;; Auto vars:     Size  Location     Type
  2646 ;;  ret             1   10[BANK0 ] unsigned char 
  2647 ;; Return value:  Size  Location     Type
  2648 ;;                  1    wreg      unsigned char 
  2649 ;; Registers used:
  2650 ;;		wreg, fsr2l, fsr2h, status,2, status,0, prodl, prodh, cstack
  2651 ;; Tracked objects:
  2652 ;;		On entry : 0/0
  2653 ;;		On exit  : 0/0
  2654 ;;		Unchanged: 0/0
  2655 ;; Data sizes:     COMRAM   BANK0   BANK1   BANK2   BANK3   BANK4   BANK5   BANK6   BANK7   BANK8   BANK9  BANK10  BANK1
      +1  BANK12  BANK13  BANK14  BANK15
  2656 ;;      Params:         0       2       0       0       0       0       0       0       0       0       0       0       
      +0       0       0       0       0
  2657 ;;      Locals:         0       1       0       0       0       0       0       0       0       0       0       0       
      +0       0       0       0       0
  2658 ;;      Temps:          0       0       0       0       0       0       0       0       0       0       0       0       
      +0       0       0       0       0
  2659 ;;      Totals:         0       3       0       0       0       0       0       0       0       0       0       0       
      +0       0       0       0       0
  2660 ;;Total ram usage:        3 bytes
  2661 ;; Hardware stack levels used: 1
  2662 ;; Hardware stack levels required when called: 9
  2663 ;; This function calls:
  2664 ;;		_Interrupt_INTx_Clear_Flag
  2665 ;;		_Interrupt_INTx_Disable
  2666 ;;		_Interrupt_INTx_Edge_Init
  2667 ;;		_Interrupt_INTx_Enable
  2668 ;;		_Interrupt_INTx_Pin_Init
  2669 ;;		_Interrupt_INTx_SetInterruptHandler
  2670 ;; This function is called by:
  2671 ;;		_application_initialize
  2672 ;; This function uses a non-reentrant model
  2673 ;;
  2674                           
  2675                           	psect	text12
  2676   002454                     __ptext12:
  2677                           	callstack 0
  2678   002454                     _Interrupt_INTx_Init:
  2679                           	callstack 20
  2680   002454                     
  2681                           ;MCAL_Layer/Interrupt/mcal_external_interrupt.c: 51:     if(((void*)0) == int_obj){
  2682   002454  0100               	movlb	0	; () banked
  2683   002456  51ED               	movf	Interrupt_INTx_Init@int_obj& (0+255),w,b
  2684   002458  11EE               	iorwf	(Interrupt_INTx_Init@int_obj+1)& (0+255),w,b
  2685   00245A  A4D8               	btfss	status,2,c
  2686   00245C  EF32  F012         	goto	u6851
  2687   002460  EF34  F012         	goto	u6850
  2688   002464                     u6851:
  2689   002464  EF38  F012         	goto	l8405
  2690   002468                     u6850:
  2691   002468                     
  2692                           ; BSR set to: 0
  2693                           ;MCAL_Layer/Interrupt/mcal_external_interrupt.c: 52:         ret = (Std_ReturnType)0x00;
  2694   002468  0E00               	movlw	0
  2695   00246A  6FEF               	movwf	Interrupt_INTx_Init@ret& (0+255),b
  2696                           
  2697                           ;MCAL_Layer/Interrupt/mcal_external_interrupt.c: 53:     }
  2698   00246C  EF68  F012         	goto	l8413
  2699   002470                     l8405:
  2700                           
  2701                           ; BSR set to: 0
  2702                           ;MCAL_Layer/Interrupt/mcal_external_interrupt.c: 56:         ret = Interrupt_INTx_Disabl
      +                          e(int_obj);
  2703   002470  C0ED  F04D         	movff	Interrupt_INTx_Init@int_obj,Interrupt_INTx_Disable@int_obj
  2704   002474  C0EE  F04E         	movff	Interrupt_INTx_Init@int_obj+1,Interrupt_INTx_Disable@int_obj+1
  2705   002478  ECA1  F013         	call	_Interrupt_INTx_Disable	;wreg free
  2706   00247C  0100               	movlb	0	; () banked
  2707   00247E  6FEF               	movwf	Interrupt_INTx_Init@ret& (0+255),b
  2708                           
  2709                           ;MCAL_Layer/Interrupt/mcal_external_interrupt.c: 58:         ret |= Interrupt_INTx_Clear
      +                          _Flag(int_obj);
  2710   002480  C0ED  F04D         	movff	Interrupt_INTx_Init@int_obj,Interrupt_INTx_Clear_Flag@int_obj
  2711   002484  C0EE  F04E         	movff	Interrupt_INTx_Init@int_obj+1,Interrupt_INTx_Clear_Flag@int_obj+1
  2712   002488  ECDC  F013         	call	_Interrupt_INTx_Clear_Flag	;wreg free
  2713   00248C  0100               	movlb	0	; () banked
  2714   00248E  13EF               	iorwf	Interrupt_INTx_Init@ret& (0+255),f,b
  2715                           
  2716                           ;MCAL_Layer/Interrupt/mcal_external_interrupt.c: 60:         ret |= Interrupt_INTx_Edge_
      +                          Init(int_obj);
  2717   002490  C0ED  F04D         	movff	Interrupt_INTx_Init@int_obj,Interrupt_INTx_Edge_Init@int_obj
  2718   002494  C0EE  F04E         	movff	Interrupt_INTx_Init@int_obj+1,Interrupt_INTx_Edge_Init@int_obj+1
  2719   002498  EC83  F00C         	call	_Interrupt_INTx_Edge_Init	;wreg free
  2720   00249C  0100               	movlb	0	; () banked
  2721   00249E  13EF               	iorwf	Interrupt_INTx_Init@ret& (0+255),f,b
  2722   0024A0                     
  2723                           ; BSR set to: 0
  2724                           ;MCAL_Layer/Interrupt/mcal_external_interrupt.c: 62:         ret |= Interrupt_INTx_Pin_I
      +                          nit(int_obj);
  2725   0024A0  C0ED  F0EB         	movff	Interrupt_INTx_Init@int_obj,Interrupt_INTx_Pin_Init@int_obj
  2726   0024A4  C0EE  F0EC         	movff	Interrupt_INTx_Init@int_obj+1,Interrupt_INTx_Pin_Init@int_obj+1
  2727   0024A8  ECD6  F016         	call	_Interrupt_INTx_Pin_Init	;wreg free
  2728   0024AC  0100               	movlb	0	; () banked
  2729   0024AE  13EF               	iorwf	Interrupt_INTx_Init@ret& (0+255),f,b
  2730   0024B0                     
  2731                           ; BSR set to: 0
  2732                           ;MCAL_Layer/Interrupt/mcal_external_interrupt.c: 64:         ret |= Interrupt_INTx_SetIn
      +                          terruptHandler(int_obj);
  2733   0024B0  C0ED  F0E5         	movff	Interrupt_INTx_Init@int_obj,Interrupt_INTx_SetInterruptHandler@int_obj
  2734   0024B4  C0EE  F0E6         	movff	Interrupt_INTx_Init@int_obj+1,Interrupt_INTx_SetInterruptHandler@int_obj+1
  2735   0024B8  EC0E  F010         	call	_Interrupt_INTx_SetInterruptHandler	;wreg free
  2736   0024BC  0100               	movlb	0	; () banked
  2737   0024BE  13EF               	iorwf	Interrupt_INTx_Init@ret& (0+255),f,b
  2738   0024C0                     
  2739                           ; BSR set to: 0
  2740                           ;MCAL_Layer/Interrupt/mcal_external_interrupt.c: 66:         ret |= Interrupt_INTx_Enabl
      +                          e(int_obj);
  2741   0024C0  C0ED  F04D         	movff	Interrupt_INTx_Init@int_obj,Interrupt_INTx_Enable@int_obj
  2742   0024C4  C0EE  F04E         	movff	Interrupt_INTx_Init@int_obj+1,Interrupt_INTx_Enable@int_obj+1
  2743   0024C8  ECE9  F011         	call	_Interrupt_INTx_Enable	;wreg free
  2744   0024CC  0100               	movlb	0	; () banked
  2745   0024CE  13EF               	iorwf	Interrupt_INTx_Init@ret& (0+255),f,b
  2746   0024D0                     l8413:
  2747                           
  2748                           ; BSR set to: 0
  2749                           ;MCAL_Layer/Interrupt/mcal_external_interrupt.c: 68:     return ret;
  2750   0024D0  51EF               	movf	Interrupt_INTx_Init@ret& (0+255),w,b
  2751   0024D2                     
  2752                           ; BSR set to: 0
  2753   0024D2  0012               	return		;funcret
  2754   0024D4                     __end_of_Interrupt_INTx_Init:
  2755                           	callstack 0
  2756                           
  2757 ;; *************** function _Interrupt_INTx_SetInterruptHandler *****************
  2758 ;; Defined at:
  2759 ;;		line 571 in file "MCAL_Layer/Interrupt/mcal_external_interrupt.c"
  2760 ;; Parameters:    Size  Location     Type
  2761 ;;  int_obj         2    0[BANK0 ] PTR const struct .
  2762 ;;		 -> int0_obj(6), 
  2763 ;; Auto vars:     Size  Location     Type
  2764 ;;  ret             1   33[COMRAM] unsigned char 
  2765 ;; Return value:  Size  Location     Type
  2766 ;;                  1    wreg      unsigned char 
  2767 ;; Registers used:
  2768 ;;		wreg, fsr2l, fsr2h, status,2, status,0, cstack
  2769 ;; Tracked objects:
  2770 ;;		On entry : 0/0
  2771 ;;		On exit  : 0/0
  2772 ;;		Unchanged: 0/0
  2773 ;; Data sizes:     COMRAM   BANK0   BANK1   BANK2   BANK3   BANK4   BANK5   BANK6   BANK7   BANK8   BANK9  BANK10  BANK1
      +1  BANK12  BANK13  BANK14  BANK15
  2774 ;;      Params:         0       2       0       0       0       0       0       0       0       0       0       0       
      +0       0       0       0       0
  2775 ;;      Locals:         1       0       0       0       0       0       0       0       0       0       0       0       
      +0       0       0       0       0
  2776 ;;      Temps:          0       2       0       0       0       0       0       0       0       0       0       0       
      +0       0       0       0       0
  2777 ;;      Totals:         1       4       0       0       0       0       0       0       0       0       0       0       
      +0       0       0       0       0
  2778 ;;Total ram usage:        5 bytes
  2779 ;; Hardware stack levels used: 1
  2780 ;; Hardware stack levels required when called: 8
  2781 ;; This function calls:
  2782 ;;		_INT0_SetInterruptHandler
  2783 ;;		_INT1_SetInterruptHandler
  2784 ;;		_INT2_SetInterruptHandler
  2785 ;; This function is called by:
  2786 ;;		_Interrupt_INTx_Init
  2787 ;; This function uses a non-reentrant model
  2788 ;;
  2789                           
  2790                           	psect	text13
  2791   00201C                     __ptext13:
  2792                           	callstack 0
  2793   00201C                     _Interrupt_INTx_SetInterruptHandler:
  2794                           	callstack 20
  2795   00201C                     
  2796                           ;MCAL_Layer/Interrupt/mcal_external_interrupt.c: 573:     if(((void*)0) == int_obj){
  2797   00201C  0100               	movlb	0	; () banked
  2798   00201E  51E5               	movf	Interrupt_INTx_SetInterruptHandler@int_obj& (0+255),w,b
  2799   002020  11E6               	iorwf	(Interrupt_INTx_SetInterruptHandler@int_obj+1)& (0+255),w,b
  2800   002022  A4D8               	btfss	status,2,c
  2801   002024  EF16  F010         	goto	u6751
  2802   002028  EF18  F010         	goto	u6750
  2803   00202C                     u6751:
  2804   00202C  EF43  F010         	goto	l8253
  2805   002030                     u6750:
  2806   002030                     l8243:
  2807                           
  2808                           ; BSR set to: 0
  2809                           ;MCAL_Layer/Interrupt/mcal_external_interrupt.c: 574:         ret = (Std_ReturnType)0x00
      +                          ;
  2810   002030  0E00               	movlw	0
  2811   002032  6E50               	movwf	Interrupt_INTx_SetInterruptHandler@ret^0,c
  2812                           
  2813                           ;MCAL_Layer/Interrupt/mcal_external_interrupt.c: 575:     }
  2814   002034  EF62  F010         	goto	l8255
  2815   002038                     l8245:
  2816                           
  2817                           ; BSR set to: 0
  2818                           ;MCAL_Layer/Interrupt/mcal_external_interrupt.c: 580:                 ret = INT0_SetInte
      +                          rruptHandler(int_obj->EXT_InterruptHandler);
  2819   002038  C0E5  FFD9         	movff	Interrupt_INTx_SetInterruptHandler@int_obj,fsr2l
  2820   00203C  C0E6  FFDA         	movff	Interrupt_INTx_SetInterruptHandler@int_obj+1,fsr2h
  2821   002040  CFDE F04D          	movff	postinc2,INT0_SetInterruptHandler@InterruptHandler
  2822   002044  CFDD F04E          	movff	postdec2,INT0_SetInterruptHandler@InterruptHandler+1
  2823   002048  ECA6  F017         	call	_INT0_SetInterruptHandler	;wreg free
  2824   00204C  6E50               	movwf	Interrupt_INTx_SetInterruptHandler@ret^0,c
  2825                           
  2826                           ;MCAL_Layer/Interrupt/mcal_external_interrupt.c: 581:                 break;
  2827   00204E  EF62  F010         	goto	l8255
  2828   002052                     l8247:
  2829                           
  2830                           ; BSR set to: 0
  2831                           ;MCAL_Layer/Interrupt/mcal_external_interrupt.c: 584:                 ret = INT1_SetInte
      +                          rruptHandler(int_obj->EXT_InterruptHandler);
  2832   002052  C0E5  FFD9         	movff	Interrupt_INTx_SetInterruptHandler@int_obj,fsr2l
  2833   002056  C0E6  FFDA         	movff	Interrupt_INTx_SetInterruptHandler@int_obj+1,fsr2h
  2834   00205A  CFDE F04D          	movff	postinc2,INT1_SetInterruptHandler@InterruptHandler
  2835   00205E  CFDD F04E          	movff	postdec2,INT1_SetInterruptHandler@InterruptHandler+1
  2836   002062  EC91  F017         	call	_INT1_SetInterruptHandler	;wreg free
  2837   002066  6E50               	movwf	Interrupt_INTx_SetInterruptHandler@ret^0,c
  2838                           
  2839                           ;MCAL_Layer/Interrupt/mcal_external_interrupt.c: 585:                 break;
  2840   002068  EF62  F010         	goto	l8255
  2841   00206C                     l8249:
  2842                           
  2843                           ; BSR set to: 0
  2844                           ;MCAL_Layer/Interrupt/mcal_external_interrupt.c: 588:                 ret = INT2_SetInte
      +                          rruptHandler(int_obj->EXT_InterruptHandler);
  2845   00206C  C0E5  FFD9         	movff	Interrupt_INTx_SetInterruptHandler@int_obj,fsr2l
  2846   002070  C0E6  FFDA         	movff	Interrupt_INTx_SetInterruptHandler@int_obj+1,fsr2h
  2847   002074  CFDE F04D          	movff	postinc2,INT2_SetInterruptHandler@InterruptHandler
  2848   002078  CFDD F04E          	movff	postdec2,INT2_SetInterruptHandler@InterruptHandler+1
  2849   00207C  EC7C  F017         	call	_INT2_SetInterruptHandler	;wreg free
  2850   002080  6E50               	movwf	Interrupt_INTx_SetInterruptHandler@ret^0,c
  2851                           
  2852                           ;MCAL_Layer/Interrupt/mcal_external_interrupt.c: 589:                 break;
  2853   002082  EF62  F010         	goto	l8255
  2854   002086                     l8253:
  2855                           
  2856                           ; BSR set to: 0
  2857   002086  EE20 F004          	lfsr	2,4
  2858   00208A  51E5               	movf	Interrupt_INTx_SetInterruptHandler@int_obj& (0+255),w,b
  2859   00208C  26D9               	addwf	fsr2l,f,c
  2860   00208E  51E6               	movf	(Interrupt_INTx_SetInterruptHandler@int_obj+1)& (0+255),w,b
  2861   002090  22DA               	addwfc	fsr2h,f,c
  2862   002092  50DF               	movf	indf2,w,c
  2863   002094  6FE7               	movwf	??_Interrupt_INTx_SetInterruptHandler& (0+255),b
  2864   002096  6BE8               	clrf	(??_Interrupt_INTx_SetInterruptHandler+1)& (0+255),b
  2865                           
  2866                           ; Switch on 2 bytes has been partitioned into a top level switch of size 1, and 1 sub-sw
      +                          itches
  2867                           ; Switch size 1, requested type "simple"
  2868                           ; Number of cases is 1, Range of values is 0 to 0
  2869                           ; switch strategies available:
  2870                           ; Name         Instructions Cycles
  2871                           ; simple_byte            4     3 (average)
  2872                           ;	Chosen strategy is simple_byte
  2873   002098  51E8               	movf	(??_Interrupt_INTx_SetInterruptHandler+1)& (0+255),w,b
  2874   00209A  0A00               	xorlw	0	; case 0
  2875   00209C  B4D8               	btfsc	status,2,c
  2876   00209E  EF53  F010         	goto	l9423
  2877   0020A2  EF18  F010         	goto	l8243
  2878   0020A6                     l9423:
  2879                           
  2880                           ; BSR set to: 0
  2881                           ; Switch size 1, requested type "simple"
  2882                           ; Number of cases is 3, Range of values is 0 to 2
  2883                           ; switch strategies available:
  2884                           ; Name         Instructions Cycles
  2885                           ; simple_byte           10     6 (average)
  2886                           ;	Chosen strategy is simple_byte
  2887   0020A6  51E7               	movf	??_Interrupt_INTx_SetInterruptHandler& (0+255),w,b
  2888   0020A8  0A00               	xorlw	0	; case 0
  2889   0020AA  B4D8               	btfsc	status,2,c
  2890   0020AC  EF1C  F010         	goto	l8245
  2891   0020B0  0A01               	xorlw	1	; case 1
  2892   0020B2  B4D8               	btfsc	status,2,c
  2893   0020B4  EF29  F010         	goto	l8247
  2894   0020B8  0A03               	xorlw	3	; case 2
  2895   0020BA  B4D8               	btfsc	status,2,c
  2896   0020BC  EF36  F010         	goto	l8249
  2897   0020C0  EF18  F010         	goto	l8243
  2898   0020C4                     l8255:
  2899                           
  2900                           ;MCAL_Layer/Interrupt/mcal_external_interrupt.c: 593:     return ret;
  2901   0020C4  5050               	movf	Interrupt_INTx_SetInterruptHandler@ret^0,w,c
  2902   0020C6  0012               	return		;funcret
  2903   0020C8                     __end_of_Interrupt_INTx_SetInterruptHandler:
  2904                           	callstack 0
  2905                           
  2906 ;; *************** function _INT2_SetInterruptHandler *****************
  2907 ;; Defined at:
  2908 ;;		line 551 in file "MCAL_Layer/Interrupt/mcal_external_interrupt.c"
  2909 ;; Parameters:    Size  Location     Type
  2910 ;;  InterruptHan    2   30[COMRAM] PTR FTN()void 
  2911 ;;		 -> Int0_APP_ISR(1), 
  2912 ;; Auto vars:     Size  Location     Type
  2913 ;;  ret             1   32[COMRAM] unsigned char 
  2914 ;; Return value:  Size  Location     Type
  2915 ;;                  1    wreg      unsigned char 
  2916 ;; Registers used:
  2917 ;;		wreg, status,2, status,0
  2918 ;; Tracked objects:
  2919 ;;		On entry : 0/0
  2920 ;;		On exit  : 0/0
  2921 ;;		Unchanged: 0/0
  2922 ;; Data sizes:     COMRAM   BANK0   BANK1   BANK2   BANK3   BANK4   BANK5   BANK6   BANK7   BANK8   BANK9  BANK10  BANK1
      +1  BANK12  BANK13  BANK14  BANK15
  2923 ;;      Params:         2       0       0       0       0       0       0       0       0       0       0       0       
      +0       0       0       0       0
  2924 ;;      Locals:         1       0       0       0       0       0       0       0       0       0       0       0       
      +0       0       0       0       0
  2925 ;;      Temps:          0       0       0       0       0       0       0       0       0       0       0       0       
      +0       0       0       0       0
  2926 ;;      Totals:         3       0       0       0       0       0       0       0       0       0       0       0       
      +0       0       0       0       0
  2927 ;;Total ram usage:        3 bytes
  2928 ;; Hardware stack levels used: 1
  2929 ;; Hardware stack levels required when called: 7
  2930 ;; This function calls:
  2931 ;;		Nothing
  2932 ;; This function is called by:
  2933 ;;		_Interrupt_INTx_SetInterruptHandler
  2934 ;; This function uses a non-reentrant model
  2935 ;;
  2936                           
  2937                           	psect	text14
  2938   002EF8                     __ptext14:
  2939                           	callstack 0
  2940   002EF8                     _INT2_SetInterruptHandler:
  2941                           	callstack 20
  2942   002EF8                     
  2943                           ;MCAL_Layer/Interrupt/mcal_external_interrupt.c: 553:     if(((void*)0) == InterruptHand
      +                          ler){
  2944   002EF8  504D               	movf	INT2_SetInterruptHandler@InterruptHandler^0,w,c
  2945   002EFA  104E               	iorwf	(INT2_SetInterruptHandler@InterruptHandler+1)^0,w,c
  2946   002EFC  A4D8               	btfss	status,2,c
  2947   002EFE  EF83  F017         	goto	u6561
  2948   002F02  EF85  F017         	goto	u6560
  2949   002F06                     u6561:
  2950   002F06  EF89  F017         	goto	l8007
  2951   002F0A                     u6560:
  2952   002F0A                     
  2953                           ;MCAL_Layer/Interrupt/mcal_external_interrupt.c: 554:         ret = (Std_ReturnType)0x00
      +                          ;
  2954   002F0A  0E00               	movlw	0
  2955   002F0C  6E4F               	movwf	INT2_SetInterruptHandler@ret^0,c
  2956                           
  2957                           ;MCAL_Layer/Interrupt/mcal_external_interrupt.c: 555:     }
  2958   002F0E  EF8F  F017         	goto	l8011
  2959   002F12                     l8007:
  2960                           
  2961                           ;MCAL_Layer/Interrupt/mcal_external_interrupt.c: 558:         INT2_InterruptHandler = In
      +                          terruptHandler;
  2962   002F12  C04D  F019         	movff	INT2_SetInterruptHandler@InterruptHandler,_INT2_InterruptHandler
  2963   002F16  C04E  F01A         	movff	INT2_SetInterruptHandler@InterruptHandler+1,_INT2_InterruptHandler+1
  2964   002F1A                     
  2965                           ;MCAL_Layer/Interrupt/mcal_external_interrupt.c: 559:         ret = (Std_ReturnType)0x01
      +                          ;
  2966   002F1A  0E01               	movlw	1
  2967   002F1C  6E4F               	movwf	INT2_SetInterruptHandler@ret^0,c
  2968   002F1E                     l8011:
  2969                           
  2970                           ;MCAL_Layer/Interrupt/mcal_external_interrupt.c: 561:     return ret;
  2971   002F1E  504F               	movf	INT2_SetInterruptHandler@ret^0,w,c
  2972   002F20  0012               	return		;funcret
  2973   002F22                     __end_of_INT2_SetInterruptHandler:
  2974                           	callstack 0
  2975                           
  2976 ;; *************** function _INT1_SetInterruptHandler *****************
  2977 ;; Defined at:
  2978 ;;		line 531 in file "MCAL_Layer/Interrupt/mcal_external_interrupt.c"
  2979 ;; Parameters:    Size  Location     Type
  2980 ;;  InterruptHan    2   30[COMRAM] PTR FTN()void 
  2981 ;;		 -> Int0_APP_ISR(1), 
  2982 ;; Auto vars:     Size  Location     Type
  2983 ;;  ret             1   32[COMRAM] unsigned char 
  2984 ;; Return value:  Size  Location     Type
  2985 ;;                  1    wreg      unsigned char 
  2986 ;; Registers used:
  2987 ;;		wreg, status,2, status,0
  2988 ;; Tracked objects:
  2989 ;;		On entry : 0/0
  2990 ;;		On exit  : 0/0
  2991 ;;		Unchanged: 0/0
  2992 ;; Data sizes:     COMRAM   BANK0   BANK1   BANK2   BANK3   BANK4   BANK5   BANK6   BANK7   BANK8   BANK9  BANK10  BANK1
      +1  BANK12  BANK13  BANK14  BANK15
  2993 ;;      Params:         2       0       0       0       0       0       0       0       0       0       0       0       
      +0       0       0       0       0
  2994 ;;      Locals:         1       0       0       0       0       0       0       0       0       0       0       0       
      +0       0       0       0       0
  2995 ;;      Temps:          0       0       0       0       0       0       0       0       0       0       0       0       
      +0       0       0       0       0
  2996 ;;      Totals:         3       0       0       0       0       0       0       0       0       0       0       0       
      +0       0       0       0       0
  2997 ;;Total ram usage:        3 bytes
  2998 ;; Hardware stack levels used: 1
  2999 ;; Hardware stack levels required when called: 7
  3000 ;; This function calls:
  3001 ;;		Nothing
  3002 ;; This function is called by:
  3003 ;;		_Interrupt_INTx_SetInterruptHandler
  3004 ;; This function uses a non-reentrant model
  3005 ;;
  3006                           
  3007                           	psect	text15
  3008   002F22                     __ptext15:
  3009                           	callstack 0
  3010   002F22                     _INT1_SetInterruptHandler:
  3011                           	callstack 20
  3012   002F22                     
  3013                           ;MCAL_Layer/Interrupt/mcal_external_interrupt.c: 533:     if(((void*)0) == InterruptHand
      +                          ler){
  3014   002F22  504D               	movf	INT1_SetInterruptHandler@InterruptHandler^0,w,c
  3015   002F24  104E               	iorwf	(INT1_SetInterruptHandler@InterruptHandler+1)^0,w,c
  3016   002F26  A4D8               	btfss	status,2,c
  3017   002F28  EF98  F017         	goto	u6551
  3018   002F2C  EF9A  F017         	goto	u6550
  3019   002F30                     u6551:
  3020   002F30  EF9E  F017         	goto	l7993
  3021   002F34                     u6550:
  3022   002F34                     
  3023                           ;MCAL_Layer/Interrupt/mcal_external_interrupt.c: 534:         ret = (Std_ReturnType)0x00
      +                          ;
  3024   002F34  0E00               	movlw	0
  3025   002F36  6E4F               	movwf	INT1_SetInterruptHandler@ret^0,c
  3026                           
  3027                           ;MCAL_Layer/Interrupt/mcal_external_interrupt.c: 535:     }
  3028   002F38  EFA4  F017         	goto	l7997
  3029   002F3C                     l7993:
  3030                           
  3031                           ;MCAL_Layer/Interrupt/mcal_external_interrupt.c: 538:         INT1_InterruptHandler = In
      +                          terruptHandler;
  3032   002F3C  C04D  F01B         	movff	INT1_SetInterruptHandler@InterruptHandler,_INT1_InterruptHandler
  3033   002F40  C04E  F01C         	movff	INT1_SetInterruptHandler@InterruptHandler+1,_INT1_InterruptHandler+1
  3034   002F44                     
  3035                           ;MCAL_Layer/Interrupt/mcal_external_interrupt.c: 539:         ret = (Std_ReturnType)0x01
      +                          ;
  3036   002F44  0E01               	movlw	1
  3037   002F46  6E4F               	movwf	INT1_SetInterruptHandler@ret^0,c
  3038   002F48                     l7997:
  3039                           
  3040                           ;MCAL_Layer/Interrupt/mcal_external_interrupt.c: 541:     return ret;
  3041   002F48  504F               	movf	INT1_SetInterruptHandler@ret^0,w,c
  3042   002F4A  0012               	return		;funcret
  3043   002F4C                     __end_of_INT1_SetInterruptHandler:
  3044                           	callstack 0
  3045                           
  3046 ;; *************** function _INT0_SetInterruptHandler *****************
  3047 ;; Defined at:
  3048 ;;		line 511 in file "MCAL_Layer/Interrupt/mcal_external_interrupt.c"
  3049 ;; Parameters:    Size  Location     Type
  3050 ;;  InterruptHan    2   30[COMRAM] PTR FTN()void 
  3051 ;;		 -> Int0_APP_ISR(1), 
  3052 ;; Auto vars:     Size  Location     Type
  3053 ;;  ret             1   32[COMRAM] unsigned char 
  3054 ;; Return value:  Size  Location     Type
  3055 ;;                  1    wreg      unsigned char 
  3056 ;; Registers used:
  3057 ;;		wreg, status,2, status,0
  3058 ;; Tracked objects:
  3059 ;;		On entry : 0/0
  3060 ;;		On exit  : 0/0
  3061 ;;		Unchanged: 0/0
  3062 ;; Data sizes:     COMRAM   BANK0   BANK1   BANK2   BANK3   BANK4   BANK5   BANK6   BANK7   BANK8   BANK9  BANK10  BANK1
      +1  BANK12  BANK13  BANK14  BANK15
  3063 ;;      Params:         2       0       0       0       0       0       0       0       0       0       0       0       
      +0       0       0       0       0
  3064 ;;      Locals:         1       0       0       0       0       0       0       0       0       0       0       0       
      +0       0       0       0       0
  3065 ;;      Temps:          0       0       0       0       0       0       0       0       0       0       0       0       
      +0       0       0       0       0
  3066 ;;      Totals:         3       0       0       0       0       0       0       0       0       0       0       0       
      +0       0       0       0       0
  3067 ;;Total ram usage:        3 bytes
  3068 ;; Hardware stack levels used: 1
  3069 ;; Hardware stack levels required when called: 7
  3070 ;; This function calls:
  3071 ;;		Nothing
  3072 ;; This function is called by:
  3073 ;;		_Interrupt_INTx_SetInterruptHandler
  3074 ;; This function uses a non-reentrant model
  3075 ;;
  3076                           
  3077                           	psect	text16
  3078   002F4C                     __ptext16:
  3079                           	callstack 0
  3080   002F4C                     _INT0_SetInterruptHandler:
  3081                           	callstack 20
  3082   002F4C                     
  3083                           ;MCAL_Layer/Interrupt/mcal_external_interrupt.c: 513:     if(((void*)0) == InterruptHand
      +                          ler){
  3084   002F4C  504D               	movf	INT0_SetInterruptHandler@InterruptHandler^0,w,c
  3085   002F4E  104E               	iorwf	(INT0_SetInterruptHandler@InterruptHandler+1)^0,w,c
  3086   002F50  A4D8               	btfss	status,2,c
  3087   002F52  EFAD  F017         	goto	u6541
  3088   002F56  EFAF  F017         	goto	u6540
  3089   002F5A                     u6541:
  3090   002F5A  EFB3  F017         	goto	l7979
  3091   002F5E                     u6540:
  3092   002F5E                     
  3093                           ;MCAL_Layer/Interrupt/mcal_external_interrupt.c: 514:         ret = (Std_ReturnType)0x00
      +                          ;
  3094   002F5E  0E00               	movlw	0
  3095   002F60  6E4F               	movwf	INT0_SetInterruptHandler@ret^0,c
  3096                           
  3097                           ;MCAL_Layer/Interrupt/mcal_external_interrupt.c: 515:     }
  3098   002F62  EFB9  F017         	goto	l7983
  3099   002F66                     l7979:
  3100                           
  3101                           ;MCAL_Layer/Interrupt/mcal_external_interrupt.c: 518:         INT0_InterruptHandler = In
      +                          terruptHandler;
  3102   002F66  C04D  F01D         	movff	INT0_SetInterruptHandler@InterruptHandler,_INT0_InterruptHandler
  3103   002F6A  C04E  F01E         	movff	INT0_SetInterruptHandler@InterruptHandler+1,_INT0_InterruptHandler+1
  3104   002F6E                     
  3105                           ;MCAL_Layer/Interrupt/mcal_external_interrupt.c: 519:         ret = (Std_ReturnType)0x01
      +                          ;
  3106   002F6E  0E01               	movlw	1
  3107   002F70  6E4F               	movwf	INT0_SetInterruptHandler@ret^0,c
  3108   002F72                     l7983:
  3109                           
  3110                           ;MCAL_Layer/Interrupt/mcal_external_interrupt.c: 521:     return ret;
  3111   002F72  504F               	movf	INT0_SetInterruptHandler@ret^0,w,c
  3112   002F74  0012               	return		;funcret
  3113   002F76                     __end_of_INT0_SetInterruptHandler:
  3114                           	callstack 0
  3115                           
  3116 ;; *************** function _Interrupt_INTx_Pin_Init *****************
  3117 ;; Defined at:
  3118 ;;		line 460 in file "MCAL_Layer/Interrupt/mcal_external_interrupt.c"
  3119 ;; Parameters:    Size  Location     Type
  3120 ;;  int_obj         2    6[BANK0 ] PTR const struct .
  3121 ;;		 -> int0_obj(6), 
  3122 ;; Auto vars:     Size  Location     Type
  3123 ;;  ret             1   33[COMRAM] unsigned char 
  3124 ;; Return value:  Size  Location     Type
  3125 ;;                  1    wreg      unsigned char 
  3126 ;; Registers used:
  3127 ;;		wreg, fsr2l, fsr2h, status,2, status,0, prodl, prodh, cstack
  3128 ;; Tracked objects:
  3129 ;;		On entry : 0/0
  3130 ;;		On exit  : 0/0
  3131 ;;		Unchanged: 0/0
  3132 ;; Data sizes:     COMRAM   BANK0   BANK1   BANK2   BANK3   BANK4   BANK5   BANK6   BANK7   BANK8   BANK9  BANK10  BANK1
      +1  BANK12  BANK13  BANK14  BANK15
  3133 ;;      Params:         0       2       0       0       0       0       0       0       0       0       0       0       
      +0       0       0       0       0
  3134 ;;      Locals:         1       0       0       0       0       0       0       0       0       0       0       0       
      +0       0       0       0       0
  3135 ;;      Temps:          0       0       0       0       0       0       0       0       0       0       0       0       
      +0       0       0       0       0
  3136 ;;      Totals:         1       2       0       0       0       0       0       0       0       0       0       0       
      +0       0       0       0       0
  3137 ;;Total ram usage:        3 bytes
  3138 ;; Hardware stack levels used: 1
  3139 ;; Hardware stack levels required when called: 8
  3140 ;; This function calls:
  3141 ;;		_gpio_pin_direction_intialize
  3142 ;; This function is called by:
  3143 ;;		_Interrupt_INTx_Init
  3144 ;; This function uses a non-reentrant model
  3145 ;;
  3146                           
  3147                           	psect	text17
  3148   002DAC                     __ptext17:
  3149                           	callstack 0
  3150   002DAC                     _Interrupt_INTx_Pin_Init:
  3151                           	callstack 20
  3152   002DAC                     
  3153                           ;MCAL_Layer/Interrupt/mcal_external_interrupt.c: 462:     if(((void*)0) == int_obj){
  3154   002DAC  0100               	movlb	0	; () banked
  3155   002DAE  51EB               	movf	Interrupt_INTx_Pin_Init@int_obj& (0+255),w,b
  3156   002DB0  11EC               	iorwf	(Interrupt_INTx_Pin_Init@int_obj+1)& (0+255),w,b
  3157   002DB2  A4D8               	btfss	status,2,c
  3158   002DB4  EFDE  F016         	goto	u6741
  3159   002DB8  EFE0  F016         	goto	u6740
  3160   002DBC                     u6741:
  3161   002DBC  EFE4  F016         	goto	l8233
  3162   002DC0                     u6740:
  3163   002DC0                     
  3164                           ; BSR set to: 0
  3165                           ;MCAL_Layer/Interrupt/mcal_external_interrupt.c: 463:         ret = (Std_ReturnType)0x00
      +                          ;
  3166   002DC0  0E00               	movlw	0
  3167   002DC2  6E50               	movwf	Interrupt_INTx_Pin_Init@ret^0,c
  3168                           
  3169                           ;MCAL_Layer/Interrupt/mcal_external_interrupt.c: 464:     }
  3170   002DC4  EFED  F016         	goto	l8235
  3171   002DC8                     l8233:
  3172                           
  3173                           ; BSR set to: 0
  3174                           ;MCAL_Layer/Interrupt/mcal_external_interrupt.c: 467:         ret = gpio_pin_direction_i
      +                          ntialize(&(int_obj->mcu_pin));
  3175   002DC8  0E02               	movlw	2
  3176   002DCA  25EB               	addwf	Interrupt_INTx_Pin_Init@int_obj& (0+255),w,b
  3177   002DCC  6E4D               	movwf	gpio_pin_direction_intialize@_pin_config^0,c
  3178   002DCE  0E00               	movlw	0
  3179   002DD0  21EC               	addwfc	(Interrupt_INTx_Pin_Init@int_obj+1)& (0+255),w,b
  3180   002DD2  6E4E               	movwf	(gpio_pin_direction_intialize@_pin_config+1)^0,c
  3181   002DD4  EC45  F00B         	call	_gpio_pin_direction_intialize	;wreg free
  3182   002DD8  6E50               	movwf	Interrupt_INTx_Pin_Init@ret^0,c
  3183   002DDA                     l8235:
  3184                           
  3185                           ;MCAL_Layer/Interrupt/mcal_external_interrupt.c: 469:     return ret;
  3186   002DDA  5050               	movf	Interrupt_INTx_Pin_Init@ret^0,w,c
  3187   002DDC  0012               	return		;funcret
  3188   002DDE                     __end_of_Interrupt_INTx_Pin_Init:
  3189                           	callstack 0
  3190                           
  3191 ;; *************** function _gpio_pin_direction_intialize *****************
  3192 ;; Defined at:
  3193 ;;		line 25 in file "MCAL_Layer/GPIO/hal_gpio.c"
  3194 ;; Parameters:    Size  Location     Type
  3195 ;;  _pin_config     2   30[COMRAM] PTR const struct .
  3196 ;;		 -> int0_obj(6), MSSP_SPI_Slave_Mode_GPIO_PIN_Configurations@SPI_SS(1), MSSP_SPI_Slave_Mode_GPIO_PIN_Configurations@
      +SPI_CLK(1), MSSP_SPI_Slave_Mode_GPIO_PIN_Configurations@SPI_SDI(1), 
  3197 ;;		 -> MSSP_SPI_Slave_Mode_GPIO_PIN_Configurations@SPI_SDO(1), MSSP_SPI_Msster_Mode_GPIO_PIN_Configurations@SPI_CLK(1),
      + MSSP_SPI_Msster_Mode_GPIO_PIN_Configurations@SPI_SDI(1), MSSP_SPI_Msster_Mode_GPIO_PIN_Configurations@SPI_SDO(1), 
  3198 ;;		 -> ready_yellow(1), led_green_people(1), led_red_people(1), led_green_car(1), 
  3199 ;;		 -> led_red_car(1), lcd_1.lcd_data(4), lcd_1(6), seg2.segment_pins(4), 
  3200 ;;		 -> seg2(5), seg1.segment_pins(4), seg1(5), 
  3201 ;; Auto vars:     Size  Location     Type
  3202 ;;  ret             1   32[COMRAM] unsigned char 
  3203 ;; Return value:  Size  Location     Type
  3204 ;;                  1    wreg      unsigned char 
  3205 ;; Registers used:
  3206 ;;		wreg, fsr2l, fsr2h, status,2, status,0, prodl, prodh
  3207 ;; Tracked objects:
  3208 ;;		On entry : 0/0
  3209 ;;		On exit  : 0/0
  3210 ;;		Unchanged: 0/0
  3211 ;; Data sizes:     COMRAM   BANK0   BANK1   BANK2   BANK3   BANK4   BANK5   BANK6   BANK7   BANK8   BANK9  BANK10  BANK1
      +1  BANK12  BANK13  BANK14  BANK15
  3212 ;;      Params:         2       0       0       0       0       0       0       0       0       0       0       0       
      +0       0       0       0       0
  3213 ;;      Locals:         1       0       0       0       0       0       0       0       0       0       0       0       
      +0       0       0       0       0
  3214 ;;      Temps:          0       6       0       0       0       0       0       0       0       0       0       0       
      +0       0       0       0       0
  3215 ;;      Totals:         3       6       0       0       0       0       0       0       0       0       0       0       
      +0       0       0       0       0
  3216 ;;Total ram usage:        9 bytes
  3217 ;; Hardware stack levels used: 1
  3218 ;; Hardware stack levels required when called: 7
  3219 ;; This function calls:
  3220 ;;		Nothing
  3221 ;; This function is called by:
  3222 ;;		_gpio_pin_intialize
  3223 ;;		_Interrupt_INTx_Pin_Init
  3224 ;;		_button_initialize
  3225 ;;		_keypad_initialize
  3226 ;;		_Interrupt_RBx_Init
  3227 ;;		_MSSP_SPI_Msster_Mode_GPIO_PIN_Configurations
  3228 ;;		_MSSP_SPI_Slave_Mode_GPIO_PIN_Configurations
  3229 ;; This function uses a non-reentrant model
  3230 ;;
  3231                           
  3232                           	psect	text18
  3233   00168A                     __ptext18:
  3234                           	callstack 0
  3235   00168A                     _gpio_pin_direction_intialize:
  3236                           	callstack 19
  3237   00168A                     
  3238                           ;MCAL_Layer/GPIO/hal_gpio.c: 26:     Std_ReturnType ret = (Std_ReturnType)0x01;
  3239   00168A  0E01               	movlw	1
  3240   00168C  6E4F               	movwf	gpio_pin_direction_intialize@ret^0,c
  3241   00168E                     
  3242                           ;MCAL_Layer/GPIO/hal_gpio.c: 27:     if(((void*)0) == _pin_config || _pin_config->pin > 
      +                          8 -1){
  3243   00168E  504D               	movf	gpio_pin_direction_intialize@_pin_config^0,w,c
  3244   001690  104E               	iorwf	(gpio_pin_direction_intialize@_pin_config+1)^0,w,c
  3245   001692  B4D8               	btfsc	status,2,c
  3246   001694  EF4E  F00B         	goto	u6451
  3247   001698  EF50  F00B         	goto	u6450
  3248   00169C                     u6451:
  3249   00169C  EF62  F00B         	goto	l7905
  3250   0016A0                     u6450:
  3251   0016A0  C04D  FFD9         	movff	gpio_pin_direction_intialize@_pin_config,fsr2l
  3252   0016A4  C04E  FFDA         	movff	gpio_pin_direction_intialize@_pin_config+1,fsr2h
  3253   0016A8  30DF               	rrcf	223,w,c
  3254   0016AA  32E8               	rrcf	wreg,f,c
  3255   0016AC  32E8               	rrcf	wreg,f,c
  3256   0016AE  0B07               	andlw	7
  3257   0016B0  0100               	movlb	0	; () banked
  3258   0016B2  6FE5               	movwf	??_gpio_pin_direction_intialize& (0+255),b
  3259   0016B4  0E07               	movlw	7
  3260   0016B6  65E5               	cpfsgt	??_gpio_pin_direction_intialize& (0+255),b
  3261   0016B8  EF60  F00B         	goto	u6461
  3262   0016BC  EF62  F00B         	goto	u6460
  3263   0016C0                     u6461:
  3264   0016C0  EFC7  F00B         	goto	l7913
  3265   0016C4                     u6460:
  3266   0016C4                     l7905:
  3267                           
  3268                           ;MCAL_Layer/GPIO/hal_gpio.c: 28:         ret = (Std_ReturnType)0x00;
  3269   0016C4  0E00               	movlw	0
  3270   0016C6  6E4F               	movwf	gpio_pin_direction_intialize@ret^0,c
  3271                           
  3272                           ;MCAL_Layer/GPIO/hal_gpio.c: 29:     }
  3273   0016C8  EFE8  F00B         	goto	l7915
  3274   0016CC                     l7907:
  3275                           
  3276                           ; BSR set to: 0
  3277                           ;MCAL_Layer/GPIO/hal_gpio.c: 33:                 (*tris_registers[_pin_config->port] &= 
      +                          ~((uint8)1 << _pin_config->pin));
  3278   0016CC  C04D  FFD9         	movff	gpio_pin_direction_intialize@_pin_config,fsr2l
  3279   0016D0  C04E  FFDA         	movff	gpio_pin_direction_intialize@_pin_config+1,fsr2h
  3280   0016D4  30DF               	rrcf	223,w,c
  3281   0016D6  32E8               	rrcf	wreg,f,c
  3282   0016D8  32E8               	rrcf	wreg,f,c
  3283   0016DA  0B07               	andlw	7
  3284   0016DC  6FE5               	movwf	??_gpio_pin_direction_intialize& (0+255),b
  3285   0016DE  0E01               	movlw	1
  3286   0016E0  6FE6               	movwf	(??_gpio_pin_direction_intialize+1)& (0+255),b
  3287   0016E2  2BE5               	incf	??_gpio_pin_direction_intialize& (0+255),f,b
  3288   0016E4  EF76  F00B         	goto	u6474
  3289   0016E8                     u6475:
  3290   0016E8  90D8               	bcf	status,0,c
  3291   0016EA  37E6               	rlcf	(??_gpio_pin_direction_intialize+1)& (0+255),f,b
  3292   0016EC                     u6474:
  3293   0016EC  2FE5               	decfsz	??_gpio_pin_direction_intialize& (0+255),f,b
  3294   0016EE  EF74  F00B         	goto	u6475
  3295   0016F2  0100               	movlb	0	; () banked
  3296   0016F4  51E6               	movf	(??_gpio_pin_direction_intialize+1)& (0+255),w,b
  3297   0016F6  0AFF               	xorlw	255
  3298   0016F8  6FE7               	movwf	(??_gpio_pin_direction_intialize+2)& (0+255),b
  3299   0016FA  C04D  FFD9         	movff	gpio_pin_direction_intialize@_pin_config,fsr2l
  3300   0016FE  C04E  FFDA         	movff	gpio_pin_direction_intialize@_pin_config+1,fsr2h
  3301   001702  50DF               	movf	223,w,c
  3302   001704  0B07               	andlw	7
  3303   001706  6FE8               	movwf	(??_gpio_pin_direction_intialize+3)& (0+255),b
  3304   001708  51E8               	movf	(??_gpio_pin_direction_intialize+3)& (0+255),w,b
  3305   00170A  0D02               	mullw	2
  3306   00170C  0E94               	movlw	low _tris_registers
  3307   00170E  24F3               	addwf	243,w,c
  3308   001710  6ED9               	movwf	fsr2l,c
  3309   001712  0E00               	movlw	high _tris_registers
  3310   001714  20F4               	addwfc	prodh,w,c
  3311   001716  6EDA               	movwf	fsr2h,c
  3312   001718  CFDE F0E9          	movff	postinc2,??_gpio_pin_direction_intialize+4
  3313   00171C  CFDD F0EA          	movff	postdec2,??_gpio_pin_direction_intialize+5
  3314   001720  C0E9  FFD9         	movff	??_gpio_pin_direction_intialize+4,fsr2l
  3315   001724  C0EA  FFDA         	movff	??_gpio_pin_direction_intialize+5,fsr2h
  3316   001728  51E7               	movf	(??_gpio_pin_direction_intialize+2)& (0+255),w,b
  3317   00172A  16DF               	andwf	indf2,f,c
  3318                           
  3319                           ;MCAL_Layer/GPIO/hal_gpio.c: 34:                 break;
  3320   00172C  EFE8  F00B         	goto	l7915
  3321   001730                     l7909:
  3322                           
  3323                           ; BSR set to: 0
  3324                           ;MCAL_Layer/GPIO/hal_gpio.c: 36:                 (*tris_registers[_pin_config->port] |= 
      +                          ((uint8)1 << _pin_config->pin));
  3325   001730  C04D  FFD9         	movff	gpio_pin_direction_intialize@_pin_config,fsr2l
  3326   001734  C04E  FFDA         	movff	gpio_pin_direction_intialize@_pin_config+1,fsr2h
  3327   001738  30DF               	rrcf	223,w,c
  3328   00173A  32E8               	rrcf	wreg,f,c
  3329   00173C  32E8               	rrcf	wreg,f,c
  3330   00173E  0B07               	andlw	7
  3331   001740  6FE5               	movwf	??_gpio_pin_direction_intialize& (0+255),b
  3332   001742  0E01               	movlw	1
  3333   001744  6FE6               	movwf	(??_gpio_pin_direction_intialize+1)& (0+255),b
  3334   001746  2BE5               	incf	??_gpio_pin_direction_intialize& (0+255),f,b
  3335   001748  EFA8  F00B         	goto	u6484
  3336   00174C                     u6485:
  3337   00174C  90D8               	bcf	status,0,c
  3338   00174E  37E6               	rlcf	(??_gpio_pin_direction_intialize+1)& (0+255),f,b
  3339   001750                     u6484:
  3340   001750  2FE5               	decfsz	??_gpio_pin_direction_intialize& (0+255),f,b
  3341   001752  EFA6  F00B         	goto	u6485
  3342   001756  C04D  FFD9         	movff	gpio_pin_direction_intialize@_pin_config,fsr2l
  3343   00175A  C04E  FFDA         	movff	gpio_pin_direction_intialize@_pin_config+1,fsr2h
  3344   00175E  50DF               	movf	223,w,c
  3345   001760  0B07               	andlw	7
  3346   001762  0100               	movlb	0	; () banked
  3347   001764  6FE7               	movwf	(??_gpio_pin_direction_intialize+2)& (0+255),b
  3348   001766  51E7               	movf	(??_gpio_pin_direction_intialize+2)& (0+255),w,b
  3349   001768  0D02               	mullw	2
  3350   00176A  0E94               	movlw	low _tris_registers
  3351   00176C  24F3               	addwf	243,w,c
  3352   00176E  6ED9               	movwf	fsr2l,c
  3353   001770  0E00               	movlw	high _tris_registers
  3354   001772  20F4               	addwfc	prodh,w,c
  3355   001774  6EDA               	movwf	fsr2h,c
  3356   001776  CFDE F0E8          	movff	postinc2,??_gpio_pin_direction_intialize+3
  3357   00177A  CFDD F0E9          	movff	postdec2,??_gpio_pin_direction_intialize+4
  3358   00177E  C0E8  FFD9         	movff	??_gpio_pin_direction_intialize+3,fsr2l
  3359   001782  C0E9  FFDA         	movff	??_gpio_pin_direction_intialize+4,fsr2h
  3360   001786  51E6               	movf	(??_gpio_pin_direction_intialize+1)& (0+255),w,b
  3361   001788  12DF               	iorwf	indf2,f,c
  3362                           
  3363                           ;MCAL_Layer/GPIO/hal_gpio.c: 37:                 break;
  3364   00178A  EFE8  F00B         	goto	l7915
  3365   00178E                     l7913:
  3366                           
  3367                           ; BSR set to: 0
  3368   00178E  C04D  FFD9         	movff	gpio_pin_direction_intialize@_pin_config,fsr2l
  3369   001792  C04E  FFDA         	movff	gpio_pin_direction_intialize@_pin_config+1,fsr2h
  3370   001796  BCDF               	btfsc	indf2,6,c
  3371   001798  EFD0  F00B         	goto	u6491
  3372   00179C  EFD3  F00B         	goto	u6490
  3373   0017A0                     u6491:
  3374   0017A0  0E01               	movlw	1
  3375   0017A2  EFD4  F00B         	goto	u6500
  3376   0017A6                     u6490:
  3377   0017A6  0E00               	movlw	0
  3378   0017A8                     u6500:
  3379   0017A8  6FE5               	movwf	??_gpio_pin_direction_intialize& (0+255),b
  3380   0017AA  6BE6               	clrf	(??_gpio_pin_direction_intialize+1)& (0+255),b
  3381                           
  3382                           ; Switch on 2 bytes has been partitioned into a top level switch of size 1, and 1 sub-sw
      +                          itches
  3383                           ; Switch size 1, requested type "simple"
  3384                           ; Number of cases is 1, Range of values is 0 to 0
  3385                           ; switch strategies available:
  3386                           ; Name         Instructions Cycles
  3387                           ; simple_byte            4     3 (average)
  3388                           ;	Chosen strategy is simple_byte
  3389   0017AC  51E6               	movf	(??_gpio_pin_direction_intialize+1)& (0+255),w,b
  3390   0017AE  0A00               	xorlw	0	; case 0
  3391   0017B0  B4D8               	btfsc	status,2,c
  3392   0017B2  EFDD  F00B         	goto	l9425
  3393   0017B6  EF62  F00B         	goto	l7905
  3394   0017BA                     l9425:
  3395                           
  3396                           ; BSR set to: 0
  3397                           ; Switch size 1, requested type "simple"
  3398                           ; Number of cases is 2, Range of values is 0 to 1
  3399                           ; switch strategies available:
  3400                           ; Name         Instructions Cycles
  3401                           ; simple_byte            7     4 (average)
  3402                           ;	Chosen strategy is simple_byte
  3403   0017BA  51E5               	movf	??_gpio_pin_direction_intialize& (0+255),w,b
  3404   0017BC  0A00               	xorlw	0	; case 0
  3405   0017BE  B4D8               	btfsc	status,2,c
  3406   0017C0  EF66  F00B         	goto	l7907
  3407   0017C4  0A01               	xorlw	1	; case 1
  3408   0017C6  B4D8               	btfsc	status,2,c
  3409   0017C8  EF98  F00B         	goto	l7909
  3410   0017CC  EF62  F00B         	goto	l7905
  3411   0017D0                     l7915:
  3412                           
  3413                           ;MCAL_Layer/GPIO/hal_gpio.c: 41:     return ret;
  3414   0017D0  504F               	movf	gpio_pin_direction_intialize@ret^0,w,c
  3415   0017D2  0012               	return		;funcret
  3416   0017D4                     __end_of_gpio_pin_direction_intialize:
  3417                           	callstack 0
  3418                           
  3419 ;; *************** function _Interrupt_INTx_Enable *****************
  3420 ;; Defined at:
  3421 ;;		line 292 in file "MCAL_Layer/Interrupt/mcal_external_interrupt.c"
  3422 ;; Parameters:    Size  Location     Type
  3423 ;;  int_obj         2   30[COMRAM] PTR const struct .
  3424 ;;		 -> int0_obj(6), 
  3425 ;; Auto vars:     Size  Location     Type
  3426 ;;  ret             1    0[BANK0 ] unsigned char 
  3427 ;; Return value:  Size  Location     Type
  3428 ;;                  1    wreg      unsigned char 
  3429 ;; Registers used:
  3430 ;;		wreg, fsr2l, fsr2h, status,2, status,0
  3431 ;; Tracked objects:
  3432 ;;		On entry : 0/0
  3433 ;;		On exit  : 0/0
  3434 ;;		Unchanged: 0/0
  3435 ;; Data sizes:     COMRAM   BANK0   BANK1   BANK2   BANK3   BANK4   BANK5   BANK6   BANK7   BANK8   BANK9  BANK10  BANK1
      +1  BANK12  BANK13  BANK14  BANK15
  3436 ;;      Params:         2       0       0       0       0       0       0       0       0       0       0       0       
      +0       0       0       0       0
  3437 ;;      Locals:         0       1       0       0       0       0       0       0       0       0       0       0       
      +0       0       0       0       0
  3438 ;;      Temps:          2       0       0       0       0       0       0       0       0       0       0       0       
      +0       0       0       0       0
  3439 ;;      Totals:         4       1       0       0       0       0       0       0       0       0       0       0       
      +0       0       0       0       0
  3440 ;;Total ram usage:        5 bytes
  3441 ;; Hardware stack levels used: 1
  3442 ;; Hardware stack levels required when called: 7
  3443 ;; This function calls:
  3444 ;;		Nothing
  3445 ;; This function is called by:
  3446 ;;		_Interrupt_INTx_Init
  3447 ;; This function uses a non-reentrant model
  3448 ;;
  3449                           
  3450                           	psect	text19
  3451   0023D2                     __ptext19:
  3452                           	callstack 0
  3453   0023D2                     _Interrupt_INTx_Enable:
  3454                           	callstack 21
  3455   0023D2                     
  3456                           ;MCAL_Layer/Interrupt/mcal_external_interrupt.c: 294:     if(((void*)0) == int_obj){
  3457   0023D2  504D               	movf	Interrupt_INTx_Enable@int_obj^0,w,c
  3458   0023D4  104E               	iorwf	(Interrupt_INTx_Enable@int_obj+1)^0,w,c
  3459   0023D6  A4D8               	btfss	status,2,c
  3460   0023D8  EFF0  F011         	goto	u6761
  3461   0023DC  EFF2  F011         	goto	u6760
  3462   0023E0                     u6761:
  3463   0023E0  EF09  F012         	goto	l8279
  3464   0023E4                     u6760:
  3465   0023E4                     l8269:
  3466                           
  3467                           ;MCAL_Layer/Interrupt/mcal_external_interrupt.c: 295:         ret = (Std_ReturnType)0x00
      +                          ;
  3468   0023E4  0E00               	movlw	0
  3469   0023E6  0100               	movlb	0	; () banked
  3470   0023E8  6FE5               	movwf	Interrupt_INTx_Enable@ret& (0+255),b
  3471                           
  3472                           ;MCAL_Layer/Interrupt/mcal_external_interrupt.c: 296:     }
  3473   0023EA  EF28  F012         	goto	l8281
  3474   0023EE                     l1069:
  3475                           
  3476                           ;MCAL_Layer/Interrupt/mcal_external_interrupt.c: 303:                 (INTCONbits.GIE = 
      +                          1);
  3477   0023EE  8EF2               	bsf	242,7,c	;volatile
  3478                           
  3479                           ;MCAL_Layer/Interrupt/mcal_external_interrupt.c: 304:                 (INTCONbits.PEIE =
      +                           1);
  3480   0023F0  8CF2               	bsf	242,6,c	;volatile
  3481                           
  3482                           ;MCAL_Layer/Interrupt/mcal_external_interrupt.c: 306:                 (INTCONbits.INT0IE
      +                           = 1);
  3483   0023F2  88F2               	bsf	242,4,c	;volatile
  3484   0023F4                     l8271:
  3485                           
  3486                           ;MCAL_Layer/Interrupt/mcal_external_interrupt.c: 307:                 ret = (Std_ReturnT
      +                          ype)0x01;
  3487   0023F4  0E01               	movlw	1
  3488   0023F6  0100               	movlb	0	; () banked
  3489   0023F8  6FE5               	movwf	Interrupt_INTx_Enable@ret& (0+255),b
  3490                           
  3491                           ;MCAL_Layer/Interrupt/mcal_external_interrupt.c: 308:                 break;
  3492   0023FA  EF28  F012         	goto	l8281
  3493   0023FE                     l1071:
  3494                           
  3495                           ;MCAL_Layer/Interrupt/mcal_external_interrupt.c: 320:                 (INTCONbits.GIE = 
      +                          1);
  3496   0023FE  8EF2               	bsf	242,7,c	;volatile
  3497                           
  3498                           ;MCAL_Layer/Interrupt/mcal_external_interrupt.c: 321:                 (INTCONbits.PEIE =
      +                           1);
  3499   002400  8CF2               	bsf	242,6,c	;volatile
  3500                           
  3501                           ;MCAL_Layer/Interrupt/mcal_external_interrupt.c: 323:                 (INTCON3bits.INT1I
      +                          E = 1);
  3502   002402  86F0               	bsf	240,3,c	;volatile
  3503   002404  EFFA  F011         	goto	l8271
  3504   002408                     l1072:
  3505                           
  3506                           ;MCAL_Layer/Interrupt/mcal_external_interrupt.c: 337:                 (INTCONbits.GIE = 
      +                          1);
  3507   002408  8EF2               	bsf	242,7,c	;volatile
  3508                           
  3509                           ;MCAL_Layer/Interrupt/mcal_external_interrupt.c: 338:                 (INTCONbits.PEIE =
      +                           1);
  3510   00240A  8CF2               	bsf	242,6,c	;volatile
  3511                           
  3512                           ;MCAL_Layer/Interrupt/mcal_external_interrupt.c: 340:                 (INTCON3bits.INT2I
      +                          E = 1);
  3513   00240C  88F0               	bsf	240,4,c	;volatile
  3514   00240E  EFFA  F011         	goto	l8271
  3515   002412                     l8279:
  3516   002412  EE20 F004          	lfsr	2,4
  3517   002416  504D               	movf	Interrupt_INTx_Enable@int_obj^0,w,c
  3518   002418  26D9               	addwf	fsr2l,f,c
  3519   00241A  504E               	movf	(Interrupt_INTx_Enable@int_obj+1)^0,w,c
  3520   00241C  22DA               	addwfc	fsr2h,f,c
  3521   00241E  50DF               	movf	indf2,w,c
  3522   002420  6E4F               	movwf	??_Interrupt_INTx_Enable^0,c
  3523   002422  6A50               	clrf	(??_Interrupt_INTx_Enable+1)^0,c
  3524                           
  3525                           ; Switch on 2 bytes has been partitioned into a top level switch of size 1, and 1 sub-sw
      +                          itches
  3526                           ; Switch size 1, requested type "simple"
  3527                           ; Number of cases is 1, Range of values is 0 to 0
  3528                           ; switch strategies available:
  3529                           ; Name         Instructions Cycles
  3530                           ; simple_byte            4     3 (average)
  3531                           ;	Chosen strategy is simple_byte
  3532   002424  5050               	movf	(??_Interrupt_INTx_Enable+1)^0,w,c
  3533   002426  0A00               	xorlw	0	; case 0
  3534   002428  B4D8               	btfsc	status,2,c
  3535   00242A  EF19  F012         	goto	l9427
  3536   00242E  EFF2  F011         	goto	l8269
  3537   002432                     l9427:
  3538                           
  3539                           ; Switch size 1, requested type "simple"
  3540                           ; Number of cases is 3, Range of values is 0 to 2
  3541                           ; switch strategies available:
  3542                           ; Name         Instructions Cycles
  3543                           ; simple_byte           10     6 (average)
  3544                           ;	Chosen strategy is simple_byte
  3545   002432  504F               	movf	??_Interrupt_INTx_Enable^0,w,c
  3546   002434  0A00               	xorlw	0	; case 0
  3547   002436  B4D8               	btfsc	status,2,c
  3548   002438  EFF7  F011         	goto	l1069
  3549   00243C  0A01               	xorlw	1	; case 1
  3550   00243E  B4D8               	btfsc	status,2,c
  3551   002440  EFFF  F011         	goto	l1071
  3552   002444  0A03               	xorlw	3	; case 2
  3553   002446  B4D8               	btfsc	status,2,c
  3554   002448  EF04  F012         	goto	l1072
  3555   00244C  EFF2  F011         	goto	l8269
  3556   002450                     l8281:
  3557                           
  3558                           ; BSR set to: 0
  3559                           ;MCAL_Layer/Interrupt/mcal_external_interrupt.c: 346:     return ret;
  3560   002450  51E5               	movf	Interrupt_INTx_Enable@ret& (0+255),w,b
  3561   002452                     
  3562                           ; BSR set to: 0
  3563   002452  0012               	return		;funcret
  3564   002454                     __end_of_Interrupt_INTx_Enable:
  3565                           	callstack 0
  3566                           
  3567 ;; *************** function _Interrupt_INTx_Edge_Init *****************
  3568 ;; Defined at:
  3569 ;;		line 422 in file "MCAL_Layer/Interrupt/mcal_external_interrupt.c"
  3570 ;; Parameters:    Size  Location     Type
  3571 ;;  int_obj         2   30[COMRAM] PTR const struct .
  3572 ;;		 -> int0_obj(6), 
  3573 ;; Auto vars:     Size  Location     Type
  3574 ;;  ret             1    0[BANK0 ] unsigned char 
  3575 ;; Return value:  Size  Location     Type
  3576 ;;                  1    wreg      unsigned char 
  3577 ;; Registers used:
  3578 ;;		wreg, fsr2l, fsr2h, status,2, status,0
  3579 ;; Tracked objects:
  3580 ;;		On entry : 0/0
  3581 ;;		On exit  : 0/0
  3582 ;;		Unchanged: 0/0
  3583 ;; Data sizes:     COMRAM   BANK0   BANK1   BANK2   BANK3   BANK4   BANK5   BANK6   BANK7   BANK8   BANK9  BANK10  BANK1
      +1  BANK12  BANK13  BANK14  BANK15
  3584 ;;      Params:         2       0       0       0       0       0       0       0       0       0       0       0       
      +0       0       0       0       0
  3585 ;;      Locals:         0       1       0       0       0       0       0       0       0       0       0       0       
      +0       0       0       0       0
  3586 ;;      Temps:          2       0       0       0       0       0       0       0       0       0       0       0       
      +0       0       0       0       0
  3587 ;;      Totals:         4       1       0       0       0       0       0       0       0       0       0       0       
      +0       0       0       0       0
  3588 ;;Total ram usage:        5 bytes
  3589 ;; Hardware stack levels used: 1
  3590 ;; Hardware stack levels required when called: 7
  3591 ;; This function calls:
  3592 ;;		Nothing
  3593 ;; This function is called by:
  3594 ;;		_Interrupt_INTx_Init
  3595 ;; This function uses a non-reentrant model
  3596 ;;
  3597                           
  3598                           	psect	text20
  3599   001906                     __ptext20:
  3600                           	callstack 0
  3601   001906                     _Interrupt_INTx_Edge_Init:
  3602                           	callstack 21
  3603   001906                     
  3604                           ;MCAL_Layer/Interrupt/mcal_external_interrupt.c: 424:     if(((void*)0) == int_obj){
  3605   001906  504D               	movf	Interrupt_INTx_Edge_Init@int_obj^0,w,c
  3606   001908  104E               	iorwf	(Interrupt_INTx_Edge_Init@int_obj+1)^0,w,c
  3607   00190A  A4D8               	btfss	status,2,c
  3608   00190C  EF8A  F00C         	goto	u6671
  3609   001910  EF8C  F00C         	goto	u6670
  3610   001914                     u6671:
  3611   001914  EFFA  F00C         	goto	l8217
  3612   001918                     u6670:
  3613   001918                     l8183:
  3614                           
  3615                           ;MCAL_Layer/Interrupt/mcal_external_interrupt.c: 425:         ret = (Std_ReturnType)0x00
      +                          ;
  3616   001918  0E00               	movlw	0
  3617   00191A  0100               	movlb	0	; () banked
  3618   00191C  6FE5               	movwf	Interrupt_INTx_Edge_Init@ret& (0+255),b
  3619                           
  3620                           ;MCAL_Layer/Interrupt/mcal_external_interrupt.c: 426:     }
  3621   00191E  EF19  F00D         	goto	l8219
  3622   001922                     l8185:
  3623                           
  3624                           ;MCAL_Layer/Interrupt/mcal_external_interrupt.c: 430:                 if(INTERRUPT_FALLI
      +                          NG_EDGE == int_obj->edge){ (INTCON2bits.INTEDG0 = 0); }
  3625   001922  EE20 F003          	lfsr	2,3
  3626   001926  504D               	movf	Interrupt_INTx_Edge_Init@int_obj^0,w,c
  3627   001928  26D9               	addwf	fsr2l,f,c
  3628   00192A  504E               	movf	(Interrupt_INTx_Edge_Init@int_obj+1)^0,w,c
  3629   00192C  22DA               	addwfc	fsr2h,f,c
  3630   00192E  50DF               	movf	indf2,w,c
  3631   001930  A4D8               	btfss	status,2,c
  3632   001932  EF9D  F00C         	goto	u6681
  3633   001936  EF9F  F00C         	goto	u6680
  3634   00193A                     u6681:
  3635   00193A  EFA2  F00C         	goto	l8189
  3636   00193E                     u6680:
  3637   00193E  9CF1               	bcf	241,6,c	;volatile
  3638   001940  EFB1  F00C         	goto	l8193
  3639   001944                     l8189:
  3640   001944  EE20 F003          	lfsr	2,3
  3641   001948  504D               	movf	Interrupt_INTx_Edge_Init@int_obj^0,w,c
  3642   00194A  26D9               	addwf	fsr2l,f,c
  3643   00194C  504E               	movf	(Interrupt_INTx_Edge_Init@int_obj+1)^0,w,c
  3644   00194E  22DA               	addwfc	fsr2h,f,c
  3645   001950  04DE               	decf	postinc2,w,c
  3646   001952  A4D8               	btfss	status,2,c
  3647   001954  EFAE  F00C         	goto	u6691
  3648   001958  EFB0  F00C         	goto	u6690
  3649   00195C                     u6691:
  3650   00195C  EFB1  F00C         	goto	l8193
  3651   001960                     u6690:
  3652   001960  8CF1               	bsf	241,6,c	;volatile
  3653   001962                     l8193:
  3654                           
  3655                           ;MCAL_Layer/Interrupt/mcal_external_interrupt.c: 433:                 ret = (Std_ReturnT
      +                          ype)0x01;
  3656   001962  0E01               	movlw	1
  3657   001964  0100               	movlb	0	; () banked
  3658   001966  6FE5               	movwf	Interrupt_INTx_Edge_Init@ret& (0+255),b
  3659                           
  3660                           ;MCAL_Layer/Interrupt/mcal_external_interrupt.c: 434:                 break;
  3661   001968  EF19  F00D         	goto	l8219
  3662   00196C                     l8195:
  3663                           
  3664                           ;MCAL_Layer/Interrupt/mcal_external_interrupt.c: 436:                 if(INTERRUPT_FALLI
      +                          NG_EDGE == int_obj->edge){ (INTCON2bits.INTEDG1 = 0); }
  3665   00196C  EE20 F003          	lfsr	2,3
  3666   001970  504D               	movf	Interrupt_INTx_Edge_Init@int_obj^0,w,c
  3667   001972  26D9               	addwf	fsr2l,f,c
  3668   001974  504E               	movf	(Interrupt_INTx_Edge_Init@int_obj+1)^0,w,c
  3669   001976  22DA               	addwfc	fsr2h,f,c
  3670   001978  50DF               	movf	indf2,w,c
  3671   00197A  A4D8               	btfss	status,2,c
  3672   00197C  EFC2  F00C         	goto	u6701
  3673   001980  EFC4  F00C         	goto	u6700
  3674   001984                     u6701:
  3675   001984  EFC7  F00C         	goto	l8199
  3676   001988                     u6700:
  3677   001988  9AF1               	bcf	241,5,c	;volatile
  3678   00198A  EFB1  F00C         	goto	l8193
  3679   00198E                     l8199:
  3680   00198E  EE20 F003          	lfsr	2,3
  3681   001992  504D               	movf	Interrupt_INTx_Edge_Init@int_obj^0,w,c
  3682   001994  26D9               	addwf	fsr2l,f,c
  3683   001996  504E               	movf	(Interrupt_INTx_Edge_Init@int_obj+1)^0,w,c
  3684   001998  22DA               	addwfc	fsr2h,f,c
  3685   00199A  04DE               	decf	postinc2,w,c
  3686   00199C  A4D8               	btfss	status,2,c
  3687   00199E  EFD3  F00C         	goto	u6711
  3688   0019A2  EFD5  F00C         	goto	u6710
  3689   0019A6                     u6711:
  3690   0019A6  EFB1  F00C         	goto	l8193
  3691   0019AA                     u6710:
  3692   0019AA  8AF1               	bsf	241,5,c	;volatile
  3693   0019AC  EFB1  F00C         	goto	l8193
  3694   0019B0                     l8205:
  3695                           
  3696                           ;MCAL_Layer/Interrupt/mcal_external_interrupt.c: 442:                 if(INTERRUPT_FALLI
      +                          NG_EDGE == int_obj->edge){ (INTCON2bits.INTEDG2 = 0); }
  3697   0019B0  EE20 F003          	lfsr	2,3
  3698   0019B4  504D               	movf	Interrupt_INTx_Edge_Init@int_obj^0,w,c
  3699   0019B6  26D9               	addwf	fsr2l,f,c
  3700   0019B8  504E               	movf	(Interrupt_INTx_Edge_Init@int_obj+1)^0,w,c
  3701   0019BA  22DA               	addwfc	fsr2h,f,c
  3702   0019BC  50DF               	movf	indf2,w,c
  3703   0019BE  A4D8               	btfss	status,2,c
  3704   0019C0  EFE4  F00C         	goto	u6721
  3705   0019C4  EFE6  F00C         	goto	u6720
  3706   0019C8                     u6721:
  3707   0019C8  EFE9  F00C         	goto	l8209
  3708   0019CC                     u6720:
  3709   0019CC  98F1               	bcf	241,4,c	;volatile
  3710   0019CE  EFB1  F00C         	goto	l8193
  3711   0019D2                     l8209:
  3712   0019D2  EE20 F003          	lfsr	2,3
  3713   0019D6  504D               	movf	Interrupt_INTx_Edge_Init@int_obj^0,w,c
  3714   0019D8  26D9               	addwf	fsr2l,f,c
  3715   0019DA  504E               	movf	(Interrupt_INTx_Edge_Init@int_obj+1)^0,w,c
  3716   0019DC  22DA               	addwfc	fsr2h,f,c
  3717   0019DE  04DE               	decf	postinc2,w,c
  3718   0019E0  A4D8               	btfss	status,2,c
  3719   0019E2  EFF5  F00C         	goto	u6731
  3720   0019E6  EFF7  F00C         	goto	u6730
  3721   0019EA                     u6731:
  3722   0019EA  EFB1  F00C         	goto	l8193
  3723   0019EE                     u6730:
  3724   0019EE  88F1               	bsf	241,4,c	;volatile
  3725   0019F0  EFB1  F00C         	goto	l8193
  3726   0019F4                     l8217:
  3727   0019F4  EE20 F004          	lfsr	2,4
  3728   0019F8  504D               	movf	Interrupt_INTx_Edge_Init@int_obj^0,w,c
  3729   0019FA  26D9               	addwf	fsr2l,f,c
  3730   0019FC  504E               	movf	(Interrupt_INTx_Edge_Init@int_obj+1)^0,w,c
  3731   0019FE  22DA               	addwfc	fsr2h,f,c
  3732   001A00  50DF               	movf	indf2,w,c
  3733   001A02  6E4F               	movwf	??_Interrupt_INTx_Edge_Init^0,c
  3734   001A04  6A50               	clrf	(??_Interrupt_INTx_Edge_Init+1)^0,c
  3735                           
  3736                           ; Switch on 2 bytes has been partitioned into a top level switch of size 1, and 1 sub-sw
      +                          itches
  3737                           ; Switch size 1, requested type "simple"
  3738                           ; Number of cases is 1, Range of values is 0 to 0
  3739                           ; switch strategies available:
  3740                           ; Name         Instructions Cycles
  3741                           ; simple_byte            4     3 (average)
  3742                           ;	Chosen strategy is simple_byte
  3743   001A06  5050               	movf	(??_Interrupt_INTx_Edge_Init+1)^0,w,c
  3744   001A08  0A00               	xorlw	0	; case 0
  3745   001A0A  B4D8               	btfsc	status,2,c
  3746   001A0C  EF0A  F00D         	goto	l9429
  3747   001A10  EF8C  F00C         	goto	l8183
  3748   001A14                     l9429:
  3749                           
  3750                           ; Switch size 1, requested type "simple"
  3751                           ; Number of cases is 3, Range of values is 0 to 2
  3752                           ; switch strategies available:
  3753                           ; Name         Instructions Cycles
  3754                           ; simple_byte           10     6 (average)
  3755                           ;	Chosen strategy is simple_byte
  3756   001A14  504F               	movf	??_Interrupt_INTx_Edge_Init^0,w,c
  3757   001A16  0A00               	xorlw	0	; case 0
  3758   001A18  B4D8               	btfsc	status,2,c
  3759   001A1A  EF91  F00C         	goto	l8185
  3760   001A1E  0A01               	xorlw	1	; case 1
  3761   001A20  B4D8               	btfsc	status,2,c
  3762   001A22  EFB6  F00C         	goto	l8195
  3763   001A26  0A03               	xorlw	3	; case 2
  3764   001A28  B4D8               	btfsc	status,2,c
  3765   001A2A  EFD8  F00C         	goto	l8205
  3766   001A2E  EF8C  F00C         	goto	l8183
  3767   001A32                     l8219:
  3768                           
  3769                           ; BSR set to: 0
  3770                           ;MCAL_Layer/Interrupt/mcal_external_interrupt.c: 450:     return ret;
  3771   001A32  51E5               	movf	Interrupt_INTx_Edge_Init@ret& (0+255),w,b
  3772   001A34                     
  3773                           ; BSR set to: 0
  3774   001A34  0012               	return		;funcret
  3775   001A36                     __end_of_Interrupt_INTx_Edge_Init:
  3776                           	callstack 0
  3777                           
  3778 ;; *************** function _Interrupt_INTx_Disable *****************
  3779 ;; Defined at:
  3780 ;;		line 356 in file "MCAL_Layer/Interrupt/mcal_external_interrupt.c"
  3781 ;; Parameters:    Size  Location     Type
  3782 ;;  int_obj         2   30[COMRAM] PTR const struct .
  3783 ;;		 -> int0_obj(6), 
  3784 ;; Auto vars:     Size  Location     Type
  3785 ;;  ret             1    0[BANK0 ] unsigned char 
  3786 ;; Return value:  Size  Location     Type
  3787 ;;                  1    wreg      unsigned char 
  3788 ;; Registers used:
  3789 ;;		wreg, fsr2l, fsr2h, status,2, status,0
  3790 ;; Tracked objects:
  3791 ;;		On entry : 0/0
  3792 ;;		On exit  : 0/0
  3793 ;;		Unchanged: 0/0
  3794 ;; Data sizes:     COMRAM   BANK0   BANK1   BANK2   BANK3   BANK4   BANK5   BANK6   BANK7   BANK8   BANK9  BANK10  BANK1
      +1  BANK12  BANK13  BANK14  BANK15
  3795 ;;      Params:         2       0       0       0       0       0       0       0       0       0       0       0       
      +0       0       0       0       0
  3796 ;;      Locals:         0       1       0       0       0       0       0       0       0       0       0       0       
      +0       0       0       0       0
  3797 ;;      Temps:          2       0       0       0       0       0       0       0       0       0       0       0       
      +0       0       0       0       0
  3798 ;;      Totals:         4       1       0       0       0       0       0       0       0       0       0       0       
      +0       0       0       0       0
  3799 ;;Total ram usage:        5 bytes
  3800 ;; Hardware stack levels used: 1
  3801 ;; Hardware stack levels required when called: 7
  3802 ;; This function calls:
  3803 ;;		Nothing
  3804 ;; This function is called by:
  3805 ;;		_Interrupt_INTx_Init
  3806 ;;		_Interrupt_INTx_DeInit
  3807 ;; This function uses a non-reentrant model
  3808 ;;
  3809                           
  3810                           	psect	text21
  3811   002742                     __ptext21:
  3812                           	callstack 0
  3813   002742                     _Interrupt_INTx_Disable:
  3814                           	callstack 21
  3815   002742                     
  3816                           ;MCAL_Layer/Interrupt/mcal_external_interrupt.c: 358:     if(((void*)0) == int_obj){
  3817   002742  504D               	movf	Interrupt_INTx_Disable@int_obj^0,w,c
  3818   002744  104E               	iorwf	(Interrupt_INTx_Disable@int_obj+1)^0,w,c
  3819   002746  A4D8               	btfss	status,2,c
  3820   002748  EFA8  F013         	goto	u6651
  3821   00274C  EFAA  F013         	goto	u6650
  3822   002750                     u6651:
  3823   002750  EFBB  F013         	goto	l8145
  3824   002754                     u6650:
  3825   002754                     l8135:
  3826                           
  3827                           ;MCAL_Layer/Interrupt/mcal_external_interrupt.c: 359:         ret = (Std_ReturnType)0x00
      +                          ;
  3828   002754  0E00               	movlw	0
  3829   002756  0100               	movlb	0	; () banked
  3830   002758  6FE5               	movwf	Interrupt_INTx_Disable@ret& (0+255),b
  3831                           
  3832                           ;MCAL_Layer/Interrupt/mcal_external_interrupt.c: 360:     }
  3833   00275A  EFDA  F013         	goto	l8147
  3834   00275E                     l1080:
  3835                           
  3836                           ;MCAL_Layer/Interrupt/mcal_external_interrupt.c: 364:                 (INTCONbits.INT0IE
      +                           = 0);
  3837   00275E  98F2               	bcf	242,4,c	;volatile
  3838   002760                     l8137:
  3839                           
  3840                           ;MCAL_Layer/Interrupt/mcal_external_interrupt.c: 365:                 ret = (Std_ReturnT
      +                          ype)0x01;
  3841   002760  0E01               	movlw	1
  3842   002762  0100               	movlb	0	; () banked
  3843   002764  6FE5               	movwf	Interrupt_INTx_Disable@ret& (0+255),b
  3844                           
  3845                           ;MCAL_Layer/Interrupt/mcal_external_interrupt.c: 366:                 break;
  3846   002766  EFDA  F013         	goto	l8147
  3847   00276A                     l1082:
  3848                           
  3849                           ;MCAL_Layer/Interrupt/mcal_external_interrupt.c: 368:                 (INTCON3bits.INT1I
      +                          E = 0);
  3850   00276A  96F0               	bcf	240,3,c	;volatile
  3851   00276C  EFB0  F013         	goto	l8137
  3852   002770                     l1083:
  3853                           
  3854                           ;MCAL_Layer/Interrupt/mcal_external_interrupt.c: 372:                 (INTCON3bits.INT2I
      +                          E = 0);
  3855   002770  98F0               	bcf	240,4,c	;volatile
  3856   002772  EFB0  F013         	goto	l8137
  3857   002776                     l8145:
  3858   002776  EE20 F004          	lfsr	2,4
  3859   00277A  504D               	movf	Interrupt_INTx_Disable@int_obj^0,w,c
  3860   00277C  26D9               	addwf	fsr2l,f,c
  3861   00277E  504E               	movf	(Interrupt_INTx_Disable@int_obj+1)^0,w,c
  3862   002780  22DA               	addwfc	fsr2h,f,c
  3863   002782  50DF               	movf	indf2,w,c
  3864   002784  6E4F               	movwf	??_Interrupt_INTx_Disable^0,c
  3865   002786  6A50               	clrf	(??_Interrupt_INTx_Disable+1)^0,c
  3866                           
  3867                           ; Switch on 2 bytes has been partitioned into a top level switch of size 1, and 1 sub-sw
      +                          itches
  3868                           ; Switch size 1, requested type "simple"
  3869                           ; Number of cases is 1, Range of values is 0 to 0
  3870                           ; switch strategies available:
  3871                           ; Name         Instructions Cycles
  3872                           ; simple_byte            4     3 (average)
  3873                           ;	Chosen strategy is simple_byte
  3874   002788  5050               	movf	(??_Interrupt_INTx_Disable+1)^0,w,c
  3875   00278A  0A00               	xorlw	0	; case 0
  3876   00278C  B4D8               	btfsc	status,2,c
  3877   00278E  EFCB  F013         	goto	l9431
  3878   002792  EFAA  F013         	goto	l8135
  3879   002796                     l9431:
  3880                           
  3881                           ; Switch size 1, requested type "simple"
  3882                           ; Number of cases is 3, Range of values is 0 to 2
  3883                           ; switch strategies available:
  3884                           ; Name         Instructions Cycles
  3885                           ; simple_byte           10     6 (average)
  3886                           ;	Chosen strategy is simple_byte
  3887   002796  504F               	movf	??_Interrupt_INTx_Disable^0,w,c
  3888   002798  0A00               	xorlw	0	; case 0
  3889   00279A  B4D8               	btfsc	status,2,c
  3890   00279C  EFAF  F013         	goto	l1080
  3891   0027A0  0A01               	xorlw	1	; case 1
  3892   0027A2  B4D8               	btfsc	status,2,c
  3893   0027A4  EFB5  F013         	goto	l1082
  3894   0027A8  0A03               	xorlw	3	; case 2
  3895   0027AA  B4D8               	btfsc	status,2,c
  3896   0027AC  EFB8  F013         	goto	l1083
  3897   0027B0  EFAA  F013         	goto	l8135
  3898   0027B4                     l8147:
  3899                           
  3900                           ; BSR set to: 0
  3901                           ;MCAL_Layer/Interrupt/mcal_external_interrupt.c: 378:     return ret;
  3902   0027B4  51E5               	movf	Interrupt_INTx_Disable@ret& (0+255),w,b
  3903   0027B6                     
  3904                           ; BSR set to: 0
  3905   0027B6  0012               	return		;funcret
  3906   0027B8                     __end_of_Interrupt_INTx_Disable:
  3907                           	callstack 0
  3908                           
  3909 ;; *************** function _Interrupt_INTx_Clear_Flag *****************
  3910 ;; Defined at:
  3911 ;;		line 479 in file "MCAL_Layer/Interrupt/mcal_external_interrupt.c"
  3912 ;; Parameters:    Size  Location     Type
  3913 ;;  int_obj         2   30[COMRAM] PTR const struct .
  3914 ;;		 -> int0_obj(6), 
  3915 ;; Auto vars:     Size  Location     Type
  3916 ;;  ret             1    0[BANK0 ] unsigned char 
  3917 ;; Return value:  Size  Location     Type
  3918 ;;                  1    wreg      unsigned char 
  3919 ;; Registers used:
  3920 ;;		wreg, fsr2l, fsr2h, status,2, status,0
  3921 ;; Tracked objects:
  3922 ;;		On entry : 0/0
  3923 ;;		On exit  : 0/0
  3924 ;;		Unchanged: 0/0
  3925 ;; Data sizes:     COMRAM   BANK0   BANK1   BANK2   BANK3   BANK4   BANK5   BANK6   BANK7   BANK8   BANK9  BANK10  BANK1
      +1  BANK12  BANK13  BANK14  BANK15
  3926 ;;      Params:         2       0       0       0       0       0       0       0       0       0       0       0       
      +0       0       0       0       0
  3927 ;;      Locals:         0       1       0       0       0       0       0       0       0       0       0       0       
      +0       0       0       0       0
  3928 ;;      Temps:          2       0       0       0       0       0       0       0       0       0       0       0       
      +0       0       0       0       0
  3929 ;;      Totals:         4       1       0       0       0       0       0       0       0       0       0       0       
      +0       0       0       0       0
  3930 ;;Total ram usage:        5 bytes
  3931 ;; Hardware stack levels used: 1
  3932 ;; Hardware stack levels required when called: 7
  3933 ;; This function calls:
  3934 ;;		Nothing
  3935 ;; This function is called by:
  3936 ;;		_Interrupt_INTx_Init
  3937 ;; This function uses a non-reentrant model
  3938 ;;
  3939                           
  3940                           	psect	text22
  3941   0027B8                     __ptext22:
  3942                           	callstack 0
  3943   0027B8                     _Interrupt_INTx_Clear_Flag:
  3944                           	callstack 21
  3945   0027B8                     
  3946                           ;MCAL_Layer/Interrupt/mcal_external_interrupt.c: 481:     if(((void*)0) == int_obj){
  3947   0027B8  504D               	movf	Interrupt_INTx_Clear_Flag@int_obj^0,w,c
  3948   0027BA  104E               	iorwf	(Interrupt_INTx_Clear_Flag@int_obj+1)^0,w,c
  3949   0027BC  A4D8               	btfss	status,2,c
  3950   0027BE  EFE3  F013         	goto	u6661
  3951   0027C2  EFE5  F013         	goto	u6660
  3952   0027C6                     u6661:
  3953   0027C6  EFF6  F013         	goto	l8169
  3954   0027CA                     u6660:
  3955   0027CA                     l8159:
  3956                           
  3957                           ;MCAL_Layer/Interrupt/mcal_external_interrupt.c: 482:         ret = (Std_ReturnType)0x00
      +                          ;
  3958   0027CA  0E00               	movlw	0
  3959   0027CC  0100               	movlb	0	; () banked
  3960   0027CE  6FE5               	movwf	Interrupt_INTx_Clear_Flag@ret& (0+255),b
  3961                           
  3962                           ;MCAL_Layer/Interrupt/mcal_external_interrupt.c: 483:     }
  3963   0027D0  EF15  F014         	goto	l8171
  3964   0027D4                     l1119:
  3965                           
  3966                           ;MCAL_Layer/Interrupt/mcal_external_interrupt.c: 487:                 (INTCONbits.INT0IF
      +                           = 0);
  3967   0027D4  92F2               	bcf	242,1,c	;volatile
  3968   0027D6                     l8161:
  3969                           
  3970                           ;MCAL_Layer/Interrupt/mcal_external_interrupt.c: 488:                 ret = (Std_ReturnT
      +                          ype)0x01;
  3971   0027D6  0E01               	movlw	1
  3972   0027D8  0100               	movlb	0	; () banked
  3973   0027DA  6FE5               	movwf	Interrupt_INTx_Clear_Flag@ret& (0+255),b
  3974                           
  3975                           ;MCAL_Layer/Interrupt/mcal_external_interrupt.c: 489:                 break;
  3976   0027DC  EF15  F014         	goto	l8171
  3977   0027E0                     l1121:
  3978                           
  3979                           ;MCAL_Layer/Interrupt/mcal_external_interrupt.c: 491:                 (INTCON3bits.INT1I
      +                          F = 0);
  3980   0027E0  90F0               	bcf	240,0,c	;volatile
  3981   0027E2  EFEB  F013         	goto	l8161
  3982   0027E6                     l1122:
  3983                           
  3984                           ;MCAL_Layer/Interrupt/mcal_external_interrupt.c: 495:                 (INTCON3bits.INT2I
      +                          F = 0);
  3985   0027E6  92F0               	bcf	240,1,c	;volatile
  3986   0027E8  EFEB  F013         	goto	l8161
  3987   0027EC                     l8169:
  3988   0027EC  EE20 F004          	lfsr	2,4
  3989   0027F0  504D               	movf	Interrupt_INTx_Clear_Flag@int_obj^0,w,c
  3990   0027F2  26D9               	addwf	fsr2l,f,c
  3991   0027F4  504E               	movf	(Interrupt_INTx_Clear_Flag@int_obj+1)^0,w,c
  3992   0027F6  22DA               	addwfc	fsr2h,f,c
  3993   0027F8  50DF               	movf	indf2,w,c
  3994   0027FA  6E4F               	movwf	??_Interrupt_INTx_Clear_Flag^0,c
  3995   0027FC  6A50               	clrf	(??_Interrupt_INTx_Clear_Flag+1)^0,c
  3996                           
  3997                           ; Switch on 2 bytes has been partitioned into a top level switch of size 1, and 1 sub-sw
      +                          itches
  3998                           ; Switch size 1, requested type "simple"
  3999                           ; Number of cases is 1, Range of values is 0 to 0
  4000                           ; switch strategies available:
  4001                           ; Name         Instructions Cycles
  4002                           ; simple_byte            4     3 (average)
  4003                           ;	Chosen strategy is simple_byte
  4004   0027FE  5050               	movf	(??_Interrupt_INTx_Clear_Flag+1)^0,w,c
  4005   002800  0A00               	xorlw	0	; case 0
  4006   002802  B4D8               	btfsc	status,2,c
  4007   002804  EF06  F014         	goto	l9433
  4008   002808  EFE5  F013         	goto	l8159
  4009   00280C                     l9433:
  4010                           
  4011                           ; Switch size 1, requested type "simple"
  4012                           ; Number of cases is 3, Range of values is 0 to 2
  4013                           ; switch strategies available:
  4014                           ; Name         Instructions Cycles
  4015                           ; simple_byte           10     6 (average)
  4016                           ;	Chosen strategy is simple_byte
  4017   00280C  504F               	movf	??_Interrupt_INTx_Clear_Flag^0,w,c
  4018   00280E  0A00               	xorlw	0	; case 0
  4019   002810  B4D8               	btfsc	status,2,c
  4020   002812  EFEA  F013         	goto	l1119
  4021   002816  0A01               	xorlw	1	; case 1
  4022   002818  B4D8               	btfsc	status,2,c
  4023   00281A  EFF0  F013         	goto	l1121
  4024   00281E  0A03               	xorlw	3	; case 2
  4025   002820  B4D8               	btfsc	status,2,c
  4026   002822  EFF3  F013         	goto	l1122
  4027   002826  EFE5  F013         	goto	l8159
  4028   00282A                     l8171:
  4029                           
  4030                           ; BSR set to: 0
  4031                           ;MCAL_Layer/Interrupt/mcal_external_interrupt.c: 501:     return ret;
  4032   00282A  51E5               	movf	Interrupt_INTx_Clear_Flag@ret& (0+255),w,b
  4033   00282C                     
  4034                           ; BSR set to: 0
  4035   00282C  0012               	return		;funcret
  4036   00282E                     __end_of_Interrupt_INTx_Clear_Flag:
  4037                           	callstack 0
  4038                           
  4039 ;; *************** function ___awmod *****************
  4040 ;; Defined at:
  4041 ;;		line 7 in file "C:\Program Files\Microchip\xc8\v2.41\pic\sources\c99\common\awmod.c"
  4042 ;; Parameters:    Size  Location     Type
  4043 ;;  dividend        2   30[COMRAM] int 
  4044 ;;  divisor         2   32[COMRAM] int 
  4045 ;; Auto vars:     Size  Location     Type
  4046 ;;  sign            1    1[BANK0 ] unsigned char 
  4047 ;;  counter         1    0[BANK0 ] unsigned char 
  4048 ;; Return value:  Size  Location     Type
  4049 ;;                  2   30[COMRAM] int 
  4050 ;; Registers used:
  4051 ;;		wreg, status,2, status,0
  4052 ;; Tracked objects:
  4053 ;;		On entry : 0/0
  4054 ;;		On exit  : 0/0
  4055 ;;		Unchanged: 0/0
  4056 ;; Data sizes:     COMRAM   BANK0   BANK1   BANK2   BANK3   BANK4   BANK5   BANK6   BANK7   BANK8   BANK9  BANK10  BANK1
      +1  BANK12  BANK13  BANK14  BANK15
  4057 ;;      Params:         4       0       0       0       0       0       0       0       0       0       0       0       
      +0       0       0       0       0
  4058 ;;      Locals:         0       2       0       0       0       0       0       0       0       0       0       0       
      +0       0       0       0       0
  4059 ;;      Temps:          0       0       0       0       0       0       0       0       0       0       0       0       
      +0       0       0       0       0
  4060 ;;      Totals:         4       2       0       0       0       0       0       0       0       0       0       0       
      +0       0       0       0       0
  4061 ;;Total ram usage:        6 bytes
  4062 ;; Hardware stack levels used: 1
  4063 ;; Hardware stack levels required when called: 7
  4064 ;; This function calls:
  4065 ;;		Nothing
  4066 ;; This function is called by:
  4067 ;;		_main
  4068 ;; This function uses a non-reentrant model
  4069 ;;
  4070                           
  4071                           	psect	text23
  4072   001EB8                     __ptext23:
  4073                           	callstack 0
  4074   001EB8                     ___awmod:
  4075                           	callstack 23
  4076   001EB8  0E00               	movlw	0
  4077   001EBA  0100               	movlb	0	; () banked
  4078   001EBC  6FE6               	movwf	___awmod@sign& (0+255),b
  4079   001EBE                     
  4080                           ; BSR set to: 0
  4081   001EBE  BE4E               	btfsc	(___awmod@dividend+1)^0,7,c
  4082   001EC0  EF66  F00F         	goto	u7020
  4083   001EC4  EF64  F00F         	goto	u7021
  4084   001EC8                     u7021:
  4085   001EC8  EF6C  F00F         	goto	l8637
  4086   001ECC                     u7020:
  4087   001ECC                     
  4088                           ; BSR set to: 0
  4089   001ECC  6C4D               	negf	___awmod@dividend^0,c
  4090   001ECE  1E4E               	comf	(___awmod@dividend+1)^0,f,c
  4091   001ED0  B0D8               	btfsc	status,0,c
  4092   001ED2  2A4E               	incf	(___awmod@dividend+1)^0,f,c
  4093   001ED4                     
  4094                           ; BSR set to: 0
  4095   001ED4  0E01               	movlw	1
  4096   001ED6  6FE6               	movwf	___awmod@sign& (0+255),b
  4097   001ED8                     l8637:
  4098                           
  4099                           ; BSR set to: 0
  4100   001ED8  BE50               	btfsc	(___awmod@divisor+1)^0,7,c
  4101   001EDA  EF73  F00F         	goto	u7030
  4102   001EDE  EF71  F00F         	goto	u7031
  4103   001EE2                     u7031:
  4104   001EE2  EF77  F00F         	goto	l8641
  4105   001EE6                     u7030:
  4106   001EE6                     
  4107                           ; BSR set to: 0
  4108   001EE6  6C4F               	negf	___awmod@divisor^0,c
  4109   001EE8  1E50               	comf	(___awmod@divisor+1)^0,f,c
  4110   001EEA  B0D8               	btfsc	status,0,c
  4111   001EEC  2A50               	incf	(___awmod@divisor+1)^0,f,c
  4112   001EEE                     l8641:
  4113                           
  4114                           ; BSR set to: 0
  4115   001EEE  504F               	movf	___awmod@divisor^0,w,c
  4116   001EF0  1050               	iorwf	(___awmod@divisor+1)^0,w,c
  4117   001EF2  B4D8               	btfsc	status,2,c
  4118   001EF4  EF7E  F00F         	goto	u7041
  4119   001EF8  EF80  F00F         	goto	u7040
  4120   001EFC                     u7041:
  4121   001EFC  EFA4  F00F         	goto	l8657
  4122   001F00                     u7040:
  4123   001F00                     
  4124                           ; BSR set to: 0
  4125   001F00  0E01               	movlw	1
  4126   001F02  6FE5               	movwf	___awmod@counter& (0+255),b
  4127   001F04  EF88  F00F         	goto	l8647
  4128   001F08                     l8645:
  4129                           
  4130                           ; BSR set to: 0
  4131   001F08  90D8               	bcf	status,0,c
  4132   001F0A  364F               	rlcf	___awmod@divisor^0,f,c
  4133   001F0C  3650               	rlcf	(___awmod@divisor+1)^0,f,c
  4134   001F0E  2BE5               	incf	___awmod@counter& (0+255),f,b
  4135   001F10                     l8647:
  4136                           
  4137                           ; BSR set to: 0
  4138   001F10  AE50               	btfss	(___awmod@divisor+1)^0,7,c
  4139   001F12  EF8D  F00F         	goto	u7051
  4140   001F16  EF8F  F00F         	goto	u7050
  4141   001F1A                     u7051:
  4142   001F1A  EF84  F00F         	goto	l8645
  4143   001F1E                     u7050:
  4144   001F1E                     l8649:
  4145                           
  4146                           ; BSR set to: 0
  4147   001F1E  504F               	movf	___awmod@divisor^0,w,c
  4148   001F20  5C4D               	subwf	___awmod@dividend^0,w,c
  4149   001F22  5050               	movf	(___awmod@divisor+1)^0,w,c
  4150   001F24  584E               	subwfb	(___awmod@dividend+1)^0,w,c
  4151   001F26  A0D8               	btfss	status,0,c
  4152   001F28  EF98  F00F         	goto	u7061
  4153   001F2C  EF9A  F00F         	goto	u7060
  4154   001F30                     u7061:
  4155   001F30  EF9E  F00F         	goto	l8653
  4156   001F34                     u7060:
  4157   001F34                     
  4158                           ; BSR set to: 0
  4159   001F34  504F               	movf	___awmod@divisor^0,w,c
  4160   001F36  5E4D               	subwf	___awmod@dividend^0,f,c
  4161   001F38  5050               	movf	(___awmod@divisor+1)^0,w,c
  4162   001F3A  5A4E               	subwfb	(___awmod@dividend+1)^0,f,c
  4163   001F3C                     l8653:
  4164                           
  4165                           ; BSR set to: 0
  4166   001F3C  90D8               	bcf	status,0,c
  4167   001F3E  3250               	rrcf	(___awmod@divisor+1)^0,f,c
  4168   001F40  324F               	rrcf	___awmod@divisor^0,f,c
  4169   001F42                     
  4170                           ; BSR set to: 0
  4171   001F42  2FE5               	decfsz	___awmod@counter& (0+255),f,b
  4172   001F44  EF8F  F00F         	goto	l8649
  4173   001F48                     l8657:
  4174                           
  4175                           ; BSR set to: 0
  4176   001F48  51E6               	movf	___awmod@sign& (0+255),w,b
  4177   001F4A  B4D8               	btfsc	status,2,c
  4178   001F4C  EFAA  F00F         	goto	u7071
  4179   001F50  EFAC  F00F         	goto	u7070
  4180   001F54                     u7071:
  4181   001F54  EFB0  F00F         	goto	l8661
  4182   001F58                     u7070:
  4183   001F58                     
  4184                           ; BSR set to: 0
  4185   001F58  6C4D               	negf	___awmod@dividend^0,c
  4186   001F5A  1E4E               	comf	(___awmod@dividend+1)^0,f,c
  4187   001F5C  B0D8               	btfsc	status,0,c
  4188   001F5E  2A4E               	incf	(___awmod@dividend+1)^0,f,c
  4189   001F60                     l8661:
  4190                           
  4191                           ; BSR set to: 0
  4192   001F60  C04D  F04D         	movff	___awmod@dividend,?___awmod
  4193   001F64  C04E  F04E         	movff	___awmod@dividend+1,?___awmod+1
  4194   001F68                     
  4195                           ; BSR set to: 0
  4196   001F68  0012               	return		;funcret
  4197   001F6A                     __end_of___awmod:
  4198                           	callstack 0
  4199                           
  4200 ;; *************** function ___awdiv *****************
  4201 ;; Defined at:
  4202 ;;		line 7 in file "C:\Program Files\Microchip\xc8\v2.41\pic\sources\c99\common\awdiv.c"
  4203 ;; Parameters:    Size  Location     Type
  4204 ;;  dividend        2   30[COMRAM] int 
  4205 ;;  divisor         2   32[COMRAM] int 
  4206 ;; Auto vars:     Size  Location     Type
  4207 ;;  quotient        2    2[BANK0 ] int 
  4208 ;;  sign            1    1[BANK0 ] unsigned char 
  4209 ;;  counter         1    0[BANK0 ] unsigned char 
  4210 ;; Return value:  Size  Location     Type
  4211 ;;                  2   30[COMRAM] int 
  4212 ;; Registers used:
  4213 ;;		wreg, status,2, status,0
  4214 ;; Tracked objects:
  4215 ;;		On entry : 0/0
  4216 ;;		On exit  : 0/0
  4217 ;;		Unchanged: 0/0
  4218 ;; Data sizes:     COMRAM   BANK0   BANK1   BANK2   BANK3   BANK4   BANK5   BANK6   BANK7   BANK8   BANK9  BANK10  BANK1
      +1  BANK12  BANK13  BANK14  BANK15
  4219 ;;      Params:         4       0       0       0       0       0       0       0       0       0       0       0       
      +0       0       0       0       0
  4220 ;;      Locals:         0       4       0       0       0       0       0       0       0       0       0       0       
      +0       0       0       0       0
  4221 ;;      Temps:          0       0       0       0       0       0       0       0       0       0       0       0       
      +0       0       0       0       0
  4222 ;;      Totals:         4       4       0       0       0       0       0       0       0       0       0       0       
      +0       0       0       0       0
  4223 ;;Total ram usage:        8 bytes
  4224 ;; Hardware stack levels used: 1
  4225 ;; Hardware stack levels required when called: 7
  4226 ;; This function calls:
  4227 ;;		Nothing
  4228 ;; This function is called by:
  4229 ;;		_main
  4230 ;; This function uses a non-reentrant model
  4231 ;;
  4232                           
  4233                           	psect	text24
  4234   001C7A                     __ptext24:
  4235                           	callstack 0
  4236   001C7A                     ___awdiv:
  4237                           	callstack 23
  4238   001C7A  0E00               	movlw	0
  4239   001C7C  0100               	movlb	0	; () banked
  4240   001C7E  6FE6               	movwf	___awdiv@sign& (0+255),b
  4241   001C80                     
  4242                           ; BSR set to: 0
  4243   001C80  BE50               	btfsc	(___awdiv@divisor+1)^0,7,c
  4244   001C82  EF47  F00E         	goto	u6960
  4245   001C86  EF45  F00E         	goto	u6961
  4246   001C8A                     u6961:
  4247   001C8A  EF4D  F00E         	goto	l8593
  4248   001C8E                     u6960:
  4249   001C8E                     
  4250                           ; BSR set to: 0
  4251   001C8E  6C4F               	negf	___awdiv@divisor^0,c
  4252   001C90  1E50               	comf	(___awdiv@divisor+1)^0,f,c
  4253   001C92  B0D8               	btfsc	status,0,c
  4254   001C94  2A50               	incf	(___awdiv@divisor+1)^0,f,c
  4255   001C96                     
  4256                           ; BSR set to: 0
  4257   001C96  0E01               	movlw	1
  4258   001C98  6FE6               	movwf	___awdiv@sign& (0+255),b
  4259   001C9A                     l8593:
  4260                           
  4261                           ; BSR set to: 0
  4262   001C9A  BE4E               	btfsc	(___awdiv@dividend+1)^0,7,c
  4263   001C9C  EF54  F00E         	goto	u6970
  4264   001CA0  EF52  F00E         	goto	u6971
  4265   001CA4                     u6971:
  4266   001CA4  EF5A  F00E         	goto	l8599
  4267   001CA8                     u6970:
  4268   001CA8                     
  4269                           ; BSR set to: 0
  4270   001CA8  6C4D               	negf	___awdiv@dividend^0,c
  4271   001CAA  1E4E               	comf	(___awdiv@dividend+1)^0,f,c
  4272   001CAC  B0D8               	btfsc	status,0,c
  4273   001CAE  2A4E               	incf	(___awdiv@dividend+1)^0,f,c
  4274   001CB0                     
  4275                           ; BSR set to: 0
  4276   001CB0  0E01               	movlw	1
  4277   001CB2  1BE6               	xorwf	___awdiv@sign& (0+255),f,b
  4278   001CB4                     l8599:
  4279                           
  4280                           ; BSR set to: 0
  4281   001CB4  0E00               	movlw	0
  4282   001CB6  6FE8               	movwf	(___awdiv@quotient+1)& (0+255),b
  4283   001CB8  0E00               	movlw	0
  4284   001CBA  6FE7               	movwf	___awdiv@quotient& (0+255),b
  4285   001CBC                     
  4286                           ; BSR set to: 0
  4287   001CBC  504F               	movf	___awdiv@divisor^0,w,c
  4288   001CBE  1050               	iorwf	(___awdiv@divisor+1)^0,w,c
  4289   001CC0  B4D8               	btfsc	status,2,c
  4290   001CC2  EF65  F00E         	goto	u6981
  4291   001CC6  EF67  F00E         	goto	u6980
  4292   001CCA                     u6981:
  4293   001CCA  EF8F  F00E         	goto	l8621
  4294   001CCE                     u6980:
  4295   001CCE                     
  4296                           ; BSR set to: 0
  4297   001CCE  0E01               	movlw	1
  4298   001CD0  6FE5               	movwf	___awdiv@counter& (0+255),b
  4299   001CD2  EF6F  F00E         	goto	l8607
  4300   001CD6                     l8605:
  4301                           
  4302                           ; BSR set to: 0
  4303   001CD6  90D8               	bcf	status,0,c
  4304   001CD8  364F               	rlcf	___awdiv@divisor^0,f,c
  4305   001CDA  3650               	rlcf	(___awdiv@divisor+1)^0,f,c
  4306   001CDC  2BE5               	incf	___awdiv@counter& (0+255),f,b
  4307   001CDE                     l8607:
  4308                           
  4309                           ; BSR set to: 0
  4310   001CDE  AE50               	btfss	(___awdiv@divisor+1)^0,7,c
  4311   001CE0  EF74  F00E         	goto	u6991
  4312   001CE4  EF76  F00E         	goto	u6990
  4313   001CE8                     u6991:
  4314   001CE8  EF6B  F00E         	goto	l8605
  4315   001CEC                     u6990:
  4316   001CEC                     l8609:
  4317                           
  4318                           ; BSR set to: 0
  4319   001CEC  90D8               	bcf	status,0,c
  4320   001CEE  37E7               	rlcf	___awdiv@quotient& (0+255),f,b
  4321   001CF0  37E8               	rlcf	(___awdiv@quotient+1)& (0+255),f,b
  4322   001CF2                     
  4323                           ; BSR set to: 0
  4324   001CF2  504F               	movf	___awdiv@divisor^0,w,c
  4325   001CF4  5C4D               	subwf	___awdiv@dividend^0,w,c
  4326   001CF6  5050               	movf	(___awdiv@divisor+1)^0,w,c
  4327   001CF8  584E               	subwfb	(___awdiv@dividend+1)^0,w,c
  4328   001CFA  A0D8               	btfss	status,0,c
  4329   001CFC  EF82  F00E         	goto	u7001
  4330   001D00  EF84  F00E         	goto	u7000
  4331   001D04                     u7001:
  4332   001D04  EF89  F00E         	goto	l8617
  4333   001D08                     u7000:
  4334   001D08                     
  4335                           ; BSR set to: 0
  4336   001D08  504F               	movf	___awdiv@divisor^0,w,c
  4337   001D0A  5E4D               	subwf	___awdiv@dividend^0,f,c
  4338   001D0C  5050               	movf	(___awdiv@divisor+1)^0,w,c
  4339   001D0E  5A4E               	subwfb	(___awdiv@dividend+1)^0,f,c
  4340   001D10                     
  4341                           ; BSR set to: 0
  4342   001D10  81E7               	bsf	___awdiv@quotient& (0+255),0,b
  4343   001D12                     l8617:
  4344                           
  4345                           ; BSR set to: 0
  4346   001D12  90D8               	bcf	status,0,c
  4347   001D14  3250               	rrcf	(___awdiv@divisor+1)^0,f,c
  4348   001D16  324F               	rrcf	___awdiv@divisor^0,f,c
  4349   001D18                     
  4350                           ; BSR set to: 0
  4351   001D18  2FE5               	decfsz	___awdiv@counter& (0+255),f,b
  4352   001D1A  EF76  F00E         	goto	l8609
  4353   001D1E                     l8621:
  4354                           
  4355                           ; BSR set to: 0
  4356   001D1E  51E6               	movf	___awdiv@sign& (0+255),w,b
  4357   001D20  B4D8               	btfsc	status,2,c
  4358   001D22  EF95  F00E         	goto	u7011
  4359   001D26  EF97  F00E         	goto	u7010
  4360   001D2A                     u7011:
  4361   001D2A  EF9B  F00E         	goto	l8625
  4362   001D2E                     u7010:
  4363   001D2E                     
  4364                           ; BSR set to: 0
  4365   001D2E  6DE7               	negf	___awdiv@quotient& (0+255),b
  4366   001D30  1FE8               	comf	(___awdiv@quotient+1)& (0+255),f,b
  4367   001D32  B0D8               	btfsc	status,0,c
  4368   001D34  2BE8               	incf	(___awdiv@quotient+1)& (0+255),f,b
  4369   001D36                     l8625:
  4370                           
  4371                           ; BSR set to: 0
  4372   001D36  C0E7  F04D         	movff	___awdiv@quotient,?___awdiv
  4373   001D3A  C0E8  F04E         	movff	___awdiv@quotient+1,?___awdiv+1
  4374   001D3E                     
  4375                           ; BSR set to: 0
  4376   001D3E  0012               	return		;funcret
  4377   001D40                     __end_of___awdiv:
  4378                           	callstack 0
  4379                           
  4380 ;; *************** function _TimeOfPedestriansMoveFinishedHandler *****************
  4381 ;; Defined at:
  4382 ;;		line 167 in file "application.c"
  4383 ;; Parameters:    Size  Location     Type
  4384 ;;		None
  4385 ;; Auto vars:     Size  Location     Type
  4386 ;;		None
  4387 ;; Return value:  Size  Location     Type
  4388 ;;                  1    wreg      enum E4069
  4389 ;; Registers used:
  4390 ;;		wreg, fsr2l, fsr2h, status,2, status,0, tblptrl, tblptrh, tblptru, prodl, prodh, cstack
  4391 ;; Tracked objects:
  4392 ;;		On entry : 0/0
  4393 ;;		On exit  : 0/0
  4394 ;;		Unchanged: 0/0
  4395 ;; Data sizes:     COMRAM   BANK0   BANK1   BANK2   BANK3   BANK4   BANK5   BANK6   BANK7   BANK8   BANK9  BANK10  BANK1
      +1  BANK12  BANK13  BANK14  BANK15
  4396 ;;      Params:         0       0       0       0       0       0       0       0       0       0       0       0       
      +0       0       0       0       0
  4397 ;;      Locals:         0       0       0       0       0       0       0       0       0       0       0       0       
      +0       0       0       0       0
  4398 ;;      Temps:          0       0       0       0       0       0       0       0       0       0       0       0       
      +0       0       0       0       0
  4399 ;;      Totals:         0       0       0       0       0       0       0       0       0       0       0       0       
      +0       0       0       0       0
  4400 ;;Total ram usage:        0 bytes
  4401 ;; Hardware stack levels used: 1
  4402 ;; Hardware stack levels required when called: 12
  4403 ;; This function calls:
  4404 ;;		_lcd_4bit_send_string_pos
  4405 ;;		_led_turn_off
  4406 ;;		_led_turn_toggle
  4407 ;; This function is called by:
  4408 ;;		_main
  4409 ;; This function uses a non-reentrant model
  4410 ;;
  4411                           
  4412                           	psect	text25
  4413   001D40                     __ptext25:
  4414                           	callstack 0
  4415   001D40                     _TimeOfPedestriansMoveFinishedHandler:
  4416                           	callstack 18
  4417   001D40                     
  4418                           ;application.c: 169:     ret = led_turn_toggle(&ready_yellow);
  4419   001D40  0E5C               	movlw	low _ready_yellow
  4420   001D42  6E4F               	movwf	led_turn_toggle@led^0,c
  4421   001D44  0E00               	movlw	high _ready_yellow
  4422   001D46  6E50               	movwf	(led_turn_toggle@led+1)^0,c
  4423   001D48  ECEF  F016         	call	_led_turn_toggle	;wreg free
  4424   001D4C  0100               	movlb	0	; () banked
  4425   001D4E  6FFE               	movwf	_ret& (0+255),b
  4426                           
  4427                           ;application.c: 170:     ret = led_turn_off(&led_green_people);
  4428   001D50  0E5D               	movlw	low _led_green_people
  4429   001D52  6FEB               	movwf	led_turn_off@led& (0+255),b
  4430   001D54  0E00               	movlw	high _led_green_people
  4431   001D56  6FEC               	movwf	(led_turn_off@led+1)& (0+255),b
  4432   001D58  EC6C  F016         	call	_led_turn_off	;wreg free
  4433   001D5C  0100               	movlb	0	; () banked
  4434   001D5E  6FFE               	movwf	_ret& (0+255),b
  4435                           
  4436                           ;application.c: 171:     ret = led_turn_off(&led_red_car);
  4437   001D60  0E2E               	movlw	low _led_red_car
  4438   001D62  6FEB               	movwf	led_turn_off@led& (0+255),b
  4439   001D64  0E00               	movlw	high _led_red_car
  4440   001D66  6FEC               	movwf	(led_turn_off@led+1)& (0+255),b
  4441   001D68  EC6C  F016         	call	_led_turn_off	;wreg free
  4442   001D6C  0100               	movlb	0	; () banked
  4443   001D6E  6FFE               	movwf	_ret& (0+255),b
  4444   001D70                     
  4445                           ; BSR set to: 0
  4446                           ;application.c: 172:     ret = lcd_4bit_send_string_pos(&lcd_1, 1, 1,"Cars be Ready ");
  4447   001D70  0EBD               	movlw	low _lcd_1
  4448   001D72  0101               	movlb	1	; () banked
  4449   001D74  6F00               	movwf	lcd_4bit_send_string_pos@lcd& (0+255),b
  4450   001D76  0E00               	movlw	high _lcd_1
  4451   001D78  6F01               	movwf	(lcd_4bit_send_string_pos@lcd+1)& (0+255),b
  4452   001D7A  0E01               	movlw	1
  4453   001D7C  6F02               	movwf	lcd_4bit_send_string_pos@row& (0+255),b
  4454   001D7E  0E01               	movlw	1
  4455   001D80  6F03               	movwf	lcd_4bit_send_string_pos@column& (0+255),b
  4456   001D82  0E81               	movlw	low STR_8
  4457   001D84  6F04               	movwf	lcd_4bit_send_string_pos@str& (0+255),b
  4458   001D86  0E10               	movlw	high STR_8
  4459   001D88  6F05               	movwf	(lcd_4bit_send_string_pos@str+1)& (0+255),b
  4460   001D8A  ECA7  F011         	call	_lcd_4bit_send_string_pos	;wreg free
  4461   001D8E  0100               	movlb	0	; () banked
  4462   001D90  6FFE               	movwf	_ret& (0+255),b
  4463   001D92                     
  4464                           ; BSR set to: 0
  4465                           ;application.c: 173:     ret = lcd_4bit_send_string_pos(&lcd_1, 2, 1,"To [ MOVE ] =>=>")
      +                          ;
  4466   001D92  0EBD               	movlw	low _lcd_1
  4467   001D94  0101               	movlb	1	; () banked
  4468   001D96  6F00               	movwf	lcd_4bit_send_string_pos@lcd& (0+255),b
  4469   001D98  0E00               	movlw	high _lcd_1
  4470   001D9A  6F01               	movwf	(lcd_4bit_send_string_pos@lcd+1)& (0+255),b
  4471   001D9C  0E02               	movlw	2
  4472   001D9E  6F02               	movwf	lcd_4bit_send_string_pos@row& (0+255),b
  4473   001DA0  0E01               	movlw	1
  4474   001DA2  6F03               	movwf	lcd_4bit_send_string_pos@column& (0+255),b
  4475   001DA4  0E50               	movlw	low STR_9
  4476   001DA6  6F04               	movwf	lcd_4bit_send_string_pos@str& (0+255),b
  4477   001DA8  0E10               	movlw	high STR_9
  4478   001DAA  6F05               	movwf	(lcd_4bit_send_string_pos@str+1)& (0+255),b
  4479   001DAC  ECA7  F011         	call	_lcd_4bit_send_string_pos	;wreg free
  4480   001DB0  0100               	movlb	0	; () banked
  4481   001DB2  6FFE               	movwf	_ret& (0+255),b
  4482   001DB4                     
  4483                           ; BSR set to: 0
  4484                           ;application.c: 174:     ret = lcd_4bit_send_string_pos(&lcd_1, 3, 1,"Pedestrians be ");
  4485   001DB4  0EBD               	movlw	low _lcd_1
  4486   001DB6  0101               	movlb	1	; () banked
  4487   001DB8  6F00               	movwf	lcd_4bit_send_string_pos@lcd& (0+255),b
  4488   001DBA  0E00               	movlw	high _lcd_1
  4489   001DBC  6F01               	movwf	(lcd_4bit_send_string_pos@lcd+1)& (0+255),b
  4490   001DBE  0E03               	movlw	3
  4491   001DC0  6F02               	movwf	lcd_4bit_send_string_pos@row& (0+255),b
  4492   001DC2  0E01               	movlw	1
  4493   001DC4  6F03               	movwf	lcd_4bit_send_string_pos@column& (0+255),b
  4494   001DC6  0E61               	movlw	low STR_10
  4495   001DC8  6F04               	movwf	lcd_4bit_send_string_pos@str& (0+255),b
  4496   001DCA  0E10               	movlw	high STR_10
  4497   001DCC  6F05               	movwf	(lcd_4bit_send_string_pos@str+1)& (0+255),b
  4498   001DCE  ECA7  F011         	call	_lcd_4bit_send_string_pos	;wreg free
  4499   001DD2  0100               	movlb	0	; () banked
  4500   001DD4  6FFE               	movwf	_ret& (0+255),b
  4501   001DD6                     
  4502                           ; BSR set to: 0
  4503                           ;application.c: 175:     ret = lcd_4bit_send_string_pos(&lcd_1, 4, 1,"Ready to STOP!!");
  4504   001DD6  0EBD               	movlw	low _lcd_1
  4505   001DD8  0101               	movlb	1	; () banked
  4506   001DDA  6F00               	movwf	lcd_4bit_send_string_pos@lcd& (0+255),b
  4507   001DDC  0E00               	movlw	high _lcd_1
  4508   001DDE  6F01               	movwf	(lcd_4bit_send_string_pos@lcd+1)& (0+255),b
  4509   001DE0  0E04               	movlw	4
  4510   001DE2  6F02               	movwf	lcd_4bit_send_string_pos@row& (0+255),b
  4511   001DE4  0E01               	movlw	1
  4512   001DE6  6F03               	movwf	lcd_4bit_send_string_pos@column& (0+255),b
  4513   001DE8  0E71               	movlw	low STR_7
  4514   001DEA  6F04               	movwf	lcd_4bit_send_string_pos@str& (0+255),b
  4515   001DEC  0E10               	movlw	high STR_7
  4516   001DEE  6F05               	movwf	(lcd_4bit_send_string_pos@str+1)& (0+255),b
  4517   001DF0  ECA7  F011         	call	_lcd_4bit_send_string_pos	;wreg free
  4518   001DF4  0100               	movlb	0	; () banked
  4519   001DF6  6FFE               	movwf	_ret& (0+255),b
  4520   001DF8                     
  4521                           ; BSR set to: 0
  4522                           ;application.c: 176:     return CARS_READY_TO_MOVE_PEDESTRIANS_STOP_STATE;
  4523   001DF8  0E02               	movlw	2
  4524   001DFA                     
  4525                           ; BSR set to: 0
  4526   001DFA  0012               	return		;funcret
  4527   001DFC                     __end_of_TimeOfPedestriansMoveFinishedHandler:
  4528                           	callstack 0
  4529                           
  4530 ;; *************** function _TimeOfCarsMoveFinishedHandler *****************
  4531 ;; Defined at:
  4532 ;;		line 157 in file "application.c"
  4533 ;; Parameters:    Size  Location     Type
  4534 ;;		None
  4535 ;; Auto vars:     Size  Location     Type
  4536 ;;		None
  4537 ;; Return value:  Size  Location     Type
  4538 ;;                  1    wreg      enum E4069
  4539 ;; Registers used:
  4540 ;;		wreg, fsr2l, fsr2h, status,2, status,0, tblptrl, tblptrh, tblptru, prodl, prodh, cstack
  4541 ;; Tracked objects:
  4542 ;;		On entry : 0/0
  4543 ;;		On exit  : 0/0
  4544 ;;		Unchanged: 0/0
  4545 ;; Data sizes:     COMRAM   BANK0   BANK1   BANK2   BANK3   BANK4   BANK5   BANK6   BANK7   BANK8   BANK9  BANK10  BANK1
      +1  BANK12  BANK13  BANK14  BANK15
  4546 ;;      Params:         0       0       0       0       0       0       0       0       0       0       0       0       
      +0       0       0       0       0
  4547 ;;      Locals:         0       0       0       0       0       0       0       0       0       0       0       0       
      +0       0       0       0       0
  4548 ;;      Temps:          0       0       0       0       0       0       0       0       0       0       0       0       
      +0       0       0       0       0
  4549 ;;      Totals:         0       0       0       0       0       0       0       0       0       0       0       0       
      +0       0       0       0       0
  4550 ;;Total ram usage:        0 bytes
  4551 ;; Hardware stack levels used: 1
  4552 ;; Hardware stack levels required when called: 12
  4553 ;; This function calls:
  4554 ;;		_lcd_4bit_send_string_pos
  4555 ;;		_led_turn_off
  4556 ;;		_led_turn_toggle
  4557 ;; This function is called by:
  4558 ;;		_main
  4559 ;; This function uses a non-reentrant model
  4560 ;;
  4561                           
  4562                           	psect	text26
  4563   001DFC                     __ptext26:
  4564                           	callstack 0
  4565   001DFC                     _TimeOfCarsMoveFinishedHandler:
  4566                           	callstack 18
  4567   001DFC                     
  4568                           ;application.c: 158:     ret = led_turn_toggle(&ready_yellow);
  4569   001DFC  0E5C               	movlw	low _ready_yellow
  4570   001DFE  6E4F               	movwf	led_turn_toggle@led^0,c
  4571   001E00  0E00               	movlw	high _ready_yellow
  4572   001E02  6E50               	movwf	(led_turn_toggle@led+1)^0,c
  4573   001E04  ECEF  F016         	call	_led_turn_toggle	;wreg free
  4574   001E08  0100               	movlb	0	; () banked
  4575   001E0A  6FFE               	movwf	_ret& (0+255),b
  4576                           
  4577                           ;application.c: 159:     ret = led_turn_off(&led_green_car);
  4578   001E0C  0E5F               	movlw	low _led_green_car
  4579   001E0E  6FEB               	movwf	led_turn_off@led& (0+255),b
  4580   001E10  0E00               	movlw	high _led_green_car
  4581   001E12  6FEC               	movwf	(led_turn_off@led+1)& (0+255),b
  4582   001E14  EC6C  F016         	call	_led_turn_off	;wreg free
  4583   001E18  0100               	movlb	0	; () banked
  4584   001E1A  6FFE               	movwf	_ret& (0+255),b
  4585                           
  4586                           ;application.c: 160:     ret = led_turn_off(&led_red_people);
  4587   001E1C  0E5E               	movlw	low _led_red_people
  4588   001E1E  6FEB               	movwf	led_turn_off@led& (0+255),b
  4589   001E20  0E00               	movlw	high _led_red_people
  4590   001E22  6FEC               	movwf	(led_turn_off@led+1)& (0+255),b
  4591   001E24  EC6C  F016         	call	_led_turn_off	;wreg free
  4592   001E28  0100               	movlb	0	; () banked
  4593   001E2A  6FFE               	movwf	_ret& (0+255),b
  4594   001E2C                     
  4595                           ; BSR set to: 0
  4596                           ;application.c: 161:     ret = lcd_4bit_send_string_pos(&lcd_1, 1, 1,"Pedestrians be Rea
      +                          dy ");
  4597   001E2C  0EBD               	movlw	low _lcd_1
  4598   001E2E  0101               	movlb	1	; () banked
  4599   001E30  6F00               	movwf	lcd_4bit_send_string_pos@lcd& (0+255),b
  4600   001E32  0E00               	movlw	high _lcd_1
  4601   001E34  6F01               	movwf	(lcd_4bit_send_string_pos@lcd+1)& (0+255),b
  4602   001E36  0E01               	movlw	1
  4603   001E38  6F02               	movwf	lcd_4bit_send_string_pos@row& (0+255),b
  4604   001E3A  0E01               	movlw	1
  4605   001E3C  6F03               	movwf	lcd_4bit_send_string_pos@column& (0+255),b
  4606   001E3E  0E11               	movlw	low STR_4
  4607   001E40  6F04               	movwf	lcd_4bit_send_string_pos@str& (0+255),b
  4608   001E42  0E10               	movlw	high STR_4
  4609   001E44  6F05               	movwf	(lcd_4bit_send_string_pos@str+1)& (0+255),b
  4610   001E46  ECA7  F011         	call	_lcd_4bit_send_string_pos	;wreg free
  4611   001E4A  0100               	movlb	0	; () banked
  4612   001E4C  6FFE               	movwf	_ret& (0+255),b
  4613   001E4E                     
  4614                           ; BSR set to: 0
  4615                           ;application.c: 162:     ret = lcd_4bit_send_string_pos(&lcd_1, 2, 1,"To MOVE =>=>");
  4616   001E4E  0EBD               	movlw	low _lcd_1
  4617   001E50  0101               	movlb	1	; () banked
  4618   001E52  6F00               	movwf	lcd_4bit_send_string_pos@lcd& (0+255),b
  4619   001E54  0E00               	movlw	high _lcd_1
  4620   001E56  6F01               	movwf	(lcd_4bit_send_string_pos@lcd+1)& (0+255),b
  4621   001E58  0E02               	movlw	2
  4622   001E5A  6F02               	movwf	lcd_4bit_send_string_pos@row& (0+255),b
  4623   001E5C  0E01               	movlw	1
  4624   001E5E  6F03               	movwf	lcd_4bit_send_string_pos@column& (0+255),b
  4625   001E60  0EAC               	movlw	low STR_5
  4626   001E62  6F04               	movwf	lcd_4bit_send_string_pos@str& (0+255),b
  4627   001E64  0E10               	movlw	high STR_5
  4628   001E66  6F05               	movwf	(lcd_4bit_send_string_pos@str+1)& (0+255),b
  4629   001E68  ECA7  F011         	call	_lcd_4bit_send_string_pos	;wreg free
  4630   001E6C  0100               	movlb	0	; () banked
  4631   001E6E  6FFE               	movwf	_ret& (0+255),b
  4632   001E70                     
  4633                           ; BSR set to: 0
  4634                           ;application.c: 163:     ret = lcd_4bit_send_string_pos(&lcd_1, 3, 1,"Cars be ");
  4635   001E70  0EBD               	movlw	low _lcd_1
  4636   001E72  0101               	movlb	1	; () banked
  4637   001E74  6F00               	movwf	lcd_4bit_send_string_pos@lcd& (0+255),b
  4638   001E76  0E00               	movlw	high _lcd_1
  4639   001E78  6F01               	movwf	(lcd_4bit_send_string_pos@lcd+1)& (0+255),b
  4640   001E7A  0E03               	movlw	3
  4641   001E7C  6F02               	movwf	lcd_4bit_send_string_pos@row& (0+255),b
  4642   001E7E  0E01               	movlw	1
  4643   001E80  6F03               	movwf	lcd_4bit_send_string_pos@column& (0+255),b
  4644   001E82  0EB9               	movlw	low STR_6
  4645   001E84  6F04               	movwf	lcd_4bit_send_string_pos@str& (0+255),b
  4646   001E86  0E10               	movlw	high STR_6
  4647   001E88  6F05               	movwf	(lcd_4bit_send_string_pos@str+1)& (0+255),b
  4648   001E8A  ECA7  F011         	call	_lcd_4bit_send_string_pos	;wreg free
  4649   001E8E  0100               	movlb	0	; () banked
  4650   001E90  6FFE               	movwf	_ret& (0+255),b
  4651   001E92                     
  4652                           ; BSR set to: 0
  4653                           ;application.c: 164:     ret = lcd_4bit_send_string_pos(&lcd_1, 4, 1,"Ready to STOP!!");
  4654   001E92  0EBD               	movlw	low _lcd_1
  4655   001E94  0101               	movlb	1	; () banked
  4656   001E96  6F00               	movwf	lcd_4bit_send_string_pos@lcd& (0+255),b
  4657   001E98  0E00               	movlw	high _lcd_1
  4658   001E9A  6F01               	movwf	(lcd_4bit_send_string_pos@lcd+1)& (0+255),b
  4659   001E9C  0E04               	movlw	4
  4660   001E9E  6F02               	movwf	lcd_4bit_send_string_pos@row& (0+255),b
  4661   001EA0  0E01               	movlw	1
  4662   001EA2  6F03               	movwf	lcd_4bit_send_string_pos@column& (0+255),b
  4663   001EA4  0E71               	movlw	low STR_7
  4664   001EA6  6F04               	movwf	lcd_4bit_send_string_pos@str& (0+255),b
  4665   001EA8  0E10               	movlw	high STR_7
  4666   001EAA  6F05               	movwf	(lcd_4bit_send_string_pos@str+1)& (0+255),b
  4667   001EAC  ECA7  F011         	call	_lcd_4bit_send_string_pos	;wreg free
  4668   001EB0  0100               	movlb	0	; () banked
  4669   001EB2  6FFE               	movwf	_ret& (0+255),b
  4670   001EB4                     
  4671                           ; BSR set to: 0
  4672                           ;application.c: 165:     return PEDESTRIANS_READY_TO_MOVE_CARS_STOP_STATE;
  4673   001EB4  0E03               	movlw	3
  4674   001EB6                     
  4675                           ; BSR set to: 0
  4676   001EB6  0012               	return		;funcret
  4677   001EB8                     __end_of_TimeOfCarsMoveFinishedHandler:
  4678                           	callstack 0
  4679                           
  4680 ;; *************** function _led_turn_toggle *****************
  4681 ;; Defined at:
  4682 ;;		line 73 in file "ECU_Layer/LED/ecu_led.c"
  4683 ;; Parameters:    Size  Location     Type
  4684 ;;  led             2   32[COMRAM] PTR const struct .
  4685 ;;		 -> ready_yellow(1), 
  4686 ;; Auto vars:     Size  Location     Type
  4687 ;;  ret             1    5[BANK0 ] unsigned char 
  4688 ;; Return value:  Size  Location     Type
  4689 ;;                  1    wreg      unsigned char 
  4690 ;; Registers used:
  4691 ;;		wreg, fsr2l, fsr2h, status,2, status,0, prodl, prodh, cstack
  4692 ;; Tracked objects:
  4693 ;;		On entry : 0/0
  4694 ;;		On exit  : 0/0
  4695 ;;		Unchanged: 0/0
  4696 ;; Data sizes:     COMRAM   BANK0   BANK1   BANK2   BANK3   BANK4   BANK5   BANK6   BANK7   BANK8   BANK9  BANK10  BANK1
      +1  BANK12  BANK13  BANK14  BANK15
  4697 ;;      Params:         2       0       0       0       0       0       0       0       0       0       0       0       
      +0       0       0       0       0
  4698 ;;      Locals:         0       1       0       0       0       0       0       0       0       0       0       0       
      +0       0       0       0       0
  4699 ;;      Temps:          0       0       0       0       0       0       0       0       0       0       0       0       
      +0       0       0       0       0
  4700 ;;      Totals:         2       1       0       0       0       0       0       0       0       0       0       0       
      +0       0       0       0       0
  4701 ;;Total ram usage:        3 bytes
  4702 ;; Hardware stack levels used: 1
  4703 ;; Hardware stack levels required when called: 8
  4704 ;; This function calls:
  4705 ;;		_gpio_pin_toggle_logic
  4706 ;; This function is called by:
  4707 ;;		_TimeOfCarsMoveFinishedHandler
  4708 ;;		_TimeOfPedestriansMoveFinishedHandler
  4709 ;; This function uses a non-reentrant model
  4710 ;;
  4711                           
  4712                           	psect	text27
  4713   002DDE                     __ptext27:
  4714                           	callstack 0
  4715   002DDE                     _led_turn_toggle:
  4716                           	callstack 21
  4717   002DDE                     
  4718                           ;ECU_Layer/LED/ecu_led.c: 74:     Std_ReturnType ret = (Std_ReturnType)0x01;
  4719   002DDE  0E01               	movlw	1
  4720   002DE0  0100               	movlb	0	; () banked
  4721   002DE2  6FEA               	movwf	led_turn_toggle@ret& (0+255),b
  4722   002DE4                     
  4723                           ; BSR set to: 0
  4724                           ;ECU_Layer/LED/ecu_led.c: 75:      if(((void*)0) == led){
  4725   002DE4  504F               	movf	led_turn_toggle@led^0,w,c
  4726   002DE6  1050               	iorwf	(led_turn_toggle@led+1)^0,w,c
  4727   002DE8  A4D8               	btfss	status,2,c
  4728   002DEA  EFF9  F016         	goto	u6841
  4729   002DEE  EFFB  F016         	goto	u6840
  4730   002DF2                     u6841:
  4731   002DF2  EFFF  F016         	goto	l8375
  4732   002DF6                     u6840:
  4733   002DF6                     
  4734                           ; BSR set to: 0
  4735                           ;ECU_Layer/LED/ecu_led.c: 76:          ret = (Std_ReturnType)0x00;
  4736   002DF6  0E00               	movlw	0
  4737   002DF8  6FEA               	movwf	led_turn_toggle@ret& (0+255),b
  4738                           
  4739                           ;ECU_Layer/LED/ecu_led.c: 77:      }
  4740   002DFA  EF05  F017         	goto	l8377
  4741   002DFE                     l8375:
  4742                           
  4743                           ; BSR set to: 0
  4744                           ;ECU_Layer/LED/ecu_led.c: 79:          gpio_pin_toggle_logic((&led->_led));
  4745   002DFE  C04F  F04D         	movff	led_turn_toggle@led,gpio_pin_toggle_logic@_pin_config
  4746   002E02  C050  F04E         	movff	led_turn_toggle@led+1,gpio_pin_toggle_logic@_pin_config+1
  4747   002E06  EC5C  F011         	call	_gpio_pin_toggle_logic	;wreg free
  4748   002E0A                     l8377:
  4749                           
  4750                           ;ECU_Layer/LED/ecu_led.c: 81:     return ret;
  4751   002E0A  0100               	movlb	0	; () banked
  4752   002E0C  51EA               	movf	led_turn_toggle@ret& (0+255),w,b
  4753   002E0E                     
  4754                           ; BSR set to: 0
  4755   002E0E  0012               	return		;funcret
  4756   002E10                     __end_of_led_turn_toggle:
  4757                           	callstack 0
  4758                           
  4759 ;; *************** function _gpio_pin_toggle_logic *****************
  4760 ;; Defined at:
  4761 ;;		line 124 in file "MCAL_Layer/GPIO/hal_gpio.c"
  4762 ;; Parameters:    Size  Location     Type
  4763 ;;  _pin_config     2   30[COMRAM] PTR const struct .
  4764 ;;		 -> ready_yellow(1), 
  4765 ;; Auto vars:     Size  Location     Type
  4766 ;;  ret             1    0        unsigned char 
  4767 ;; Return value:  Size  Location     Type
  4768 ;;                  1    wreg      unsigned char 
  4769 ;; Registers used:
  4770 ;;		wreg, fsr2l, fsr2h, status,2, status,0, prodl, prodh
  4771 ;; Tracked objects:
  4772 ;;		On entry : 0/0
  4773 ;;		On exit  : 0/0
  4774 ;;		Unchanged: 0/0
  4775 ;; Data sizes:     COMRAM   BANK0   BANK1   BANK2   BANK3   BANK4   BANK5   BANK6   BANK7   BANK8   BANK9  BANK10  BANK1
      +1  BANK12  BANK13  BANK14  BANK15
  4776 ;;      Params:         2       0       0       0       0       0       0       0       0       0       0       0       
      +0       0       0       0       0
  4777 ;;      Locals:         0       0       0       0       0       0       0       0       0       0       0       0       
      +0       0       0       0       0
  4778 ;;      Temps:          0       5       0       0       0       0       0       0       0       0       0       0       
      +0       0       0       0       0
  4779 ;;      Totals:         2       5       0       0       0       0       0       0       0       0       0       0       
      +0       0       0       0       0
  4780 ;;Total ram usage:        7 bytes
  4781 ;; Hardware stack levels used: 1
  4782 ;; Hardware stack levels required when called: 7
  4783 ;; This function calls:
  4784 ;;		Nothing
  4785 ;; This function is called by:
  4786 ;;		_led_turn_toggle
  4787 ;; This function uses a non-reentrant model
  4788 ;;
  4789                           
  4790                           	psect	text28
  4791   0022B8                     __ptext28:
  4792                           	callstack 0
  4793   0022B8                     _gpio_pin_toggle_logic:
  4794                           	callstack 21
  4795   0022B8                     
  4796                           ;MCAL_Layer/GPIO/hal_gpio.c: 126:     if(((void*)0) == _pin_config || _pin_config->pin >
      +                           8 -1){
  4797   0022B8  504D               	movf	gpio_pin_toggle_logic@_pin_config^0,w,c
  4798   0022BA  104E               	iorwf	(gpio_pin_toggle_logic@_pin_config+1)^0,w,c
  4799   0022BC  B4D8               	btfsc	status,2,c
  4800   0022BE  EF63  F011         	goto	u6621
  4801   0022C2  EF65  F011         	goto	u6620
  4802   0022C6                     u6621:
  4803   0022C6  EF77  F011         	goto	l8125
  4804   0022CA                     u6620:
  4805   0022CA  C04D  FFD9         	movff	gpio_pin_toggle_logic@_pin_config,fsr2l
  4806   0022CE  C04E  FFDA         	movff	gpio_pin_toggle_logic@_pin_config+1,fsr2h
  4807   0022D2  30DF               	rrcf	223,w,c
  4808   0022D4  32E8               	rrcf	wreg,f,c
  4809   0022D6  32E8               	rrcf	wreg,f,c
  4810   0022D8  0B07               	andlw	7
  4811   0022DA  0100               	movlb	0	; () banked
  4812   0022DC  6FE5               	movwf	??_gpio_pin_toggle_logic& (0+255),b
  4813   0022DE  0E07               	movlw	7
  4814   0022E0  65E5               	cpfsgt	??_gpio_pin_toggle_logic& (0+255),b
  4815   0022E2  EF75  F011         	goto	u6631
  4816   0022E6  EF77  F011         	goto	u6630
  4817   0022EA                     u6631:
  4818   0022EA  EF79  F011         	goto	l8127
  4819   0022EE                     u6630:
  4820   0022EE                     l8125:
  4821                           
  4822                           ;MCAL_Layer/GPIO/hal_gpio.c: 128:     }
  4823   0022EE  EFA6  F011         	goto	l731
  4824   0022F2                     l8127:
  4825                           
  4826                           ; BSR set to: 0
  4827                           ;MCAL_Layer/GPIO/hal_gpio.c: 130:         (*lat_registers[_pin_config->port] ^= ((uint8)
      +                          1 << _pin_config->pin));
  4828   0022F2  C04D  FFD9         	movff	gpio_pin_toggle_logic@_pin_config,fsr2l
  4829   0022F6  C04E  FFDA         	movff	gpio_pin_toggle_logic@_pin_config+1,fsr2h
  4830   0022FA  30DF               	rrcf	223,w,c
  4831   0022FC  32E8               	rrcf	wreg,f,c
  4832   0022FE  32E8               	rrcf	wreg,f,c
  4833   002300  0B07               	andlw	7
  4834   002302  6FE5               	movwf	??_gpio_pin_toggle_logic& (0+255),b
  4835   002304  0E01               	movlw	1
  4836   002306  6FE6               	movwf	(??_gpio_pin_toggle_logic+1)& (0+255),b
  4837   002308  2BE5               	incf	??_gpio_pin_toggle_logic& (0+255),f,b
  4838   00230A  EF89  F011         	goto	u6644
  4839   00230E                     u6645:
  4840   00230E  90D8               	bcf	status,0,c
  4841   002310  37E6               	rlcf	(??_gpio_pin_toggle_logic+1)& (0+255),f,b
  4842   002312                     u6644:
  4843   002312  2FE5               	decfsz	??_gpio_pin_toggle_logic& (0+255),f,b
  4844   002314  EF87  F011         	goto	u6645
  4845   002318  C04D  FFD9         	movff	gpio_pin_toggle_logic@_pin_config,fsr2l
  4846   00231C  C04E  FFDA         	movff	gpio_pin_toggle_logic@_pin_config+1,fsr2h
  4847   002320  50DF               	movf	223,w,c
  4848   002322  0B07               	andlw	7
  4849   002324  0100               	movlb	0	; () banked
  4850   002326  6FE7               	movwf	(??_gpio_pin_toggle_logic+2)& (0+255),b
  4851   002328  51E7               	movf	(??_gpio_pin_toggle_logic+2)& (0+255),w,b
  4852   00232A  0D02               	mullw	2
  4853   00232C  0E8A               	movlw	low _lat_registers
  4854   00232E  24F3               	addwf	243,w,c
  4855   002330  6ED9               	movwf	fsr2l,c
  4856   002332  0E00               	movlw	high _lat_registers
  4857   002334  20F4               	addwfc	prodh,w,c
  4858   002336  6EDA               	movwf	fsr2h,c
  4859   002338  CFDE F0E8          	movff	postinc2,??_gpio_pin_toggle_logic+3
  4860   00233C  CFDD F0E9          	movff	postdec2,??_gpio_pin_toggle_logic+4
  4861   002340  C0E8  FFD9         	movff	??_gpio_pin_toggle_logic+3,fsr2l
  4862   002344  C0E9  FFDA         	movff	??_gpio_pin_toggle_logic+4,fsr2h
  4863   002348  51E6               	movf	(??_gpio_pin_toggle_logic+1)& (0+255),w,b
  4864   00234A  1ADF               	xorwf	indf2,f,c
  4865   00234C                     l731:
  4866   00234C  0012               	return		;funcret
  4867   00234E                     __end_of_gpio_pin_toggle_logic:
  4868                           	callstack 0
  4869                           
  4870 ;; *************** function _ReadyTimeOfPedestriansToMoveFinishedHandler *****************
  4871 ;; Defined at:
  4872 ;;		line 186 in file "application.c"
  4873 ;; Parameters:    Size  Location     Type
  4874 ;;		None
  4875 ;; Auto vars:     Size  Location     Type
  4876 ;;		None
  4877 ;; Return value:  Size  Location     Type
  4878 ;;                  1    wreg      enum E4069
  4879 ;; Registers used:
  4880 ;;		wreg, fsr2l, fsr2h, status,2, status,0, tblptrl, tblptrh, tblptru, prodl, prodh, cstack
  4881 ;; Tracked objects:
  4882 ;;		On entry : 0/0
  4883 ;;		On exit  : 0/0
  4884 ;;		Unchanged: 0/0
  4885 ;; Data sizes:     COMRAM   BANK0   BANK1   BANK2   BANK3   BANK4   BANK5   BANK6   BANK7   BANK8   BANK9  BANK10  BANK1
      +1  BANK12  BANK13  BANK14  BANK15
  4886 ;;      Params:         0       0       0       0       0       0       0       0       0       0       0       0       
      +0       0       0       0       0
  4887 ;;      Locals:         0       0       0       0       0       0       0       0       0       0       0       0       
      +0       0       0       0       0
  4888 ;;      Temps:          0       0       0       0       0       0       0       0       0       0       0       0       
      +0       0       0       0       0
  4889 ;;      Totals:         0       0       0       0       0       0       0       0       0       0       0       0       
      +0       0       0       0       0
  4890 ;;Total ram usage:        0 bytes
  4891 ;; Hardware stack levels used: 1
  4892 ;; Hardware stack levels required when called: 12
  4893 ;; This function calls:
  4894 ;;		_lcd_4bit_send_string_pos
  4895 ;;		_led_turn_off
  4896 ;;		_led_turn_on
  4897 ;; This function is called by:
  4898 ;;		_main
  4899 ;; This function uses a non-reentrant model
  4900 ;;
  4901                           
  4902                           	psect	text29
  4903   00264E                     __ptext29:
  4904                           	callstack 0
  4905   00264E                     _ReadyTimeOfPedestriansToMoveFinishedHandler:
  4906                           	callstack 18
  4907   00264E                     
  4908                           ;application.c: 187:     ret = led_turn_on(&led_green_people);
  4909   00264E  0E5D               	movlw	low _led_green_people
  4910   002650  0100               	movlb	0	; () banked
  4911   002652  6FEB               	movwf	led_turn_on@led& (0+255),b
  4912   002654  0E00               	movlw	high _led_green_people
  4913   002656  6FEC               	movwf	(led_turn_on@led+1)& (0+255),b
  4914   002658  EC51  F016         	call	_led_turn_on	;wreg free
  4915   00265C  0100               	movlb	0	; () banked
  4916   00265E  6FFE               	movwf	_ret& (0+255),b
  4917                           
  4918                           ;application.c: 188:     ret = led_turn_on(&led_red_car);
  4919   002660  0E2E               	movlw	low _led_red_car
  4920   002662  6FEB               	movwf	led_turn_on@led& (0+255),b
  4921   002664  0E00               	movlw	high _led_red_car
  4922   002666  6FEC               	movwf	(led_turn_on@led+1)& (0+255),b
  4923   002668  EC51  F016         	call	_led_turn_on	;wreg free
  4924   00266C  0100               	movlb	0	; () banked
  4925   00266E  6FFE               	movwf	_ret& (0+255),b
  4926                           
  4927                           ;application.c: 189:     ret = led_turn_off(&ready_yellow);
  4928   002670  0E5C               	movlw	low _ready_yellow
  4929   002672  6FEB               	movwf	led_turn_off@led& (0+255),b
  4930   002674  0E00               	movlw	high _ready_yellow
  4931   002676  6FEC               	movwf	(led_turn_off@led+1)& (0+255),b
  4932   002678  EC6C  F016         	call	_led_turn_off	;wreg free
  4933   00267C  0100               	movlb	0	; () banked
  4934   00267E  6FFE               	movwf	_ret& (0+255),b
  4935   002680                     
  4936                           ; BSR set to: 0
  4937                           ;application.c: 190:     ret = lcd_4bit_send_string_pos(&lcd_1, 2, 1,"Pedestrian MOVE =>
      +                          =>");
  4938   002680  0EBD               	movlw	low _lcd_1
  4939   002682  0101               	movlb	1	; () banked
  4940   002684  6F00               	movwf	lcd_4bit_send_string_pos@lcd& (0+255),b
  4941   002686  0E00               	movlw	high _lcd_1
  4942   002688  6F01               	movwf	(lcd_4bit_send_string_pos@lcd+1)& (0+255),b
  4943   00268A  0E02               	movlw	2
  4944   00268C  6F02               	movwf	lcd_4bit_send_string_pos@row& (0+255),b
  4945   00268E  0E01               	movlw	1
  4946   002690  6F03               	movwf	lcd_4bit_send_string_pos@column& (0+255),b
  4947   002692  0E27               	movlw	low STR_14
  4948   002694  6F04               	movwf	lcd_4bit_send_string_pos@str& (0+255),b
  4949   002696  0E10               	movlw	high STR_14
  4950   002698  6F05               	movwf	(lcd_4bit_send_string_pos@str+1)& (0+255),b
  4951   00269A  ECA7  F011         	call	_lcd_4bit_send_string_pos	;wreg free
  4952   00269E  0100               	movlb	0	; () banked
  4953   0026A0  6FFE               	movwf	_ret& (0+255),b
  4954   0026A2                     
  4955                           ; BSR set to: 0
  4956                           ;application.c: 191:     ret = lcd_4bit_send_string_pos(&lcd_1, 3, 1,"Cars STOP!! ");
  4957   0026A2  0EBD               	movlw	low _lcd_1
  4958   0026A4  0101               	movlb	1	; () banked
  4959   0026A6  6F00               	movwf	lcd_4bit_send_string_pos@lcd& (0+255),b
  4960   0026A8  0E00               	movlw	high _lcd_1
  4961   0026AA  6F01               	movwf	(lcd_4bit_send_string_pos@lcd+1)& (0+255),b
  4962   0026AC  0E03               	movlw	3
  4963   0026AE  6F02               	movwf	lcd_4bit_send_string_pos@row& (0+255),b
  4964   0026B0  0E01               	movlw	1
  4965   0026B2  6F03               	movwf	lcd_4bit_send_string_pos@column& (0+255),b
  4966   0026B4  0E9F               	movlw	low STR_15
  4967   0026B6  6F04               	movwf	lcd_4bit_send_string_pos@str& (0+255),b
  4968   0026B8  0E10               	movlw	high STR_15
  4969   0026BA  6F05               	movwf	(lcd_4bit_send_string_pos@str+1)& (0+255),b
  4970   0026BC  ECA7  F011         	call	_lcd_4bit_send_string_pos	;wreg free
  4971   0026C0  0100               	movlb	0	; () banked
  4972   0026C2  6FFE               	movwf	_ret& (0+255),b
  4973   0026C4                     
  4974                           ; BSR set to: 0
  4975                           ;application.c: 192:     return PEDESTRIAN_MOVE_CARS_WAIT_STATE;
  4976   0026C4  0E01               	movlw	1
  4977   0026C6                     
  4978                           ; BSR set to: 0
  4979   0026C6  0012               	return		;funcret
  4980   0026C8                     __end_of_ReadyTimeOfPedestriansToMoveFinishedHandler:
  4981                           	callstack 0
  4982                           
  4983 ;; *************** function _ReadyTimeOfCarsToMoveFinishedHandler *****************
  4984 ;; Defined at:
  4985 ;;		line 178 in file "application.c"
  4986 ;; Parameters:    Size  Location     Type
  4987 ;;		None
  4988 ;; Auto vars:     Size  Location     Type
  4989 ;;		None
  4990 ;; Return value:  Size  Location     Type
  4991 ;;                  1    wreg      enum E4069
  4992 ;; Registers used:
  4993 ;;		wreg, fsr2l, fsr2h, status,2, status,0, tblptrl, tblptrh, tblptru, prodl, prodh, cstack
  4994 ;; Tracked objects:
  4995 ;;		On entry : 0/0
  4996 ;;		On exit  : 0/0
  4997 ;;		Unchanged: 0/0
  4998 ;; Data sizes:     COMRAM   BANK0   BANK1   BANK2   BANK3   BANK4   BANK5   BANK6   BANK7   BANK8   BANK9  BANK10  BANK1
      +1  BANK12  BANK13  BANK14  BANK15
  4999 ;;      Params:         0       0       0       0       0       0       0       0       0       0       0       0       
      +0       0       0       0       0
  5000 ;;      Locals:         0       0       0       0       0       0       0       0       0       0       0       0       
      +0       0       0       0       0
  5001 ;;      Temps:          0       0       0       0       0       0       0       0       0       0       0       0       
      +0       0       0       0       0
  5002 ;;      Totals:         0       0       0       0       0       0       0       0       0       0       0       0       
      +0       0       0       0       0
  5003 ;;Total ram usage:        0 bytes
  5004 ;; Hardware stack levels used: 1
  5005 ;; Hardware stack levels required when called: 12
  5006 ;; This function calls:
  5007 ;;		_lcd_4bit_send_string_pos
  5008 ;;		_led_turn_off
  5009 ;;		_led_turn_on
  5010 ;; This function is called by:
  5011 ;;		_main
  5012 ;; This function uses a non-reentrant model
  5013 ;;
  5014                           
  5015                           	psect	text30
  5016   0026C8                     __ptext30:
  5017                           	callstack 0
  5018   0026C8                     _ReadyTimeOfCarsToMoveFinishedHandler:
  5019                           	callstack 18
  5020   0026C8                     
  5021                           ;application.c: 179:     ret = led_turn_on(&led_green_car);
  5022   0026C8  0E5F               	movlw	low _led_green_car
  5023   0026CA  0100               	movlb	0	; () banked
  5024   0026CC  6FEB               	movwf	led_turn_on@led& (0+255),b
  5025   0026CE  0E00               	movlw	high _led_green_car
  5026   0026D0  6FEC               	movwf	(led_turn_on@led+1)& (0+255),b
  5027   0026D2  EC51  F016         	call	_led_turn_on	;wreg free
  5028   0026D6  0100               	movlb	0	; () banked
  5029   0026D8  6FFE               	movwf	_ret& (0+255),b
  5030                           
  5031                           ;application.c: 180:     ret = led_turn_on(&led_red_people);
  5032   0026DA  0E5E               	movlw	low _led_red_people
  5033   0026DC  6FEB               	movwf	led_turn_on@led& (0+255),b
  5034   0026DE  0E00               	movlw	high _led_red_people
  5035   0026E0  6FEC               	movwf	(led_turn_on@led+1)& (0+255),b
  5036   0026E2  EC51  F016         	call	_led_turn_on	;wreg free
  5037   0026E6  0100               	movlb	0	; () banked
  5038   0026E8  6FFE               	movwf	_ret& (0+255),b
  5039                           
  5040                           ;application.c: 181:     ret = led_turn_off(&ready_yellow);
  5041   0026EA  0E5C               	movlw	low _ready_yellow
  5042   0026EC  6FEB               	movwf	led_turn_off@led& (0+255),b
  5043   0026EE  0E00               	movlw	high _ready_yellow
  5044   0026F0  6FEC               	movwf	(led_turn_off@led+1)& (0+255),b
  5045   0026F2  EC6C  F016         	call	_led_turn_off	;wreg free
  5046   0026F6  0100               	movlb	0	; () banked
  5047   0026F8  6FFE               	movwf	_ret& (0+255),b
  5048   0026FA                     
  5049                           ; BSR set to: 0
  5050                           ;application.c: 182:     ret = lcd_4bit_send_string_pos(&lcd_1, 2, 1,"Cars MOVE =>=>");
  5051   0026FA  0EBD               	movlw	low _lcd_1
  5052   0026FC  0101               	movlb	1	; () banked
  5053   0026FE  6F00               	movwf	lcd_4bit_send_string_pos@lcd& (0+255),b
  5054   002700  0E00               	movlw	high _lcd_1
  5055   002702  6F01               	movwf	(lcd_4bit_send_string_pos@lcd+1)& (0+255),b
  5056   002704  0E02               	movlw	2
  5057   002706  6F02               	movwf	lcd_4bit_send_string_pos@row& (0+255),b
  5058   002708  0E01               	movlw	1
  5059   00270A  6F03               	movwf	lcd_4bit_send_string_pos@column& (0+255),b
  5060   00270C  0E90               	movlw	low STR_12
  5061   00270E  6F04               	movwf	lcd_4bit_send_string_pos@str& (0+255),b
  5062   002710  0E10               	movlw	high STR_12
  5063   002712  6F05               	movwf	(lcd_4bit_send_string_pos@str+1)& (0+255),b
  5064   002714  ECA7  F011         	call	_lcd_4bit_send_string_pos	;wreg free
  5065   002718  0100               	movlb	0	; () banked
  5066   00271A  6FFE               	movwf	_ret& (0+255),b
  5067   00271C                     
  5068                           ; BSR set to: 0
  5069                           ;application.c: 183:     ret = lcd_4bit_send_string_pos(&lcd_1, 3, 1,"Pedestrians STOP!!
      +                           ");
  5070   00271C  0EBD               	movlw	low _lcd_1
  5071   00271E  0101               	movlb	1	; () banked
  5072   002720  6F00               	movwf	lcd_4bit_send_string_pos@lcd& (0+255),b
  5073   002722  0E00               	movlw	high _lcd_1
  5074   002724  6F01               	movwf	(lcd_4bit_send_string_pos@lcd+1)& (0+255),b
  5075   002726  0E03               	movlw	3
  5076   002728  6F02               	movwf	lcd_4bit_send_string_pos@row& (0+255),b
  5077   00272A  0E01               	movlw	1
  5078   00272C  6F03               	movwf	lcd_4bit_send_string_pos@column& (0+255),b
  5079   00272E  0E3C               	movlw	low STR_13
  5080   002730  6F04               	movwf	lcd_4bit_send_string_pos@str& (0+255),b
  5081   002732  0E10               	movlw	high STR_13
  5082   002734  6F05               	movwf	(lcd_4bit_send_string_pos@str+1)& (0+255),b
  5083   002736  ECA7  F011         	call	_lcd_4bit_send_string_pos	;wreg free
  5084   00273A  0100               	movlb	0	; () banked
  5085   00273C  6FFE               	movwf	_ret& (0+255),b
  5086   00273E                     
  5087                           ; BSR set to: 0
  5088                           ;application.c: 184:     return CARS_MOVE_PEDESTRIANS_WAIT_STATE;
  5089   00273E  0E00               	movlw	0
  5090   002740                     
  5091                           ; BSR set to: 0
  5092   002740  0012               	return		;funcret
  5093   002742                     __end_of_ReadyTimeOfCarsToMoveFinishedHandler:
  5094                           	callstack 0
  5095                           
  5096 ;; *************** function _led_turn_on *****************
  5097 ;; Defined at:
  5098 ;;		line 36 in file "ECU_Layer/LED/ecu_led.c"
  5099 ;; Parameters:    Size  Location     Type
  5100 ;;  led             2    6[BANK0 ] PTR const struct .
  5101 ;;		 -> led_green_people(1), led_red_people(1), led_green_car(1), led_red_car(1), 
  5102 ;; Auto vars:     Size  Location     Type
  5103 ;;  ret             1    8[BANK0 ] unsigned char 
  5104 ;; Return value:  Size  Location     Type
  5105 ;;                  1    wreg      unsigned char 
  5106 ;; Registers used:
  5107 ;;		wreg, fsr2l, fsr2h, status,2, status,0, prodl, prodh, cstack
  5108 ;; Tracked objects:
  5109 ;;		On entry : 0/0
  5110 ;;		On exit  : 0/0
  5111 ;;		Unchanged: 0/0
  5112 ;; Data sizes:     COMRAM   BANK0   BANK1   BANK2   BANK3   BANK4   BANK5   BANK6   BANK7   BANK8   BANK9  BANK10  BANK1
      +1  BANK12  BANK13  BANK14  BANK15
  5113 ;;      Params:         0       2       0       0       0       0       0       0       0       0       0       0       
      +0       0       0       0       0
  5114 ;;      Locals:         0       1       0       0       0       0       0       0       0       0       0       0       
      +0       0       0       0       0
  5115 ;;      Temps:          0       0       0       0       0       0       0       0       0       0       0       0       
      +0       0       0       0       0
  5116 ;;      Totals:         0       3       0       0       0       0       0       0       0       0       0       0       
      +0       0       0       0       0
  5117 ;;Total ram usage:        3 bytes
  5118 ;; Hardware stack levels used: 1
  5119 ;; Hardware stack levels required when called: 8
  5120 ;; This function calls:
  5121 ;;		_gpio_pin_write_logic
  5122 ;; This function is called by:
  5123 ;;		_ReadyTimeOfCarsToMoveFinishedHandler
  5124 ;;		_ReadyTimeOfPedestriansToMoveFinishedHandler
  5125 ;; This function uses a non-reentrant model
  5126 ;;
  5127                           
  5128                           	psect	text31
  5129   002CA2                     __ptext31:
  5130                           	callstack 0
  5131   002CA2                     _led_turn_on:
  5132                           	callstack 21
  5133   002CA2                     
  5134                           ;ECU_Layer/LED/ecu_led.c: 37:     Std_ReturnType ret = (Std_ReturnType)0x01;
  5135   002CA2  0E01               	movlw	1
  5136   002CA4  0100               	movlb	0	; () banked
  5137   002CA6  6FED               	movwf	led_turn_on@ret& (0+255),b
  5138   002CA8                     
  5139                           ; BSR set to: 0
  5140                           ;ECU_Layer/LED/ecu_led.c: 38:      if(((void*)0) == led){
  5141   002CA8  51EB               	movf	led_turn_on@led& (0+255),w,b
  5142   002CAA  11EC               	iorwf	(led_turn_on@led+1)& (0+255),w,b
  5143   002CAC  A4D8               	btfss	status,2,c
  5144   002CAE  EF5B  F016         	goto	u6821
  5145   002CB2  EF5D  F016         	goto	u6820
  5146   002CB6                     u6821:
  5147   002CB6  EF61  F016         	goto	l8351
  5148   002CBA                     u6820:
  5149   002CBA                     
  5150                           ; BSR set to: 0
  5151                           ;ECU_Layer/LED/ecu_led.c: 39:          ret = (Std_ReturnType)0x00;
  5152   002CBA  0E00               	movlw	0
  5153   002CBC  6FED               	movwf	led_turn_on@ret& (0+255),b
  5154                           
  5155                           ;ECU_Layer/LED/ecu_led.c: 40:      }
  5156   002CBE  EF69  F016         	goto	l8353
  5157   002CC2                     l8351:
  5158                           
  5159                           ; BSR set to: 0
  5160                           ;ECU_Layer/LED/ecu_led.c: 42:          gpio_pin_write_logic((&led->_led), GPIO_HIGH);
  5161   002CC2  C0EB  F04D         	movff	led_turn_on@led,gpio_pin_write_logic@_pin_config
  5162   002CC6  C0EC  F04E         	movff	led_turn_on@led+1,gpio_pin_write_logic@_pin_config+1
  5163   002CCA  0E01               	movlw	1
  5164   002CCC  6E4F               	movwf	gpio_pin_write_logic@logic^0,c
  5165   002CCE  ECEA  F00B         	call	_gpio_pin_write_logic	;wreg free
  5166   002CD2                     l8353:
  5167                           
  5168                           ;ECU_Layer/LED/ecu_led.c: 44:     return ret;
  5169   002CD2  0100               	movlb	0	; () banked
  5170   002CD4  51ED               	movf	led_turn_on@ret& (0+255),w,b
  5171   002CD6                     
  5172                           ; BSR set to: 0
  5173   002CD6  0012               	return		;funcret
  5174   002CD8                     __end_of_led_turn_on:
  5175                           	callstack 0
  5176                           
  5177 ;; *************** function _led_turn_off *****************
  5178 ;; Defined at:
  5179 ;;		line 54 in file "ECU_Layer/LED/ecu_led.c"
  5180 ;; Parameters:    Size  Location     Type
  5181 ;;  led             2    6[BANK0 ] PTR const struct .
  5182 ;;		 -> ready_yellow(1), led_green_people(1), led_red_people(1), led_green_car(1), 
  5183 ;;		 -> led_red_car(1), 
  5184 ;; Auto vars:     Size  Location     Type
  5185 ;;  ret             1    8[BANK0 ] unsigned char 
  5186 ;; Return value:  Size  Location     Type
  5187 ;;                  1    wreg      unsigned char 
  5188 ;; Registers used:
  5189 ;;		wreg, fsr2l, fsr2h, status,2, status,0, prodl, prodh, cstack
  5190 ;; Tracked objects:
  5191 ;;		On entry : 0/0
  5192 ;;		On exit  : 0/0
  5193 ;;		Unchanged: 0/0
  5194 ;; Data sizes:     COMRAM   BANK0   BANK1   BANK2   BANK3   BANK4   BANK5   BANK6   BANK7   BANK8   BANK9  BANK10  BANK1
      +1  BANK12  BANK13  BANK14  BANK15
  5195 ;;      Params:         0       2       0       0       0       0       0       0       0       0       0       0       
      +0       0       0       0       0
  5196 ;;      Locals:         0       1       0       0       0       0       0       0       0       0       0       0       
      +0       0       0       0       0
  5197 ;;      Temps:          0       0       0       0       0       0       0       0       0       0       0       0       
      +0       0       0       0       0
  5198 ;;      Totals:         0       3       0       0       0       0       0       0       0       0       0       0       
      +0       0       0       0       0
  5199 ;;Total ram usage:        3 bytes
  5200 ;; Hardware stack levels used: 1
  5201 ;; Hardware stack levels required when called: 8
  5202 ;; This function calls:
  5203 ;;		_gpio_pin_write_logic
  5204 ;; This function is called by:
  5205 ;;		_TimeOfCarsMoveFinishedHandler
  5206 ;;		_TimeOfPedestriansMoveFinishedHandler
  5207 ;;		_ReadyTimeOfCarsToMoveFinishedHandler
  5208 ;;		_ReadyTimeOfPedestriansToMoveFinishedHandler
  5209 ;; This function uses a non-reentrant model
  5210 ;;
  5211                           
  5212                           	psect	text32
  5213   002CD8                     __ptext32:
  5214                           	callstack 0
  5215   002CD8                     _led_turn_off:
  5216                           	callstack 21
  5217   002CD8                     
  5218                           ;ECU_Layer/LED/ecu_led.c: 55:     Std_ReturnType ret = (Std_ReturnType)0x01;
  5219   002CD8  0E01               	movlw	1
  5220   002CDA  0100               	movlb	0	; () banked
  5221   002CDC  6FED               	movwf	led_turn_off@ret& (0+255),b
  5222   002CDE                     
  5223                           ; BSR set to: 0
  5224                           ;ECU_Layer/LED/ecu_led.c: 56:      if(((void*)0) == led){
  5225   002CDE  51EB               	movf	led_turn_off@led& (0+255),w,b
  5226   002CE0  11EC               	iorwf	(led_turn_off@led+1)& (0+255),w,b
  5227   002CE2  A4D8               	btfss	status,2,c
  5228   002CE4  EF76  F016         	goto	u6831
  5229   002CE8  EF78  F016         	goto	u6830
  5230   002CEC                     u6831:
  5231   002CEC  EF7C  F016         	goto	l8363
  5232   002CF0                     u6830:
  5233   002CF0                     
  5234                           ; BSR set to: 0
  5235                           ;ECU_Layer/LED/ecu_led.c: 57:          ret = (Std_ReturnType)0x00;
  5236   002CF0  0E00               	movlw	0
  5237   002CF2  6FED               	movwf	led_turn_off@ret& (0+255),b
  5238                           
  5239                           ;ECU_Layer/LED/ecu_led.c: 58:      }
  5240   002CF4  EF84  F016         	goto	l8365
  5241   002CF8                     l8363:
  5242                           
  5243                           ; BSR set to: 0
  5244                           ;ECU_Layer/LED/ecu_led.c: 61:          gpio_pin_write_logic((&led->_led), GPIO_LOW);
  5245   002CF8  C0EB  F04D         	movff	led_turn_off@led,gpio_pin_write_logic@_pin_config
  5246   002CFC  C0EC  F04E         	movff	led_turn_off@led+1,gpio_pin_write_logic@_pin_config+1
  5247   002D00  0E00               	movlw	0
  5248   002D02  6E4F               	movwf	gpio_pin_write_logic@logic^0,c
  5249   002D04  ECEA  F00B         	call	_gpio_pin_write_logic	;wreg free
  5250   002D08                     l8365:
  5251                           
  5252                           ;ECU_Layer/LED/ecu_led.c: 63:     return ret;
  5253   002D08  0100               	movlb	0	; () banked
  5254   002D0A  51ED               	movf	led_turn_off@ret& (0+255),w,b
  5255   002D0C                     
  5256                           ; BSR set to: 0
  5257   002D0C  0012               	return		;funcret
  5258   002D0E                     __end_of_led_turn_off:
  5259                           	callstack 0
  5260                           
  5261 ;; *************** function _lcd_4bit_send_string_pos *****************
  5262 ;; Defined at:
  5263 ;;		line 163 in file "ECU_Layer/Chr_LCD/ecu_chr_lcd.c"
  5264 ;; Parameters:    Size  Location     Type
  5265 ;;  lcd             2    0[BANK1 ] PTR const struct .
  5266 ;;		 -> lcd_1(6), 
  5267 ;;  row             1    2[BANK1 ] unsigned char 
  5268 ;;  column          1    3[BANK1 ] unsigned char 
  5269 ;;  str             2    4[BANK1 ] PTR unsigned char 
  5270 ;;		 -> STR_15(13), STR_14(21), STR_13(20), STR_12(15), 
  5271 ;;		 -> STR_11(16), STR_10(16), STR_9(17), STR_8(15), 
  5272 ;;		 -> STR_7(16), STR_6(9), STR_5(13), STR_4(22), 
  5273 ;; Auto vars:     Size  Location     Type
  5274 ;;  ret             1   21[BANK0 ] unsigned char 
  5275 ;; Return value:  Size  Location     Type
  5276 ;;                  1    wreg      unsigned char 
  5277 ;; Registers used:
  5278 ;;		wreg, fsr2l, fsr2h, status,2, status,0, tblptrl, tblptrh, tblptru, prodl, prodh, cstack
  5279 ;; Tracked objects:
  5280 ;;		On entry : 0/0
  5281 ;;		On exit  : 0/0
  5282 ;;		Unchanged: 0/0
  5283 ;; Data sizes:     COMRAM   BANK0   BANK1   BANK2   BANK3   BANK4   BANK5   BANK6   BANK7   BANK8   BANK9  BANK10  BANK1
      +1  BANK12  BANK13  BANK14  BANK15
  5284 ;;      Params:         0       0       6       0       0       0       0       0       0       0       0       0       
      +0       0       0       0       0
  5285 ;;      Locals:         0       1       0       0       0       0       0       0       0       0       0       0       
      +0       0       0       0       0
  5286 ;;      Temps:          0       0       0       0       0       0       0       0       0       0       0       0       
      +0       0       0       0       0
  5287 ;;      Totals:         0       1       6       0       0       0       0       0       0       0       0       0       
      +0       0       0       0       0
  5288 ;;Total ram usage:        7 bytes
  5289 ;; Hardware stack levels used: 1
  5290 ;; Hardware stack levels required when called: 11
  5291 ;; This function calls:
  5292 ;;		_lcd_4bit_send_char_data
  5293 ;;		_lcd_4bit_set_cursor
  5294 ;; This function is called by:
  5295 ;;		_TimeOfCarsMoveFinishedHandler
  5296 ;;		_TimeOfPedestriansMoveFinishedHandler
  5297 ;;		_ReadyTimeOfCarsToMoveFinishedHandler
  5298 ;;		_ReadyTimeOfPedestriansToMoveFinishedHandler
  5299 ;; This function uses a non-reentrant model
  5300 ;;
  5301                           
  5302                           	psect	text33
  5303   00234E                     __ptext33:
  5304                           	callstack 0
  5305   00234E                     _lcd_4bit_send_string_pos:
  5306                           	callstack 18
  5307   00234E                     
  5308                           ;ECU_Layer/Chr_LCD/ecu_chr_lcd.c: 165:     if(((void*)0) == lcd){
  5309   00234E  0101               	movlb	1	; () banked
  5310   002350  5100               	movf	lcd_4bit_send_string_pos@lcd& (0+255),w,b
  5311   002352  1101               	iorwf	(lcd_4bit_send_string_pos@lcd+1)& (0+255),w,b
  5312   002354  A4D8               	btfss	status,2,c
  5313   002356  EFAF  F011         	goto	u6771
  5314   00235A  EFB1  F011         	goto	u6770
  5315   00235E                     u6771:
  5316   00235E  EFB6  F011         	goto	l8295
  5317   002362                     u6770:
  5318   002362                     
  5319                           ; BSR set to: 1
  5320                           ;ECU_Layer/Chr_LCD/ecu_chr_lcd.c: 166:         ret = (Std_ReturnType)0x00;
  5321   002362  0E00               	movlw	0
  5322   002364  0100               	movlb	0	; () banked
  5323   002366  6FFA               	movwf	lcd_4bit_send_string_pos@ret& (0+255),b
  5324                           
  5325                           ;ECU_Layer/Chr_LCD/ecu_chr_lcd.c: 167:     }
  5326   002368  EFE6  F011         	goto	l8303
  5327   00236C                     l8295:
  5328                           
  5329                           ; BSR set to: 1
  5330                           ;ECU_Layer/Chr_LCD/ecu_chr_lcd.c: 169:         ret = lcd_4bit_set_cursor(lcd, row, colum
      +                          n);
  5331   00236C  C100  F0F3         	movff	lcd_4bit_send_string_pos@lcd,lcd_4bit_set_cursor@lcd
  5332   002370  C101  F0F4         	movff	lcd_4bit_send_string_pos@lcd+1,lcd_4bit_set_cursor@lcd+1
  5333   002374  C102  F0F5         	movff	lcd_4bit_send_string_pos@row,lcd_4bit_set_cursor@row
  5334   002378  C103  F0F6         	movff	lcd_4bit_send_string_pos@column,lcd_4bit_set_cursor@coulmn
  5335   00237C  ECB5  F00F         	call	_lcd_4bit_set_cursor	;wreg free
  5336   002380  0100               	movlb	0	; () banked
  5337   002382  6FFA               	movwf	lcd_4bit_send_string_pos@ret& (0+255),b
  5338                           
  5339                           ;ECU_Layer/Chr_LCD/ecu_chr_lcd.c: 170:         while(*str){
  5340   002384  EFD7  F011         	goto	l8301
  5341   002388                     l8297:
  5342                           
  5343                           ;ECU_Layer/Chr_LCD/ecu_chr_lcd.c: 171:             ret = lcd_4bit_send_char_data(lcd, *s
      +                          tr++);
  5344   002388  C100  F0EF         	movff	lcd_4bit_send_string_pos@lcd,lcd_4bit_send_char_data@lcd
  5345   00238C  C101  F0F0         	movff	lcd_4bit_send_string_pos@lcd+1,lcd_4bit_send_char_data@lcd+1
  5346   002390  C104  FFF6         	movff	lcd_4bit_send_string_pos@str,tblptrl
  5347   002394  C105  FFF7         	movff	lcd_4bit_send_string_pos@str+1,tblptrh
  5348   002398                     	if	1	;Program memory is < 0x10000, tblptru is always zero
  5349   002398  6AF8               	clrf	tblptru,c
  5350   00239A                     	endif
  5351   00239A                     	if	0	;tblptru may be non-zero
  5352   00239A                     	endif
  5353   00239A  0008               	tblrd		*
  5354   00239C  CFF5 F0F1          	movff	tablat,lcd_4bit_send_char_data@data
  5355   0023A0  ECE8  F012         	call	_lcd_4bit_send_char_data	;wreg free
  5356   0023A4  0100               	movlb	0	; () banked
  5357   0023A6  6FFA               	movwf	lcd_4bit_send_string_pos@ret& (0+255),b
  5358   0023A8                     
  5359                           ; BSR set to: 0
  5360   0023A8  0101               	movlb	1	; () banked
  5361   0023AA  4B04               	infsnz	lcd_4bit_send_string_pos@str& (0+255),f,b
  5362   0023AC  2B05               	incf	(lcd_4bit_send_string_pos@str+1)& (0+255),f,b
  5363   0023AE                     l8301:
  5364                           
  5365                           ;ECU_Layer/Chr_LCD/ecu_chr_lcd.c: 170:         while(*str){
  5366   0023AE  C104  FFF6         	movff	lcd_4bit_send_string_pos@str,tblptrl
  5367   0023B2  C105  FFF7         	movff	lcd_4bit_send_string_pos@str+1,tblptrh
  5368   0023B6                     	if	1	;Program memory is < 0x10000, tblptru is always zero
  5369   0023B6  6AF8               	clrf	tblptru,c
  5370   0023B8                     	endif
  5371   0023B8                     	if	0	;tblptru may be non-zero
  5372   0023B8                     	endif
  5373   0023B8  0008               	tblrd		*
  5374   0023BA  50F5               	movf	tablat,w,c
  5375   0023BC  0900               	iorlw	0
  5376   0023BE  A4D8               	btfss	status,2,c
  5377   0023C0  EFE4  F011         	goto	u6781
  5378   0023C4  EFE6  F011         	goto	u6780
  5379   0023C8                     u6781:
  5380   0023C8  EFC4  F011         	goto	l8297
  5381   0023CC                     u6780:
  5382   0023CC                     l8303:
  5383                           
  5384                           ;ECU_Layer/Chr_LCD/ecu_chr_lcd.c: 174:     return ret;
  5385   0023CC  0100               	movlb	0	; () banked
  5386   0023CE  51FA               	movf	lcd_4bit_send_string_pos@ret& (0+255),w,b
  5387   0023D0                     
  5388                           ; BSR set to: 0
  5389   0023D0  0012               	return		;funcret
  5390   0023D2                     __end_of_lcd_4bit_send_string_pos:
  5391                           	callstack 0
  5392                           
  5393 ;; *************** function _lcd_4bit_set_cursor *****************
  5394 ;; Defined at:
  5395 ;;		line 549 in file "ECU_Layer/Chr_LCD/ecu_chr_lcd.c"
  5396 ;; Parameters:    Size  Location     Type
  5397 ;;  lcd             2   14[BANK0 ] PTR const struct .
  5398 ;;		 -> lcd_1(6), 
  5399 ;;  row             1   16[BANK0 ] unsigned char 
  5400 ;;  coulmn          1   17[BANK0 ] unsigned char 
  5401 ;; Auto vars:     Size  Location     Type
  5402 ;;  ret             1   20[BANK0 ] unsigned char 
  5403 ;; Return value:  Size  Location     Type
  5404 ;;                  1    wreg      unsigned char 
  5405 ;; Registers used:
  5406 ;;		wreg, fsr2l, fsr2h, status,2, status,0, prodl, prodh, cstack
  5407 ;; Tracked objects:
  5408 ;;		On entry : 0/0
  5409 ;;		On exit  : 0/0
  5410 ;;		Unchanged: 0/0
  5411 ;; Data sizes:     COMRAM   BANK0   BANK1   BANK2   BANK3   BANK4   BANK5   BANK6   BANK7   BANK8   BANK9  BANK10  BANK1
      +1  BANK12  BANK13  BANK14  BANK15
  5412 ;;      Params:         0       4       0       0       0       0       0       0       0       0       0       0       
      +0       0       0       0       0
  5413 ;;      Locals:         0       1       0       0       0       0       0       0       0       0       0       0       
      +0       0       0       0       0
  5414 ;;      Temps:          0       2       0       0       0       0       0       0       0       0       0       0       
      +0       0       0       0       0
  5415 ;;      Totals:         0       7       0       0       0       0       0       0       0       0       0       0       
      +0       0       0       0       0
  5416 ;;Total ram usage:        7 bytes
  5417 ;; Hardware stack levels used: 1
  5418 ;; Hardware stack levels required when called: 10
  5419 ;; This function calls:
  5420 ;;		_lcd_4bit_send_command
  5421 ;; This function is called by:
  5422 ;;		_lcd_4bit_send_string_pos
  5423 ;;		_lcd_4bit_send_char_data_pos
  5424 ;; This function uses a non-reentrant model
  5425 ;;
  5426                           
  5427                           	psect	text34
  5428   001F6A                     __ptext34:
  5429                           	callstack 0
  5430   001F6A                     _lcd_4bit_set_cursor:
  5431                           	callstack 18
  5432   001F6A                     
  5433                           ;ECU_Layer/Chr_LCD/ecu_chr_lcd.c: 550:     Std_ReturnType ret = (Std_ReturnType)0x01;
  5434   001F6A  0E01               	movlw	1
  5435   001F6C  0100               	movlb	0	; () banked
  5436   001F6E  6FF9               	movwf	lcd_4bit_set_cursor@ret& (0+255),b
  5437   001F70                     
  5438                           ; BSR set to: 0
  5439                           ;ECU_Layer/Chr_LCD/ecu_chr_lcd.c: 551:     coulmn--;
  5440   001F70  07F6               	decf	lcd_4bit_set_cursor@coulmn& (0+255),f,b
  5441                           
  5442                           ;ECU_Layer/Chr_LCD/ecu_chr_lcd.c: 552:     switch(row){
  5443   001F72  EFEF  F00F         	goto	l8097
  5444   001F76                     l8089:
  5445                           
  5446                           ; BSR set to: 0
  5447   001F76  C0F3  F0EF         	movff	lcd_4bit_set_cursor@lcd,lcd_4bit_send_command@lcd
  5448   001F7A  C0F4  F0F0         	movff	lcd_4bit_set_cursor@lcd+1,lcd_4bit_send_command@lcd+1
  5449   001F7E  51F6               	movf	lcd_4bit_set_cursor@coulmn& (0+255),w,b
  5450   001F80  0F80               	addlw	128
  5451   001F82  6FF1               	movwf	lcd_4bit_send_command@command& (0+255),b
  5452   001F84  ECA9  F012         	call	_lcd_4bit_send_command	;wreg free
  5453   001F88  0100               	movlb	0	; () banked
  5454   001F8A  6FF9               	movwf	lcd_4bit_set_cursor@ret& (0+255),b
  5455   001F8C  EF0C  F010         	goto	l8099
  5456   001F90                     l8091:
  5457                           
  5458                           ; BSR set to: 0
  5459   001F90  C0F3  F0EF         	movff	lcd_4bit_set_cursor@lcd,lcd_4bit_send_command@lcd
  5460   001F94  C0F4  F0F0         	movff	lcd_4bit_set_cursor@lcd+1,lcd_4bit_send_command@lcd+1
  5461   001F98  51F6               	movf	lcd_4bit_set_cursor@coulmn& (0+255),w,b
  5462   001F9A  0FC0               	addlw	192
  5463   001F9C  6FF1               	movwf	lcd_4bit_send_command@command& (0+255),b
  5464   001F9E  ECA9  F012         	call	_lcd_4bit_send_command	;wreg free
  5465   001FA2  0100               	movlb	0	; () banked
  5466   001FA4  6FF9               	movwf	lcd_4bit_set_cursor@ret& (0+255),b
  5467   001FA6  EF0C  F010         	goto	l8099
  5468   001FAA                     l8093:
  5469                           
  5470                           ; BSR set to: 0
  5471   001FAA  C0F3  F0EF         	movff	lcd_4bit_set_cursor@lcd,lcd_4bit_send_command@lcd
  5472   001FAE  C0F4  F0F0         	movff	lcd_4bit_set_cursor@lcd+1,lcd_4bit_send_command@lcd+1
  5473   001FB2  51F6               	movf	lcd_4bit_set_cursor@coulmn& (0+255),w,b
  5474   001FB4  0F94               	addlw	148
  5475   001FB6  6FF1               	movwf	lcd_4bit_send_command@command& (0+255),b
  5476   001FB8  ECA9  F012         	call	_lcd_4bit_send_command	;wreg free
  5477   001FBC  0100               	movlb	0	; () banked
  5478   001FBE  6FF9               	movwf	lcd_4bit_set_cursor@ret& (0+255),b
  5479   001FC0  EF0C  F010         	goto	l8099
  5480   001FC4                     l8095:
  5481                           
  5482                           ; BSR set to: 0
  5483   001FC4  C0F3  F0EF         	movff	lcd_4bit_set_cursor@lcd,lcd_4bit_send_command@lcd
  5484   001FC8  C0F4  F0F0         	movff	lcd_4bit_set_cursor@lcd+1,lcd_4bit_send_command@lcd+1
  5485   001FCC  51F6               	movf	lcd_4bit_set_cursor@coulmn& (0+255),w,b
  5486   001FCE  0FD4               	addlw	212
  5487   001FD0  6FF1               	movwf	lcd_4bit_send_command@command& (0+255),b
  5488   001FD2  ECA9  F012         	call	_lcd_4bit_send_command	;wreg free
  5489   001FD6  0100               	movlb	0	; () banked
  5490   001FD8  6FF9               	movwf	lcd_4bit_set_cursor@ret& (0+255),b
  5491   001FDA  EF0C  F010         	goto	l8099
  5492   001FDE                     l8097:
  5493                           
  5494                           ; BSR set to: 0
  5495   001FDE  51F5               	movf	lcd_4bit_set_cursor@row& (0+255),w,b
  5496   001FE0  6FF7               	movwf	??_lcd_4bit_set_cursor& (0+255),b
  5497   001FE2  6BF8               	clrf	(??_lcd_4bit_set_cursor+1)& (0+255),b
  5498                           
  5499                           ; Switch on 2 bytes has been partitioned into a top level switch of size 1, and 1 sub-sw
      +                          itches
  5500                           ; Switch size 1, requested type "simple"
  5501                           ; Number of cases is 1, Range of values is 0 to 0
  5502                           ; switch strategies available:
  5503                           ; Name         Instructions Cycles
  5504                           ; simple_byte            4     3 (average)
  5505                           ;	Chosen strategy is simple_byte
  5506   001FE4  51F8               	movf	(??_lcd_4bit_set_cursor+1)& (0+255),w,b
  5507   001FE6  0A00               	xorlw	0	; case 0
  5508   001FE8  B4D8               	btfsc	status,2,c
  5509   001FEA  EFF9  F00F         	goto	l9435
  5510   001FEE  EF0C  F010         	goto	l8099
  5511   001FF2                     l9435:
  5512                           
  5513                           ; BSR set to: 0
  5514                           ; Switch size 1, requested type "simple"
  5515                           ; Number of cases is 4, Range of values is 1 to 4
  5516                           ; switch strategies available:
  5517                           ; Name         Instructions Cycles
  5518                           ; simple_byte           13     7 (average)
  5519                           ;	Chosen strategy is simple_byte
  5520   001FF2  51F7               	movf	??_lcd_4bit_set_cursor& (0+255),w,b
  5521   001FF4  0A01               	xorlw	1	; case 1
  5522   001FF6  B4D8               	btfsc	status,2,c
  5523   001FF8  EFBB  F00F         	goto	l8089
  5524   001FFC  0A03               	xorlw	3	; case 2
  5525   001FFE  B4D8               	btfsc	status,2,c
  5526   002000  EFC8  F00F         	goto	l8091
  5527   002004  0A01               	xorlw	1	; case 3
  5528   002006  B4D8               	btfsc	status,2,c
  5529   002008  EFD5  F00F         	goto	l8093
  5530   00200C  0A07               	xorlw	7	; case 4
  5531   00200E  B4D8               	btfsc	status,2,c
  5532   002010  EFE2  F00F         	goto	l8095
  5533   002014  EF0C  F010         	goto	l8099
  5534   002018                     l8099:
  5535                           
  5536                           ; BSR set to: 0
  5537                           ;ECU_Layer/Chr_LCD/ecu_chr_lcd.c: 559:     return ret;
  5538   002018  51F9               	movf	lcd_4bit_set_cursor@ret& (0+255),w,b
  5539   00201A                     
  5540                           ; BSR set to: 0
  5541   00201A  0012               	return		;funcret
  5542   00201C                     __end_of_lcd_4bit_set_cursor:
  5543                           	callstack 0
  5544                           
  5545 ;; *************** function _lcd_4bit_send_command *****************
  5546 ;; Defined at:
  5547 ;;		line 60 in file "ECU_Layer/Chr_LCD/ecu_chr_lcd.c"
  5548 ;; Parameters:    Size  Location     Type
  5549 ;;  lcd             2   10[BANK0 ] PTR const struct .
  5550 ;;		 -> lcd_1(6), 
  5551 ;;  command         1   12[BANK0 ] unsigned char 
  5552 ;; Auto vars:     Size  Location     Type
  5553 ;;  ret             1   13[BANK0 ] unsigned char 
  5554 ;; Return value:  Size  Location     Type
  5555 ;;                  1    wreg      unsigned char 
  5556 ;; Registers used:
  5557 ;;		wreg, fsr2l, fsr2h, status,2, status,0, prodl, prodh, cstack
  5558 ;; Tracked objects:
  5559 ;;		On entry : 0/0
  5560 ;;		On exit  : 0/0
  5561 ;;		Unchanged: 0/0
  5562 ;; Data sizes:     COMRAM   BANK0   BANK1   BANK2   BANK3   BANK4   BANK5   BANK6   BANK7   BANK8   BANK9  BANK10  BANK1
      +1  BANK12  BANK13  BANK14  BANK15
  5563 ;;      Params:         0       3       0       0       0       0       0       0       0       0       0       0       
      +0       0       0       0       0
  5564 ;;      Locals:         0       1       0       0       0       0       0       0       0       0       0       0       
      +0       0       0       0       0
  5565 ;;      Temps:          0       0       0       0       0       0       0       0       0       0       0       0       
      +0       0       0       0       0
  5566 ;;      Totals:         0       4       0       0       0       0       0       0       0       0       0       0       
      +0       0       0       0       0
  5567 ;;Total ram usage:        4 bytes
  5568 ;; Hardware stack levels used: 1
  5569 ;; Hardware stack levels required when called: 9
  5570 ;; This function calls:
  5571 ;;		_gpio_pin_write_logic
  5572 ;;		_lcd_4bit_send_enable_signal
  5573 ;;		_lcd_send_4bits
  5574 ;; This function is called by:
  5575 ;;		_lcd_4bit_intialize
  5576 ;;		_lcd_4bit_set_cursor
  5577 ;;		_lcd_4bit_send_custom_char
  5578 ;;		_lcd_8bit_clear
  5579 ;; This function uses a non-reentrant model
  5580 ;;
  5581                           
  5582                           	psect	text35
  5583   002552                     __ptext35:
  5584                           	callstack 0
  5585   002552                     _lcd_4bit_send_command:
  5586                           	callstack 18
  5587   002552                     
  5588                           ;ECU_Layer/Chr_LCD/ecu_chr_lcd.c: 62:     if(((void*)0) == lcd){
  5589   002552  0100               	movlb	0	; () banked
  5590   002554  51EF               	movf	lcd_4bit_send_command@lcd& (0+255),w,b
  5591   002556  11F0               	iorwf	(lcd_4bit_send_command@lcd+1)& (0+255),w,b
  5592   002558  A4D8               	btfss	status,2,c
  5593   00255A  EFB1  F012         	goto	u6531
  5594   00255E  EFB3  F012         	goto	u6530
  5595   002562                     u6531:
  5596   002562  EFB7  F012         	goto	l7967
  5597   002566                     u6530:
  5598   002566                     
  5599                           ; BSR set to: 0
  5600                           ;ECU_Layer/Chr_LCD/ecu_chr_lcd.c: 63:         ret = (Std_ReturnType)0x00;
  5601   002566  0E00               	movlw	0
  5602   002568  6FF2               	movwf	lcd_4bit_send_command@ret& (0+255),b
  5603                           
  5604                           ;ECU_Layer/Chr_LCD/ecu_chr_lcd.c: 64:     }
  5605   00256A  EFE6  F012         	goto	l7969
  5606   00256E                     l7967:
  5607                           
  5608                           ; BSR set to: 0
  5609                           ;ECU_Layer/Chr_LCD/ecu_chr_lcd.c: 68:         ret = gpio_pin_write_logic(&(lcd->lcd_rs),
      +                           GPIO_LOW);
  5610   00256E  C0EF  F04D         	movff	lcd_4bit_send_command@lcd,gpio_pin_write_logic@_pin_config
  5611   002572  C0F0  F04E         	movff	lcd_4bit_send_command@lcd+1,gpio_pin_write_logic@_pin_config+1
  5612   002576  0E00               	movlw	0
  5613   002578  6E4F               	movwf	gpio_pin_write_logic@logic^0,c
  5614   00257A  ECEA  F00B         	call	_gpio_pin_write_logic	;wreg free
  5615   00257E  0100               	movlb	0	; () banked
  5616   002580  6FF2               	movwf	lcd_4bit_send_command@ret& (0+255),b
  5617                           
  5618                           ;ECU_Layer/Chr_LCD/ecu_chr_lcd.c: 70:         ret = lcd_send_4bits(lcd, command >> 4);
  5619   002582  C0EF  F0EB         	movff	lcd_4bit_send_command@lcd,lcd_send_4bits@lcd
  5620   002586  C0F0  F0EC         	movff	lcd_4bit_send_command@lcd+1,lcd_send_4bits@lcd+1
  5621   00258A  39F1               	swapf	lcd_4bit_send_command@command& (0+255),w,b
  5622   00258C  0B0F               	andlw	15
  5623   00258E  6FED               	movwf	lcd_send_4bits@_data_command& (0+255),b
  5624   002590  EC89  F014         	call	_lcd_send_4bits	;wreg free
  5625   002594  0100               	movlb	0	; () banked
  5626   002596  6FF2               	movwf	lcd_4bit_send_command@ret& (0+255),b
  5627                           
  5628                           ;ECU_Layer/Chr_LCD/ecu_chr_lcd.c: 72:         ret = lcd_4bit_send_enable_signal(lcd);
  5629   002598  C0EF  F0EB         	movff	lcd_4bit_send_command@lcd,lcd_4bit_send_enable_signal@lcd
  5630   00259C  C0F0  F0EC         	movff	lcd_4bit_send_command@lcd+1,lcd_4bit_send_enable_signal@lcd+1
  5631   0025A0  EC33  F016         	call	_lcd_4bit_send_enable_signal	;wreg free
  5632   0025A4  0100               	movlb	0	; () banked
  5633   0025A6  6FF2               	movwf	lcd_4bit_send_command@ret& (0+255),b
  5634                           
  5635                           ;ECU_Layer/Chr_LCD/ecu_chr_lcd.c: 74:         ret = lcd_send_4bits(lcd, command);
  5636   0025A8  C0EF  F0EB         	movff	lcd_4bit_send_command@lcd,lcd_send_4bits@lcd
  5637   0025AC  C0F0  F0EC         	movff	lcd_4bit_send_command@lcd+1,lcd_send_4bits@lcd+1
  5638   0025B0  C0F1  F0ED         	movff	lcd_4bit_send_command@command,lcd_send_4bits@_data_command
  5639   0025B4  EC89  F014         	call	_lcd_send_4bits	;wreg free
  5640   0025B8  0100               	movlb	0	; () banked
  5641   0025BA  6FF2               	movwf	lcd_4bit_send_command@ret& (0+255),b
  5642                           
  5643                           ;ECU_Layer/Chr_LCD/ecu_chr_lcd.c: 76:         ret = lcd_4bit_send_enable_signal(lcd);
  5644   0025BC  C0EF  F0EB         	movff	lcd_4bit_send_command@lcd,lcd_4bit_send_enable_signal@lcd
  5645   0025C0  C0F0  F0EC         	movff	lcd_4bit_send_command@lcd+1,lcd_4bit_send_enable_signal@lcd+1
  5646   0025C4  EC33  F016         	call	_lcd_4bit_send_enable_signal	;wreg free
  5647   0025C8  0100               	movlb	0	; () banked
  5648   0025CA  6FF2               	movwf	lcd_4bit_send_command@ret& (0+255),b
  5649   0025CC                     l7969:
  5650                           
  5651                           ; BSR set to: 0
  5652                           ;ECU_Layer/Chr_LCD/ecu_chr_lcd.c: 78:     return ret;
  5653   0025CC  51F2               	movf	lcd_4bit_send_command@ret& (0+255),w,b
  5654   0025CE                     
  5655                           ; BSR set to: 0
  5656   0025CE  0012               	return		;funcret
  5657   0025D0                     __end_of_lcd_4bit_send_command:
  5658                           	callstack 0
  5659                           
  5660 ;; *************** function _lcd_4bit_send_char_data *****************
  5661 ;; Defined at:
  5662 ;;		line 89 in file "ECU_Layer/Chr_LCD/ecu_chr_lcd.c"
  5663 ;; Parameters:    Size  Location     Type
  5664 ;;  lcd             2   10[BANK0 ] PTR const struct .
  5665 ;;		 -> lcd_1(6), 
  5666 ;;  data            1   12[BANK0 ] unsigned char 
  5667 ;; Auto vars:     Size  Location     Type
  5668 ;;  ret             1   13[BANK0 ] unsigned char 
  5669 ;; Return value:  Size  Location     Type
  5670 ;;                  1    wreg      unsigned char 
  5671 ;; Registers used:
  5672 ;;		wreg, fsr2l, fsr2h, status,2, status,0, prodl, prodh, cstack
  5673 ;; Tracked objects:
  5674 ;;		On entry : 0/0
  5675 ;;		On exit  : 0/0
  5676 ;;		Unchanged: 0/0
  5677 ;; Data sizes:     COMRAM   BANK0   BANK1   BANK2   BANK3   BANK4   BANK5   BANK6   BANK7   BANK8   BANK9  BANK10  BANK1
      +1  BANK12  BANK13  BANK14  BANK15
  5678 ;;      Params:         0       3       0       0       0       0       0       0       0       0       0       0       
      +0       0       0       0       0
  5679 ;;      Locals:         0       1       0       0       0       0       0       0       0       0       0       0       
      +0       0       0       0       0
  5680 ;;      Temps:          0       0       0       0       0       0       0       0       0       0       0       0       
      +0       0       0       0       0
  5681 ;;      Totals:         0       4       0       0       0       0       0       0       0       0       0       0       
      +0       0       0       0       0
  5682 ;;Total ram usage:        4 bytes
  5683 ;; Hardware stack levels used: 1
  5684 ;; Hardware stack levels required when called: 9
  5685 ;; This function calls:
  5686 ;;		_gpio_pin_write_logic
  5687 ;;		_lcd_4bit_send_enable_signal
  5688 ;;		_lcd_send_4bits
  5689 ;; This function is called by:
  5690 ;;		_lcd_4bit_send_string_pos
  5691 ;;		_lcd_4bit_send_char_data_pos
  5692 ;;		_lcd_4bit_send_string
  5693 ;;		_lcd_4bit_send_custom_char
  5694 ;; This function uses a non-reentrant model
  5695 ;;
  5696                           
  5697                           	psect	text36
  5698   0025D0                     __ptext36:
  5699                           	callstack 0
  5700   0025D0                     _lcd_4bit_send_char_data:
  5701                           	callstack 19
  5702   0025D0                     
  5703                           ;ECU_Layer/Chr_LCD/ecu_chr_lcd.c: 91:     if(((void*)0) == lcd){
  5704   0025D0  0100               	movlb	0	; () banked
  5705   0025D2  51EF               	movf	lcd_4bit_send_char_data@lcd& (0+255),w,b
  5706   0025D4  11F0               	iorwf	(lcd_4bit_send_char_data@lcd+1)& (0+255),w,b
  5707   0025D6  A4D8               	btfss	status,2,c
  5708   0025D8  EFF0  F012         	goto	u6601
  5709   0025DC  EFF2  F012         	goto	u6600
  5710   0025E0                     u6601:
  5711   0025E0  EFF6  F012         	goto	l8079
  5712   0025E4                     u6600:
  5713   0025E4                     
  5714                           ; BSR set to: 0
  5715                           ;ECU_Layer/Chr_LCD/ecu_chr_lcd.c: 92:         ret = (Std_ReturnType)0x00;
  5716   0025E4  0E00               	movlw	0
  5717   0025E6  6FF2               	movwf	lcd_4bit_send_char_data@ret& (0+255),b
  5718                           
  5719                           ;ECU_Layer/Chr_LCD/ecu_chr_lcd.c: 93:     }
  5720   0025E8  EF25  F013         	goto	l8081
  5721   0025EC                     l8079:
  5722                           
  5723                           ; BSR set to: 0
  5724                           ;ECU_Layer/Chr_LCD/ecu_chr_lcd.c: 97:         ret = gpio_pin_write_logic(&(lcd->lcd_rs),
      +                           GPIO_HIGH);
  5725   0025EC  C0EF  F04D         	movff	lcd_4bit_send_char_data@lcd,gpio_pin_write_logic@_pin_config
  5726   0025F0  C0F0  F04E         	movff	lcd_4bit_send_char_data@lcd+1,gpio_pin_write_logic@_pin_config+1
  5727   0025F4  0E01               	movlw	1
  5728   0025F6  6E4F               	movwf	gpio_pin_write_logic@logic^0,c
  5729   0025F8  ECEA  F00B         	call	_gpio_pin_write_logic	;wreg free
  5730   0025FC  0100               	movlb	0	; () banked
  5731   0025FE  6FF2               	movwf	lcd_4bit_send_char_data@ret& (0+255),b
  5732                           
  5733                           ;ECU_Layer/Chr_LCD/ecu_chr_lcd.c: 99:         ret = lcd_send_4bits(lcd, data >> 4);
  5734   002600  C0EF  F0EB         	movff	lcd_4bit_send_char_data@lcd,lcd_send_4bits@lcd
  5735   002604  C0F0  F0EC         	movff	lcd_4bit_send_char_data@lcd+1,lcd_send_4bits@lcd+1
  5736   002608  39F1               	swapf	lcd_4bit_send_char_data@data& (0+255),w,b
  5737   00260A  0B0F               	andlw	15
  5738   00260C  6FED               	movwf	lcd_send_4bits@_data_command& (0+255),b
  5739   00260E  EC89  F014         	call	_lcd_send_4bits	;wreg free
  5740   002612  0100               	movlb	0	; () banked
  5741   002614  6FF2               	movwf	lcd_4bit_send_char_data@ret& (0+255),b
  5742                           
  5743                           ;ECU_Layer/Chr_LCD/ecu_chr_lcd.c: 101:         ret = lcd_4bit_send_enable_signal(lcd);
  5744   002616  C0EF  F0EB         	movff	lcd_4bit_send_char_data@lcd,lcd_4bit_send_enable_signal@lcd
  5745   00261A  C0F0  F0EC         	movff	lcd_4bit_send_char_data@lcd+1,lcd_4bit_send_enable_signal@lcd+1
  5746   00261E  EC33  F016         	call	_lcd_4bit_send_enable_signal	;wreg free
  5747   002622  0100               	movlb	0	; () banked
  5748   002624  6FF2               	movwf	lcd_4bit_send_char_data@ret& (0+255),b
  5749                           
  5750                           ;ECU_Layer/Chr_LCD/ecu_chr_lcd.c: 103:         ret = lcd_send_4bits(lcd, data);
  5751   002626  C0EF  F0EB         	movff	lcd_4bit_send_char_data@lcd,lcd_send_4bits@lcd
  5752   00262A  C0F0  F0EC         	movff	lcd_4bit_send_char_data@lcd+1,lcd_send_4bits@lcd+1
  5753   00262E  C0F1  F0ED         	movff	lcd_4bit_send_char_data@data,lcd_send_4bits@_data_command
  5754   002632  EC89  F014         	call	_lcd_send_4bits	;wreg free
  5755   002636  0100               	movlb	0	; () banked
  5756   002638  6FF2               	movwf	lcd_4bit_send_char_data@ret& (0+255),b
  5757                           
  5758                           ;ECU_Layer/Chr_LCD/ecu_chr_lcd.c: 105:         ret = lcd_4bit_send_enable_signal(lcd);
  5759   00263A  C0EF  F0EB         	movff	lcd_4bit_send_char_data@lcd,lcd_4bit_send_enable_signal@lcd
  5760   00263E  C0F0  F0EC         	movff	lcd_4bit_send_char_data@lcd+1,lcd_4bit_send_enable_signal@lcd+1
  5761   002642  EC33  F016         	call	_lcd_4bit_send_enable_signal	;wreg free
  5762   002646  0100               	movlb	0	; () banked
  5763   002648  6FF2               	movwf	lcd_4bit_send_char_data@ret& (0+255),b
  5764   00264A                     l8081:
  5765                           
  5766                           ; BSR set to: 0
  5767                           ;ECU_Layer/Chr_LCD/ecu_chr_lcd.c: 107:     return ret;
  5768   00264A  51F2               	movf	lcd_4bit_send_char_data@ret& (0+255),w,b
  5769   00264C                     
  5770                           ; BSR set to: 0
  5771   00264C  0012               	return		;funcret
  5772   00264E                     __end_of_lcd_4bit_send_char_data:
  5773                           	callstack 0
  5774                           
  5775 ;; *************** function _lcd_send_4bits *****************
  5776 ;; Defined at:
  5777 ;;		line 479 in file "ECU_Layer/Chr_LCD/ecu_chr_lcd.c"
  5778 ;; Parameters:    Size  Location     Type
  5779 ;;  lcd             2    6[BANK0 ] PTR const struct .
  5780 ;;		 -> lcd_1(6), 
  5781 ;;  _data_comman    1    8[BANK0 ] unsigned char 
  5782 ;; Auto vars:     Size  Location     Type
  5783 ;;  ret             1    9[BANK0 ] unsigned char 
  5784 ;; Return value:  Size  Location     Type
  5785 ;;                  1    wreg      unsigned char 
  5786 ;; Registers used:
  5787 ;;		wreg, fsr2l, fsr2h, status,2, status,0, prodl, prodh, cstack
  5788 ;; Tracked objects:
  5789 ;;		On entry : 0/0
  5790 ;;		On exit  : 0/0
  5791 ;;		Unchanged: 0/0
  5792 ;; Data sizes:     COMRAM   BANK0   BANK1   BANK2   BANK3   BANK4   BANK5   BANK6   BANK7   BANK8   BANK9  BANK10  BANK1
      +1  BANK12  BANK13  BANK14  BANK15
  5793 ;;      Params:         0       3       0       0       0       0       0       0       0       0       0       0       
      +0       0       0       0       0
  5794 ;;      Locals:         0       1       0       0       0       0       0       0       0       0       0       0       
      +0       0       0       0       0
  5795 ;;      Temps:          0       0       0       0       0       0       0       0       0       0       0       0       
      +0       0       0       0       0
  5796 ;;      Totals:         0       4       0       0       0       0       0       0       0       0       0       0       
      +0       0       0       0       0
  5797 ;;Total ram usage:        4 bytes
  5798 ;; Hardware stack levels used: 1
  5799 ;; Hardware stack levels required when called: 8
  5800 ;; This function calls:
  5801 ;;		_gpio_pin_write_logic
  5802 ;; This function is called by:
  5803 ;;		_lcd_4bit_send_command
  5804 ;;		_lcd_4bit_send_char_data
  5805 ;; This function uses a non-reentrant model
  5806 ;;
  5807                           
  5808                           	psect	text37
  5809   002912                     __ptext37:
  5810                           	callstack 0
  5811   002912                     _lcd_send_4bits:
  5812                           	callstack 18
  5813   002912  0E02               	movlw	2
  5814   002914  0100               	movlb	0	; () banked
  5815   002916  25EB               	addwf	lcd_send_4bits@lcd& (0+255),w,b
  5816   002918  6E4D               	movwf	gpio_pin_write_logic@_pin_config^0,c
  5817   00291A  0E00               	movlw	0
  5818   00291C  21EC               	addwfc	(lcd_send_4bits@lcd+1)& (0+255),w,b
  5819   00291E  6E4E               	movwf	(gpio_pin_write_logic@_pin_config+1)^0,c
  5820   002920  51ED               	movf	lcd_send_4bits@_data_command& (0+255),w,b
  5821   002922  0B01               	andlw	1
  5822   002924  6E4F               	movwf	gpio_pin_write_logic@logic^0,c
  5823   002926  ECEA  F00B         	call	_gpio_pin_write_logic	;wreg free
  5824   00292A  0E03               	movlw	3
  5825   00292C  0100               	movlb	0	; () banked
  5826   00292E  25EB               	addwf	lcd_send_4bits@lcd& (0+255),w,b
  5827   002930  6E4D               	movwf	gpio_pin_write_logic@_pin_config^0,c
  5828   002932  0E00               	movlw	0
  5829   002934  21EC               	addwfc	(lcd_send_4bits@lcd+1)& (0+255),w,b
  5830   002936  6E4E               	movwf	(gpio_pin_write_logic@_pin_config+1)^0,c
  5831   002938  90D8               	bcf	status,0,c
  5832   00293A  31ED               	rrcf	lcd_send_4bits@_data_command& (0+255),w,b
  5833   00293C  0B01               	andlw	1
  5834   00293E  6E4F               	movwf	gpio_pin_write_logic@logic^0,c
  5835   002940  ECEA  F00B         	call	_gpio_pin_write_logic	;wreg free
  5836   002944  0E04               	movlw	4
  5837   002946  0100               	movlb	0	; () banked
  5838   002948  25EB               	addwf	lcd_send_4bits@lcd& (0+255),w,b
  5839   00294A  6E4D               	movwf	gpio_pin_write_logic@_pin_config^0,c
  5840   00294C  0E00               	movlw	0
  5841   00294E  21EC               	addwfc	(lcd_send_4bits@lcd+1)& (0+255),w,b
  5842   002950  6E4E               	movwf	(gpio_pin_write_logic@_pin_config+1)^0,c
  5843   002952  41ED               	rrncf	lcd_send_4bits@_data_command& (0+255),w,b
  5844   002954  42E8               	rrncf	wreg,f,c
  5845   002956  0B3F               	andlw	63
  5846   002958  0B01               	andlw	1
  5847   00295A  6E4F               	movwf	gpio_pin_write_logic@logic^0,c
  5848   00295C  ECEA  F00B         	call	_gpio_pin_write_logic	;wreg free
  5849   002960                     
  5850                           ;ECU_Layer/Chr_LCD/ecu_chr_lcd.c: 484:     ret = gpio_pin_write_logic(&(lcd->lcd_data[3]
      +                          ), (_data_command >> 3) & (uint8)0x01);
  5851   002960  0E05               	movlw	5
  5852   002962  0100               	movlb	0	; () banked
  5853   002964  25EB               	addwf	lcd_send_4bits@lcd& (0+255),w,b
  5854   002966  6E4D               	movwf	gpio_pin_write_logic@_pin_config^0,c
  5855   002968  0E00               	movlw	0
  5856   00296A  21EC               	addwfc	(lcd_send_4bits@lcd+1)& (0+255),w,b
  5857   00296C  6E4E               	movwf	(gpio_pin_write_logic@_pin_config+1)^0,c
  5858   00296E  39ED               	swapf	lcd_send_4bits@_data_command& (0+255),w,b
  5859   002970  46E8               	rlncf	wreg,f,c
  5860   002972  0B1F               	andlw	31
  5861   002974  0B01               	andlw	1
  5862   002976  6E4F               	movwf	gpio_pin_write_logic@logic^0,c
  5863   002978  ECEA  F00B         	call	_gpio_pin_write_logic	;wreg free
  5864   00297C  0100               	movlb	0	; () banked
  5865   00297E  6FEE               	movwf	lcd_send_4bits@ret& (0+255),b
  5866                           
  5867                           ;ECU_Layer/Chr_LCD/ecu_chr_lcd.c: 485:     return ret;
  5868   002980  51EE               	movf	lcd_send_4bits@ret& (0+255),w,b
  5869   002982                     
  5870                           ; BSR set to: 0
  5871   002982  0012               	return		;funcret
  5872   002984                     __end_of_lcd_send_4bits:
  5873                           	callstack 0
  5874                           
  5875 ;; *************** function _lcd_4bit_send_enable_signal *****************
  5876 ;; Defined at:
  5877 ;;		line 495 in file "ECU_Layer/Chr_LCD/ecu_chr_lcd.c"
  5878 ;; Parameters:    Size  Location     Type
  5879 ;;  lcd             2    6[BANK0 ] PTR const struct .
  5880 ;;		 -> lcd_1(6), 
  5881 ;; Auto vars:     Size  Location     Type
  5882 ;;  ret             1    8[BANK0 ] unsigned char 
  5883 ;; Return value:  Size  Location     Type
  5884 ;;                  1    wreg      unsigned char 
  5885 ;; Registers used:
  5886 ;;		wreg, fsr2l, fsr2h, status,2, status,0, prodl, prodh, cstack
  5887 ;; Tracked objects:
  5888 ;;		On entry : 0/0
  5889 ;;		On exit  : 0/0
  5890 ;;		Unchanged: 0/0
  5891 ;; Data sizes:     COMRAM   BANK0   BANK1   BANK2   BANK3   BANK4   BANK5   BANK6   BANK7   BANK8   BANK9  BANK10  BANK1
      +1  BANK12  BANK13  BANK14  BANK15
  5892 ;;      Params:         0       2       0       0       0       0       0       0       0       0       0       0       
      +0       0       0       0       0
  5893 ;;      Locals:         0       1       0       0       0       0       0       0       0       0       0       0       
      +0       0       0       0       0
  5894 ;;      Temps:          0       0       0       0       0       0       0       0       0       0       0       0       
      +0       0       0       0       0
  5895 ;;      Totals:         0       3       0       0       0       0       0       0       0       0       0       0       
      +0       0       0       0       0
  5896 ;;Total ram usage:        3 bytes
  5897 ;; Hardware stack levels used: 1
  5898 ;; Hardware stack levels required when called: 8
  5899 ;; This function calls:
  5900 ;;		_gpio_pin_write_logic
  5901 ;; This function is called by:
  5902 ;;		_lcd_4bit_send_command
  5903 ;;		_lcd_4bit_send_char_data
  5904 ;; This function uses a non-reentrant model
  5905 ;;
  5906                           
  5907                           	psect	text38
  5908   002C66                     __ptext38:
  5909                           	callstack 0
  5910   002C66                     _lcd_4bit_send_enable_signal:
  5911                           	callstack 18
  5912   002C66  0E01               	movlw	1
  5913   002C68  0100               	movlb	0	; () banked
  5914   002C6A  25EB               	addwf	lcd_4bit_send_enable_signal@lcd& (0+255),w,b
  5915   002C6C  6E4D               	movwf	gpio_pin_write_logic@_pin_config^0,c
  5916   002C6E  0E00               	movlw	0
  5917   002C70  21EC               	addwfc	(lcd_4bit_send_enable_signal@lcd+1)& (0+255),w,b
  5918   002C72  6E4E               	movwf	(gpio_pin_write_logic@_pin_config+1)^0,c
  5919   002C74  0E01               	movlw	1
  5920   002C76  6E4F               	movwf	gpio_pin_write_logic@logic^0,c
  5921   002C78  ECEA  F00B         	call	_gpio_pin_write_logic	;wreg free
  5922   002C7C                     
  5923                           ;ECU_Layer/Chr_LCD/ecu_chr_lcd.c: 498:     _delay((unsigned long)((5)*(8000000UL/4000000
      +                          .0)));
  5924   002C7C  0E03               	movlw	3
  5925   002C7E                     u7607:
  5926   002C7E  2EE8               	decfsz	wreg,f,c
  5927   002C80  D7FE               	bra	u7607
  5928   002C82  F000               	nop	
  5929   002C84                     
  5930                           ;ECU_Layer/Chr_LCD/ecu_chr_lcd.c: 499:     ret = gpio_pin_write_logic(&(lcd->lcd_en), GP
      +                          IO_LOW);
  5931   002C84  0E01               	movlw	1
  5932   002C86  0100               	movlb	0	; () banked
  5933   002C88  25EB               	addwf	lcd_4bit_send_enable_signal@lcd& (0+255),w,b
  5934   002C8A  6E4D               	movwf	gpio_pin_write_logic@_pin_config^0,c
  5935   002C8C  0E00               	movlw	0
  5936   002C8E  21EC               	addwfc	(lcd_4bit_send_enable_signal@lcd+1)& (0+255),w,b
  5937   002C90  6E4E               	movwf	(gpio_pin_write_logic@_pin_config+1)^0,c
  5938   002C92  0E00               	movlw	0
  5939   002C94  6E4F               	movwf	gpio_pin_write_logic@logic^0,c
  5940   002C96  ECEA  F00B         	call	_gpio_pin_write_logic	;wreg free
  5941   002C9A  0100               	movlb	0	; () banked
  5942   002C9C  6FED               	movwf	lcd_4bit_send_enable_signal@ret& (0+255),b
  5943   002C9E                     
  5944                           ; BSR set to: 0
  5945                           ;ECU_Layer/Chr_LCD/ecu_chr_lcd.c: 500:     return ret;
  5946   002C9E  51ED               	movf	lcd_4bit_send_enable_signal@ret& (0+255),w,b
  5947   002CA0                     
  5948                           ; BSR set to: 0
  5949   002CA0  0012               	return		;funcret
  5950   002CA2                     __end_of_lcd_4bit_send_enable_signal:
  5951                           	callstack 0
  5952                           
  5953 ;; *************** function _gpio_pin_write_logic *****************
  5954 ;; Defined at:
  5955 ;;		line 75 in file "MCAL_Layer/GPIO/hal_gpio.c"
  5956 ;; Parameters:    Size  Location     Type
  5957 ;;  _pin_config     2   30[COMRAM] PTR const struct .
  5958 ;;		 -> ready_yellow(1), led_green_people(1), led_red_people(1), led_green_car(1), 
  5959 ;;		 -> led_red_car(1), lcd_1.lcd_data(4), lcd_1(6), seg2.segment_pins(4), 
  5960 ;;		 -> seg2(5), seg1.segment_pins(4), seg1(5), 
  5961 ;;  logic           1   32[COMRAM] enum E3462
  5962 ;; Auto vars:     Size  Location     Type
  5963 ;;  ret             1   33[COMRAM] unsigned char 
  5964 ;; Return value:  Size  Location     Type
  5965 ;;                  1    wreg      unsigned char 
  5966 ;; Registers used:
  5967 ;;		wreg, fsr2l, fsr2h, status,2, status,0, prodl, prodh
  5968 ;; Tracked objects:
  5969 ;;		On entry : 0/0
  5970 ;;		On exit  : 0/0
  5971 ;;		Unchanged: 0/0
  5972 ;; Data sizes:     COMRAM   BANK0   BANK1   BANK2   BANK3   BANK4   BANK5   BANK6   BANK7   BANK8   BANK9  BANK10  BANK1
      +1  BANK12  BANK13  BANK14  BANK15
  5973 ;;      Params:         3       0       0       0       0       0       0       0       0       0       0       0       
      +0       0       0       0       0
  5974 ;;      Locals:         1       0       0       0       0       0       0       0       0       0       0       0       
      +0       0       0       0       0
  5975 ;;      Temps:          0       6       0       0       0       0       0       0       0       0       0       0       
      +0       0       0       0       0
  5976 ;;      Totals:         4       6       0       0       0       0       0       0       0       0       0       0       
      +0       0       0       0       0
  5977 ;;Total ram usage:       10 bytes
  5978 ;; Hardware stack levels used: 1
  5979 ;; Hardware stack levels required when called: 7
  5980 ;; This function calls:
  5981 ;;		Nothing
  5982 ;; This function is called by:
  5983 ;;		_seven_segement_write_number
  5984 ;;		_lcd_4bit_send_command
  5985 ;;		_lcd_4bit_send_char_data
  5986 ;;		_lcd_send_4bits
  5987 ;;		_lcd_4bit_send_enable_signal
  5988 ;;		_led_turn_on
  5989 ;;		_led_turn_off
  5990 ;;		_gpio_pin_intialize
  5991 ;;		_lcd_8bit_send_command
  5992 ;;		_lcd_8bit_send_char_data
  5993 ;;		_lcd_8bit_send_enable_signal
  5994 ;;		_dc_motor_move_right
  5995 ;;		_dc_motor_move_left
  5996 ;;		_dc_motor_stop
  5997 ;;		_keypad_get_value
  5998 ;;		_relay_turn_on
  5999 ;;		_relay_turn_off
  6000 ;;		_Ultrasonic_Calculate_Distance
  6001 ;; This function uses a non-reentrant model
  6002 ;;
  6003                           
  6004                           	psect	text39
  6005   0017D4                     __ptext39:
  6006                           	callstack 0
  6007   0017D4                     _gpio_pin_write_logic:
  6008                           	callstack 22
  6009   0017D4                     
  6010                           ;MCAL_Layer/GPIO/hal_gpio.c: 76:     Std_ReturnType ret = (Std_ReturnType)0x01;
  6011   0017D4  0E01               	movlw	1
  6012   0017D6  6E50               	movwf	gpio_pin_write_logic@ret^0,c
  6013   0017D8                     
  6014                           ;MCAL_Layer/GPIO/hal_gpio.c: 77:     if(((void*)0) == _pin_config || _pin_config->pin > 
      +                          8 -1){
  6015   0017D8  504D               	movf	gpio_pin_write_logic@_pin_config^0,w,c
  6016   0017DA  104E               	iorwf	(gpio_pin_write_logic@_pin_config+1)^0,w,c
  6017   0017DC  B4D8               	btfsc	status,2,c
  6018   0017DE  EFF3  F00B         	goto	u6411
  6019   0017E2  EFF5  F00B         	goto	u6410
  6020   0017E6                     u6411:
  6021   0017E6  EF07  F00C         	goto	l7881
  6022   0017EA                     u6410:
  6023   0017EA  C04D  FFD9         	movff	gpio_pin_write_logic@_pin_config,fsr2l
  6024   0017EE  C04E  FFDA         	movff	gpio_pin_write_logic@_pin_config+1,fsr2h
  6025   0017F2  30DF               	rrcf	223,w,c
  6026   0017F4  32E8               	rrcf	wreg,f,c
  6027   0017F6  32E8               	rrcf	wreg,f,c
  6028   0017F8  0B07               	andlw	7
  6029   0017FA  0100               	movlb	0	; () banked
  6030   0017FC  6FE5               	movwf	??_gpio_pin_write_logic& (0+255),b
  6031   0017FE  0E07               	movlw	7
  6032   001800  65E5               	cpfsgt	??_gpio_pin_write_logic& (0+255),b
  6033   001802  EF05  F00C         	goto	u6421
  6034   001806  EF07  F00C         	goto	u6420
  6035   00180A                     u6421:
  6036   00180A  EF6C  F00C         	goto	l7889
  6037   00180E                     u6420:
  6038   00180E                     l7881:
  6039                           
  6040                           ;MCAL_Layer/GPIO/hal_gpio.c: 78:         ret = (Std_ReturnType)0x00;
  6041   00180E  0E00               	movlw	0
  6042   001810  6E50               	movwf	gpio_pin_write_logic@ret^0,c
  6043                           
  6044                           ;MCAL_Layer/GPIO/hal_gpio.c: 79:     }
  6045   001812  EF81  F00C         	goto	l7891
  6046   001816                     l7883:
  6047                           
  6048                           ; BSR set to: 0
  6049                           ;MCAL_Layer/GPIO/hal_gpio.c: 83:                 (*lat_registers[_pin_config->port] &= ~
      +                          ((uint8)1 << _pin_config->pin));
  6050   001816  C04D  FFD9         	movff	gpio_pin_write_logic@_pin_config,fsr2l
  6051   00181A  C04E  FFDA         	movff	gpio_pin_write_logic@_pin_config+1,fsr2h
  6052   00181E  30DF               	rrcf	223,w,c
  6053   001820  32E8               	rrcf	wreg,f,c
  6054   001822  32E8               	rrcf	wreg,f,c
  6055   001824  0B07               	andlw	7
  6056   001826  6FE5               	movwf	??_gpio_pin_write_logic& (0+255),b
  6057   001828  0E01               	movlw	1
  6058   00182A  6FE6               	movwf	(??_gpio_pin_write_logic+1)& (0+255),b
  6059   00182C  2BE5               	incf	??_gpio_pin_write_logic& (0+255),f,b
  6060   00182E  EF1B  F00C         	goto	u6434
  6061   001832                     u6435:
  6062   001832  90D8               	bcf	status,0,c
  6063   001834  37E6               	rlcf	(??_gpio_pin_write_logic+1)& (0+255),f,b
  6064   001836                     u6434:
  6065   001836  2FE5               	decfsz	??_gpio_pin_write_logic& (0+255),f,b
  6066   001838  EF19  F00C         	goto	u6435
  6067   00183C  0100               	movlb	0	; () banked
  6068   00183E  51E6               	movf	(??_gpio_pin_write_logic+1)& (0+255),w,b
  6069   001840  0AFF               	xorlw	255
  6070   001842  6FE7               	movwf	(??_gpio_pin_write_logic+2)& (0+255),b
  6071   001844  C04D  FFD9         	movff	gpio_pin_write_logic@_pin_config,fsr2l
  6072   001848  C04E  FFDA         	movff	gpio_pin_write_logic@_pin_config+1,fsr2h
  6073   00184C  50DF               	movf	223,w,c
  6074   00184E  0B07               	andlw	7
  6075   001850  6FE8               	movwf	(??_gpio_pin_write_logic+3)& (0+255),b
  6076   001852  51E8               	movf	(??_gpio_pin_write_logic+3)& (0+255),w,b
  6077   001854  0D02               	mullw	2
  6078   001856  0E8A               	movlw	low _lat_registers
  6079   001858  24F3               	addwf	243,w,c
  6080   00185A  6ED9               	movwf	fsr2l,c
  6081   00185C  0E00               	movlw	high _lat_registers
  6082   00185E  20F4               	addwfc	prodh,w,c
  6083   001860  6EDA               	movwf	fsr2h,c
  6084   001862  CFDE F0E9          	movff	postinc2,??_gpio_pin_write_logic+4
  6085   001866  CFDD F0EA          	movff	postdec2,??_gpio_pin_write_logic+5
  6086   00186A  C0E9  FFD9         	movff	??_gpio_pin_write_logic+4,fsr2l
  6087   00186E  C0EA  FFDA         	movff	??_gpio_pin_write_logic+5,fsr2h
  6088   001872  51E7               	movf	(??_gpio_pin_write_logic+2)& (0+255),w,b
  6089   001874  16DF               	andwf	indf2,f,c
  6090                           
  6091                           ;MCAL_Layer/GPIO/hal_gpio.c: 84:                 break;
  6092   001876  EF81  F00C         	goto	l7891
  6093   00187A                     l7885:
  6094                           
  6095                           ; BSR set to: 0
  6096                           ;MCAL_Layer/GPIO/hal_gpio.c: 86:                 (*lat_registers[_pin_config->port] |= (
      +                          (uint8)1 << _pin_config->pin));
  6097   00187A  C04D  FFD9         	movff	gpio_pin_write_logic@_pin_config,fsr2l
  6098   00187E  C04E  FFDA         	movff	gpio_pin_write_logic@_pin_config+1,fsr2h
  6099   001882  30DF               	rrcf	223,w,c
  6100   001884  32E8               	rrcf	wreg,f,c
  6101   001886  32E8               	rrcf	wreg,f,c
  6102   001888  0B07               	andlw	7
  6103   00188A  6FE5               	movwf	??_gpio_pin_write_logic& (0+255),b
  6104   00188C  0E01               	movlw	1
  6105   00188E  6FE6               	movwf	(??_gpio_pin_write_logic+1)& (0+255),b
  6106   001890  2BE5               	incf	??_gpio_pin_write_logic& (0+255),f,b
  6107   001892  EF4D  F00C         	goto	u6444
  6108   001896                     u6445:
  6109   001896  90D8               	bcf	status,0,c
  6110   001898  37E6               	rlcf	(??_gpio_pin_write_logic+1)& (0+255),f,b
  6111   00189A                     u6444:
  6112   00189A  2FE5               	decfsz	??_gpio_pin_write_logic& (0+255),f,b
  6113   00189C  EF4B  F00C         	goto	u6445
  6114   0018A0  C04D  FFD9         	movff	gpio_pin_write_logic@_pin_config,fsr2l
  6115   0018A4  C04E  FFDA         	movff	gpio_pin_write_logic@_pin_config+1,fsr2h
  6116   0018A8  50DF               	movf	223,w,c
  6117   0018AA  0B07               	andlw	7
  6118   0018AC  0100               	movlb	0	; () banked
  6119   0018AE  6FE7               	movwf	(??_gpio_pin_write_logic+2)& (0+255),b
  6120   0018B0  51E7               	movf	(??_gpio_pin_write_logic+2)& (0+255),w,b
  6121   0018B2  0D02               	mullw	2
  6122   0018B4  0E8A               	movlw	low _lat_registers
  6123   0018B6  24F3               	addwf	243,w,c
  6124   0018B8  6ED9               	movwf	fsr2l,c
  6125   0018BA  0E00               	movlw	high _lat_registers
  6126   0018BC  20F4               	addwfc	prodh,w,c
  6127   0018BE  6EDA               	movwf	fsr2h,c
  6128   0018C0  CFDE F0E8          	movff	postinc2,??_gpio_pin_write_logic+3
  6129   0018C4  CFDD F0E9          	movff	postdec2,??_gpio_pin_write_logic+4
  6130   0018C8  C0E8  FFD9         	movff	??_gpio_pin_write_logic+3,fsr2l
  6131   0018CC  C0E9  FFDA         	movff	??_gpio_pin_write_logic+4,fsr2h
  6132   0018D0  51E6               	movf	(??_gpio_pin_write_logic+1)& (0+255),w,b
  6133   0018D2  12DF               	iorwf	indf2,f,c
  6134                           
  6135                           ;MCAL_Layer/GPIO/hal_gpio.c: 87:                 break;
  6136   0018D4  EF81  F00C         	goto	l7891
  6137   0018D8                     l7889:
  6138                           
  6139                           ; BSR set to: 0
  6140   0018D8  504F               	movf	gpio_pin_write_logic@logic^0,w,c
  6141   0018DA  6FE5               	movwf	??_gpio_pin_write_logic& (0+255),b
  6142   0018DC  6BE6               	clrf	(??_gpio_pin_write_logic+1)& (0+255),b
  6143                           
  6144                           ; Switch on 2 bytes has been partitioned into a top level switch of size 1, and 1 sub-sw
      +                          itches
  6145                           ; Switch size 1, requested type "simple"
  6146                           ; Number of cases is 1, Range of values is 0 to 0
  6147                           ; switch strategies available:
  6148                           ; Name         Instructions Cycles
  6149                           ; simple_byte            4     3 (average)
  6150                           ;	Chosen strategy is simple_byte
  6151   0018DE  51E6               	movf	(??_gpio_pin_write_logic+1)& (0+255),w,b
  6152   0018E0  0A00               	xorlw	0	; case 0
  6153   0018E2  B4D8               	btfsc	status,2,c
  6154   0018E4  EF76  F00C         	goto	l9437
  6155   0018E8  EF07  F00C         	goto	l7881
  6156   0018EC                     l9437:
  6157                           
  6158                           ; BSR set to: 0
  6159                           ; Switch size 1, requested type "simple"
  6160                           ; Number of cases is 2, Range of values is 0 to 1
  6161                           ; switch strategies available:
  6162                           ; Name         Instructions Cycles
  6163                           ; simple_byte            7     4 (average)
  6164                           ;	Chosen strategy is simple_byte
  6165   0018EC  51E5               	movf	??_gpio_pin_write_logic& (0+255),w,b
  6166   0018EE  0A00               	xorlw	0	; case 0
  6167   0018F0  B4D8               	btfsc	status,2,c
  6168   0018F2  EF0B  F00C         	goto	l7883
  6169   0018F6  0A01               	xorlw	1	; case 1
  6170   0018F8  B4D8               	btfsc	status,2,c
  6171   0018FA  EF3D  F00C         	goto	l7885
  6172   0018FE  EF07  F00C         	goto	l7881
  6173   001902                     l7891:
  6174                           
  6175                           ;MCAL_Layer/GPIO/hal_gpio.c: 91:     return ret;
  6176   001902  5050               	movf	gpio_pin_write_logic@ret^0,w,c
  6177   001904  0012               	return		;funcret
  6178   001906                     __end_of_gpio_pin_write_logic:
  6179                           	callstack 0
  6180                           
  6181 ;; *************** function _InterruptManager *****************
  6182 ;; Defined at:
  6183 ;;		line 32 in file "MCAL_Layer/Interrupt/mcal_interrupt_manager.c"
  6184 ;; Parameters:    Size  Location     Type
  6185 ;;		None
  6186 ;; Auto vars:     Size  Location     Type
  6187 ;;		None
  6188 ;; Return value:  Size  Location     Type
  6189 ;;                  1    wreg      void 
  6190 ;; Registers used:
  6191 ;;		wreg, fsr2l, fsr2h, status,2, status,0, pcl, pclath, pclatu, tosl, prodl, prodh, cstack
  6192 ;; Tracked objects:
  6193 ;;		On entry : 0/0
  6194 ;;		On exit  : 0/0
  6195 ;;		Unchanged: 0/0
  6196 ;; Data sizes:     COMRAM   BANK0   BANK1   BANK2   BANK3   BANK4   BANK5   BANK6   BANK7   BANK8   BANK9  BANK10  BANK1
      +1  BANK12  BANK13  BANK14  BANK15
  6197 ;;      Params:         0       0       0       0       0       0       0       0       0       0       0       0       
      +0       0       0       0       0
  6198 ;;      Locals:         0       0       0       0       0       0       0       0       0       0       0       0       
      +0       0       0       0       0
  6199 ;;      Temps:          7       0       0       0       0       0       0       0       0       0       0       0       
      +0       0       0       0       0
  6200 ;;      Totals:         7       0       0       0       0       0       0       0       0       0       0       0       
      +0       0       0       0       0
  6201 ;;Total ram usage:        7 bytes
  6202 ;; Hardware stack levels used: 1
  6203 ;; Hardware stack levels required when called: 6
  6204 ;; This function calls:
  6205 ;;		_ADC_ISR
  6206 ;;		_CCP1_ISR
  6207 ;;		_CCP2_ISR
  6208 ;;		_EUSART_RX_ISR
  6209 ;;		_EUSART_TX_ISR
  6210 ;;		_INT0_ISR
  6211 ;;		_INT1_ISR
  6212 ;;		_INT2_ISR
  6213 ;;		_MSSP_I2C_BC_ISR
  6214 ;;		_MSSP_I2C_ISR
  6215 ;;		_MSSP_SPI_ISR
  6216 ;;		_RB4_ISR
  6217 ;;		_RB5_ISR
  6218 ;;		_RB6_ISR
  6219 ;;		_RB7_ISR
  6220 ;;		_TMR0_ISR
  6221 ;;		_TMR1_ISR
  6222 ;;		_TMR2_ISR
  6223 ;;		_TMR3_ISR
  6224 ;; This function is called by:
  6225 ;;		Interrupt level 2
  6226 ;; This function uses a non-reentrant model
  6227 ;;
  6228                           
  6229                           	psect	intcode
  6230   000008                     __pintcode:
  6231                           	callstack 0
  6232   000008                     _InterruptManager:
  6233                           	callstack 18
  6234                           
  6235                           ;incstack = 0
  6236   000008  8261               	bsf	int$flags,1,c	;set compiler interrupt flag (level 2)
  6237   00000A  ED63  F008         	call	int_func,f	;refresh shadow registers
  6238                           
  6239                           	psect	intcode_body
  6240   0010C6                     __pintcode_body:
  6241                           	callstack 18
  6242   0010C6                     int_func:
  6243                           	callstack 18
  6244   0010C6  0006               	pop		; remove dummy address from shadow register refresh
  6245   0010C8  CFFA F047          	movff	pclath,??_InterruptManager+1
  6246   0010CC  CFFB F048          	movff	pclatu,??_InterruptManager+2
  6247   0010D0  CFD9 F049          	movff	fsr2l,??_InterruptManager+3
  6248   0010D4  CFDA F04A          	movff	fsr2h,??_InterruptManager+4
  6249   0010D8  CFF3 F04B          	movff	prodl,??_InterruptManager+5
  6250   0010DC  CFF4 F04C          	movff	prodh,??_InterruptManager+6
  6251   0010E0                     
  6252                           ;MCAL_Layer/Interrupt/mcal_interrupt_manager.c: 34:     if((1 == INTCONbits.INT0IE) && (
      +                          1 == INTCONbits.INT0IF)){
  6253   0010E0  A8F2               	btfss	242,4,c	;volatile
  6254   0010E2  EF75  F008         	goto	i2u542_41
  6255   0010E6  EF77  F008         	goto	i2u542_40
  6256   0010EA                     i2u542_41:
  6257   0010EA  EF80  F008         	goto	i2l1218
  6258   0010EE                     i2u542_40:
  6259   0010EE  A2F2               	btfss	242,1,c	;volatile
  6260   0010F0  EF7C  F008         	goto	i2u543_41
  6261   0010F4  EF7E  F008         	goto	i2u543_40
  6262   0010F8                     i2u543_41:
  6263   0010F8  EF80  F008         	goto	i2l1218
  6264   0010FC                     i2u543_40:
  6265   0010FC                     
  6266                           ;MCAL_Layer/Interrupt/mcal_interrupt_manager.c: 35:         INT0_ISR();
  6267   0010FC  EC4F  F017         	call	_INT0_ISR	;wreg free
  6268   001100                     i2l1218:
  6269                           
  6270                           ;MCAL_Layer/Interrupt/mcal_interrupt_manager.c: 38:     if((1 == INTCON3bits.INT1E) && (
      +                          1 == INTCON3bits.INT1F)){
  6271   001100  A6F0               	btfss	240,3,c	;volatile
  6272   001102  EF85  F008         	goto	i2u544_41
  6273   001106  EF87  F008         	goto	i2u544_40
  6274   00110A                     i2u544_41:
  6275   00110A  EF90  F008         	goto	i2l1220
  6276   00110E                     i2u544_40:
  6277   00110E  A0F0               	btfss	240,0,c	;volatile
  6278   001110  EF8C  F008         	goto	i2u545_41
  6279   001114  EF8E  F008         	goto	i2u545_40
  6280   001118                     i2u545_41:
  6281   001118  EF90  F008         	goto	i2l1220
  6282   00111C                     i2u545_40:
  6283   00111C                     
  6284                           ;MCAL_Layer/Interrupt/mcal_interrupt_manager.c: 39:         INT1_ISR();
  6285   00111C  EC38  F017         	call	_INT1_ISR	;wreg free
  6286   001120                     i2l1220:
  6287                           
  6288                           ;MCAL_Layer/Interrupt/mcal_interrupt_manager.c: 42:     if((1 == INTCON3bits.INT2IE) && 
      +                          (1 == INTCON3bits.INT2IF)){
  6289   001120  A8F0               	btfss	240,4,c	;volatile
  6290   001122  EF95  F008         	goto	i2u546_41
  6291   001126  EF97  F008         	goto	i2u546_40
  6292   00112A                     i2u546_41:
  6293   00112A  EFA0  F008         	goto	i2l1222
  6294   00112E                     i2u546_40:
  6295   00112E  A2F0               	btfss	240,1,c	;volatile
  6296   001130  EF9C  F008         	goto	i2u547_41
  6297   001134  EF9E  F008         	goto	i2u547_40
  6298   001138                     i2u547_41:
  6299   001138  EFA0  F008         	goto	i2l1222
  6300   00113C                     i2u547_40:
  6301   00113C                     
  6302                           ;MCAL_Layer/Interrupt/mcal_interrupt_manager.c: 43:         INT2_ISR();
  6303   00113C  EC21  F017         	call	_INT2_ISR	;wreg free
  6304   001140                     i2l1222:
  6305                           
  6306                           ;MCAL_Layer/Interrupt/mcal_interrupt_manager.c: 49:     if((1 == INTCONbits.RBIE) && (1 
      +                          == INTCONbits.RBIF) &&
  6307   001140  A6F2               	btfss	242,3,c	;volatile
  6308   001142  EFA5  F008         	goto	i2u548_41
  6309   001146  EFA7  F008         	goto	i2u548_40
  6310   00114A                     i2u548_41:
  6311   00114A  EFC2  F008         	goto	i2l1224
  6312   00114E                     i2u548_40:
  6313   00114E  A0F2               	btfss	242,0,c	;volatile
  6314   001150  EFAC  F008         	goto	i2u549_41
  6315   001154  EFAE  F008         	goto	i2u549_40
  6316   001158                     i2u549_41:
  6317   001158  EFC2  F008         	goto	i2l1224
  6318   00115C                     i2u549_40:
  6319   00115C  A881               	btfss	129,4,c	;volatile
  6320   00115E  EFB3  F008         	goto	i2u550_41
  6321   001162  EFB5  F008         	goto	i2u550_40
  6322   001166                     i2u550_41:
  6323   001166  EFC2  F008         	goto	i2l1224
  6324   00116A                     i2u550_40:
  6325   00116A  045B               	decf	_RB4_Flag^0,w,c	;volatile
  6326   00116C  A4D8               	btfss	status,2,c
  6327   00116E  EFBB  F008         	goto	i2u551_41
  6328   001172  EFBD  F008         	goto	i2u551_40
  6329   001176                     i2u551_41:
  6330   001176  EFC2  F008         	goto	i2l1224
  6331   00117A                     i2u551_40:
  6332   00117A                     
  6333                           ;MCAL_Layer/Interrupt/mcal_interrupt_manager.c: 50:        (PORTBbits.RB4 == GPIO_HIGH) 
      +                          && (RB4_Flag == 1)){;MCAL_Layer/Interrupt/mcal_interrupt_manager.c: 51:         RB4_Flag
      +                           = 0;
  6334   00117A  0E00               	movlw	0
  6335   00117C  6E5B               	movwf	_RB4_Flag^0,c	;volatile
  6336   00117E                     
  6337                           ;MCAL_Layer/Interrupt/mcal_interrupt_manager.c: 52:         RB4_ISR(0);
  6338   00117E  0E00               	movlw	0
  6339   001180  EC06  F018         	call	_RB4_ISR
  6340   001184                     i2l1224:
  6341                           
  6342                           ;MCAL_Layer/Interrupt/mcal_interrupt_manager.c: 55:     if((1 == INTCONbits.RBIE) && (1 
      +                          == INTCONbits.RBIF) &&
  6343   001184  A6F2               	btfss	242,3,c	;volatile
  6344   001186  EFC7  F008         	goto	i2u552_41
  6345   00118A  EFC9  F008         	goto	i2u552_40
  6346   00118E                     i2u552_41:
  6347   00118E  EFE4  F008         	goto	i2l1226
  6348   001192                     i2u552_40:
  6349   001192  A0F2               	btfss	242,0,c	;volatile
  6350   001194  EFCE  F008         	goto	i2u553_41
  6351   001198  EFD0  F008         	goto	i2u553_40
  6352   00119C                     i2u553_41:
  6353   00119C  EFE4  F008         	goto	i2l1226
  6354   0011A0                     i2u553_40:
  6355   0011A0  B881               	btfsc	129,4,c	;volatile
  6356   0011A2  EFD5  F008         	goto	i2u554_41
  6357   0011A6  EFD7  F008         	goto	i2u554_40
  6358   0011AA                     i2u554_41:
  6359   0011AA  EFE4  F008         	goto	i2l1226
  6360   0011AE                     i2u554_40:
  6361   0011AE  505B               	movf	_RB4_Flag^0,w,c	;volatile
  6362   0011B0  A4D8               	btfss	status,2,c
  6363   0011B2  EFDD  F008         	goto	i2u555_41
  6364   0011B6  EFDF  F008         	goto	i2u555_40
  6365   0011BA                     i2u555_41:
  6366   0011BA  EFE4  F008         	goto	i2l1226
  6367   0011BE                     i2u555_40:
  6368   0011BE                     
  6369                           ;MCAL_Layer/Interrupt/mcal_interrupt_manager.c: 56:        (PORTBbits.RB4 == GPIO_LOW) &
      +                          & (RB4_Flag == 0)){;MCAL_Layer/Interrupt/mcal_interrupt_manager.c: 57:         RB4_Flag 
      +                          = 1;
  6370   0011BE  0E01               	movlw	1
  6371   0011C0  6E5B               	movwf	_RB4_Flag^0,c	;volatile
  6372   0011C2                     
  6373                           ;MCAL_Layer/Interrupt/mcal_interrupt_manager.c: 58:         RB4_ISR(1);
  6374   0011C2  0E01               	movlw	1
  6375   0011C4  EC06  F018         	call	_RB4_ISR
  6376   0011C8                     i2l1226:
  6377                           
  6378                           ;MCAL_Layer/Interrupt/mcal_interrupt_manager.c: 61:     if((1 == INTCONbits.RBIE) && (1 
      +                          == INTCONbits.RBIF) &&
  6379   0011C8  A6F2               	btfss	242,3,c	;volatile
  6380   0011CA  EFE9  F008         	goto	i2u556_41
  6381   0011CE  EFEB  F008         	goto	i2u556_40
  6382   0011D2                     i2u556_41:
  6383   0011D2  EF06  F009         	goto	i2l1228
  6384   0011D6                     i2u556_40:
  6385   0011D6  A0F2               	btfss	242,0,c	;volatile
  6386   0011D8  EFF0  F008         	goto	i2u557_41
  6387   0011DC  EFF2  F008         	goto	i2u557_40
  6388   0011E0                     i2u557_41:
  6389   0011E0  EF06  F009         	goto	i2l1228
  6390   0011E4                     i2u557_40:
  6391   0011E4  AA81               	btfss	129,5,c	;volatile
  6392   0011E6  EFF7  F008         	goto	i2u558_41
  6393   0011EA  EFF9  F008         	goto	i2u558_40
  6394   0011EE                     i2u558_41:
  6395   0011EE  EF06  F009         	goto	i2l1228
  6396   0011F2                     i2u558_40:
  6397   0011F2  045A               	decf	_RB5_Flag^0,w,c	;volatile
  6398   0011F4  A4D8               	btfss	status,2,c
  6399   0011F6  EFFF  F008         	goto	i2u559_41
  6400   0011FA  EF01  F009         	goto	i2u559_40
  6401   0011FE                     i2u559_41:
  6402   0011FE  EF06  F009         	goto	i2l1228
  6403   001202                     i2u559_40:
  6404   001202                     
  6405                           ;MCAL_Layer/Interrupt/mcal_interrupt_manager.c: 62:        (PORTBbits.RB5 == GPIO_HIGH) 
      +                          && (RB5_Flag == 1)){;MCAL_Layer/Interrupt/mcal_interrupt_manager.c: 63:         RB5_Flag
      +                           = 0;
  6406   001202  0E00               	movlw	0
  6407   001204  6E5A               	movwf	_RB5_Flag^0,c	;volatile
  6408   001206                     
  6409                           ;MCAL_Layer/Interrupt/mcal_interrupt_manager.c: 64:         RB5_ISR(0);
  6410   001206  0E00               	movlw	0
  6411   001208  ECF9  F017         	call	_RB5_ISR
  6412   00120C                     i2l1228:
  6413                           
  6414                           ;MCAL_Layer/Interrupt/mcal_interrupt_manager.c: 67:     if((1 == INTCONbits.RBIE) && (1 
      +                          == INTCONbits.RBIF) &&
  6415   00120C  A6F2               	btfss	242,3,c	;volatile
  6416   00120E  EF0B  F009         	goto	i2u560_41
  6417   001212  EF0D  F009         	goto	i2u560_40
  6418   001216                     i2u560_41:
  6419   001216  EF28  F009         	goto	i2l1230
  6420   00121A                     i2u560_40:
  6421   00121A  A0F2               	btfss	242,0,c	;volatile
  6422   00121C  EF12  F009         	goto	i2u561_41
  6423   001220  EF14  F009         	goto	i2u561_40
  6424   001224                     i2u561_41:
  6425   001224  EF28  F009         	goto	i2l1230
  6426   001228                     i2u561_40:
  6427   001228  BA81               	btfsc	129,5,c	;volatile
  6428   00122A  EF19  F009         	goto	i2u562_41
  6429   00122E  EF1B  F009         	goto	i2u562_40
  6430   001232                     i2u562_41:
  6431   001232  EF28  F009         	goto	i2l1230
  6432   001236                     i2u562_40:
  6433   001236  505A               	movf	_RB5_Flag^0,w,c	;volatile
  6434   001238  A4D8               	btfss	status,2,c
  6435   00123A  EF21  F009         	goto	i2u563_41
  6436   00123E  EF23  F009         	goto	i2u563_40
  6437   001242                     i2u563_41:
  6438   001242  EF28  F009         	goto	i2l1230
  6439   001246                     i2u563_40:
  6440   001246                     
  6441                           ;MCAL_Layer/Interrupt/mcal_interrupt_manager.c: 68:        (PORTBbits.RB5 == GPIO_LOW) &
      +                          & (RB5_Flag == 0)){;MCAL_Layer/Interrupt/mcal_interrupt_manager.c: 69:         RB5_Flag 
      +                          = 1;
  6442   001246  0E01               	movlw	1
  6443   001248  6E5A               	movwf	_RB5_Flag^0,c	;volatile
  6444   00124A                     
  6445                           ;MCAL_Layer/Interrupt/mcal_interrupt_manager.c: 70:         RB5_ISR(1);
  6446   00124A  0E01               	movlw	1
  6447   00124C  ECF9  F017         	call	_RB5_ISR
  6448   001250                     i2l1230:
  6449                           
  6450                           ;MCAL_Layer/Interrupt/mcal_interrupt_manager.c: 73:     if((1 == INTCONbits.RBIE) && (1 
      +                          == INTCONbits.RBIF) &&
  6451   001250  A6F2               	btfss	242,3,c	;volatile
  6452   001252  EF2D  F009         	goto	i2u564_41
  6453   001256  EF2F  F009         	goto	i2u564_40
  6454   00125A                     i2u564_41:
  6455   00125A  EF4A  F009         	goto	i2l1232
  6456   00125E                     i2u564_40:
  6457   00125E  A0F2               	btfss	242,0,c	;volatile
  6458   001260  EF34  F009         	goto	i2u565_41
  6459   001264  EF36  F009         	goto	i2u565_40
  6460   001268                     i2u565_41:
  6461   001268  EF4A  F009         	goto	i2l1232
  6462   00126C                     i2u565_40:
  6463   00126C  AC81               	btfss	129,6,c	;volatile
  6464   00126E  EF3B  F009         	goto	i2u566_41
  6465   001272  EF3D  F009         	goto	i2u566_40
  6466   001276                     i2u566_41:
  6467   001276  EF4A  F009         	goto	i2l1232
  6468   00127A                     i2u566_40:
  6469   00127A  0459               	decf	_RB6_Flag^0,w,c	;volatile
  6470   00127C  A4D8               	btfss	status,2,c
  6471   00127E  EF43  F009         	goto	i2u567_41
  6472   001282  EF45  F009         	goto	i2u567_40
  6473   001286                     i2u567_41:
  6474   001286  EF4A  F009         	goto	i2l1232
  6475   00128A                     i2u567_40:
  6476   00128A                     
  6477                           ;MCAL_Layer/Interrupt/mcal_interrupt_manager.c: 74:        (PORTBbits.RB6 == GPIO_HIGH) 
      +                          && (RB6_Flag == 1)){;MCAL_Layer/Interrupt/mcal_interrupt_manager.c: 75:         RB6_Flag
      +                           = 0;
  6478   00128A  0E00               	movlw	0
  6479   00128C  6E59               	movwf	_RB6_Flag^0,c	;volatile
  6480   00128E                     
  6481                           ;MCAL_Layer/Interrupt/mcal_interrupt_manager.c: 76:         RB6_ISR(0);
  6482   00128E  0E00               	movlw	0
  6483   001290  ECEC  F017         	call	_RB6_ISR
  6484   001294                     i2l1232:
  6485                           
  6486                           ;MCAL_Layer/Interrupt/mcal_interrupt_manager.c: 79:     if((1 == INTCONbits.RBIE) && (1 
      +                          == INTCONbits.RBIF) &&
  6487   001294  A6F2               	btfss	242,3,c	;volatile
  6488   001296  EF4F  F009         	goto	i2u568_41
  6489   00129A  EF51  F009         	goto	i2u568_40
  6490   00129E                     i2u568_41:
  6491   00129E  EF6C  F009         	goto	i2l1234
  6492   0012A2                     i2u568_40:
  6493   0012A2  A0F2               	btfss	242,0,c	;volatile
  6494   0012A4  EF56  F009         	goto	i2u569_41
  6495   0012A8  EF58  F009         	goto	i2u569_40
  6496   0012AC                     i2u569_41:
  6497   0012AC  EF6C  F009         	goto	i2l1234
  6498   0012B0                     i2u569_40:
  6499   0012B0  BC81               	btfsc	129,6,c	;volatile
  6500   0012B2  EF5D  F009         	goto	i2u570_41
  6501   0012B6  EF5F  F009         	goto	i2u570_40
  6502   0012BA                     i2u570_41:
  6503   0012BA  EF6C  F009         	goto	i2l1234
  6504   0012BE                     i2u570_40:
  6505   0012BE  5059               	movf	_RB6_Flag^0,w,c	;volatile
  6506   0012C0  A4D8               	btfss	status,2,c
  6507   0012C2  EF65  F009         	goto	i2u571_41
  6508   0012C6  EF67  F009         	goto	i2u571_40
  6509   0012CA                     i2u571_41:
  6510   0012CA  EF6C  F009         	goto	i2l1234
  6511   0012CE                     i2u571_40:
  6512   0012CE                     
  6513                           ;MCAL_Layer/Interrupt/mcal_interrupt_manager.c: 80:        (PORTBbits.RB6 == GPIO_LOW) &
      +                          & (RB6_Flag == 0)){;MCAL_Layer/Interrupt/mcal_interrupt_manager.c: 81:         RB6_Flag 
      +                          = 1;
  6514   0012CE  0E01               	movlw	1
  6515   0012D0  6E59               	movwf	_RB6_Flag^0,c	;volatile
  6516   0012D2                     
  6517                           ;MCAL_Layer/Interrupt/mcal_interrupt_manager.c: 82:         RB6_ISR(1);
  6518   0012D2  0E01               	movlw	1
  6519   0012D4  ECEC  F017         	call	_RB6_ISR
  6520   0012D8                     i2l1234:
  6521                           
  6522                           ;MCAL_Layer/Interrupt/mcal_interrupt_manager.c: 85:     if((1 == INTCONbits.RBIE) && (1 
      +                          == INTCONbits.RBIF) &&
  6523   0012D8  A6F2               	btfss	242,3,c	;volatile
  6524   0012DA  EF71  F009         	goto	i2u572_41
  6525   0012DE  EF73  F009         	goto	i2u572_40
  6526   0012E2                     i2u572_41:
  6527   0012E2  EF8E  F009         	goto	i2l1236
  6528   0012E6                     i2u572_40:
  6529   0012E6  A0F2               	btfss	242,0,c	;volatile
  6530   0012E8  EF78  F009         	goto	i2u573_41
  6531   0012EC  EF7A  F009         	goto	i2u573_40
  6532   0012F0                     i2u573_41:
  6533   0012F0  EF8E  F009         	goto	i2l1236
  6534   0012F4                     i2u573_40:
  6535   0012F4  AE81               	btfss	129,7,c	;volatile
  6536   0012F6  EF7F  F009         	goto	i2u574_41
  6537   0012FA  EF81  F009         	goto	i2u574_40
  6538   0012FE                     i2u574_41:
  6539   0012FE  EF8E  F009         	goto	i2l1236
  6540   001302                     i2u574_40:
  6541   001302  0458               	decf	_RB7_Flag^0,w,c	;volatile
  6542   001304  A4D8               	btfss	status,2,c
  6543   001306  EF87  F009         	goto	i2u575_41
  6544   00130A  EF89  F009         	goto	i2u575_40
  6545   00130E                     i2u575_41:
  6546   00130E  EF8E  F009         	goto	i2l1236
  6547   001312                     i2u575_40:
  6548   001312                     
  6549                           ;MCAL_Layer/Interrupt/mcal_interrupt_manager.c: 86:        (PORTBbits.RB7 == GPIO_HIGH) 
      +                          && (RB7_Flag == 1)){;MCAL_Layer/Interrupt/mcal_interrupt_manager.c: 87:         RB7_Flag
      +                           = 0;
  6550   001312  0E00               	movlw	0
  6551   001314  6E58               	movwf	_RB7_Flag^0,c	;volatile
  6552   001316                     
  6553                           ;MCAL_Layer/Interrupt/mcal_interrupt_manager.c: 88:         RB7_ISR(0);
  6554   001316  0E00               	movlw	0
  6555   001318  ECDF  F017         	call	_RB7_ISR
  6556   00131C                     i2l1236:
  6557                           
  6558                           ;MCAL_Layer/Interrupt/mcal_interrupt_manager.c: 91:     if((1 == INTCONbits.RBIE) && (1 
      +                          == INTCONbits.RBIF) &&
  6559   00131C  A6F2               	btfss	242,3,c	;volatile
  6560   00131E  EF93  F009         	goto	i2u576_41
  6561   001322  EF95  F009         	goto	i2u576_40
  6562   001326                     i2u576_41:
  6563   001326  EFB0  F009         	goto	i2l1238
  6564   00132A                     i2u576_40:
  6565   00132A  A0F2               	btfss	242,0,c	;volatile
  6566   00132C  EF9A  F009         	goto	i2u577_41
  6567   001330  EF9C  F009         	goto	i2u577_40
  6568   001334                     i2u577_41:
  6569   001334  EFB0  F009         	goto	i2l1238
  6570   001338                     i2u577_40:
  6571   001338  BE81               	btfsc	129,7,c	;volatile
  6572   00133A  EFA1  F009         	goto	i2u578_41
  6573   00133E  EFA3  F009         	goto	i2u578_40
  6574   001342                     i2u578_41:
  6575   001342  EFB0  F009         	goto	i2l1238
  6576   001346                     i2u578_40:
  6577   001346  5058               	movf	_RB7_Flag^0,w,c	;volatile
  6578   001348  A4D8               	btfss	status,2,c
  6579   00134A  EFA9  F009         	goto	i2u579_41
  6580   00134E  EFAB  F009         	goto	i2u579_40
  6581   001352                     i2u579_41:
  6582   001352  EFB0  F009         	goto	i2l1238
  6583   001356                     i2u579_40:
  6584   001356                     
  6585                           ;MCAL_Layer/Interrupt/mcal_interrupt_manager.c: 92:        (PORTBbits.RB7 == GPIO_LOW) &
      +                          & (RB7_Flag == 0)){;MCAL_Layer/Interrupt/mcal_interrupt_manager.c: 93:         RB7_Flag 
      +                          = 1;
  6586   001356  0E01               	movlw	1
  6587   001358  6E58               	movwf	_RB7_Flag^0,c	;volatile
  6588   00135A                     
  6589                           ;MCAL_Layer/Interrupt/mcal_interrupt_manager.c: 94:         RB7_ISR(1);
  6590   00135A  0E01               	movlw	1
  6591   00135C  ECDF  F017         	call	_RB7_ISR
  6592   001360                     i2l1238:
  6593                           
  6594                           ;MCAL_Layer/Interrupt/mcal_interrupt_manager.c: 99:     if((1 == PIE1bits.ADIE) && (1 ==
      +                           PIR1bits.ADIF)){
  6595   001360  AC9D               	btfss	157,6,c	;volatile
  6596   001362  EFB5  F009         	goto	i2u580_41
  6597   001366  EFB7  F009         	goto	i2u580_40
  6598   00136A                     i2u580_41:
  6599   00136A  EFC0  F009         	goto	i2l1240
  6600   00136E                     i2u580_40:
  6601   00136E  AC9E               	btfss	158,6,c	;volatile
  6602   001370  EFBC  F009         	goto	i2u581_41
  6603   001374  EFBE  F009         	goto	i2u581_40
  6604   001378                     i2u581_41:
  6605   001378  EFC0  F009         	goto	i2l1240
  6606   00137C                     i2u581_40:
  6607   00137C                     
  6608                           ;MCAL_Layer/Interrupt/mcal_interrupt_manager.c: 100:         ADC_ISR();
  6609   00137C  EC38  F018         	call	_ADC_ISR	;wreg free
  6610   001380                     i2l1240:
  6611                           
  6612                           ;MCAL_Layer/Interrupt/mcal_interrupt_manager.c: 104:     if((1 == INTCONbits.TMR0IE) && 
      +                          (1 == INTCONbits.TMR0IF)){
  6613   001380  AAF2               	btfss	242,5,c	;volatile
  6614   001382  EFC5  F009         	goto	i2u582_41
  6615   001386  EFC7  F009         	goto	i2u582_40
  6616   00138A                     i2u582_41:
  6617   00138A  EFD0  F009         	goto	i2l1242
  6618   00138E                     i2u582_40:
  6619   00138E  A4F2               	btfss	242,2,c	;volatile
  6620   001390  EFCC  F009         	goto	i2u583_41
  6621   001394  EFCE  F009         	goto	i2u583_40
  6622   001398                     i2u583_41:
  6623   001398  EFD0  F009         	goto	i2l1242
  6624   00139C                     i2u583_40:
  6625   00139C                     
  6626                           ;MCAL_Layer/Interrupt/mcal_interrupt_manager.c: 105:         TMR0_ISR();
  6627   00139C  EC87  F016         	call	_TMR0_ISR	;wreg free
  6628   0013A0                     i2l1242:
  6629                           
  6630                           ;MCAL_Layer/Interrupt/mcal_interrupt_manager.c: 108:     if((1 == PIE1bits.TMR1IE) && (1
      +                           == PIR1bits.TMR1IF)){
  6631   0013A0  A09D               	btfss	157,0,c	;volatile
  6632   0013A2  EFD5  F009         	goto	i2u584_41
  6633   0013A6  EFD7  F009         	goto	i2u584_40
  6634   0013AA                     i2u584_41:
  6635   0013AA  EFE0  F009         	goto	i2l1244
  6636   0013AE                     i2u584_40:
  6637   0013AE  A09E               	btfss	158,0,c	;volatile
  6638   0013B0  EFDC  F009         	goto	i2u585_41
  6639   0013B4  EFDE  F009         	goto	i2u585_40
  6640   0013B8                     i2u585_41:
  6641   0013B8  EFE0  F009         	goto	i2l1244
  6642   0013BC                     i2u585_40:
  6643   0013BC                     
  6644                           ;MCAL_Layer/Interrupt/mcal_interrupt_manager.c: 109:         TMR1_ISR();
  6645   0013BC  EC21  F018         	call	_TMR1_ISR	;wreg free
  6646   0013C0                     i2l1244:
  6647                           
  6648                           ;MCAL_Layer/Interrupt/mcal_interrupt_manager.c: 112:     if((1 == PIE1bits.TMR2IE) && (1
      +                           == PIR1bits.TMR2IF)){
  6649   0013C0  A29D               	btfss	157,1,c	;volatile
  6650   0013C2  EFE5  F009         	goto	i2u586_41
  6651   0013C6  EFE7  F009         	goto	i2u586_40
  6652   0013CA                     i2u586_41:
  6653   0013CA  EFF0  F009         	goto	i2l1246
  6654   0013CE                     i2u586_40:
  6655   0013CE  A29E               	btfss	158,1,c	;volatile
  6656   0013D0  EFEC  F009         	goto	i2u587_41
  6657   0013D4  EFEE  F009         	goto	i2u587_40
  6658   0013D8                     i2u587_41:
  6659   0013D8  EFF0  F009         	goto	i2l1246
  6660   0013DC                     i2u587_40:
  6661   0013DC                     
  6662                           ;MCAL_Layer/Interrupt/mcal_interrupt_manager.c: 113:         TMR2_ISR();
  6663   0013DC  EC27  F018         	call	_TMR2_ISR	;wreg free
  6664   0013E0                     i2l1246:
  6665                           
  6666                           ;MCAL_Layer/Interrupt/mcal_interrupt_manager.c: 116:     if((1 == PIE2bits.TMR3IE) && (1
      +                           == PIR2bits.TMR3IF)){
  6667   0013E0  A2A0               	btfss	160,1,c	;volatile
  6668   0013E2  EFF5  F009         	goto	i2u588_41
  6669   0013E6  EFF7  F009         	goto	i2u588_40
  6670   0013EA                     i2u588_41:
  6671   0013EA  EF00  F00A         	goto	i2l1248
  6672   0013EE                     i2u588_40:
  6673   0013EE  A2A1               	btfss	161,1,c	;volatile
  6674   0013F0  EFFC  F009         	goto	i2u589_41
  6675   0013F4  EFFE  F009         	goto	i2u589_40
  6676   0013F8                     i2u589_41:
  6677   0013F8  EF00  F00A         	goto	i2l1248
  6678   0013FC                     i2u589_40:
  6679   0013FC                     
  6680                           ;MCAL_Layer/Interrupt/mcal_interrupt_manager.c: 117:         TMR3_ISR();
  6681   0013FC  EC1B  F018         	call	_TMR3_ISR	;wreg free
  6682   001400                     i2l1248:
  6683                           
  6684                           ;MCAL_Layer/Interrupt/mcal_interrupt_manager.c: 121:     if((1 == PIE1bits.TXIE) && (1 =
      +                          = PIR1bits.TXIF)){
  6685   001400  A89D               	btfss	157,4,c	;volatile
  6686   001402  EF05  F00A         	goto	i2u590_41
  6687   001406  EF07  F00A         	goto	i2u590_40
  6688   00140A                     i2u590_41:
  6689   00140A  EF10  F00A         	goto	i2l1250
  6690   00140E                     i2u590_40:
  6691   00140E  A89E               	btfss	158,4,c	;volatile
  6692   001410  EF0C  F00A         	goto	i2u591_41
  6693   001414  EF0E  F00A         	goto	i2u591_40
  6694   001418                     i2u591_41:
  6695   001418  EF10  F00A         	goto	i2l1250
  6696   00141C                     i2u591_40:
  6697   00141C                     
  6698                           ;MCAL_Layer/Interrupt/mcal_interrupt_manager.c: 122:         EUSART_TX_ISR();
  6699   00141C  EC32  F018         	call	_EUSART_TX_ISR	;wreg free
  6700   001420                     i2l1250:
  6701                           
  6702                           ;MCAL_Layer/Interrupt/mcal_interrupt_manager.c: 125:     if((1 == PIE1bits.RCIE) && (1 =
      +                          = PIR1bits.RCIF)){
  6703   001420  AA9D               	btfss	157,5,c	;volatile
  6704   001422  EF15  F00A         	goto	i2u592_41
  6705   001426  EF17  F00A         	goto	i2u592_40
  6706   00142A                     i2u592_41:
  6707   00142A  EF20  F00A         	goto	i2l1252
  6708   00142E                     i2u592_40:
  6709   00142E  AA9E               	btfss	158,5,c	;volatile
  6710   001430  EF1C  F00A         	goto	i2u593_41
  6711   001434  EF1E  F00A         	goto	i2u593_40
  6712   001438                     i2u593_41:
  6713   001438  EF20  F00A         	goto	i2l1252
  6714   00143C                     i2u593_40:
  6715   00143C                     
  6716                           ;MCAL_Layer/Interrupt/mcal_interrupt_manager.c: 126:         EUSART_RX_ISR();
  6717   00143C  EC66  F017         	call	_EUSART_RX_ISR	;wreg free
  6718   001440                     i2l1252:
  6719                           
  6720                           ;MCAL_Layer/Interrupt/mcal_interrupt_manager.c: 131:     if((1 == PIE1bits.SSPIE) && (1 
      +                          == PIR1bits.SSPIF && (SSPCON1bits.SSPM > 5))){
  6721   001440  A69D               	btfss	157,3,c	;volatile
  6722   001442  EF25  F00A         	goto	i2u594_41
  6723   001446  EF27  F00A         	goto	i2u594_40
  6724   00144A                     i2u594_41:
  6725   00144A  EF3B  F00A         	goto	i2l1254
  6726   00144E                     i2u594_40:
  6727   00144E  A69E               	btfss	158,3,c	;volatile
  6728   001450  EF2C  F00A         	goto	i2u595_41
  6729   001454  EF2E  F00A         	goto	i2u595_40
  6730   001458                     i2u595_41:
  6731   001458  EF3B  F00A         	goto	i2l1254
  6732   00145C                     i2u595_40:
  6733   00145C  50C6               	movf	198,w,c	;volatile
  6734   00145E  0B0F               	andlw	15
  6735   001460  6E46               	movwf	??_InterruptManager^0,c
  6736   001462  0E05               	movlw	5
  6737   001464  6446               	cpfsgt	??_InterruptManager^0,c
  6738   001466  EF37  F00A         	goto	i2u596_41
  6739   00146A  EF39  F00A         	goto	i2u596_40
  6740   00146E                     i2u596_41:
  6741   00146E  EF3B  F00A         	goto	i2l1254
  6742   001472                     i2u596_40:
  6743   001472                     
  6744                           ;MCAL_Layer/Interrupt/mcal_interrupt_manager.c: 132:         MSSP_I2C_ISR();
  6745   001472  EC2E  F018         	call	_MSSP_I2C_ISR	;wreg free
  6746   001476                     i2l1254:
  6747                           
  6748                           ;MCAL_Layer/Interrupt/mcal_interrupt_manager.c: 135:     if((1 == PIE2bits.BCLIE) && (1 
      +                          == PIR2bits.BCLIF) && (SSPCON1bits.SSPM > 5)){
  6749   001476  A6A0               	btfss	160,3,c	;volatile
  6750   001478  EF40  F00A         	goto	i2u597_41
  6751   00147C  EF42  F00A         	goto	i2u597_40
  6752   001480                     i2u597_41:
  6753   001480  EF56  F00A         	goto	i2l1256
  6754   001484                     i2u597_40:
  6755   001484  A6A1               	btfss	161,3,c	;volatile
  6756   001486  EF47  F00A         	goto	i2u598_41
  6757   00148A  EF49  F00A         	goto	i2u598_40
  6758   00148E                     i2u598_41:
  6759   00148E  EF56  F00A         	goto	i2l1256
  6760   001492                     i2u598_40:
  6761   001492  50C6               	movf	198,w,c	;volatile
  6762   001494  0B0F               	andlw	15
  6763   001496  6E46               	movwf	??_InterruptManager^0,c
  6764   001498  0E05               	movlw	5
  6765   00149A  6446               	cpfsgt	??_InterruptManager^0,c
  6766   00149C  EF52  F00A         	goto	i2u599_41
  6767   0014A0  EF54  F00A         	goto	i2u599_40
  6768   0014A4                     i2u599_41:
  6769   0014A4  EF56  F00A         	goto	i2l1256
  6770   0014A8                     i2u599_40:
  6771   0014A8                     
  6772                           ;MCAL_Layer/Interrupt/mcal_interrupt_manager.c: 136:         MSSP_I2C_BC_ISR();
  6773   0014A8  EC30  F018         	call	_MSSP_I2C_BC_ISR	;wreg free
  6774   0014AC                     i2l1256:
  6775                           
  6776                           ;MCAL_Layer/Interrupt/mcal_interrupt_manager.c: 139:     if((1 == PIE1bits.SSPIE) && (1 
      +                          == PIR1bits.SSPIF) && (SSPCON1bits.SSPM <= 5) ){
  6777   0014AC  A69D               	btfss	157,3,c	;volatile
  6778   0014AE  EF5B  F00A         	goto	i2u600_41
  6779   0014B2  EF5D  F00A         	goto	i2u600_40
  6780   0014B6                     i2u600_41:
  6781   0014B6  EF71  F00A         	goto	i2l1258
  6782   0014BA                     i2u600_40:
  6783   0014BA  A69E               	btfss	158,3,c	;volatile
  6784   0014BC  EF62  F00A         	goto	i2u601_41
  6785   0014C0  EF64  F00A         	goto	i2u601_40
  6786   0014C4                     i2u601_41:
  6787   0014C4  EF71  F00A         	goto	i2l1258
  6788   0014C8                     i2u601_40:
  6789   0014C8  50C6               	movf	198,w,c	;volatile
  6790   0014CA  0B0F               	andlw	15
  6791   0014CC  6E46               	movwf	??_InterruptManager^0,c
  6792   0014CE  0E06               	movlw	6
  6793   0014D0  6046               	cpfslt	??_InterruptManager^0,c
  6794   0014D2  EF6D  F00A         	goto	i2u602_41
  6795   0014D6  EF6F  F00A         	goto	i2u602_40
  6796   0014DA                     i2u602_41:
  6797   0014DA  EF71  F00A         	goto	i2l1258
  6798   0014DE                     i2u602_40:
  6799   0014DE                     
  6800                           ;MCAL_Layer/Interrupt/mcal_interrupt_manager.c: 140:         MSSP_SPI_ISR();
  6801   0014DE  EC2B  F018         	call	_MSSP_SPI_ISR	;wreg free
  6802   0014E2                     i2l1258:
  6803                           
  6804                           ;MCAL_Layer/Interrupt/mcal_interrupt_manager.c: 145:     if((1 == PIE1bits.CCP1IE) && (1
      +                           == PIR1bits.CCP1IF)){
  6805   0014E2  A49D               	btfss	157,2,c	;volatile
  6806   0014E4  EF76  F00A         	goto	i2u603_41
  6807   0014E8  EF78  F00A         	goto	i2u603_40
  6808   0014EC                     i2u603_41:
  6809   0014EC  EF81  F00A         	goto	i2l1260
  6810   0014F0                     i2u603_40:
  6811   0014F0  A49E               	btfss	158,2,c	;volatile
  6812   0014F2  EF7D  F00A         	goto	i2u604_41
  6813   0014F6  EF7F  F00A         	goto	i2u604_40
  6814   0014FA                     i2u604_41:
  6815   0014FA  EF81  F00A         	goto	i2l1260
  6816   0014FE                     i2u604_40:
  6817   0014FE                     
  6818                           ;MCAL_Layer/Interrupt/mcal_interrupt_manager.c: 146:         CCP1_ISR();
  6819   0014FE  EC36  F018         	call	_CCP1_ISR	;wreg free
  6820   001502                     i2l1260:
  6821                           
  6822                           ;MCAL_Layer/Interrupt/mcal_interrupt_manager.c: 149:     if((1 == PIE2bits.CCP2IE) && (1
      +                           == PIR2bits.CCP2IF)){
  6823   001502  A0A0               	btfss	160,0,c	;volatile
  6824   001504  EF86  F00A         	goto	i2u605_41
  6825   001508  EF88  F00A         	goto	i2u605_40
  6826   00150C                     i2u605_41:
  6827   00150C  EF91  F00A         	goto	i2l1263
  6828   001510                     i2u605_40:
  6829   001510  A0A1               	btfss	161,0,c	;volatile
  6830   001512  EF8D  F00A         	goto	i2u606_41
  6831   001516  EF8F  F00A         	goto	i2u606_40
  6832   00151A                     i2u606_41:
  6833   00151A  EF91  F00A         	goto	i2l1263
  6834   00151E                     i2u606_40:
  6835   00151E                     
  6836                           ;MCAL_Layer/Interrupt/mcal_interrupt_manager.c: 150:         CCP2_ISR();
  6837   00151E  EC34  F018         	call	_CCP2_ISR	;wreg free
  6838   001522                     i2l1263:
  6839   001522  C04C  FFF4         	movff	??_InterruptManager+6,prodh
  6840   001526  C04B  FFF3         	movff	??_InterruptManager+5,prodl
  6841   00152A  C04A  FFDA         	movff	??_InterruptManager+4,fsr2h
  6842   00152E  C049  FFD9         	movff	??_InterruptManager+3,fsr2l
  6843   001532  C048  FFFB         	movff	??_InterruptManager+2,pclatu
  6844   001536  C047  FFFA         	movff	??_InterruptManager+1,pclath
  6845   00153A  9261               	bcf	int$flags,1,c	;clear compiler interrupt flag (level 2)
  6846   00153C  0011               	retfie		f
  6847   00153E                     __end_of_InterruptManager:
  6848                           	callstack 0
  6849                           
  6850 ;; *************** function _TMR3_ISR *****************
  6851 ;; Defined at:
  6852 ;;		line 102 in file "MCAL_Layer/Timer3/hal_timr3.c"
  6853 ;; Parameters:    Size  Location     Type
  6854 ;;		None
  6855 ;; Auto vars:     Size  Location     Type
  6856 ;;		None
  6857 ;; Return value:  Size  Location     Type
  6858 ;;                  1    wreg      void 
  6859 ;; Registers used:
  6860 ;;		wreg, status,2
  6861 ;; Tracked objects:
  6862 ;;		On entry : 0/0
  6863 ;;		On exit  : 0/0
  6864 ;;		Unchanged: 0/0
  6865 ;; Data sizes:     COMRAM   BANK0   BANK1   BANK2   BANK3   BANK4   BANK5   BANK6   BANK7   BANK8   BANK9  BANK10  BANK1
      +1  BANK12  BANK13  BANK14  BANK15
  6866 ;;      Params:         0       0       0       0       0       0       0       0       0       0       0       0       
      +0       0       0       0       0
  6867 ;;      Locals:         0       0       0       0       0       0       0       0       0       0       0       0       
      +0       0       0       0       0
  6868 ;;      Temps:          0       0       0       0       0       0       0       0       0       0       0       0       
      +0       0       0       0       0
  6869 ;;      Totals:         0       0       0       0       0       0       0       0       0       0       0       0       
      +0       0       0       0       0
  6870 ;;Total ram usage:        0 bytes
  6871 ;; Hardware stack levels used: 1
  6872 ;; This function calls:
  6873 ;;		Nothing
  6874 ;; This function is called by:
  6875 ;;		_InterruptManager
  6876 ;; This function uses a non-reentrant model
  6877 ;;
  6878                           
  6879                           	psect	text41
  6880   003036                     __ptext41:
  6881                           	callstack 0
  6882   003036                     _TMR3_ISR:
  6883                           	callstack 23
  6884   003036                     
  6885                           ;MCAL_Layer/Timer3/hal_timr3.c: 103:     (PIR2bits.TMR3IF = 0);
  6886   003036  92A1               	bcf	161,1,c	;volatile
  6887   003038                     
  6888                           ;MCAL_Layer/Timer3/hal_timr3.c: 104:     TMR3H = (timer3_preload) >> 8;
  6889   003038  5002               	movf	(_timer3_preload+1)^0,w,c
  6890   00303A  6EB3               	movwf	179,c	;volatile
  6891   00303C                     
  6892                           ;MCAL_Layer/Timer3/hal_timr3.c: 105:     TMR3L = (uint8)(timer3_preload);
  6893   00303C  C001  FFB2         	movff	_timer3_preload,4018	;volatile
  6894   003040  0012               	return		;funcret
  6895   003042                     __end_of_TMR3_ISR:
  6896                           	callstack 0
  6897                           
  6898 ;; *************** function _TMR2_ISR *****************
  6899 ;; Defined at:
  6900 ;;		line 95 in file "MCAL_Layer/Timer2/hal_timr2.c"
  6901 ;; Parameters:    Size  Location     Type
  6902 ;;		None
  6903 ;; Auto vars:     Size  Location     Type
  6904 ;;		None
  6905 ;; Return value:  Size  Location     Type
  6906 ;;                  1    wreg      void 
  6907 ;; Registers used:
  6908 ;;		None
  6909 ;; Tracked objects:
  6910 ;;		On entry : 0/0
  6911 ;;		On exit  : 0/0
  6912 ;;		Unchanged: 0/0
  6913 ;; Data sizes:     COMRAM   BANK0   BANK1   BANK2   BANK3   BANK4   BANK5   BANK6   BANK7   BANK8   BANK9  BANK10  BANK1
      +1  BANK12  BANK13  BANK14  BANK15
  6914 ;;      Params:         0       0       0       0       0       0       0       0       0       0       0       0       
      +0       0       0       0       0
  6915 ;;      Locals:         0       0       0       0       0       0       0       0       0       0       0       0       
      +0       0       0       0       0
  6916 ;;      Temps:          0       0       0       0       0       0       0       0       0       0       0       0       
      +0       0       0       0       0
  6917 ;;      Totals:         0       0       0       0       0       0       0       0       0       0       0       0       
      +0       0       0       0       0
  6918 ;;Total ram usage:        0 bytes
  6919 ;; Hardware stack levels used: 1
  6920 ;; This function calls:
  6921 ;;		Nothing
  6922 ;; This function is called by:
  6923 ;;		_InterruptManager
  6924 ;; This function uses a non-reentrant model
  6925 ;;
  6926                           
  6927                           	psect	text42
  6928   00304E                     __ptext42:
  6929                           	callstack 0
  6930   00304E                     _TMR2_ISR:
  6931                           	callstack 23
  6932   00304E                     
  6933                           ;MCAL_Layer/Timer2/hal_timr2.c: 96:     (PIR1bits.TMR2IF = 0);
  6934   00304E  929E               	bcf	158,1,c	;volatile
  6935                           
  6936                           ;MCAL_Layer/Timer2/hal_timr2.c: 97:     TMR2 = timer2_preload;
  6937   003050  C02D  FFCC         	movff	_timer2_preload,4044	;volatile
  6938   003054  0012               	return		;funcret
  6939   003056                     __end_of_TMR2_ISR:
  6940                           	callstack 0
  6941                           
  6942 ;; *************** function _TMR1_ISR *****************
  6943 ;; Defined at:
  6944 ;;		line 102 in file "MCAL_Layer/Timer1/hal_timr1.c"
  6945 ;; Parameters:    Size  Location     Type
  6946 ;;		None
  6947 ;; Auto vars:     Size  Location     Type
  6948 ;;		None
  6949 ;; Return value:  Size  Location     Type
  6950 ;;                  1    wreg      void 
  6951 ;; Registers used:
  6952 ;;		wreg, status,2
  6953 ;; Tracked objects:
  6954 ;;		On entry : 0/0
  6955 ;;		On exit  : 0/0
  6956 ;;		Unchanged: 0/0
  6957 ;; Data sizes:     COMRAM   BANK0   BANK1   BANK2   BANK3   BANK4   BANK5   BANK6   BANK7   BANK8   BANK9  BANK10  BANK1
      +1  BANK12  BANK13  BANK14  BANK15
  6958 ;;      Params:         0       0       0       0       0       0       0       0       0       0       0       0       
      +0       0       0       0       0
  6959 ;;      Locals:         0       0       0       0       0       0       0       0       0       0       0       0       
      +0       0       0       0       0
  6960 ;;      Temps:          0       0       0       0       0       0       0       0       0       0       0       0       
      +0       0       0       0       0
  6961 ;;      Totals:         0       0       0       0       0       0       0       0       0       0       0       0       
      +0       0       0       0       0
  6962 ;;Total ram usage:        0 bytes
  6963 ;; Hardware stack levels used: 1
  6964 ;; This function calls:
  6965 ;;		Nothing
  6966 ;; This function is called by:
  6967 ;;		_InterruptManager
  6968 ;; This function uses a non-reentrant model
  6969 ;;
  6970                           
  6971                           	psect	text43
  6972   003042                     __ptext43:
  6973                           	callstack 0
  6974   003042                     _TMR1_ISR:
  6975                           	callstack 23
  6976   003042                     
  6977                           ;MCAL_Layer/Timer1/hal_timr1.c: 103:     (PIR1bits.TMR1IF = 0);
  6978   003042  909E               	bcf	158,0,c	;volatile
  6979   003044                     
  6980                           ;MCAL_Layer/Timer1/hal_timr1.c: 104:     TMR1H = (timer1_preload) >> 8;
  6981   003044  5004               	movf	(_timer1_preload+1)^0,w,c	;volatile
  6982   003046  6ECF               	movwf	207,c	;volatile
  6983   003048                     
  6984                           ;MCAL_Layer/Timer1/hal_timr1.c: 105:     TMR1L = (uint8)(timer1_preload);
  6985   003048  C003  FFCE         	movff	_timer1_preload,4046	;volatile
  6986   00304C  0012               	return		;funcret
  6987   00304E                     __end_of_TMR1_ISR:
  6988                           	callstack 0
  6989                           
  6990 ;; *************** function _TMR0_ISR *****************
  6991 ;; Defined at:
  6992 ;;		line 107 in file "MCAL_Layer/Timer0/hal_timr0.c"
  6993 ;; Parameters:    Size  Location     Type
  6994 ;;		None
  6995 ;; Auto vars:     Size  Location     Type
  6996 ;;		None
  6997 ;; Return value:  Size  Location     Type
  6998 ;;                  1    wreg      void 
  6999 ;; Registers used:
  7000 ;;		wreg, fsr2l, fsr2h, status,2, status,0, pcl, pclath, pclatu, tosl, prodl, prodh, cstack
  7001 ;; Tracked objects:
  7002 ;;		On entry : 0/0
  7003 ;;		On exit  : 0/0
  7004 ;;		Unchanged: 0/0
  7005 ;; Data sizes:     COMRAM   BANK0   BANK1   BANK2   BANK3   BANK4   BANK5   BANK6   BANK7   BANK8   BANK9  BANK10  BANK1
      +1  BANK12  BANK13  BANK14  BANK15
  7006 ;;      Params:         0       0       0       0       0       0       0       0       0       0       0       0       
      +0       0       0       0       0
  7007 ;;      Locals:         0       0       0       0       0       0       0       0       0       0       0       0       
      +0       0       0       0       0
  7008 ;;      Temps:          0       0       0       0       0       0       0       0       0       0       0       0       
      +0       0       0       0       0
  7009 ;;      Totals:         0       0       0       0       0       0       0       0       0       0       0       0       
      +0       0       0       0       0
  7010 ;;Total ram usage:        0 bytes
  7011 ;; Hardware stack levels used: 1
  7012 ;; Hardware stack levels required when called: 5
  7013 ;; This function calls:
  7014 ;;		NULL
  7015 ;;		_TMR0_DefualtInterruptHandler
  7016 ;; This function is called by:
  7017 ;;		_InterruptManager
  7018 ;; This function uses a non-reentrant model
  7019 ;;
  7020                           
  7021                           	psect	text44
  7022   002D0E                     __ptext44:
  7023                           	callstack 0
  7024   002D0E                     _TMR0_ISR:
  7025                           	callstack 18
  7026   002D0E                     
  7027                           ;MCAL_Layer/Timer0/hal_timr0.c: 108:     (INTCONbits.TMR0IF = 0);
  7028   002D0E  94F2               	bcf	242,2,c	;volatile
  7029   002D10                     
  7030                           ;MCAL_Layer/Timer0/hal_timr0.c: 109:     TMR0H = (timer0_preload) >> 8;
  7031   002D10  5006               	movf	(_timer0_preload+1)^0,w,c
  7032   002D12  6ED7               	movwf	215,c	;volatile
  7033   002D14                     
  7034                           ;MCAL_Layer/Timer0/hal_timr0.c: 110:     TMR0L = (uint8)(timer0_preload);
  7035   002D14  C005  FFD6         	movff	_timer0_preload,4054	;volatile
  7036   002D18                     
  7037                           ;MCAL_Layer/Timer0/hal_timr0.c: 111:     if(TMR0_InterruptHandler){
  7038   002D18  5007               	movf	_TMR0_InterruptHandler^0,w,c
  7039   002D1A  1008               	iorwf	(_TMR0_InterruptHandler+1)^0,w,c
  7040   002D1C  B4D8               	btfsc	status,2,c
  7041   002D1E  EF93  F016         	goto	i2u449_41
  7042   002D22  EF95  F016         	goto	i2u449_40
  7043   002D26                     i2u449_41:
  7044   002D26  EFA1  F016         	goto	i2l1406
  7045   002D2A                     i2u449_40:
  7046   002D2A                     
  7047                           ;MCAL_Layer/Timer0/hal_timr0.c: 112:         TMR0_InterruptHandler();
  7048   002D2A  D802               	call	i2u450_48
  7049   002D2C  EFA1  F016         	goto	i2u450_49
  7050   002D30                     i2u450_48:
  7051   002D30  0005               	push	
  7052   002D32  6EFA               	movwf	pclath,c
  7053   002D34  5007               	movf	_TMR0_InterruptHandler^0,w,c
  7054   002D36  6EFD               	movwf	tosl,c
  7055   002D38  5008               	movf	(_TMR0_InterruptHandler+1)^0,w,c
  7056   002D3A  6EFE               	movwf	tosh,c
  7057   002D3C  6AFF               	clrf	tosu,c
  7058   002D3E  50FA               	movf	pclath,w,c
  7059   002D40  0012               	return		;indir
  7060   002D42                     i2u450_49:
  7061   002D42                     i2l1406:
  7062   002D42  0012               	return		;funcret
  7063   002D44                     __end_of_TMR0_ISR:
  7064                           	callstack 0
  7065                           
  7066 ;; *************** function _TMR0_DefualtInterruptHandler *****************
  7067 ;; Defined at:
  7068 ;;		line 115 in file "application.c"
  7069 ;; Parameters:    Size  Location     Type
  7070 ;;		None
  7071 ;; Auto vars:     Size  Location     Type
  7072 ;;		None
  7073 ;; Return value:  Size  Location     Type
  7074 ;;                  1    wreg      void 
  7075 ;; Registers used:
  7076 ;;		wreg, fsr2l, fsr2h, status,2, status,0, prodl, prodh, cstack
  7077 ;; Tracked objects:
  7078 ;;		On entry : 0/0
  7079 ;;		On exit  : 0/0
  7080 ;;		Unchanged: 0/0
  7081 ;; Data sizes:     COMRAM   BANK0   BANK1   BANK2   BANK3   BANK4   BANK5   BANK6   BANK7   BANK8   BANK9  BANK10  BANK1
      +1  BANK12  BANK13  BANK14  BANK15
  7082 ;;      Params:         0       0       0       0       0       0       0       0       0       0       0       0       
      +0       0       0       0       0
  7083 ;;      Locals:         0       0       0       0       0       0       0       0       0       0       0       0       
      +0       0       0       0       0
  7084 ;;      Temps:          2       0       0       0       0       0       0       0       0       0       0       0       
      +0       0       0       0       0
  7085 ;;      Totals:         2       0       0       0       0       0       0       0       0       0       0       0       
      +0       0       0       0       0
  7086 ;;Total ram usage:        2 bytes
  7087 ;; Hardware stack levels used: 1
  7088 ;; Hardware stack levels required when called: 4
  7089 ;; This function calls:
  7090 ;;		_lcd_4bit_clear
  7091 ;; This function is called by:
  7092 ;;		_TMR0_ISR
  7093 ;; This function uses a non-reentrant model
  7094 ;;
  7095                           
  7096                           	psect	text45
  7097   0020C8                     __ptext45:
  7098                           	callstack 0
  7099   0020C8                     _TMR0_DefualtInterruptHandler:
  7100                           	callstack 18
  7101   0020C8                     
  7102                           ;application.c: 116:   if(0 == seven_seg_cnt){
  7103   0020C8  502C               	movf	_seven_seg_cnt^0,w,c
  7104   0020CA  A4D8               	btfss	status,2,c
  7105   0020CC  EF6A  F010         	goto	i2u431_41
  7106   0020D0  EF6C  F010         	goto	i2u431_40
  7107   0020D4                     i2u431_41:
  7108   0020D4  EFB7  F010         	goto	i2l6233
  7109   0020D8                     i2u431_40:
  7110   0020D8                     
  7111                           ;application.c: 117:     if(traffic_light_event != next_traffic_light_event){
  7112   0020D8  0100               	movlb	0	; () banked
  7113   0020DA  51FF               	movf	_next_traffic_light_event& (0+255),w,b
  7114   0020DC  1860               	xorwf	_traffic_light_event^0,w,c
  7115   0020DE  B4D8               	btfsc	status,2,c
  7116   0020E0  EF74  F010         	goto	i2u432_41
  7117   0020E4  EF76  F010         	goto	i2u432_40
  7118   0020E8                     i2u432_41:
  7119   0020E8  EF9A  F010         	goto	i2l6231
  7120   0020EC                     i2u432_40:
  7121   0020EC                     
  7122                           ; BSR set to: 0
  7123                           ;application.c: 118:         ret = lcd_4bit_clear(&lcd_1);
  7124   0020EC  0EBD               	movlw	low _lcd_1
  7125   0020EE  6E41               	movwf	lcd_4bit_clear@lcd^0,c
  7126   0020F0  0E00               	movlw	high _lcd_1
  7127   0020F2  6E42               	movwf	(lcd_4bit_clear@lcd+1)^0,c
  7128   0020F4  ECBB  F017         	call	_lcd_4bit_clear	;wreg free
  7129   0020F8  0100               	movlb	0	; () banked
  7130   0020FA  6FFE               	movwf	_ret& (0+255),b
  7131   0020FC                     
  7132                           ; BSR set to: 0
  7133                           ;application.c: 119:         traffic_light_event = next_traffic_light_event;
  7134   0020FC  C0FF  F060         	movff	_next_traffic_light_event,_traffic_light_event
  7135                           
  7136                           ;application.c: 120:     }else{ }
  7137   002100  EF9A  F010         	goto	i2l6231
  7138   002104                     i2l6221:
  7139                           
  7140                           ; BSR set to: 0
  7141                           ;application.c: 123:             seven_seg_cnt = 5;
  7142   002104  0E05               	movlw	5
  7143   002106  6E2C               	movwf	_seven_seg_cnt^0,c
  7144                           
  7145                           ;application.c: 124:             next_traffic_light_event = READY_TIME_OF_PEDESTRIANS_TO
      +                          _MOVE_FINISHED_EVENT;
  7146   002108  0E03               	movlw	3
  7147   00210A  6FFF               	movwf	_next_traffic_light_event& (0+255),b
  7148                           
  7149                           ;application.c: 125:           break;
  7150   00210C  EFB7  F010         	goto	i2l6233
  7151   002110                     i2l6223:
  7152                           
  7153                           ; BSR set to: 0
  7154                           ;application.c: 127:             seven_seg_cnt = 5;
  7155   002110  0E05               	movlw	5
  7156   002112  6E2C               	movwf	_seven_seg_cnt^0,c
  7157                           
  7158                           ;application.c: 128:             next_traffic_light_event = READY_TIME_OF_CARS_TO_MOVE_F
      +                          INISHED_EVENT;
  7159   002114  0E02               	movlw	2
  7160   002116  6FFF               	movwf	_next_traffic_light_event& (0+255),b
  7161                           
  7162                           ;application.c: 129:           break;
  7163   002118  EFB7  F010         	goto	i2l6233
  7164   00211C                     i2l6225:
  7165                           
  7166                           ; BSR set to: 0
  7167                           ;application.c: 131:             seven_seg_cnt = 20;
  7168   00211C  0E14               	movlw	20
  7169   00211E  6E2C               	movwf	_seven_seg_cnt^0,c
  7170                           
  7171                           ;application.c: 132:             next_traffic_light_event = TIME_OF_CARS_MOVE_FINISHED_E
      +                          VENT;
  7172   002120  0E00               	movlw	0
  7173   002122  6FFF               	movwf	_next_traffic_light_event& (0+255),b
  7174                           
  7175                           ;application.c: 133:           break;
  7176   002124  EFB7  F010         	goto	i2l6233
  7177   002128                     i2l6227:
  7178                           
  7179                           ; BSR set to: 0
  7180                           ;application.c: 135:             seven_seg_cnt = 20;
  7181   002128  0E14               	movlw	20
  7182   00212A  6E2C               	movwf	_seven_seg_cnt^0,c
  7183                           
  7184                           ;application.c: 136:             next_traffic_light_event = TIME_OF_PEDESTRAINS_MOVE_FIN
      +                          ISHED_EVENT;
  7185   00212C  0E01               	movlw	1
  7186   00212E  6FFF               	movwf	_next_traffic_light_event& (0+255),b
  7187                           
  7188                           ;application.c: 137:           break;
  7189   002130  EFB7  F010         	goto	i2l6233
  7190   002134                     i2l6231:
  7191                           
  7192                           ; BSR set to: 0
  7193   002134  5060               	movf	_traffic_light_event^0,w,c
  7194   002136  6E44               	movwf	??_TMR0_DefualtInterruptHandler^0,c
  7195   002138  6A45               	clrf	(??_TMR0_DefualtInterruptHandler+1)^0,c
  7196                           
  7197                           ; Switch on 2 bytes has been partitioned into a top level switch of size 1, and 1 sub-sw
      +                          itches
  7198                           ; Switch size 1, requested type "simple"
  7199                           ; Number of cases is 1, Range of values is 0 to 0
  7200                           ; switch strategies available:
  7201                           ; Name         Instructions Cycles
  7202                           ; simple_byte            4     3 (average)
  7203                           ;	Chosen strategy is simple_byte
  7204   00213A  5045               	movf	(??_TMR0_DefualtInterruptHandler+1)^0,w,c
  7205   00213C  0A00               	xorlw	0	; case 0
  7206   00213E  B4D8               	btfsc	status,2,c
  7207   002140  EFA4  F010         	goto	i2l9439
  7208   002144  EFB7  F010         	goto	i2l6233
  7209   002148                     i2l9439:
  7210                           
  7211                           ; BSR set to: 0
  7212                           ; Switch size 1, requested type "simple"
  7213                           ; Number of cases is 4, Range of values is 0 to 3
  7214                           ; switch strategies available:
  7215                           ; Name         Instructions Cycles
  7216                           ; simple_byte           13     7 (average)
  7217                           ;	Chosen strategy is simple_byte
  7218   002148  5044               	movf	??_TMR0_DefualtInterruptHandler^0,w,c
  7219   00214A  0A00               	xorlw	0	; case 0
  7220   00214C  B4D8               	btfsc	status,2,c
  7221   00214E  EF82  F010         	goto	i2l6221
  7222   002152  0A01               	xorlw	1	; case 1
  7223   002154  B4D8               	btfsc	status,2,c
  7224   002156  EF88  F010         	goto	i2l6223
  7225   00215A  0A03               	xorlw	3	; case 2
  7226   00215C  B4D8               	btfsc	status,2,c
  7227   00215E  EF8E  F010         	goto	i2l6225
  7228   002162  0A01               	xorlw	1	; case 3
  7229   002164  B4D8               	btfsc	status,2,c
  7230   002166  EF94  F010         	goto	i2l6227
  7231   00216A  EFB7  F010         	goto	i2l6233
  7232   00216E                     i2l6233:
  7233                           
  7234                           ;application.c: 143:   seven_seg_cnt--;
  7235   00216E  062C               	decf	_seven_seg_cnt^0,f,c
  7236   002170  0012               	return		;funcret
  7237   002172                     __end_of_TMR0_DefualtInterruptHandler:
  7238                           	callstack 0
  7239                           
  7240 ;; *************** function _RB7_ISR *****************
  7241 ;; Defined at:
  7242 ;;		line 164 in file "MCAL_Layer/Interrupt/mcal_external_interrupt.c"
  7243 ;; Parameters:    Size  Location     Type
  7244 ;;  RB7_Source      1    wreg     unsigned char 
  7245 ;; Auto vars:     Size  Location     Type
  7246 ;;  RB7_Source      1    0[COMRAM] unsigned char 
  7247 ;; Return value:  Size  Location     Type
  7248 ;;                  1    wreg      void 
  7249 ;; Registers used:
  7250 ;;		wreg, status,2, status,0
  7251 ;; Tracked objects:
  7252 ;;		On entry : 0/0
  7253 ;;		On exit  : 0/0
  7254 ;;		Unchanged: 0/0
  7255 ;; Data sizes:     COMRAM   BANK0   BANK1   BANK2   BANK3   BANK4   BANK5   BANK6   BANK7   BANK8   BANK9  BANK10  BANK1
      +1  BANK12  BANK13  BANK14  BANK15
  7256 ;;      Params:         0       0       0       0       0       0       0       0       0       0       0       0       
      +0       0       0       0       0
  7257 ;;      Locals:         1       0       0       0       0       0       0       0       0       0       0       0       
      +0       0       0       0       0
  7258 ;;      Temps:          0       0       0       0       0       0       0       0       0       0       0       0       
      +0       0       0       0       0
  7259 ;;      Totals:         1       0       0       0       0       0       0       0       0       0       0       0       
      +0       0       0       0       0
  7260 ;;Total ram usage:        1 bytes
  7261 ;; Hardware stack levels used: 1
  7262 ;; This function calls:
  7263 ;;		Nothing
  7264 ;; This function is called by:
  7265 ;;		_InterruptManager
  7266 ;; This function uses a non-reentrant model
  7267 ;;
  7268                           
  7269                           	psect	text46
  7270   002FBE                     __ptext46:
  7271                           	callstack 0
  7272   002FBE                     _RB7_ISR:
  7273                           	callstack 23
  7274                           
  7275                           ;incstack = 0
  7276                           ;RB7_ISR@RB7_Source stored from wreg
  7277   002FBE  6E2F               	movwf	RB7_ISR@RB7_Source^0,c
  7278   002FC0                     
  7279                           ;MCAL_Layer/Interrupt/mcal_external_interrupt.c: 166:     (INTCONbits.RBIF = 0);
  7280   002FC0  90F2               	bcf	242,0,c	;volatile
  7281   002FC2                     
  7282                           ;MCAL_Layer/Interrupt/mcal_external_interrupt.c: 169:     if(0 == RB7_Source){
  7283   002FC2  502F               	movf	RB7_ISR@RB7_Source^0,w,c
  7284   002FC4  A4D8               	btfss	status,2,c
  7285   002FC6  EFE7  F017         	goto	i2u92_41
  7286   002FCA  EFE9  F017         	goto	i2u92_40
  7287   002FCE                     i2u92_41:
  7288   002FCE  EFEB  F017         	goto	i2l3485
  7289   002FD2                     i2u92_40:
  7290   002FD2  EFEB  F017         	goto	i2l1041
  7291   002FD6                     i2l3485:
  7292   002FD6                     i2l1041:
  7293   002FD6  0012               	return		;funcret
  7294   002FD8                     __end_of_RB7_ISR:
  7295                           	callstack 0
  7296                           
  7297 ;; *************** function _RB6_ISR *****************
  7298 ;; Defined at:
  7299 ;;		line 145 in file "MCAL_Layer/Interrupt/mcal_external_interrupt.c"
  7300 ;; Parameters:    Size  Location     Type
  7301 ;;  RB6_Source      1    wreg     unsigned char 
  7302 ;; Auto vars:     Size  Location     Type
  7303 ;;  RB6_Source      1    0[COMRAM] unsigned char 
  7304 ;; Return value:  Size  Location     Type
  7305 ;;                  1    wreg      void 
  7306 ;; Registers used:
  7307 ;;		wreg, status,2, status,0
  7308 ;; Tracked objects:
  7309 ;;		On entry : 0/0
  7310 ;;		On exit  : 0/0
  7311 ;;		Unchanged: 0/0
  7312 ;; Data sizes:     COMRAM   BANK0   BANK1   BANK2   BANK3   BANK4   BANK5   BANK6   BANK7   BANK8   BANK9  BANK10  BANK1
      +1  BANK12  BANK13  BANK14  BANK15
  7313 ;;      Params:         0       0       0       0       0       0       0       0       0       0       0       0       
      +0       0       0       0       0
  7314 ;;      Locals:         1       0       0       0       0       0       0       0       0       0       0       0       
      +0       0       0       0       0
  7315 ;;      Temps:          0       0       0       0       0       0       0       0       0       0       0       0       
      +0       0       0       0       0
  7316 ;;      Totals:         1       0       0       0       0       0       0       0       0       0       0       0       
      +0       0       0       0       0
  7317 ;;Total ram usage:        1 bytes
  7318 ;; Hardware stack levels used: 1
  7319 ;; This function calls:
  7320 ;;		Nothing
  7321 ;; This function is called by:
  7322 ;;		_InterruptManager
  7323 ;; This function uses a non-reentrant model
  7324 ;;
  7325                           
  7326                           	psect	text47
  7327   002FD8                     __ptext47:
  7328                           	callstack 0
  7329   002FD8                     _RB6_ISR:
  7330                           	callstack 23
  7331                           
  7332                           ;incstack = 0
  7333                           ;RB6_ISR@RB6_Source stored from wreg
  7334   002FD8  6E2F               	movwf	RB6_ISR@RB6_Source^0,c
  7335   002FDA                     
  7336                           ;MCAL_Layer/Interrupt/mcal_external_interrupt.c: 147:     (INTCONbits.RBIF = 0);
  7337   002FDA  90F2               	bcf	242,0,c	;volatile
  7338   002FDC                     
  7339                           ;MCAL_Layer/Interrupt/mcal_external_interrupt.c: 150:     if(0 == RB6_Source){
  7340   002FDC  502F               	movf	RB6_ISR@RB6_Source^0,w,c
  7341   002FDE  A4D8               	btfss	status,2,c
  7342   002FE0  EFF4  F017         	goto	i2u91_41
  7343   002FE4  EFF6  F017         	goto	i2u91_40
  7344   002FE8                     i2u91_41:
  7345   002FE8  EFF8  F017         	goto	i2l3471
  7346   002FEC                     i2u91_40:
  7347   002FEC  EFF8  F017         	goto	i2l1030
  7348   002FF0                     i2l3471:
  7349   002FF0                     i2l1030:
  7350   002FF0  0012               	return		;funcret
  7351   002FF2                     __end_of_RB6_ISR:
  7352                           	callstack 0
  7353                           
  7354 ;; *************** function _RB5_ISR *****************
  7355 ;; Defined at:
  7356 ;;		line 126 in file "MCAL_Layer/Interrupt/mcal_external_interrupt.c"
  7357 ;; Parameters:    Size  Location     Type
  7358 ;;  RB5_Source      1    wreg     unsigned char 
  7359 ;; Auto vars:     Size  Location     Type
  7360 ;;  RB5_Source      1    0[COMRAM] unsigned char 
  7361 ;; Return value:  Size  Location     Type
  7362 ;;                  1    wreg      void 
  7363 ;; Registers used:
  7364 ;;		wreg, status,2, status,0
  7365 ;; Tracked objects:
  7366 ;;		On entry : 0/0
  7367 ;;		On exit  : 0/0
  7368 ;;		Unchanged: 0/0
  7369 ;; Data sizes:     COMRAM   BANK0   BANK1   BANK2   BANK3   BANK4   BANK5   BANK6   BANK7   BANK8   BANK9  BANK10  BANK1
      +1  BANK12  BANK13  BANK14  BANK15
  7370 ;;      Params:         0       0       0       0       0       0       0       0       0       0       0       0       
      +0       0       0       0       0
  7371 ;;      Locals:         1       0       0       0       0       0       0       0       0       0       0       0       
      +0       0       0       0       0
  7372 ;;      Temps:          0       0       0       0       0       0       0       0       0       0       0       0       
      +0       0       0       0       0
  7373 ;;      Totals:         1       0       0       0       0       0       0       0       0       0       0       0       
      +0       0       0       0       0
  7374 ;;Total ram usage:        1 bytes
  7375 ;; Hardware stack levels used: 1
  7376 ;; This function calls:
  7377 ;;		Nothing
  7378 ;; This function is called by:
  7379 ;;		_InterruptManager
  7380 ;; This function uses a non-reentrant model
  7381 ;;
  7382                           
  7383                           	psect	text48
  7384   002FF2                     __ptext48:
  7385                           	callstack 0
  7386   002FF2                     _RB5_ISR:
  7387                           	callstack 23
  7388                           
  7389                           ;incstack = 0
  7390                           ;RB5_ISR@RB5_Source stored from wreg
  7391   002FF2  6E2F               	movwf	RB5_ISR@RB5_Source^0,c
  7392   002FF4                     
  7393                           ;MCAL_Layer/Interrupt/mcal_external_interrupt.c: 128:     (INTCONbits.RBIF = 0);
  7394   002FF4  90F2               	bcf	242,0,c	;volatile
  7395   002FF6                     
  7396                           ;MCAL_Layer/Interrupt/mcal_external_interrupt.c: 131:     if(0 == RB5_Source){
  7397   002FF6  502F               	movf	RB5_ISR@RB5_Source^0,w,c
  7398   002FF8  A4D8               	btfss	status,2,c
  7399   002FFA  EF01  F018         	goto	i2u90_41
  7400   002FFE  EF03  F018         	goto	i2u90_40
  7401   003002                     i2u90_41:
  7402   003002  EF05  F018         	goto	i2l3457
  7403   003006                     i2u90_40:
  7404   003006  EF05  F018         	goto	i2l1019
  7405   00300A                     i2l3457:
  7406   00300A                     i2l1019:
  7407   00300A  0012               	return		;funcret
  7408   00300C                     __end_of_RB5_ISR:
  7409                           	callstack 0
  7410                           
  7411 ;; *************** function _RB4_ISR *****************
  7412 ;; Defined at:
  7413 ;;		line 107 in file "MCAL_Layer/Interrupt/mcal_external_interrupt.c"
  7414 ;; Parameters:    Size  Location     Type
  7415 ;;  RB4_Source      1    wreg     unsigned char 
  7416 ;; Auto vars:     Size  Location     Type
  7417 ;;  RB4_Source      1    0[COMRAM] unsigned char 
  7418 ;; Return value:  Size  Location     Type
  7419 ;;                  1    wreg      void 
  7420 ;; Registers used:
  7421 ;;		wreg, status,2, status,0
  7422 ;; Tracked objects:
  7423 ;;		On entry : 0/0
  7424 ;;		On exit  : 0/0
  7425 ;;		Unchanged: 0/0
  7426 ;; Data sizes:     COMRAM   BANK0   BANK1   BANK2   BANK3   BANK4   BANK5   BANK6   BANK7   BANK8   BANK9  BANK10  BANK1
      +1  BANK12  BANK13  BANK14  BANK15
  7427 ;;      Params:         0       0       0       0       0       0       0       0       0       0       0       0       
      +0       0       0       0       0
  7428 ;;      Locals:         1       0       0       0       0       0       0       0       0       0       0       0       
      +0       0       0       0       0
  7429 ;;      Temps:          0       0       0       0       0       0       0       0       0       0       0       0       
      +0       0       0       0       0
  7430 ;;      Totals:         1       0       0       0       0       0       0       0       0       0       0       0       
      +0       0       0       0       0
  7431 ;;Total ram usage:        1 bytes
  7432 ;; Hardware stack levels used: 1
  7433 ;; This function calls:
  7434 ;;		Nothing
  7435 ;; This function is called by:
  7436 ;;		_InterruptManager
  7437 ;; This function uses a non-reentrant model
  7438 ;;
  7439                           
  7440                           	psect	text49
  7441   00300C                     __ptext49:
  7442                           	callstack 0
  7443   00300C                     _RB4_ISR:
  7444                           	callstack 23
  7445                           
  7446                           ;incstack = 0
  7447                           ;RB4_ISR@RB4_Source stored from wreg
  7448   00300C  6E2F               	movwf	RB4_ISR@RB4_Source^0,c
  7449   00300E                     
  7450                           ;MCAL_Layer/Interrupt/mcal_external_interrupt.c: 109:     (INTCONbits.RBIF = 0);
  7451   00300E  90F2               	bcf	242,0,c	;volatile
  7452   003010                     
  7453                           ;MCAL_Layer/Interrupt/mcal_external_interrupt.c: 112:     if(0 == RB4_Source){
  7454   003010  502F               	movf	RB4_ISR@RB4_Source^0,w,c
  7455   003012  A4D8               	btfss	status,2,c
  7456   003014  EF0E  F018         	goto	i2u89_41
  7457   003018  EF10  F018         	goto	i2u89_40
  7458   00301C                     i2u89_41:
  7459   00301C  EF12  F018         	goto	i2l3443
  7460   003020                     i2u89_40:
  7461   003020  EF12  F018         	goto	i2l1008
  7462   003024                     i2l3443:
  7463   003024                     i2l1008:
  7464   003024  0012               	return		;funcret
  7465   003026                     __end_of_RB4_ISR:
  7466                           	callstack 0
  7467                           
  7468 ;; *************** function _MSSP_SPI_ISR *****************
  7469 ;; Defined at:
  7470 ;;		line 130 in file "MCAL_Layer/SPI/hal_spi.c"
  7471 ;; Parameters:    Size  Location     Type
  7472 ;;		None
  7473 ;; Auto vars:     Size  Location     Type
  7474 ;;		None
  7475 ;; Return value:  Size  Location     Type
  7476 ;;                  1    wreg      void 
  7477 ;; Registers used:
  7478 ;;		None
  7479 ;; Tracked objects:
  7480 ;;		On entry : 0/0
  7481 ;;		On exit  : 0/0
  7482 ;;		Unchanged: 0/0
  7483 ;; Data sizes:     COMRAM   BANK0   BANK1   BANK2   BANK3   BANK4   BANK5   BANK6   BANK7   BANK8   BANK9  BANK10  BANK1
      +1  BANK12  BANK13  BANK14  BANK15
  7484 ;;      Params:         0       0       0       0       0       0       0       0       0       0       0       0       
      +0       0       0       0       0
  7485 ;;      Locals:         0       0       0       0       0       0       0       0       0       0       0       0       
      +0       0       0       0       0
  7486 ;;      Temps:          0       0       0       0       0       0       0       0       0       0       0       0       
      +0       0       0       0       0
  7487 ;;      Totals:         0       0       0       0       0       0       0       0       0       0       0       0       
      +0       0       0       0       0
  7488 ;;Total ram usage:        0 bytes
  7489 ;; Hardware stack levels used: 1
  7490 ;; This function calls:
  7491 ;;		Nothing
  7492 ;; This function is called by:
  7493 ;;		_InterruptManager
  7494 ;; This function uses a non-reentrant model
  7495 ;;
  7496                           
  7497                           	psect	text50
  7498   003056                     __ptext50:
  7499                           	callstack 0
  7500   003056                     _MSSP_SPI_ISR:
  7501                           	callstack 23
  7502   003056                     
  7503                           ;MCAL_Layer/SPI/hal_spi.c: 132:     (PIR1bits.SSPIF = 0);
  7504   003056  969E               	bcf	158,3,c	;volatile
  7505                           
  7506                           ;MCAL_Layer/SPI/hal_spi.c: 133:     (PIR1bits.SSPIF = 0);
  7507   003058  969E               	bcf	158,3,c	;volatile
  7508   00305A  0012               	return		;funcret
  7509   00305C                     __end_of_MSSP_SPI_ISR:
  7510                           	callstack 0
  7511                           
  7512 ;; *************** function _MSSP_I2C_ISR *****************
  7513 ;; Defined at:
  7514 ;;		line 281 in file "MCAL_Layer/I2C/hal_i2c.c"
  7515 ;; Parameters:    Size  Location     Type
  7516 ;;		None
  7517 ;; Auto vars:     Size  Location     Type
  7518 ;;		None
  7519 ;; Return value:  Size  Location     Type
  7520 ;;                  1    wreg      void 
  7521 ;; Registers used:
  7522 ;;		None
  7523 ;; Tracked objects:
  7524 ;;		On entry : 0/0
  7525 ;;		On exit  : 0/0
  7526 ;;		Unchanged: 0/0
  7527 ;; Data sizes:     COMRAM   BANK0   BANK1   BANK2   BANK3   BANK4   BANK5   BANK6   BANK7   BANK8   BANK9  BANK10  BANK1
      +1  BANK12  BANK13  BANK14  BANK15
  7528 ;;      Params:         0       0       0       0       0       0       0       0       0       0       0       0       
      +0       0       0       0       0
  7529 ;;      Locals:         0       0       0       0       0       0       0       0       0       0       0       0       
      +0       0       0       0       0
  7530 ;;      Temps:          0       0       0       0       0       0       0       0       0       0       0       0       
      +0       0       0       0       0
  7531 ;;      Totals:         0       0       0       0       0       0       0       0       0       0       0       0       
      +0       0       0       0       0
  7532 ;;Total ram usage:        0 bytes
  7533 ;; Hardware stack levels used: 1
  7534 ;; This function calls:
  7535 ;;		Nothing
  7536 ;; This function is called by:
  7537 ;;		_InterruptManager
  7538 ;; This function uses a non-reentrant model
  7539 ;;
  7540                           
  7541                           	psect	text51
  7542   00305C                     __ptext51:
  7543                           	callstack 0
  7544   00305C                     _MSSP_I2C_ISR:
  7545                           	callstack 23
  7546   00305C                     
  7547                           ;MCAL_Layer/I2C/hal_i2c.c: 283:     (PIR1bits.SSPIF = 0);
  7548   00305C  969E               	bcf	158,3,c	;volatile
  7549   00305E  0012               	return		;funcret
  7550   003060                     __end_of_MSSP_I2C_ISR:
  7551                           	callstack 0
  7552                           
  7553 ;; *************** function _MSSP_I2C_BC_ISR *****************
  7554 ;; Defined at:
  7555 ;;		line 290 in file "MCAL_Layer/I2C/hal_i2c.c"
  7556 ;; Parameters:    Size  Location     Type
  7557 ;;		None
  7558 ;; Auto vars:     Size  Location     Type
  7559 ;;		None
  7560 ;; Return value:  Size  Location     Type
  7561 ;;                  1    wreg      void 
  7562 ;; Registers used:
  7563 ;;		None
  7564 ;; Tracked objects:
  7565 ;;		On entry : 0/0
  7566 ;;		On exit  : 0/0
  7567 ;;		Unchanged: 0/0
  7568 ;; Data sizes:     COMRAM   BANK0   BANK1   BANK2   BANK3   BANK4   BANK5   BANK6   BANK7   BANK8   BANK9  BANK10  BANK1
      +1  BANK12  BANK13  BANK14  BANK15
  7569 ;;      Params:         0       0       0       0       0       0       0       0       0       0       0       0       
      +0       0       0       0       0
  7570 ;;      Locals:         0       0       0       0       0       0       0       0       0       0       0       0       
      +0       0       0       0       0
  7571 ;;      Temps:          0       0       0       0       0       0       0       0       0       0       0       0       
      +0       0       0       0       0
  7572 ;;      Totals:         0       0       0       0       0       0       0       0       0       0       0       0       
      +0       0       0       0       0
  7573 ;;Total ram usage:        0 bytes
  7574 ;; Hardware stack levels used: 1
  7575 ;; This function calls:
  7576 ;;		Nothing
  7577 ;; This function is called by:
  7578 ;;		_InterruptManager
  7579 ;; This function uses a non-reentrant model
  7580 ;;
  7581                           
  7582                           	psect	text52
  7583   003060                     __ptext52:
  7584                           	callstack 0
  7585   003060                     _MSSP_I2C_BC_ISR:
  7586                           	callstack 23
  7587   003060                     
  7588                           ;MCAL_Layer/I2C/hal_i2c.c: 292:     (PIR2bits.BCLIF = 0);
  7589   003060  96A1               	bcf	161,3,c	;volatile
  7590   003062  0012               	return		;funcret
  7591   003064                     __end_of_MSSP_I2C_BC_ISR:
  7592                           	callstack 0
  7593                           
  7594 ;; *************** function _INT2_ISR *****************
  7595 ;; Defined at:
  7596 ;;		line 95 in file "MCAL_Layer/Interrupt/mcal_external_interrupt.c"
  7597 ;; Parameters:    Size  Location     Type
  7598 ;;		None
  7599 ;; Auto vars:     Size  Location     Type
  7600 ;;		None
  7601 ;; Return value:  Size  Location     Type
  7602 ;;                  1    wreg      void 
  7603 ;; Registers used:
  7604 ;;		wreg, fsr2l, fsr2h, status,2, status,0, pcl, pclath, pclatu, tosl, prodl, prodh, cstack
  7605 ;; Tracked objects:
  7606 ;;		On entry : 0/0
  7607 ;;		On exit  : 0/0
  7608 ;;		Unchanged: 0/0
  7609 ;; Data sizes:     COMRAM   BANK0   BANK1   BANK2   BANK3   BANK4   BANK5   BANK6   BANK7   BANK8   BANK9  BANK10  BANK1
      +1  BANK12  BANK13  BANK14  BANK15
  7610 ;;      Params:         0       0       0       0       0       0       0       0       0       0       0       0       
      +0       0       0       0       0
  7611 ;;      Locals:         0       0       0       0       0       0       0       0       0       0       0       0       
      +0       0       0       0       0
  7612 ;;      Temps:          0       0       0       0       0       0       0       0       0       0       0       0       
      +0       0       0       0       0
  7613 ;;      Totals:         0       0       0       0       0       0       0       0       0       0       0       0       
      +0       0       0       0       0
  7614 ;;Total ram usage:        0 bytes
  7615 ;; Hardware stack levels used: 1
  7616 ;; Hardware stack levels required when called: 5
  7617 ;; This function calls:
  7618 ;;		NULL
  7619 ;;		_Int0_APP_ISR
  7620 ;; This function is called by:
  7621 ;;		_InterruptManager
  7622 ;; This function uses a non-reentrant model
  7623 ;;
  7624                           
  7625                           	psect	text53
  7626   002E42                     __ptext53:
  7627                           	callstack 0
  7628   002E42                     _INT2_ISR:
  7629                           	callstack 18
  7630   002E42                     
  7631                           ;MCAL_Layer/Interrupt/mcal_external_interrupt.c: 97:     (INTCON3bits.INT2IF = 0);
  7632   002E42  92F0               	bcf	240,1,c	;volatile
  7633   002E44                     
  7634                           ;MCAL_Layer/Interrupt/mcal_external_interrupt.c: 100:     if(INT2_InterruptHandler){ INT
      +                          2_InterruptHandler(); }
  7635   002E44  5019               	movf	_INT2_InterruptHandler^0,w,c
  7636   002E46  101A               	iorwf	(_INT2_InterruptHandler+1)^0,w,c
  7637   002E48  B4D8               	btfsc	status,2,c
  7638   002E4A  EF29  F017         	goto	i2u447_41
  7639   002E4E  EF2B  F017         	goto	i2u447_40
  7640   002E52                     i2u447_41:
  7641   002E52  EF37  F017         	goto	i2l997
  7642   002E56                     i2u447_40:
  7643   002E56  D802               	call	i2u448_48
  7644   002E58  EF37  F017         	goto	i2u448_49
  7645   002E5C                     i2u448_48:
  7646   002E5C  0005               	push	
  7647   002E5E  6EFA               	movwf	pclath,c
  7648   002E60  5019               	movf	_INT2_InterruptHandler^0,w,c
  7649   002E62  6EFD               	movwf	tosl,c
  7650   002E64  501A               	movf	(_INT2_InterruptHandler+1)^0,w,c
  7651   002E66  6EFE               	movwf	tosh,c
  7652   002E68  6AFF               	clrf	tosu,c
  7653   002E6A  50FA               	movf	pclath,w,c
  7654   002E6C  0012               	return		;indir
  7655   002E6E                     i2u448_49:
  7656   002E6E                     i2l997:
  7657   002E6E  0012               	return		;funcret
  7658   002E70                     __end_of_INT2_ISR:
  7659                           	callstack 0
  7660                           
  7661 ;; *************** function _INT1_ISR *****************
  7662 ;; Defined at:
  7663 ;;		line 86 in file "MCAL_Layer/Interrupt/mcal_external_interrupt.c"
  7664 ;; Parameters:    Size  Location     Type
  7665 ;;		None
  7666 ;; Auto vars:     Size  Location     Type
  7667 ;;		None
  7668 ;; Return value:  Size  Location     Type
  7669 ;;                  1    wreg      void 
  7670 ;; Registers used:
  7671 ;;		wreg, fsr2l, fsr2h, status,2, status,0, pcl, pclath, pclatu, tosl, prodl, prodh, cstack
  7672 ;; Tracked objects:
  7673 ;;		On entry : 0/0
  7674 ;;		On exit  : 0/0
  7675 ;;		Unchanged: 0/0
  7676 ;; Data sizes:     COMRAM   BANK0   BANK1   BANK2   BANK3   BANK4   BANK5   BANK6   BANK7   BANK8   BANK9  BANK10  BANK1
      +1  BANK12  BANK13  BANK14  BANK15
  7677 ;;      Params:         0       0       0       0       0       0       0       0       0       0       0       0       
      +0       0       0       0       0
  7678 ;;      Locals:         0       0       0       0       0       0       0       0       0       0       0       0       
      +0       0       0       0       0
  7679 ;;      Temps:          0       0       0       0       0       0       0       0       0       0       0       0       
      +0       0       0       0       0
  7680 ;;      Totals:         0       0       0       0       0       0       0       0       0       0       0       0       
      +0       0       0       0       0
  7681 ;;Total ram usage:        0 bytes
  7682 ;; Hardware stack levels used: 1
  7683 ;; Hardware stack levels required when called: 5
  7684 ;; This function calls:
  7685 ;;		NULL
  7686 ;;		_Int0_APP_ISR
  7687 ;; This function is called by:
  7688 ;;		_InterruptManager
  7689 ;; This function uses a non-reentrant model
  7690 ;;
  7691                           
  7692                           	psect	text54
  7693   002E70                     __ptext54:
  7694                           	callstack 0
  7695   002E70                     _INT1_ISR:
  7696                           	callstack 18
  7697   002E70                     
  7698                           ;MCAL_Layer/Interrupt/mcal_external_interrupt.c: 88:     (INTCON3bits.INT1IF = 0);
  7699   002E70  90F0               	bcf	240,0,c	;volatile
  7700   002E72                     
  7701                           ;MCAL_Layer/Interrupt/mcal_external_interrupt.c: 91:     if(INT1_InterruptHandler){ INT1
      +                          _InterruptHandler(); }
  7702   002E72  501B               	movf	_INT1_InterruptHandler^0,w,c
  7703   002E74  101C               	iorwf	(_INT1_InterruptHandler+1)^0,w,c
  7704   002E76  B4D8               	btfsc	status,2,c
  7705   002E78  EF40  F017         	goto	i2u445_41
  7706   002E7C  EF42  F017         	goto	i2u445_40
  7707   002E80                     i2u445_41:
  7708   002E80  EF4E  F017         	goto	i2l992
  7709   002E84                     i2u445_40:
  7710   002E84  D802               	call	i2u446_48
  7711   002E86  EF4E  F017         	goto	i2u446_49
  7712   002E8A                     i2u446_48:
  7713   002E8A  0005               	push	
  7714   002E8C  6EFA               	movwf	pclath,c
  7715   002E8E  501B               	movf	_INT1_InterruptHandler^0,w,c
  7716   002E90  6EFD               	movwf	tosl,c
  7717   002E92  501C               	movf	(_INT1_InterruptHandler+1)^0,w,c
  7718   002E94  6EFE               	movwf	tosh,c
  7719   002E96  6AFF               	clrf	tosu,c
  7720   002E98  50FA               	movf	pclath,w,c
  7721   002E9A  0012               	return		;indir
  7722   002E9C                     i2u446_49:
  7723   002E9C                     i2l992:
  7724   002E9C  0012               	return		;funcret
  7725   002E9E                     __end_of_INT1_ISR:
  7726                           	callstack 0
  7727                           
  7728 ;; *************** function _INT0_ISR *****************
  7729 ;; Defined at:
  7730 ;;		line 74 in file "MCAL_Layer/Interrupt/mcal_external_interrupt.c"
  7731 ;; Parameters:    Size  Location     Type
  7732 ;;		None
  7733 ;; Auto vars:     Size  Location     Type
  7734 ;;		None
  7735 ;; Return value:  Size  Location     Type
  7736 ;;                  1    wreg      void 
  7737 ;; Registers used:
  7738 ;;		wreg, fsr2l, fsr2h, status,2, status,0, pcl, pclath, pclatu, tosl, prodl, prodh, cstack
  7739 ;; Tracked objects:
  7740 ;;		On entry : 0/0
  7741 ;;		On exit  : 0/0
  7742 ;;		Unchanged: 0/0
  7743 ;; Data sizes:     COMRAM   BANK0   BANK1   BANK2   BANK3   BANK4   BANK5   BANK6   BANK7   BANK8   BANK9  BANK10  BANK1
      +1  BANK12  BANK13  BANK14  BANK15
  7744 ;;      Params:         0       0       0       0       0       0       0       0       0       0       0       0       
      +0       0       0       0       0
  7745 ;;      Locals:         0       0       0       0       0       0       0       0       0       0       0       0       
      +0       0       0       0       0
  7746 ;;      Temps:          0       0       0       0       0       0       0       0       0       0       0       0       
      +0       0       0       0       0
  7747 ;;      Totals:         0       0       0       0       0       0       0       0       0       0       0       0       
      +0       0       0       0       0
  7748 ;;Total ram usage:        0 bytes
  7749 ;; Hardware stack levels used: 1
  7750 ;; Hardware stack levels required when called: 5
  7751 ;; This function calls:
  7752 ;;		NULL
  7753 ;;		_Int0_APP_ISR
  7754 ;; This function is called by:
  7755 ;;		_InterruptManager
  7756 ;; This function uses a non-reentrant model
  7757 ;;
  7758                           
  7759                           	psect	text55
  7760   002E9E                     __ptext55:
  7761                           	callstack 0
  7762   002E9E                     _INT0_ISR:
  7763                           	callstack 18
  7764   002E9E                     
  7765                           ;MCAL_Layer/Interrupt/mcal_external_interrupt.c: 76:     (INTCONbits.INT0IF = 0);
  7766   002E9E  92F2               	bcf	242,1,c	;volatile
  7767   002EA0                     
  7768                           ;MCAL_Layer/Interrupt/mcal_external_interrupt.c: 79:     if(INT0_InterruptHandler){ INT0
      +                          _InterruptHandler(); }
  7769   002EA0  501D               	movf	_INT0_InterruptHandler^0,w,c
  7770   002EA2  101E               	iorwf	(_INT0_InterruptHandler+1)^0,w,c
  7771   002EA4  B4D8               	btfsc	status,2,c
  7772   002EA6  EF57  F017         	goto	i2u443_41
  7773   002EAA  EF59  F017         	goto	i2u443_40
  7774   002EAE                     i2u443_41:
  7775   002EAE  EF65  F017         	goto	i2l987
  7776   002EB2                     i2u443_40:
  7777   002EB2  D802               	call	i2u444_48
  7778   002EB4  EF65  F017         	goto	i2u444_49
  7779   002EB8                     i2u444_48:
  7780   002EB8  0005               	push	
  7781   002EBA  6EFA               	movwf	pclath,c
  7782   002EBC  501D               	movf	_INT0_InterruptHandler^0,w,c
  7783   002EBE  6EFD               	movwf	tosl,c
  7784   002EC0  501E               	movf	(_INT0_InterruptHandler+1)^0,w,c
  7785   002EC2  6EFE               	movwf	tosh,c
  7786   002EC4  6AFF               	clrf	tosu,c
  7787   002EC6  50FA               	movf	pclath,w,c
  7788   002EC8  0012               	return		;indir
  7789   002ECA                     i2u444_49:
  7790   002ECA                     i2l987:
  7791   002ECA  0012               	return		;funcret
  7792   002ECC                     __end_of_INT0_ISR:
  7793                           	callstack 0
  7794                           
  7795 ;; *************** function _Int0_APP_ISR *****************
  7796 ;; Defined at:
  7797 ;;		line 146 in file "application.c"
  7798 ;; Parameters:    Size  Location     Type
  7799 ;;		None
  7800 ;; Auto vars:     Size  Location     Type
  7801 ;;		None
  7802 ;; Return value:  Size  Location     Type
  7803 ;;                  1    wreg      void 
  7804 ;; Registers used:
  7805 ;;		wreg, fsr2l, fsr2h, status,2, status,0, prodl, prodh, cstack
  7806 ;; Tracked objects:
  7807 ;;		On entry : 0/0
  7808 ;;		On exit  : 0/0
  7809 ;;		Unchanged: 0/0
  7810 ;; Data sizes:     COMRAM   BANK0   BANK1   BANK2   BANK3   BANK4   BANK5   BANK6   BANK7   BANK8   BANK9  BANK10  BANK1
      +1  BANK12  BANK13  BANK14  BANK15
  7811 ;;      Params:         0       0       0       0       0       0       0       0       0       0       0       0       
      +0       0       0       0       0
  7812 ;;      Locals:         0       0       0       0       0       0       0       0       0       0       0       0       
      +0       0       0       0       0
  7813 ;;      Temps:          0       0       0       0       0       0       0       0       0       0       0       0       
      +0       0       0       0       0
  7814 ;;      Totals:         0       0       0       0       0       0       0       0       0       0       0       0       
      +0       0       0       0       0
  7815 ;;Total ram usage:        0 bytes
  7816 ;; Hardware stack levels used: 1
  7817 ;; Hardware stack levels required when called: 4
  7818 ;; This function calls:
  7819 ;;		_lcd_4bit_clear
  7820 ;;		i2_led_turn_off
  7821 ;; This function is called by:
  7822 ;;		_INT0_ISR
  7823 ;;		_INT1_ISR
  7824 ;;		_INT2_ISR
  7825 ;; This function uses a non-reentrant model
  7826 ;;
  7827                           
  7828                           	psect	text56
  7829   002B84                     __ptext56:
  7830                           	callstack 0
  7831   002B84                     _Int0_APP_ISR:
  7832                           	callstack 18
  7833   002B84                     
  7834                           ;application.c: 147:     if(traffic_light_state != PEDESTRIANS_READY_TO_MOVE_CARS_STOP_S
      +                          TATE){
  7835   002B84  0E03               	movlw	3
  7836   002B86  0100               	movlb	0	; () banked
  7837   002B88  19FD               	xorwf	_traffic_light_state& (0+255),w,b
  7838   002B8A  B4D8               	btfsc	status,2,c
  7839   002B8C  EFCA  F015         	goto	i2u433_41
  7840   002B90  EFCC  F015         	goto	i2u433_40
  7841   002B94                     i2u433_41:
  7842   002B94  EFEC  F015         	goto	i2l1822
  7843   002B98                     i2u433_40:
  7844   002B98                     
  7845                           ; BSR set to: 0
  7846                           ;application.c: 148:         ret = led_turn_off(&led_green_car);
  7847   002B98  0E5F               	movlw	low _led_green_car
  7848   002B9A  6E39               	movwf	i2led_turn_off@led^0,c
  7849   002B9C  0E00               	movlw	high _led_green_car
  7850   002B9E  6E3A               	movwf	(i2led_turn_off@led+1)^0,c
  7851   002BA0  EC08  F017         	call	i2_led_turn_off	;wreg free
  7852   002BA4  0100               	movlb	0	; () banked
  7853   002BA6  6FFE               	movwf	_ret& (0+255),b
  7854                           
  7855                           ;application.c: 149:         ret = led_turn_off(&led_red_people);
  7856   002BA8  0E5E               	movlw	low _led_red_people
  7857   002BAA  6E39               	movwf	i2led_turn_off@led^0,c
  7858   002BAC  0E00               	movlw	high _led_red_people
  7859   002BAE  6E3A               	movwf	(i2led_turn_off@led+1)^0,c
  7860   002BB0  EC08  F017         	call	i2_led_turn_off	;wreg free
  7861   002BB4  0100               	movlb	0	; () banked
  7862   002BB6  6FFE               	movwf	_ret& (0+255),b
  7863   002BB8                     
  7864                           ; BSR set to: 0
  7865                           ;application.c: 150:         seven_seg_cnt = 0;
  7866   002BB8  0E00               	movlw	0
  7867   002BBA  6E2C               	movwf	_seven_seg_cnt^0,c
  7868   002BBC                     
  7869                           ; BSR set to: 0
  7870                           ;application.c: 151:         ret = lcd_4bit_clear(&lcd_1);
  7871   002BBC  0EBD               	movlw	low _lcd_1
  7872   002BBE  6E41               	movwf	lcd_4bit_clear@lcd^0,c
  7873   002BC0  0E00               	movlw	high _lcd_1
  7874   002BC2  6E42               	movwf	(lcd_4bit_clear@lcd+1)^0,c
  7875   002BC4  ECBB  F017         	call	_lcd_4bit_clear	;wreg free
  7876   002BC8  0100               	movlb	0	; () banked
  7877   002BCA  6FFE               	movwf	_ret& (0+255),b
  7878                           
  7879                           ;application.c: 152:         traffic_light_state = PEDESTRIANS_READY_TO_MOVE_CARS_STOP_S
      +                          TATE;
  7880   002BCC  0E03               	movlw	3
  7881   002BCE  6FFD               	movwf	_traffic_light_state& (0+255),b
  7882                           
  7883                           ;application.c: 153:         traffic_light_event = READY_TIME_OF_PEDESTRIANS_TO_MOVE_FIN
      +                          ISHED_EVENT;
  7884   002BD0  0E03               	movlw	3
  7885   002BD2  6E60               	movwf	_traffic_light_event^0,c
  7886   002BD4                     
  7887                           ; BSR set to: 0
  7888                           ;application.c: 154:         next_traffic_light_event = traffic_light_event;
  7889   002BD4  C060  F0FF         	movff	_traffic_light_event,_next_traffic_light_event
  7890   002BD8                     i2l1822:
  7891                           
  7892                           ; BSR set to: 0
  7893   002BD8  0012               	return		;funcret
  7894   002BDA                     __end_of_Int0_APP_ISR:
  7895                           	callstack 0
  7896                           
  7897 ;; *************** function i2_led_turn_off *****************
  7898 ;; Defined at:
  7899 ;;		line 54 in file "ECU_Layer/LED/ecu_led.c"
  7900 ;; Parameters:    Size  Location     Type
  7901 ;;  led             2   10[COMRAM] PTR const struct .
  7902 ;;		 -> ready_yellow(1), led_green_people(1), led_red_people(1), led_green_car(1), 
  7903 ;;		 -> led_red_car(1), 
  7904 ;; Auto vars:     Size  Location     Type
  7905 ;;  ret             1   12[COMRAM] unsigned char 
  7906 ;; Return value:  Size  Location     Type
  7907 ;;                  1    wreg      unsigned char 
  7908 ;; Registers used:
  7909 ;;		wreg, fsr2l, fsr2h, status,2, status,0, prodl, prodh, cstack
  7910 ;; Tracked objects:
  7911 ;;		On entry : 0/0
  7912 ;;		On exit  : 0/0
  7913 ;;		Unchanged: 0/0
  7914 ;; Data sizes:     COMRAM   BANK0   BANK1   BANK2   BANK3   BANK4   BANK5   BANK6   BANK7   BANK8   BANK9  BANK10  BANK1
      +1  BANK12  BANK13  BANK14  BANK15
  7915 ;;      Params:         2       0       0       0       0       0       0       0       0       0       0       0       
      +0       0       0       0       0
  7916 ;;      Locals:         1       0       0       0       0       0       0       0       0       0       0       0       
      +0       0       0       0       0
  7917 ;;      Temps:          0       0       0       0       0       0       0       0       0       0       0       0       
      +0       0       0       0       0
  7918 ;;      Totals:         3       0       0       0       0       0       0       0       0       0       0       0       
      +0       0       0       0       0
  7919 ;;Total ram usage:        3 bytes
  7920 ;; Hardware stack levels used: 1
  7921 ;; Hardware stack levels required when called: 1
  7922 ;; This function calls:
  7923 ;;		i2_gpio_pin_write_logic
  7924 ;; This function is called by:
  7925 ;;		_Int0_APP_ISR
  7926 ;; This function uses a non-reentrant model
  7927 ;;
  7928                           
  7929                           	psect	text57
  7930   002E10                     __ptext57:
  7931                           	callstack 0
  7932   002E10                     i2_led_turn_off:
  7933                           	callstack 20
  7934   002E10                     
  7935                           ;ECU_Layer/LED/ecu_led.c: 55:     Std_ReturnType ret = (Std_ReturnType)0x01;
  7936   002E10  0E01               	movlw	1
  7937   002E12  6E3B               	movwf	i2led_turn_off@ret^0,c
  7938   002E14                     
  7939                           ;ECU_Layer/LED/ecu_led.c: 56:      if(((void*)0) == led){
  7940   002E14  5039               	movf	i2led_turn_off@led^0,w,c
  7941   002E16  103A               	iorwf	(i2led_turn_off@led+1)^0,w,c
  7942   002E18  A4D8               	btfss	status,2,c
  7943   002E1A  EF11  F017         	goto	i2u420_41
  7944   002E1E  EF13  F017         	goto	i2u420_40
  7945   002E22                     i2u420_41:
  7946   002E22  EF17  F017         	goto	i2l6047
  7947   002E26                     i2u420_40:
  7948   002E26                     
  7949                           ;ECU_Layer/LED/ecu_led.c: 57:          ret = (Std_ReturnType)0x00;
  7950   002E26  0E00               	movlw	0
  7951   002E28  6E3B               	movwf	i2led_turn_off@ret^0,c
  7952                           
  7953                           ;ECU_Layer/LED/ecu_led.c: 58:      }
  7954   002E2A  EF1F  F017         	goto	i2l6049
  7955   002E2E                     i2l6047:
  7956                           
  7957                           ;ECU_Layer/LED/ecu_led.c: 61:          gpio_pin_write_logic((&led->_led), GPIO_LOW);
  7958   002E2E  C039  F02F         	movff	i2led_turn_off@led,i2gpio_pin_write_logic@_pin_config
  7959   002E32  C03A  F030         	movff	i2led_turn_off@led+1,i2gpio_pin_write_logic@_pin_config+1
  7960   002E36  0E00               	movlw	0
  7961   002E38  6E31               	movwf	i2gpio_pin_write_logic@logic^0,c
  7962   002E3A  EC1B  F00D         	call	i2_gpio_pin_write_logic	;wreg free
  7963   002E3E                     i2l6049:
  7964                           
  7965                           ;ECU_Layer/LED/ecu_led.c: 63:     return ret;
  7966   002E3E  503B               	movf	i2led_turn_off@ret^0,w,c
  7967   002E40  0012               	return		;funcret
  7968   002E42                     __end_ofi2_led_turn_off:
  7969                           	callstack 0
  7970                           
  7971 ;; *************** function _lcd_4bit_clear *****************
  7972 ;; Defined at:
  7973 ;;		line 391 in file "ECU_Layer/Chr_LCD/ecu_chr_lcd.c"
  7974 ;; Parameters:    Size  Location     Type
  7975 ;;  lcd             2   18[COMRAM] PTR const struct .
  7976 ;;		 -> lcd_1(6), 
  7977 ;; Auto vars:     Size  Location     Type
  7978 ;;  ret             1   20[COMRAM] unsigned char 
  7979 ;; Return value:  Size  Location     Type
  7980 ;;                  1    wreg      unsigned char 
  7981 ;; Registers used:
  7982 ;;		wreg, fsr2l, fsr2h, status,2, status,0, prodl, prodh, cstack
  7983 ;; Tracked objects:
  7984 ;;		On entry : 0/0
  7985 ;;		On exit  : 0/0
  7986 ;;		Unchanged: 0/0
  7987 ;; Data sizes:     COMRAM   BANK0   BANK1   BANK2   BANK3   BANK4   BANK5   BANK6   BANK7   BANK8   BANK9  BANK10  BANK1
      +1  BANK12  BANK13  BANK14  BANK15
  7988 ;;      Params:         2       0       0       0       0       0       0       0       0       0       0       0       
      +0       0       0       0       0
  7989 ;;      Locals:         1       0       0       0       0       0       0       0       0       0       0       0       
      +0       0       0       0       0
  7990 ;;      Temps:          0       0       0       0       0       0       0       0       0       0       0       0       
      +0       0       0       0       0
  7991 ;;      Totals:         3       0       0       0       0       0       0       0       0       0       0       0       
      +0       0       0       0       0
  7992 ;;Total ram usage:        3 bytes
  7993 ;; Hardware stack levels used: 1
  7994 ;; Hardware stack levels required when called: 3
  7995 ;; This function calls:
  7996 ;;		i2_lcd_4bit_send_command
  7997 ;; This function is called by:
  7998 ;;		_TMR0_DefualtInterruptHandler
  7999 ;;		_Int0_APP_ISR
  8000 ;; This function uses a non-reentrant model
  8001 ;;
  8002                           
  8003                           	psect	text58
  8004   002F76                     __ptext58:
  8005                           	callstack 0
  8006   002F76                     _lcd_4bit_clear:
  8007                           	callstack 18
  8008   002F76  C041  F03D         	movff	lcd_4bit_clear@lcd,i2lcd_4bit_send_command@lcd
  8009   002F7A  C042  F03E         	movff	lcd_4bit_clear@lcd+1,i2lcd_4bit_send_command@lcd+1
  8010   002F7E  0E01               	movlw	1
  8011   002F80  6E3F               	movwf	i2lcd_4bit_send_command@command^0,c
  8012   002F82  ECC2  F014         	call	i2_lcd_4bit_send_command	;wreg free
  8013   002F86                     
  8014                           ;ECU_Layer/Chr_LCD/ecu_chr_lcd.c: 394:     ret = lcd_4bit_send_command(lcd, 0x02);
  8015   002F86  C041  F03D         	movff	lcd_4bit_clear@lcd,i2lcd_4bit_send_command@lcd
  8016   002F8A  C042  F03E         	movff	lcd_4bit_clear@lcd+1,i2lcd_4bit_send_command@lcd+1
  8017   002F8E  0E02               	movlw	2
  8018   002F90  6E3F               	movwf	i2lcd_4bit_send_command@command^0,c
  8019   002F92  ECC2  F014         	call	i2_lcd_4bit_send_command	;wreg free
  8020   002F96  6E43               	movwf	lcd_4bit_clear@ret^0,c
  8021                           
  8022                           ;ECU_Layer/Chr_LCD/ecu_chr_lcd.c: 395:     return ret;
  8023   002F98  5043               	movf	lcd_4bit_clear@ret^0,w,c
  8024   002F9A  0012               	return		;funcret
  8025   002F9C                     __end_of_lcd_4bit_clear:
  8026                           	callstack 0
  8027                           
  8028 ;; *************** function i2_lcd_4bit_send_command *****************
  8029 ;; Defined at:
  8030 ;;		line 60 in file "ECU_Layer/Chr_LCD/ecu_chr_lcd.c"
  8031 ;; Parameters:    Size  Location     Type
  8032 ;;  lcd             2   14[COMRAM] PTR const struct .
  8033 ;;		 -> lcd_1(6), 
  8034 ;;  command         1   16[COMRAM] unsigned char 
  8035 ;; Auto vars:     Size  Location     Type
  8036 ;;  ret             1   17[COMRAM] unsigned char 
  8037 ;; Return value:  Size  Location     Type
  8038 ;;                  1    wreg      unsigned char 
  8039 ;; Registers used:
  8040 ;;		wreg, fsr2l, fsr2h, status,2, status,0, prodl, prodh, cstack
  8041 ;; Tracked objects:
  8042 ;;		On entry : 0/0
  8043 ;;		On exit  : 0/0
  8044 ;;		Unchanged: 0/0
  8045 ;; Data sizes:     COMRAM   BANK0   BANK1   BANK2   BANK3   BANK4   BANK5   BANK6   BANK7   BANK8   BANK9  BANK10  BANK1
      +1  BANK12  BANK13  BANK14  BANK15
  8046 ;;      Params:         3       0       0       0       0       0       0       0       0       0       0       0       
      +0       0       0       0       0
  8047 ;;      Locals:         1       0       0       0       0       0       0       0       0       0       0       0       
      +0       0       0       0       0
  8048 ;;      Temps:          0       0       0       0       0       0       0       0       0       0       0       0       
      +0       0       0       0       0
  8049 ;;      Totals:         4       0       0       0       0       0       0       0       0       0       0       0       
      +0       0       0       0       0
  8050 ;;Total ram usage:        4 bytes
  8051 ;; Hardware stack levels used: 1
  8052 ;; Hardware stack levels required when called: 2
  8053 ;; This function calls:
  8054 ;;		i2_gpio_pin_write_logic
  8055 ;;		i2_lcd_4bit_send_enable_signal
  8056 ;;		i2_lcd_send_4bits
  8057 ;; This function is called by:
  8058 ;;		_lcd_4bit_clear
  8059 ;; This function uses a non-reentrant model
  8060 ;;
  8061                           
  8062                           	psect	text59
  8063   002984                     __ptext59:
  8064                           	callstack 0
  8065   002984                     i2_lcd_4bit_send_command:
  8066                           	callstack 18
  8067   002984                     
  8068                           ;ECU_Layer/Chr_LCD/ecu_chr_lcd.c: 62:     if(((void*)0) == lcd){
  8069   002984  503D               	movf	i2lcd_4bit_send_command@lcd^0,w,c
  8070   002986  103E               	iorwf	(i2lcd_4bit_send_command@lcd+1)^0,w,c
  8071   002988  A4D8               	btfss	status,2,c
  8072   00298A  EFC9  F014         	goto	i2u391_41
  8073   00298E  EFCB  F014         	goto	i2u391_40
  8074   002992                     i2u391_41:
  8075   002992  EFCF  F014         	goto	i2l5721
  8076   002996                     i2u391_40:
  8077   002996                     
  8078                           ;ECU_Layer/Chr_LCD/ecu_chr_lcd.c: 63:         ret = (Std_ReturnType)0x00;
  8079   002996  0E00               	movlw	0
  8080   002998  6E40               	movwf	i2lcd_4bit_send_command@ret^0,c
  8081                           
  8082                           ;ECU_Layer/Chr_LCD/ecu_chr_lcd.c: 64:     }
  8083   00299A  EFF9  F014         	goto	i2l5723
  8084   00299E                     i2l5721:
  8085                           
  8086                           ;ECU_Layer/Chr_LCD/ecu_chr_lcd.c: 68:         ret = gpio_pin_write_logic(&(lcd->lcd_rs),
      +                           GPIO_LOW);
  8087   00299E  C03D  F02F         	movff	i2lcd_4bit_send_command@lcd,i2gpio_pin_write_logic@_pin_config
  8088   0029A2  C03E  F030         	movff	i2lcd_4bit_send_command@lcd+1,i2gpio_pin_write_logic@_pin_config+1
  8089   0029A6  0E00               	movlw	0
  8090   0029A8  6E31               	movwf	i2gpio_pin_write_logic@logic^0,c
  8091   0029AA  EC1B  F00D         	call	i2_gpio_pin_write_logic	;wreg free
  8092   0029AE  6E40               	movwf	i2lcd_4bit_send_command@ret^0,c
  8093                           
  8094                           ;ECU_Layer/Chr_LCD/ecu_chr_lcd.c: 70:         ret = lcd_send_4bits(lcd, command >> 4);
  8095   0029B0  C03D  F039         	movff	i2lcd_4bit_send_command@lcd,i2lcd_send_4bits@lcd
  8096   0029B4  C03E  F03A         	movff	i2lcd_4bit_send_command@lcd+1,i2lcd_send_4bits@lcd+1
  8097   0029B8  383F               	swapf	i2lcd_4bit_send_command@command^0,w,c
  8098   0029BA  0B0F               	andlw	15
  8099   0029BC  6E3B               	movwf	i2lcd_send_4bits@_data_command^0,c
  8100   0029BE  EC31  F015         	call	i2_lcd_send_4bits	;wreg free
  8101   0029C2  6E40               	movwf	i2lcd_4bit_send_command@ret^0,c
  8102                           
  8103                           ;ECU_Layer/Chr_LCD/ecu_chr_lcd.c: 72:         ret = lcd_4bit_send_enable_signal(lcd);
  8104   0029C4  C03D  F039         	movff	i2lcd_4bit_send_command@lcd,i2lcd_4bit_send_enable_signal@lcd
  8105   0029C8  C03E  F03A         	movff	i2lcd_4bit_send_command@lcd+1,i2lcd_4bit_send_enable_signal@lcd+1
  8106   0029CC  ECA2  F016         	call	i2_lcd_4bit_send_enable_signal	;wreg free
  8107   0029D0  6E40               	movwf	i2lcd_4bit_send_command@ret^0,c
  8108                           
  8109                           ;ECU_Layer/Chr_LCD/ecu_chr_lcd.c: 74:         ret = lcd_send_4bits(lcd, command);
  8110   0029D2  C03D  F039         	movff	i2lcd_4bit_send_command@lcd,i2lcd_send_4bits@lcd
  8111   0029D6  C03E  F03A         	movff	i2lcd_4bit_send_command@lcd+1,i2lcd_send_4bits@lcd+1
  8112   0029DA  C03F  F03B         	movff	i2lcd_4bit_send_command@command,i2lcd_send_4bits@_data_command
  8113   0029DE  EC31  F015         	call	i2_lcd_send_4bits	;wreg free
  8114   0029E2  6E40               	movwf	i2lcd_4bit_send_command@ret^0,c
  8115                           
  8116                           ;ECU_Layer/Chr_LCD/ecu_chr_lcd.c: 76:         ret = lcd_4bit_send_enable_signal(lcd);
  8117   0029E4  C03D  F039         	movff	i2lcd_4bit_send_command@lcd,i2lcd_4bit_send_enable_signal@lcd
  8118   0029E8  C03E  F03A         	movff	i2lcd_4bit_send_command@lcd+1,i2lcd_4bit_send_enable_signal@lcd+1
  8119   0029EC  ECA2  F016         	call	i2_lcd_4bit_send_enable_signal	;wreg free
  8120   0029F0  6E40               	movwf	i2lcd_4bit_send_command@ret^0,c
  8121   0029F2                     i2l5723:
  8122                           
  8123                           ;ECU_Layer/Chr_LCD/ecu_chr_lcd.c: 78:     return ret;
  8124   0029F2  5040               	movf	i2lcd_4bit_send_command@ret^0,w,c
  8125   0029F4  0012               	return		;funcret
  8126   0029F6                     __end_ofi2_lcd_4bit_send_command:
  8127                           	callstack 0
  8128                           
  8129 ;; *************** function i2_lcd_send_4bits *****************
  8130 ;; Defined at:
  8131 ;;		line 479 in file "ECU_Layer/Chr_LCD/ecu_chr_lcd.c"
  8132 ;; Parameters:    Size  Location     Type
  8133 ;;  lcd             2   10[COMRAM] PTR const struct .
  8134 ;;		 -> lcd_1(6), 
  8135 ;;  _data_comman    1   12[COMRAM] unsigned char 
  8136 ;; Auto vars:     Size  Location     Type
  8137 ;;  ret             1   13[COMRAM] unsigned char 
  8138 ;; Return value:  Size  Location     Type
  8139 ;;                  1    wreg      unsigned char 
  8140 ;; Registers used:
  8141 ;;		wreg, fsr2l, fsr2h, status,2, status,0, prodl, prodh, cstack
  8142 ;; Tracked objects:
  8143 ;;		On entry : 0/0
  8144 ;;		On exit  : 0/0
  8145 ;;		Unchanged: 0/0
  8146 ;; Data sizes:     COMRAM   BANK0   BANK1   BANK2   BANK3   BANK4   BANK5   BANK6   BANK7   BANK8   BANK9  BANK10  BANK1
      +1  BANK12  BANK13  BANK14  BANK15
  8147 ;;      Params:         3       0       0       0       0       0       0       0       0       0       0       0       
      +0       0       0       0       0
  8148 ;;      Locals:         1       0       0       0       0       0       0       0       0       0       0       0       
      +0       0       0       0       0
  8149 ;;      Temps:          0       0       0       0       0       0       0       0       0       0       0       0       
      +0       0       0       0       0
  8150 ;;      Totals:         4       0       0       0       0       0       0       0       0       0       0       0       
      +0       0       0       0       0
  8151 ;;Total ram usage:        4 bytes
  8152 ;; Hardware stack levels used: 1
  8153 ;; Hardware stack levels required when called: 1
  8154 ;; This function calls:
  8155 ;;		i2_gpio_pin_write_logic
  8156 ;; This function is called by:
  8157 ;;		i2_lcd_4bit_send_command
  8158 ;; This function uses a non-reentrant model
  8159 ;;
  8160                           
  8161                           	psect	text60
  8162   002A62                     __ptext60:
  8163                           	callstack 0
  8164   002A62                     i2_lcd_send_4bits:
  8165                           	callstack 18
  8166   002A62  0E02               	movlw	2
  8167   002A64  2439               	addwf	i2lcd_send_4bits@lcd^0,w,c
  8168   002A66  6E2F               	movwf	i2gpio_pin_write_logic@_pin_config^0,c
  8169   002A68  0E00               	movlw	0
  8170   002A6A  203A               	addwfc	(i2lcd_send_4bits@lcd+1)^0,w,c
  8171   002A6C  6E30               	movwf	(i2gpio_pin_write_logic@_pin_config+1)^0,c
  8172   002A6E  503B               	movf	i2lcd_send_4bits@_data_command^0,w,c
  8173   002A70  0B01               	andlw	1
  8174   002A72  6E31               	movwf	i2gpio_pin_write_logic@logic^0,c
  8175   002A74  EC1B  F00D         	call	i2_gpio_pin_write_logic	;wreg free
  8176   002A78  0E03               	movlw	3
  8177   002A7A  2439               	addwf	i2lcd_send_4bits@lcd^0,w,c
  8178   002A7C  6E2F               	movwf	i2gpio_pin_write_logic@_pin_config^0,c
  8179   002A7E  0E00               	movlw	0
  8180   002A80  203A               	addwfc	(i2lcd_send_4bits@lcd+1)^0,w,c
  8181   002A82  6E30               	movwf	(i2gpio_pin_write_logic@_pin_config+1)^0,c
  8182   002A84  90D8               	bcf	status,0,c
  8183   002A86  303B               	rrcf	i2lcd_send_4bits@_data_command^0,w,c
  8184   002A88  0B01               	andlw	1
  8185   002A8A  6E31               	movwf	i2gpio_pin_write_logic@logic^0,c
  8186   002A8C  EC1B  F00D         	call	i2_gpio_pin_write_logic	;wreg free
  8187   002A90  0E04               	movlw	4
  8188   002A92  2439               	addwf	i2lcd_send_4bits@lcd^0,w,c
  8189   002A94  6E2F               	movwf	i2gpio_pin_write_logic@_pin_config^0,c
  8190   002A96  0E00               	movlw	0
  8191   002A98  203A               	addwfc	(i2lcd_send_4bits@lcd+1)^0,w,c
  8192   002A9A  6E30               	movwf	(i2gpio_pin_write_logic@_pin_config+1)^0,c
  8193   002A9C  403B               	rrncf	i2lcd_send_4bits@_data_command^0,w,c
  8194   002A9E  42E8               	rrncf	wreg,f,c
  8195   002AA0  0B3F               	andlw	63
  8196   002AA2  0B01               	andlw	1
  8197   002AA4  6E31               	movwf	i2gpio_pin_write_logic@logic^0,c
  8198   002AA6  EC1B  F00D         	call	i2_gpio_pin_write_logic	;wreg free
  8199   002AAA                     
  8200                           ;ECU_Layer/Chr_LCD/ecu_chr_lcd.c: 484:     ret = gpio_pin_write_logic(&(lcd->lcd_data[3]
      +                          ), (_data_command >> 3) & (uint8)0x01);
  8201   002AAA  0E05               	movlw	5
  8202   002AAC  2439               	addwf	i2lcd_send_4bits@lcd^0,w,c
  8203   002AAE  6E2F               	movwf	i2gpio_pin_write_logic@_pin_config^0,c
  8204   002AB0  0E00               	movlw	0
  8205   002AB2  203A               	addwfc	(i2lcd_send_4bits@lcd+1)^0,w,c
  8206   002AB4  6E30               	movwf	(i2gpio_pin_write_logic@_pin_config+1)^0,c
  8207   002AB6  383B               	swapf	i2lcd_send_4bits@_data_command^0,w,c
  8208   002AB8  46E8               	rlncf	wreg,f,c
  8209   002ABA  0B1F               	andlw	31
  8210   002ABC  0B01               	andlw	1
  8211   002ABE  6E31               	movwf	i2gpio_pin_write_logic@logic^0,c
  8212   002AC0  EC1B  F00D         	call	i2_gpio_pin_write_logic	;wreg free
  8213   002AC4  6E3C               	movwf	i2lcd_send_4bits@ret^0,c
  8214                           
  8215                           ;ECU_Layer/Chr_LCD/ecu_chr_lcd.c: 485:     return ret;
  8216   002AC6  503C               	movf	i2lcd_send_4bits@ret^0,w,c
  8217   002AC8  0012               	return		;funcret
  8218   002ACA                     __end_ofi2_lcd_send_4bits:
  8219                           	callstack 0
  8220                           
  8221 ;; *************** function i2_lcd_4bit_send_enable_signal *****************
  8222 ;; Defined at:
  8223 ;;		line 495 in file "ECU_Layer/Chr_LCD/ecu_chr_lcd.c"
  8224 ;; Parameters:    Size  Location     Type
  8225 ;;  lcd             2   10[COMRAM] PTR const struct .
  8226 ;;		 -> lcd_1(6), 
  8227 ;; Auto vars:     Size  Location     Type
  8228 ;;  ret             1   12[COMRAM] unsigned char 
  8229 ;; Return value:  Size  Location     Type
  8230 ;;                  1    wreg      unsigned char 
  8231 ;; Registers used:
  8232 ;;		wreg, fsr2l, fsr2h, status,2, status,0, prodl, prodh, cstack
  8233 ;; Tracked objects:
  8234 ;;		On entry : 0/0
  8235 ;;		On exit  : 0/0
  8236 ;;		Unchanged: 0/0
  8237 ;; Data sizes:     COMRAM   BANK0   BANK1   BANK2   BANK3   BANK4   BANK5   BANK6   BANK7   BANK8   BANK9  BANK10  BANK1
      +1  BANK12  BANK13  BANK14  BANK15
  8238 ;;      Params:         2       0       0       0       0       0       0       0       0       0       0       0       
      +0       0       0       0       0
  8239 ;;      Locals:         1       0       0       0       0       0       0       0       0       0       0       0       
      +0       0       0       0       0
  8240 ;;      Temps:          0       0       0       0       0       0       0       0       0       0       0       0       
      +0       0       0       0       0
  8241 ;;      Totals:         3       0       0       0       0       0       0       0       0       0       0       0       
      +0       0       0       0       0
  8242 ;;Total ram usage:        3 bytes
  8243 ;; Hardware stack levels used: 1
  8244 ;; Hardware stack levels required when called: 1
  8245 ;; This function calls:
  8246 ;;		i2_gpio_pin_write_logic
  8247 ;; This function is called by:
  8248 ;;		i2_lcd_4bit_send_command
  8249 ;; This function uses a non-reentrant model
  8250 ;;
  8251                           
  8252                           	psect	text61
  8253   002D44                     __ptext61:
  8254                           	callstack 0
  8255   002D44                     i2_lcd_4bit_send_enable_signal:
  8256                           	callstack 18
  8257   002D44  0E01               	movlw	1
  8258   002D46  2439               	addwf	i2lcd_4bit_send_enable_signal@lcd^0,w,c
  8259   002D48  6E2F               	movwf	i2gpio_pin_write_logic@_pin_config^0,c
  8260   002D4A  0E00               	movlw	0
  8261   002D4C  203A               	addwfc	(i2lcd_4bit_send_enable_signal@lcd+1)^0,w,c
  8262   002D4E  6E30               	movwf	(i2gpio_pin_write_logic@_pin_config+1)^0,c
  8263   002D50  0E01               	movlw	1
  8264   002D52  6E31               	movwf	i2gpio_pin_write_logic@logic^0,c
  8265   002D54  EC1B  F00D         	call	i2_gpio_pin_write_logic	;wreg free
  8266   002D58                     
  8267                           ;ECU_Layer/Chr_LCD/ecu_chr_lcd.c: 498:     _delay((unsigned long)((5)*(8000000UL/4000000
      +                          .0)));
  8268   002D58  0E03               	movlw	3
  8269   002D5A                     i2u761_47:
  8270   002D5A  2EE8               	decfsz	wreg,f,c
  8271   002D5C  D7FE               	bra	i2u761_47
  8272   002D5E  F000               	nop	
  8273   002D60                     
  8274                           ;ECU_Layer/Chr_LCD/ecu_chr_lcd.c: 499:     ret = gpio_pin_write_logic(&(lcd->lcd_en), GP
      +                          IO_LOW);
  8275   002D60  0E01               	movlw	1
  8276   002D62  2439               	addwf	i2lcd_4bit_send_enable_signal@lcd^0,w,c
  8277   002D64  6E2F               	movwf	i2gpio_pin_write_logic@_pin_config^0,c
  8278   002D66  0E00               	movlw	0
  8279   002D68  203A               	addwfc	(i2lcd_4bit_send_enable_signal@lcd+1)^0,w,c
  8280   002D6A  6E30               	movwf	(i2gpio_pin_write_logic@_pin_config+1)^0,c
  8281   002D6C  0E00               	movlw	0
  8282   002D6E  6E31               	movwf	i2gpio_pin_write_logic@logic^0,c
  8283   002D70  EC1B  F00D         	call	i2_gpio_pin_write_logic	;wreg free
  8284   002D74  6E3B               	movwf	i2lcd_4bit_send_enable_signal@ret^0,c
  8285   002D76                     
  8286                           ;ECU_Layer/Chr_LCD/ecu_chr_lcd.c: 500:     return ret;
  8287   002D76  503B               	movf	i2lcd_4bit_send_enable_signal@ret^0,w,c
  8288   002D78  0012               	return		;funcret
  8289   002D7A                     __end_ofi2_lcd_4bit_send_enable_signal:
  8290                           	callstack 0
  8291                           
  8292 ;; *************** function i2_gpio_pin_write_logic *****************
  8293 ;; Defined at:
  8294 ;;		line 75 in file "MCAL_Layer/GPIO/hal_gpio.c"
  8295 ;; Parameters:    Size  Location     Type
  8296 ;;  _pin_config     2    0[COMRAM] PTR const struct .
  8297 ;;		 -> ready_yellow(1), led_green_people(1), led_red_people(1), led_green_car(1), 
  8298 ;;		 -> led_red_car(1), lcd_1.lcd_data(4), lcd_1(6), seg2(5), 
  8299 ;;		 -> seg1(5), 
  8300 ;;  logic           1    2[COMRAM] enum E3462
  8301 ;; Auto vars:     Size  Location     Type
  8302 ;;  ret             1    9[COMRAM] unsigned char 
  8303 ;; Return value:  Size  Location     Type
  8304 ;;                  1    wreg      unsigned char 
  8305 ;; Registers used:
  8306 ;;		wreg, fsr2l, fsr2h, status,2, status,0, prodl, prodh
  8307 ;; Tracked objects:
  8308 ;;		On entry : 0/0
  8309 ;;		On exit  : 0/0
  8310 ;;		Unchanged: 0/0
  8311 ;; Data sizes:     COMRAM   BANK0   BANK1   BANK2   BANK3   BANK4   BANK5   BANK6   BANK7   BANK8   BANK9  BANK10  BANK1
      +1  BANK12  BANK13  BANK14  BANK15
  8312 ;;      Params:         3       0       0       0       0       0       0       0       0       0       0       0       
      +0       0       0       0       0
  8313 ;;      Locals:         1       0       0       0       0       0       0       0       0       0       0       0       
      +0       0       0       0       0
  8314 ;;      Temps:          6       0       0       0       0       0       0       0       0       0       0       0       
      +0       0       0       0       0
  8315 ;;      Totals:        10       0       0       0       0       0       0       0       0       0       0       0       
      +0       0       0       0       0
  8316 ;;Total ram usage:       10 bytes
  8317 ;; Hardware stack levels used: 1
  8318 ;; This function calls:
  8319 ;;		Nothing
  8320 ;; This function is called by:
  8321 ;;		i2_lcd_4bit_send_command
  8322 ;;		i2_lcd_send_4bits
  8323 ;;		i2_lcd_4bit_send_enable_signal
  8324 ;;		i2_led_turn_off
  8325 ;; This function uses a non-reentrant model
  8326 ;;
  8327                           
  8328                           	psect	text62
  8329   001A36                     __ptext62:
  8330                           	callstack 0
  8331   001A36                     i2_gpio_pin_write_logic:
  8332                           	callstack 18
  8333   001A36                     
  8334                           ;MCAL_Layer/GPIO/hal_gpio.c: 76:     Std_ReturnType ret = (Std_ReturnType)0x01;
  8335   001A36  0E01               	movlw	1
  8336   001A38  6E38               	movwf	i2gpio_pin_write_logic@ret^0,c
  8337   001A3A                     
  8338                           ;MCAL_Layer/GPIO/hal_gpio.c: 77:     if(((void*)0) == _pin_config || _pin_config->pin > 
      +                          8 -1){
  8339   001A3A  502F               	movf	i2gpio_pin_write_logic@_pin_config^0,w,c
  8340   001A3C  1030               	iorwf	(i2gpio_pin_write_logic@_pin_config+1)^0,w,c
  8341   001A3E  B4D8               	btfsc	status,2,c
  8342   001A40  EF24  F00D         	goto	i2u375_41
  8343   001A44  EF26  F00D         	goto	i2u375_40
  8344   001A48                     i2u375_41:
  8345   001A48  EF37  F00D         	goto	i2l5557
  8346   001A4C                     i2u375_40:
  8347   001A4C  C02F  FFD9         	movff	i2gpio_pin_write_logic@_pin_config,fsr2l
  8348   001A50  C030  FFDA         	movff	i2gpio_pin_write_logic@_pin_config+1,fsr2h
  8349   001A54  30DF               	rrcf	223,w,c
  8350   001A56  32E8               	rrcf	wreg,f,c
  8351   001A58  32E8               	rrcf	wreg,f,c
  8352   001A5A  0B07               	andlw	7
  8353   001A5C  6E32               	movwf	??i2_gpio_pin_write_logic^0,c
  8354   001A5E  0E07               	movlw	7
  8355   001A60  6432               	cpfsgt	??i2_gpio_pin_write_logic^0,c
  8356   001A62  EF35  F00D         	goto	i2u376_41
  8357   001A66  EF37  F00D         	goto	i2u376_40
  8358   001A6A                     i2u376_41:
  8359   001A6A  EF9A  F00D         	goto	i2l5565
  8360   001A6E                     i2u376_40:
  8361   001A6E                     i2l5557:
  8362                           
  8363                           ;MCAL_Layer/GPIO/hal_gpio.c: 78:         ret = (Std_ReturnType)0x00;
  8364   001A6E  0E00               	movlw	0
  8365   001A70  6E38               	movwf	i2gpio_pin_write_logic@ret^0,c
  8366                           
  8367                           ;MCAL_Layer/GPIO/hal_gpio.c: 79:     }
  8368   001A72  EFAF  F00D         	goto	i2l5567
  8369   001A76                     i2l5559:
  8370                           
  8371                           ;MCAL_Layer/GPIO/hal_gpio.c: 83:                 (*lat_registers[_pin_config->port] &= ~
      +                          ((uint8)1 << _pin_config->pin));
  8372   001A76  C02F  FFD9         	movff	i2gpio_pin_write_logic@_pin_config,fsr2l
  8373   001A7A  C030  FFDA         	movff	i2gpio_pin_write_logic@_pin_config+1,fsr2h
  8374   001A7E  30DF               	rrcf	223,w,c
  8375   001A80  32E8               	rrcf	wreg,f,c
  8376   001A82  32E8               	rrcf	wreg,f,c
  8377   001A84  0B07               	andlw	7
  8378   001A86  6E32               	movwf	??i2_gpio_pin_write_logic^0,c
  8379   001A88  0E01               	movlw	1
  8380   001A8A  6E33               	movwf	(??i2_gpio_pin_write_logic+1)^0,c
  8381   001A8C  2A32               	incf	??i2_gpio_pin_write_logic^0,f,c
  8382   001A8E  EF4B  F00D         	goto	i2u377_44
  8383   001A92                     i2u377_45:
  8384   001A92  90D8               	bcf	status,0,c
  8385   001A94  3633               	rlcf	(??i2_gpio_pin_write_logic+1)^0,f,c
  8386   001A96                     i2u377_44:
  8387   001A96  2E32               	decfsz	??i2_gpio_pin_write_logic^0,f,c
  8388   001A98  EF49  F00D         	goto	i2u377_45
  8389   001A9C  5033               	movf	(??i2_gpio_pin_write_logic+1)^0,w,c
  8390   001A9E  0AFF               	xorlw	255
  8391   001AA0  6E34               	movwf	(??i2_gpio_pin_write_logic+2)^0,c
  8392   001AA2  C02F  FFD9         	movff	i2gpio_pin_write_logic@_pin_config,fsr2l
  8393   001AA6  C030  FFDA         	movff	i2gpio_pin_write_logic@_pin_config+1,fsr2h
  8394   001AAA  50DF               	movf	223,w,c
  8395   001AAC  0B07               	andlw	7
  8396   001AAE  6E35               	movwf	(??i2_gpio_pin_write_logic+3)^0,c
  8397   001AB0  5035               	movf	(??i2_gpio_pin_write_logic+3)^0,w,c
  8398   001AB2  0D02               	mullw	2
  8399   001AB4  0E8A               	movlw	low _lat_registers
  8400   001AB6  24F3               	addwf	243,w,c
  8401   001AB8  6ED9               	movwf	fsr2l,c
  8402   001ABA  0E00               	movlw	high _lat_registers
  8403   001ABC  20F4               	addwfc	prodh,w,c
  8404   001ABE  6EDA               	movwf	fsr2h,c
  8405   001AC0  CFDE F036          	movff	postinc2,??i2_gpio_pin_write_logic+4
  8406   001AC4  CFDD F037          	movff	postdec2,??i2_gpio_pin_write_logic+5
  8407   001AC8  C036  FFD9         	movff	??i2_gpio_pin_write_logic+4,fsr2l
  8408   001ACC  C037  FFDA         	movff	??i2_gpio_pin_write_logic+5,fsr2h
  8409   001AD0  5034               	movf	(??i2_gpio_pin_write_logic+2)^0,w,c
  8410   001AD2  16DF               	andwf	indf2,f,c
  8411                           
  8412                           ;MCAL_Layer/GPIO/hal_gpio.c: 84:                 break;
  8413   001AD4  EFAF  F00D         	goto	i2l5567
  8414   001AD8                     i2l5561:
  8415                           
  8416                           ;MCAL_Layer/GPIO/hal_gpio.c: 86:                 (*lat_registers[_pin_config->port] |= (
      +                          (uint8)1 << _pin_config->pin));
  8417   001AD8  C02F  FFD9         	movff	i2gpio_pin_write_logic@_pin_config,fsr2l
  8418   001ADC  C030  FFDA         	movff	i2gpio_pin_write_logic@_pin_config+1,fsr2h
  8419   001AE0  30DF               	rrcf	223,w,c
  8420   001AE2  32E8               	rrcf	wreg,f,c
  8421   001AE4  32E8               	rrcf	wreg,f,c
  8422   001AE6  0B07               	andlw	7
  8423   001AE8  6E32               	movwf	??i2_gpio_pin_write_logic^0,c
  8424   001AEA  0E01               	movlw	1
  8425   001AEC  6E33               	movwf	(??i2_gpio_pin_write_logic+1)^0,c
  8426   001AEE  2A32               	incf	??i2_gpio_pin_write_logic^0,f,c
  8427   001AF0  EF7C  F00D         	goto	i2u378_44
  8428   001AF4                     i2u378_45:
  8429   001AF4  90D8               	bcf	status,0,c
  8430   001AF6  3633               	rlcf	(??i2_gpio_pin_write_logic+1)^0,f,c
  8431   001AF8                     i2u378_44:
  8432   001AF8  2E32               	decfsz	??i2_gpio_pin_write_logic^0,f,c
  8433   001AFA  EF7A  F00D         	goto	i2u378_45
  8434   001AFE  C02F  FFD9         	movff	i2gpio_pin_write_logic@_pin_config,fsr2l
  8435   001B02  C030  FFDA         	movff	i2gpio_pin_write_logic@_pin_config+1,fsr2h
  8436   001B06  50DF               	movf	223,w,c
  8437   001B08  0B07               	andlw	7
  8438   001B0A  6E34               	movwf	(??i2_gpio_pin_write_logic+2)^0,c
  8439   001B0C  5034               	movf	(??i2_gpio_pin_write_logic+2)^0,w,c
  8440   001B0E  0D02               	mullw	2
  8441   001B10  0E8A               	movlw	low _lat_registers
  8442   001B12  24F3               	addwf	243,w,c
  8443   001B14  6ED9               	movwf	fsr2l,c
  8444   001B16  0E00               	movlw	high _lat_registers
  8445   001B18  20F4               	addwfc	prodh,w,c
  8446   001B1A  6EDA               	movwf	fsr2h,c
  8447   001B1C  CFDE F035          	movff	postinc2,??i2_gpio_pin_write_logic+3
  8448   001B20  CFDD F036          	movff	postdec2,??i2_gpio_pin_write_logic+4
  8449   001B24  C035  FFD9         	movff	??i2_gpio_pin_write_logic+3,fsr2l
  8450   001B28  C036  FFDA         	movff	??i2_gpio_pin_write_logic+4,fsr2h
  8451   001B2C  5033               	movf	(??i2_gpio_pin_write_logic+1)^0,w,c
  8452   001B2E  12DF               	iorwf	indf2,f,c
  8453                           
  8454                           ;MCAL_Layer/GPIO/hal_gpio.c: 87:                 break;
  8455   001B30  EFAF  F00D         	goto	i2l5567
  8456   001B34                     i2l5565:
  8457   001B34  5031               	movf	i2gpio_pin_write_logic@logic^0,w,c
  8458   001B36  6E32               	movwf	??i2_gpio_pin_write_logic^0,c
  8459   001B38  6A33               	clrf	(??i2_gpio_pin_write_logic+1)^0,c
  8460                           
  8461                           ; Switch on 2 bytes has been partitioned into a top level switch of size 1, and 1 sub-sw
      +                          itches
  8462                           ; Switch size 1, requested type "simple"
  8463                           ; Number of cases is 1, Range of values is 0 to 0
  8464                           ; switch strategies available:
  8465                           ; Name         Instructions Cycles
  8466                           ; simple_byte            4     3 (average)
  8467                           ;	Chosen strategy is simple_byte
  8468   001B3A  5033               	movf	(??i2_gpio_pin_write_logic+1)^0,w,c
  8469   001B3C  0A00               	xorlw	0	; case 0
  8470   001B3E  B4D8               	btfsc	status,2,c
  8471   001B40  EFA4  F00D         	goto	i2l9441
  8472   001B44  EF37  F00D         	goto	i2l5557
  8473   001B48                     i2l9441:
  8474                           
  8475                           ; Switch size 1, requested type "simple"
  8476                           ; Number of cases is 2, Range of values is 0 to 1
  8477                           ; switch strategies available:
  8478                           ; Name         Instructions Cycles
  8479                           ; simple_byte            7     4 (average)
  8480                           ;	Chosen strategy is simple_byte
  8481   001B48  5032               	movf	??i2_gpio_pin_write_logic^0,w,c
  8482   001B4A  0A00               	xorlw	0	; case 0
  8483   001B4C  B4D8               	btfsc	status,2,c
  8484   001B4E  EF3B  F00D         	goto	i2l5559
  8485   001B52  0A01               	xorlw	1	; case 1
  8486   001B54  B4D8               	btfsc	status,2,c
  8487   001B56  EF6C  F00D         	goto	i2l5561
  8488   001B5A  EF37  F00D         	goto	i2l5557
  8489   001B5E                     i2l5567:
  8490                           
  8491                           ;MCAL_Layer/GPIO/hal_gpio.c: 91:     return ret;
  8492   001B5E  5038               	movf	i2gpio_pin_write_logic@ret^0,w,c
  8493   001B60  0012               	return		;funcret
  8494   001B62                     __end_ofi2_gpio_pin_write_logic:
  8495                           	callstack 0
  8496                           
  8497 ;; *************** function _EUSART_TX_ISR *****************
  8498 ;; Defined at:
  8499 ;;		line 260 in file "MCAL_Layer/usart/hal_usart.c"
  8500 ;; Parameters:    Size  Location     Type
  8501 ;;		None
  8502 ;; Auto vars:     Size  Location     Type
  8503 ;;		None
  8504 ;; Return value:  Size  Location     Type
  8505 ;;                  1    wreg      void 
  8506 ;; Registers used:
  8507 ;;		None
  8508 ;; Tracked objects:
  8509 ;;		On entry : 0/0
  8510 ;;		On exit  : 0/0
  8511 ;;		Unchanged: 0/0
  8512 ;; Data sizes:     COMRAM   BANK0   BANK1   BANK2   BANK3   BANK4   BANK5   BANK6   BANK7   BANK8   BANK9  BANK10  BANK1
      +1  BANK12  BANK13  BANK14  BANK15
  8513 ;;      Params:         0       0       0       0       0       0       0       0       0       0       0       0       
      +0       0       0       0       0
  8514 ;;      Locals:         0       0       0       0       0       0       0       0       0       0       0       0       
      +0       0       0       0       0
  8515 ;;      Temps:          0       0       0       0       0       0       0       0       0       0       0       0       
      +0       0       0       0       0
  8516 ;;      Totals:         0       0       0       0       0       0       0       0       0       0       0       0       
      +0       0       0       0       0
  8517 ;;Total ram usage:        0 bytes
  8518 ;; Hardware stack levels used: 1
  8519 ;; This function calls:
  8520 ;;		Nothing
  8521 ;; This function is called by:
  8522 ;;		_InterruptManager
  8523 ;; This function uses a non-reentrant model
  8524 ;;
  8525                           
  8526                           	psect	text63
  8527   003064                     __ptext63:
  8528                           	callstack 0
  8529   003064                     _EUSART_TX_ISR:
  8530                           	callstack 23
  8531   003064                     
  8532                           ;MCAL_Layer/usart/hal_usart.c: 261:   (PIE1bits.TXIE = 0);
  8533   003064  989D               	bcf	157,4,c	;volatile
  8534   003066  0012               	return		;funcret
  8535   003068                     __end_of_EUSART_TX_ISR:
  8536                           	callstack 0
  8537                           
  8538 ;; *************** function _EUSART_RX_ISR *****************
  8539 ;; Defined at:
  8540 ;;		line 268 in file "MCAL_Layer/usart/hal_usart.c"
  8541 ;; Parameters:    Size  Location     Type
  8542 ;;		None
  8543 ;; Auto vars:     Size  Location     Type
  8544 ;;		None
  8545 ;; Return value:  Size  Location     Type
  8546 ;;                  1    wreg      void 
  8547 ;; Registers used:
  8548 ;;		wreg, status,2, status,0
  8549 ;; Tracked objects:
  8550 ;;		On entry : 0/0
  8551 ;;		On exit  : 0/0
  8552 ;;		Unchanged: 0/0
  8553 ;; Data sizes:     COMRAM   BANK0   BANK1   BANK2   BANK3   BANK4   BANK5   BANK6   BANK7   BANK8   BANK9  BANK10  BANK1
      +1  BANK12  BANK13  BANK14  BANK15
  8554 ;;      Params:         0       0       0       0       0       0       0       0       0       0       0       0       
      +0       0       0       0       0
  8555 ;;      Locals:         0       0       0       0       0       0       0       0       0       0       0       0       
      +0       0       0       0       0
  8556 ;;      Temps:          0       0       0       0       0       0       0       0       0       0       0       0       
      +0       0       0       0       0
  8557 ;;      Totals:         0       0       0       0       0       0       0       0       0       0       0       0       
      +0       0       0       0       0
  8558 ;;Total ram usage:        0 bytes
  8559 ;; Hardware stack levels used: 1
  8560 ;; This function calls:
  8561 ;;		Nothing
  8562 ;; This function is called by:
  8563 ;;		_InterruptManager
  8564 ;; This function uses a non-reentrant model
  8565 ;;
  8566                           
  8567                           	psect	text64
  8568   002ECC                     __ptext64:
  8569                           	callstack 0
  8570   002ECC                     _EUSART_RX_ISR:
  8571                           	callstack 23
  8572   002ECC                     
  8573                           ;MCAL_Layer/usart/hal_usart.c: 273:   if (EUSART_FramingErrorHandler && RCSTAbits.FERR) 
      +                          {
  8574   002ECC  0100               	movlb	0	; () banked
  8575   002ECE  51D5               	movf	_EUSART_FramingErrorHandler& (0+255),w,b
  8576   002ED0  11D6               	iorwf	(_EUSART_FramingErrorHandler+1)& (0+255),w,b
  8577   002ED2  B4D8               	btfsc	status,2,c
  8578   002ED4  EF6E  F017         	goto	i2u451_41
  8579   002ED8  EF70  F017         	goto	i2u451_40
  8580   002EDC                     i2u451_41:
  8581   002EDC  EF71  F017         	goto	i2l6393
  8582   002EE0                     i2u451_40:
  8583   002EE0                     
  8584                           ; BSR set to: 0
  8585                           ;MCAL_Layer/usart/hal_usart.c: 274:     EUSART_FramingErrorHandler();
  8586   002EE0  50AB               	movf	171,w,c	;volatile
  8587   002EE2                     i2l6393:
  8588                           
  8589                           ; BSR set to: 0
  8590                           ;MCAL_Layer/usart/hal_usart.c: 277:   if (EUSART_OverrunErrorHandler && RCSTAbits.OERR) 
      +                          {
  8591   002EE2  51D3               	movf	_EUSART_OverrunErrorHandler& (0+255),w,b
  8592   002EE4  11D4               	iorwf	(_EUSART_OverrunErrorHandler+1)& (0+255),w,b
  8593   002EE6  B4D8               	btfsc	status,2,c
  8594   002EE8  EF78  F017         	goto	i2u452_41
  8595   002EEC  EF7A  F017         	goto	i2u452_40
  8596   002EF0                     i2u452_41:
  8597   002EF0  EF7B  F017         	goto	i2l1718
  8598   002EF4                     i2u452_40:
  8599   002EF4                     
  8600                           ; BSR set to: 0
  8601                           ;MCAL_Layer/usart/hal_usart.c: 278:     EUSART_OverrunErrorHandler();
  8602   002EF4  50AB               	movf	171,w,c	;volatile
  8603   002EF6                     i2l1718:
  8604                           
  8605                           ; BSR set to: 0
  8606   002EF6  0012               	return		;funcret
  8607   002EF8                     __end_of_EUSART_RX_ISR:
  8608                           	callstack 0
  8609                           
  8610 ;; *************** function _CCP2_ISR *****************
  8611 ;; Defined at:
  8612 ;;		line 254 in file "MCAL_Layer/CCP/hal_ccp.c"
  8613 ;; Parameters:    Size  Location     Type
  8614 ;;		None
  8615 ;; Auto vars:     Size  Location     Type
  8616 ;;		None
  8617 ;; Return value:  Size  Location     Type
  8618 ;;                  1    wreg      void 
  8619 ;; Registers used:
  8620 ;;		None
  8621 ;; Tracked objects:
  8622 ;;		On entry : 0/0
  8623 ;;		On exit  : 0/0
  8624 ;;		Unchanged: 0/0
  8625 ;; Data sizes:     COMRAM   BANK0   BANK1   BANK2   BANK3   BANK4   BANK5   BANK6   BANK7   BANK8   BANK9  BANK10  BANK1
      +1  BANK12  BANK13  BANK14  BANK15
  8626 ;;      Params:         0       0       0       0       0       0       0       0       0       0       0       0       
      +0       0       0       0       0
  8627 ;;      Locals:         0       0       0       0       0       0       0       0       0       0       0       0       
      +0       0       0       0       0
  8628 ;;      Temps:          0       0       0       0       0       0       0       0       0       0       0       0       
      +0       0       0       0       0
  8629 ;;      Totals:         0       0       0       0       0       0       0       0       0       0       0       0       
      +0       0       0       0       0
  8630 ;;Total ram usage:        0 bytes
  8631 ;; Hardware stack levels used: 1
  8632 ;; This function calls:
  8633 ;;		Nothing
  8634 ;; This function is called by:
  8635 ;;		_InterruptManager
  8636 ;; This function uses a non-reentrant model
  8637 ;;
  8638                           
  8639                           	psect	text65
  8640   003068                     __ptext65:
  8641                           	callstack 0
  8642   003068                     _CCP2_ISR:
  8643                           	callstack 23
  8644   003068                     
  8645                           ;MCAL_Layer/CCP/hal_ccp.c: 255:     (PIR2bits.CCP2IF = 0);
  8646   003068  90A1               	bcf	161,0,c	;volatile
  8647   00306A  0012               	return		;funcret
  8648   00306C                     __end_of_CCP2_ISR:
  8649                           	callstack 0
  8650                           
  8651 ;; *************** function _CCP1_ISR *****************
  8652 ;; Defined at:
  8653 ;;		line 246 in file "MCAL_Layer/CCP/hal_ccp.c"
  8654 ;; Parameters:    Size  Location     Type
  8655 ;;		None
  8656 ;; Auto vars:     Size  Location     Type
  8657 ;;		None
  8658 ;; Return value:  Size  Location     Type
  8659 ;;                  1    wreg      void 
  8660 ;; Registers used:
  8661 ;;		None
  8662 ;; Tracked objects:
  8663 ;;		On entry : 0/0
  8664 ;;		On exit  : 0/0
  8665 ;;		Unchanged: 0/0
  8666 ;; Data sizes:     COMRAM   BANK0   BANK1   BANK2   BANK3   BANK4   BANK5   BANK6   BANK7   BANK8   BANK9  BANK10  BANK1
      +1  BANK12  BANK13  BANK14  BANK15
  8667 ;;      Params:         0       0       0       0       0       0       0       0       0       0       0       0       
      +0       0       0       0       0
  8668 ;;      Locals:         0       0       0       0       0       0       0       0       0       0       0       0       
      +0       0       0       0       0
  8669 ;;      Temps:          0       0       0       0       0       0       0       0       0       0       0       0       
      +0       0       0       0       0
  8670 ;;      Totals:         0       0       0       0       0       0       0       0       0       0       0       0       
      +0       0       0       0       0
  8671 ;;Total ram usage:        0 bytes
  8672 ;; Hardware stack levels used: 1
  8673 ;; This function calls:
  8674 ;;		Nothing
  8675 ;; This function is called by:
  8676 ;;		_InterruptManager
  8677 ;; This function uses a non-reentrant model
  8678 ;;
  8679                           
  8680                           	psect	text66
  8681   00306C                     __ptext66:
  8682                           	callstack 0
  8683   00306C                     _CCP1_ISR:
  8684                           	callstack 23
  8685   00306C                     
  8686                           ;MCAL_Layer/CCP/hal_ccp.c: 247:     (PIR1bits.CCP1IF = 0);
  8687   00306C  949E               	bcf	158,2,c	;volatile
  8688   00306E  0012               	return		;funcret
  8689   003070                     __end_of_CCP1_ISR:
  8690                           	callstack 0
  8691                           
  8692 ;; *************** function _ADC_ISR *****************
  8693 ;; Defined at:
  8694 ;;		line 296 in file "MCAL_Layer/ADC/hal_adc.c"
  8695 ;; Parameters:    Size  Location     Type
  8696 ;;		None
  8697 ;; Auto vars:     Size  Location     Type
  8698 ;;		None
  8699 ;; Return value:  Size  Location     Type
  8700 ;;                  1    wreg      void 
  8701 ;; Registers used:
  8702 ;;		None
  8703 ;; Tracked objects:
  8704 ;;		On entry : 0/0
  8705 ;;		On exit  : 0/0
  8706 ;;		Unchanged: 0/0
  8707 ;; Data sizes:     COMRAM   BANK0   BANK1   BANK2   BANK3   BANK4   BANK5   BANK6   BANK7   BANK8   BANK9  BANK10  BANK1
      +1  BANK12  BANK13  BANK14  BANK15
  8708 ;;      Params:         0       0       0       0       0       0       0       0       0       0       0       0       
      +0       0       0       0       0
  8709 ;;      Locals:         0       0       0       0       0       0       0       0       0       0       0       0       
      +0       0       0       0       0
  8710 ;;      Temps:          0       0       0       0       0       0       0       0       0       0       0       0       
      +0       0       0       0       0
  8711 ;;      Totals:         0       0       0       0       0       0       0       0       0       0       0       0       
      +0       0       0       0       0
  8712 ;;Total ram usage:        0 bytes
  8713 ;; Hardware stack levels used: 1
  8714 ;; This function calls:
  8715 ;;		Nothing
  8716 ;; This function is called by:
  8717 ;;		_InterruptManager
  8718 ;; This function uses a non-reentrant model
  8719 ;;
  8720                           
  8721                           	psect	text67
  8722   003070                     __ptext67:
  8723                           	callstack 0
  8724   003070                     _ADC_ISR:
  8725                           	callstack 23
  8726   003070                     
  8727                           ;MCAL_Layer/ADC/hal_adc.c: 297:     (PIR1bits.ADIF = 0);
  8728   003070  9C9E               	bcf	158,6,c	;volatile
  8729   003072  0012               	return		;funcret
  8730   003074                     __end_of_ADC_ISR:
  8731                           	callstack 0
  8732                           
  8733                           	psect	text68
  8734   000000                     __ptext68:
  8735                           	callstack 0
  8736   000000                     
  8737                           	psect	rparam
  8738   000000                     
  8739                           	psect	temp
  8740   000061                     btemp:
  8741                           	callstack 0
  8742   000061                     	ds	1
  8743   000000                     int$flags	set	btemp
  8744   000000                     wtemp8	set	btemp+1
  8745   000000                     ttemp5	set	btemp+1
  8746   000000                     ttemp6	set	btemp+4
  8747   000000                     ttemp7	set	btemp+8
  8748                           
  8749                           	psect	idloc
  8750                           
  8751                           ;Config register IDLOC0 @ 0x200000
  8752                           ;	unspecified, using default values
  8753   200000                     	org	2097152
  8754   200000  FF                 	db	255
  8755                           
  8756                           ;Config register IDLOC1 @ 0x200001
  8757                           ;	unspecified, using default values
  8758   200001                     	org	2097153
  8759   200001  FF                 	db	255
  8760                           
  8761                           ;Config register IDLOC2 @ 0x200002
  8762                           ;	unspecified, using default values
  8763   200002                     	org	2097154
  8764   200002  FF                 	db	255
  8765                           
  8766                           ;Config register IDLOC3 @ 0x200003
  8767                           ;	unspecified, using default values
  8768   200003                     	org	2097155
  8769   200003  FF                 	db	255
  8770                           
  8771                           ;Config register IDLOC4 @ 0x200004
  8772                           ;	unspecified, using default values
  8773   200004                     	org	2097156
  8774   200004  FF                 	db	255
  8775                           
  8776                           ;Config register IDLOC5 @ 0x200005
  8777                           ;	unspecified, using default values
  8778   200005                     	org	2097157
  8779   200005  FF                 	db	255
  8780                           
  8781                           ;Config register IDLOC6 @ 0x200006
  8782                           ;	unspecified, using default values
  8783   200006                     	org	2097158
  8784   200006  FF                 	db	255
  8785                           
  8786                           ;Config register IDLOC7 @ 0x200007
  8787                           ;	unspecified, using default values
  8788   200007                     	org	2097159
  8789   200007  FF                 	db	255
  8790                           
  8791                           	psect	config
  8792                           
  8793                           ; Padding undefined space
  8794   300000                     	org	3145728
  8795   300000  FF                 	db	255
  8796                           
  8797                           ;Config register CONFIG1H @ 0x300001
  8798                           ;	Oscillator Selection bits
  8799                           ;	OSC = HS, HS oscillator
  8800                           ;	Fail-Safe Clock Monitor Enable bit
  8801                           ;	FCMEN = OFF, Fail-Safe Clock Monitor disabled
  8802                           ;	Internal/External Oscillator Switchover bit
  8803                           ;	IESO = OFF, Oscillator Switchover mode disabled
  8804   300001                     	org	3145729
  8805   300001  02                 	db	2
  8806                           
  8807                           ;Config register CONFIG2L @ 0x300002
  8808                           ;	Power-up Timer Enable bit
  8809                           ;	PWRT = OFF, PWRT disabled
  8810                           ;	Brown-out Reset Enable bits
  8811                           ;	BOREN = OFF, Brown-out Reset disabled in hardware and software
  8812                           ;	Brown Out Reset Voltage bits
  8813                           ;	BORV = 1, 
  8814   300002                     	org	3145730
  8815   300002  09                 	db	9
  8816                           
  8817                           ;Config register CONFIG2H @ 0x300003
  8818                           ;	Watchdog Timer Enable bit
  8819                           ;	WDT = OFF, WDT disabled (control is placed on the SWDTEN bit)
  8820                           ;	Watchdog Timer Postscale Select bits
  8821                           ;	WDTPS = 512, 1:512
  8822   300003                     	org	3145731
  8823   300003  12                 	db	18
  8824                           
  8825                           ; Padding undefined space
  8826   300004                     	org	3145732
  8827   300004  FF                 	db	255
  8828                           
  8829                           ;Config register CONFIG3H @ 0x300005
  8830                           ;	CCP2 MUX bit
  8831                           ;	CCP2MX = PORTC, CCP2 input/output is multiplexed with RC1
  8832                           ;	PORTB A/D Enable bit
  8833                           ;	PBADEN = OFF, PORTB<4:0> pins are configured as digital I/O on Reset
  8834                           ;	Low-Power Timer1 Oscillator Enable bit
  8835                           ;	LPT1OSC = OFF, Timer1 configured for higher power operation
  8836                           ;	MCLR Pin Enable bit
  8837                           ;	MCLRE = ON, MCLR pin enabled; RE3 input pin disabled
  8838   300005                     	org	3145733
  8839   300005  81                 	db	129
  8840                           
  8841                           ;Config register CONFIG4L @ 0x300006
  8842                           ;	Stack Full/Underflow Reset Enable bit
  8843                           ;	STVREN = ON, Stack full/underflow will cause Reset
  8844                           ;	Single-Supply ICSP Enable bit
  8845                           ;	LVP = OFF, Single-Supply ICSP disabled
  8846                           ;	Extended Instruction Set Enable bit
  8847                           ;	XINST = OFF, Instruction set extension and Indexed Addressing mode disabled (Legacy mo
      +                          de)
  8848                           ;	Background Debugger Enable bit
  8849                           ;	DEBUG = 0x1, unprogrammed default
  8850   300006                     	org	3145734
  8851   300006  81                 	db	129
  8852                           
  8853                           ; Padding undefined space
  8854   300007                     	org	3145735
  8855   300007  FF                 	db	255
  8856                           
  8857                           ;Config register CONFIG5L @ 0x300008
  8858                           ;	Code Protection bit
  8859                           ;	CP0 = OFF, Block 0 (000800-003FFFh) not code-protected
  8860                           ;	Code Protection bit
  8861                           ;	CP1 = OFF, Block 1 (004000-007FFFh) not code-protected
  8862                           ;	Code Protection bit
  8863                           ;	CP2 = OFF, Block 2 (008000-00BFFFh) not code-protected
  8864                           ;	Code Protection bit
  8865                           ;	CP3 = OFF, Block 3 (00C000-00FFFFh) not code-protected
  8866   300008                     	org	3145736
  8867   300008  0F                 	db	15
  8868                           
  8869                           ;Config register CONFIG5H @ 0x300009
  8870                           ;	Boot Block Code Protection bit
  8871                           ;	CPB = OFF, Boot block (000000-0007FFh) not code-protected
  8872                           ;	Data EEPROM Code Protection bit
  8873                           ;	CPD = OFF, Data EEPROM not code-protected
  8874   300009                     	org	3145737
  8875   300009  C0                 	db	192
  8876                           
  8877                           ;Config register CONFIG6L @ 0x30000A
  8878                           ;	Write Protection bit
  8879                           ;	WRT0 = OFF, Block 0 (000800-003FFFh) not write-protected
  8880                           ;	Write Protection bit
  8881                           ;	WRT1 = OFF, Block 1 (004000-007FFFh) not write-protected
  8882                           ;	Write Protection bit
  8883                           ;	WRT2 = OFF, Block 2 (008000-00BFFFh) not write-protected
  8884                           ;	Write Protection bit
  8885                           ;	WRT3 = OFF, Block 3 (00C000-00FFFFh) not write-protected
  8886   30000A                     	org	3145738
  8887   30000A  0F                 	db	15
  8888                           
  8889                           ;Config register CONFIG6H @ 0x30000B
  8890                           ;	Configuration Register Write Protection bit
  8891                           ;	WRTC = OFF, Configuration registers (300000-3000FFh) not write-protected
  8892                           ;	Boot Block Write Protection bit
  8893                           ;	WRTB = OFF, Boot Block (000000-0007FFh) not write-protected
  8894                           ;	Data EEPROM Write Protection bit
  8895                           ;	WRTD = OFF, Data EEPROM not write-protected
  8896   30000B                     	org	3145739
  8897   30000B  E0                 	db	224
  8898                           
  8899                           ;Config register CONFIG7L @ 0x30000C
  8900                           ;	Table Read Protection bit
  8901                           ;	EBTR0 = OFF, Block 0 (000800-003FFFh) not protected from table reads executed in other
      +                           blocks
  8902                           ;	Table Read Protection bit
  8903                           ;	EBTR1 = OFF, Block 1 (004000-007FFFh) not protected from table reads executed in other
      +                           blocks
  8904                           ;	Table Read Protection bit
  8905                           ;	EBTR2 = OFF, Block 2 (008000-00BFFFh) not protected from table reads executed in other
      +                           blocks
  8906                           ;	Table Read Protection bit
  8907                           ;	EBTR3 = OFF, Block 3 (00C000-00FFFFh) not protected from table reads executed in other
      +                           blocks
  8908   30000C                     	org	3145740
  8909   30000C  0F                 	db	15
  8910                           
  8911                           ;Config register CONFIG7H @ 0x30000D
  8912                           ;	Boot Block Table Read Protection bit
  8913                           ;	EBTRB = OFF, Boot Block (000000-0007FFh) not protected from table reads executed in ot
      +                          her blocks
  8914   30000D                     	org	3145741
  8915   30000D  40                 	db	64
  8916                           tosu	equ	0xFFF
  8917                           tosh	equ	0xFFE
  8918                           tosl	equ	0xFFD
  8919                           stkptr	equ	0xFFC
  8920                           pclatu	equ	0xFFB
  8921                           pclath	equ	0xFFA
  8922                           pcl	equ	0xFF9
  8923                           tblptru	equ	0xFF8
  8924                           tblptrh	equ	0xFF7
  8925                           tblptrl	equ	0xFF6
  8926                           tablat	equ	0xFF5
  8927                           prodh	equ	0xFF4
  8928                           prodl	equ	0xFF3
  8929                           indf0	equ	0xFEF
  8930                           postinc0	equ	0xFEE
  8931                           postdec0	equ	0xFED
  8932                           preinc0	equ	0xFEC
  8933                           plusw0	equ	0xFEB
  8934                           fsr0h	equ	0xFEA
  8935                           fsr0l	equ	0xFE9
  8936                           wreg	equ	0xFE8
  8937                           indf1	equ	0xFE7
  8938                           postinc1	equ	0xFE6
  8939                           postdec1	equ	0xFE5
  8940                           preinc1	equ	0xFE4
  8941                           plusw1	equ	0xFE3
  8942                           fsr1h	equ	0xFE2
  8943                           fsr1l	equ	0xFE1
  8944                           bsr	equ	0xFE0
  8945                           indf2	equ	0xFDF
  8946                           postinc2	equ	0xFDE
  8947                           postdec2	equ	0xFDD
  8948                           preinc2	equ	0xFDC
  8949                           plusw2	equ	0xFDB
  8950                           fsr2h	equ	0xFDA
  8951                           fsr2l	equ	0xFD9
  8952                           status	equ	0xFD8

Data Sizes:
    Strings     180
    Constant    16
    Data        92
    BSS         70
    Persistent  4
    Stack       0

Auto Spaces:
    Space          Size  Autos    Used
    COMRAM          126     34      96
    BANK0           128     24     128
    BANK1           256      6       6
    BANK2           256      0       0
    BANK3           256      0       0
    BANK4           256      0       0
    BANK5           256      0       0
    BANK6           256      0       0
    BANK7           256      0       0
    BANK8           256      0       0
    BANK9           256      0       0
    BANK10          256      0       0
    BANK11          256      0       0
    BANK12          256      0       0
    BANK13          256      0       0
    BANK14          256      0       0
    BANK15          128      0       0

Pointer List with Targets:

    vfprintf$2	PTR PTR void  size(2) Largest target is 2
		 -> sprintf@ap(COMRAM[2]), 

    vfprintf$1	PTR const unsigned char  size(2) Largest target is 3
		 -> STR_3(CODE[3]), STR_2(CODE[3]), STR_1(CODE[3]), 

    vfprintf$0	PTR struct _IO_FILE size(2) Largest target is 12
		 -> sprintf@f(COMRAM[12]), 

    S5021$source	PTR const unsigned char  size(2) Largest target is 0

    f...source	PTR const unsigned char  size(2) Largest target is 0

    S5021$buffer	PTR unsigned char  size(2) Largest target is 0

    f...buffer	PTR unsigned char  size(2) Largest target is 0

    int0_obj.EXT_InterruptHandler	PTR FTN()void  size(2) Largest target is 1
		 -> Int0_APP_ISR(), 

    timer0.TMR0_InterruptHandler	PTR FTN()void  size(2) Largest target is 1
		 -> TMR0_DefualtInterruptHandler(), 

    EUSART_OverrunErrorHandler	PTR FTN()void  size(2) Largest target is 1
		 -> NULL(), 

    EUSART_FramingErrorHandler	PTR FTN()void  size(2) Largest target is 1
		 -> NULL(), 

    EUSART_RxInterruptHandler	PTR FTN()void  size(2) Largest target is 1
		 -> NULL(), 

    EUSART_ASYNC_RX_Init@_eusart.EUSART_OverrunErrorHandler	PTR FTN()void  size(2) Largest target is 0

    EUSART_ASYNC_RX_Init@_eusart.EUSART_FramingErrorHandler	PTR FTN()void  size(2) Largest target is 0

    EUSART_ASYNC_RX_Init@_eusart.EUSART_RxDefaultInterruptHandler	PTR FTN()void  size(2) Largest target is 0

    EUSART_ASYNC_RX_Init@_eusart.EUSART_TxDefaultInterruptHandler	PTR FTN()void  size(2) Largest target is 0

    EUSART_TxInterruptHandler	PTR FTN()void  size(2) Largest target is 1
		 -> NULL(), 

    EUSART_ASYNC_TX_Init@_eusart.EUSART_OverrunErrorHandler	PTR FTN()void  size(2) Largest target is 0

    EUSART_ASYNC_TX_Init@_eusart.EUSART_FramingErrorHandler	PTR FTN()void  size(2) Largest target is 0

    EUSART_ASYNC_TX_Init@_eusart.EUSART_RxDefaultInterruptHandler	PTR FTN()void  size(2) Largest target is 0

    EUSART_ASYNC_TX_Init@_eusart.EUSART_TxDefaultInterruptHandler	PTR FTN()void  size(2) Largest target is 0

    S3978$EUSART_OverrunErrorHandler	PTR FTN()void  size(2) Largest target is 0

    EUSART_Baud_Rate_Calculation@_eusart.EUSART_OverrunErrorHandler	PTR FTN()void  size(2) Largest target is 0

    S3978$EUSART_FramingErrorHandler	PTR FTN()void  size(2) Largest target is 0

    EUSART_Baud_Rate_Calculation@_eusart.EUSART_FramingErrorHandler	PTR FTN()void  size(2) Largest target is 0

    S3978$EUSART_RxDefaultInterruptHandler	PTR FTN()void  size(2) Largest target is 0

    EUSART_Baud_Rate_Calculation@_eusart.EUSART_RxDefaultInterruptHandler	PTR FTN()void  size(2) Largest target is 0

    S3978$EUSART_TxDefaultInterruptHandler	PTR FTN()void  size(2) Largest target is 0

    EUSART_Baud_Rate_Calculation@_eusart.EUSART_TxDefaultInterruptHandler	PTR FTN()void  size(2) Largest target is 0

    Timer3_Mode_Select@_timer.TMR3_InterruptHandler	PTR FTN()void  size(2) Largest target is 0

    TMR3_InterruptHandler	PTR FTN()void  size(2) Largest target is 1
		 -> NULL(), 

    S3784$TMR3_InterruptHandler	PTR FTN()void  size(2) Largest target is 0

    Timer3_Init@_timer.TMR3_InterruptHandler	PTR FTN()void  size(2) Largest target is 0

    TMR2_InterruptHandler	PTR FTN()void  size(2) Largest target is 1
		 -> NULL(), 

    S3655$TMR2_InterruptHandler	PTR FTN()void  size(2) Largest target is 0

    Timer2_Init@_timer.TMR2_InterruptHandler	PTR FTN()void  size(2) Largest target is 0

    Timer1_Mode_Select@_timer.TMR1_InterruptHandler	PTR FTN()void  size(2) Largest target is 0

    TMR1_InterruptHandler	PTR FTN()volatile void  size(2) Largest target is 1
		 -> NULL(), 

    S3465$TMR1_InterruptHandler	PTR FTN()void  size(2) Largest target is 0

    Timer1_Init@_timer.TMR1_InterruptHandler	PTR FTN()void  size(2) Largest target is 0

    Timer0_Register_Size_Config@_timer.TMR0_InterruptHandler	PTR FTN()void  size(2) Largest target is 1
		 -> TMR0_DefualtInterruptHandler(), 

    Timer0_Register_Size_Config@_timer	PTR const struct . size(2) Largest target is 7
		 -> timer0(BANK0[7]), 

    Timer0_Mode_Select@_timer.TMR0_InterruptHandler	PTR FTN()void  size(2) Largest target is 1
		 -> TMR0_DefualtInterruptHandler(), 

    Timer0_Mode_Select@_timer	PTR const struct . size(2) Largest target is 7
		 -> timer0(BANK0[7]), 

    Timer0_Prescaler_Config@_timer.TMR0_InterruptHandler	PTR FTN()void  size(2) Largest target is 1
		 -> TMR0_DefualtInterruptHandler(), 

    Timer0_Prescaler_Config@_timer	PTR const struct . size(2) Largest target is 7
		 -> timer0(BANK0[7]), 

    TMR0_InterruptHandler	PTR FTN()void  size(2) Largest target is 1
		 -> TMR0_DefualtInterruptHandler(), NULL(), 

    S3300$TMR0_InterruptHandler	PTR FTN()void  size(2) Largest target is 1
		 -> TMR0_DefualtInterruptHandler(), 

    Timer0_Init@_timer.TMR0_InterruptHandler	PTR FTN()void  size(2) Largest target is 1
		 -> TMR0_DefualtInterruptHandler(), 

    Timer0_Init@_timer	PTR const struct . size(2) Largest target is 7
		 -> timer0(BANK0[7]), 

    MSSP_SPI_Slave_Mode_GPIO_PIN_Configurations@Config.MSSP_SPI_InterruptHandler	PTR FTN()void  size(2) Largest target is 0

    MSSP_SPI_Interrupt_Init@Config.MSSP_SPI_InterruptHandler	PTR FTN()void  size(2) Largest target is 0

    SPI_InterruptHandler	PTR FTN()void  size(2) Largest target is 1
		 -> NULL(), 

    S2963$MSSP_SPI_InterruptHandler	PTR FTN()void  size(2) Largest target is 0

    SPI_Init@Config.MSSP_SPI_InterruptHandler	PTR FTN()void  size(2) Largest target is 0

    Interrupt_INTx_SetInterruptHandler@int_obj.EXT_InterruptHandler	PTR FTN()void  size(2) Largest target is 1
		 -> Int0_APP_ISR(), 

    Interrupt_INTx_SetInterruptHandler@int_obj	PTR const struct . size(2) Largest target is 6
		 -> int0_obj(BANK0[6]), 

    INT2_SetInterruptHandler@InterruptHandler	PTR FTN()void  size(2) Largest target is 1
		 -> Int0_APP_ISR(), 

    INT1_SetInterruptHandler@InterruptHandler	PTR FTN()void  size(2) Largest target is 1
		 -> Int0_APP_ISR(), 

    INT0_SetInterruptHandler@InterruptHandler	PTR FTN()void  size(2) Largest target is 1
		 -> Int0_APP_ISR(), 

    Interrupt_INTx_Clear_Flag@int_obj.EXT_InterruptHandler	PTR FTN()void  size(2) Largest target is 1
		 -> Int0_APP_ISR(), 

    Interrupt_INTx_Clear_Flag@int_obj	PTR const struct . size(2) Largest target is 6
		 -> int0_obj(BANK0[6]), 

    Interrupt_INTx_Pin_Init@int_obj.EXT_InterruptHandler	PTR FTN()void  size(2) Largest target is 1
		 -> Int0_APP_ISR(), 

    Interrupt_INTx_Pin_Init@int_obj	PTR const struct . size(2) Largest target is 6
		 -> int0_obj(BANK0[6]), 

    Interrupt_INTx_Edge_Init@int_obj.EXT_InterruptHandler	PTR FTN()void  size(2) Largest target is 1
		 -> Int0_APP_ISR(), 

    Interrupt_INTx_Edge_Init@int_obj	PTR const struct . size(2) Largest target is 6
		 -> int0_obj(BANK0[6]), 

    Interrupt_INTx_Disable@int_obj.EXT_InterruptHandler	PTR FTN()void  size(2) Largest target is 1
		 -> Int0_APP_ISR(), 

    Interrupt_INTx_Disable@int_obj	PTR const struct . size(2) Largest target is 6
		 -> int0_obj(BANK0[6]), 

    S2340$EXT_InterruptHandler	PTR FTN()void  size(2) Largest target is 1
		 -> Int0_APP_ISR(), 

    Interrupt_INTx_Enable@int_obj.EXT_InterruptHandler	PTR FTN()void  size(2) Largest target is 1
		 -> Int0_APP_ISR(), 

    Interrupt_INTx_Enable@int_obj	PTR const struct . size(2) Largest target is 6
		 -> int0_obj(BANK0[6]), 

    S2456$EXT_InterruptHandler_LOW	PTR FTN()void  size(2) Largest target is 0

    Interrupt_RBx_Init@int_obj.EXT_InterruptHandler_LOW	PTR FTN()void  size(2) Largest target is 0

    S2456$EXT_InterruptHandler_HIGH	PTR FTN()void  size(2) Largest target is 0

    Interrupt_RBx_Init@int_obj.EXT_InterruptHandler_HIGH	PTR FTN()void  size(2) Largest target is 0

    RB7_InterruptHandler_LOW	PTR FTN()void  size(2) Largest target is 1
		 -> NULL(), 

    RB7_InterruptHandler_HIGH	PTR FTN()void  size(2) Largest target is 1
		 -> NULL(), 

    RB6_InterruptHandler_LOW	PTR FTN()void  size(2) Largest target is 1
		 -> NULL(), 

    RB6_InterruptHandler_HIGH	PTR FTN()void  size(2) Largest target is 1
		 -> NULL(), 

    RB5_InterruptHandler_LOW	PTR FTN()void  size(2) Largest target is 1
		 -> NULL(), 

    RB5_InterruptHandler_HIGH	PTR FTN()void  size(2) Largest target is 1
		 -> NULL(), 

    RB4_InterruptHandler_LOW	PTR FTN()void  size(2) Largest target is 1
		 -> NULL(), 

    RB4_InterruptHandler_HIGH	PTR FTN()void  size(2) Largest target is 1
		 -> NULL(), 

    INT2_InterruptHandler	PTR FTN()void  size(2) Largest target is 1
		 -> Int0_APP_ISR(), NULL(), 

    INT1_InterruptHandler	PTR FTN()void  size(2) Largest target is 1
		 -> Int0_APP_ISR(), NULL(), 

    INT0_InterruptHandler	PTR FTN()void  size(2) Largest target is 1
		 -> Int0_APP_ISR(), NULL(), 

    Interrupt_INTx_Init@int_obj	PTR const struct . size(2) Largest target is 6
		 -> int0_obj(BANK0[6]), 

    I2C_Report_Receive_Overflow_InterruptHandle	PTR FTN()void  size(2) Largest target is 1
		 -> NULL(), 

    MSSP_I2C_Interrupt_Configurations@i2c_obj.I2C_Report_Receive_Overflow	PTR FTN()void  size(2) Largest target is 0

    MSSP_I2C_Interrupt_Configurations@i2c_obj.I2C_DefaultInterruptHandler	PTR FTN()void  size(2) Largest target is 0

    MSSP_I2C_Interrupt_Configurations@i2c_obj.I2C_Report_Write_Collision	PTR FTN()void  size(2) Largest target is 0

    I2C_Slave_Mode_Configurations@i2c_obj.I2C_Report_Receive_Overflow	PTR FTN()void  size(2) Largest target is 0

    I2C_Slave_Mode_Configurations@i2c_obj.I2C_DefaultInterruptHandler	PTR FTN()void  size(2) Largest target is 0

    I2C_Slave_Mode_Configurations@i2c_obj.I2C_Report_Write_Collision	PTR FTN()void  size(2) Largest target is 0

    I2C_Master_Mode_Clock_Configurations@i2c_obj.I2C_Report_Receive_Overflow	PTR FTN()void  size(2) Largest target is 0

    I2C_Master_Mode_Clock_Configurations@i2c_obj.I2C_DefaultInterruptHandler	PTR FTN()void  size(2) Largest target is 0

    I2C_Master_Mode_Clock_Configurations@i2c_obj.I2C_Report_Write_Collision	PTR FTN()void  size(2) Largest target is 0

    I2C_Report_Write_Collision_InterruptHandler	PTR FTN()void  size(2) Largest target is 1
		 -> NULL(), 

    I2C_DefaultInterruptHandle	PTR FTN()void  size(2) Largest target is 1
		 -> NULL(), 

    S1819$I2C_Report_Receive_Overflow	PTR FTN()void  size(2) Largest target is 0

    MSSP_I2C_Init@i2c_obj.I2C_Report_Receive_Overflow	PTR FTN()void  size(2) Largest target is 0

    S1819$I2C_DefaultInterruptHandler	PTR FTN()void  size(2) Largest target is 0

    MSSP_I2C_Init@i2c_obj.I2C_DefaultInterruptHandler	PTR FTN()void  size(2) Largest target is 0

    S1819$I2C_Report_Write_Collision	PTR FTN()void  size(2) Largest target is 0

    MSSP_I2C_Init@i2c_obj.I2C_Report_Write_Collision	PTR FTN()void  size(2) Largest target is 0

    gpio_pin_intialize@_pin_config	PTR const struct . size(2) Largest target is 6
		 -> ready_yellow(COMRAM[1]), led_green_people(COMRAM[1]), led_red_people(COMRAM[1]), led_green_car(COMRAM[1]), 
		 -> led_red_car(COMRAM[1]), lcd_1.lcd_data(BANK0[4]), lcd_1(BANK0[6]), seg2.segment_pins(BANK0[4]), 
		 -> seg2(BANK0[5]), seg1.segment_pins(BANK0[4]), seg1(BANK0[5]), 

    gpio_pin_toggle_logic@_pin_config	PTR const struct . size(2) Largest target is 1
		 -> ready_yellow(COMRAM[1]), 

    gpio_pin_write_logic@_pin_config	PTR const struct . size(2) Largest target is 6
		 -> ready_yellow(COMRAM[1]), led_green_people(COMRAM[1]), led_red_people(COMRAM[1]), led_green_car(COMRAM[1]), 
		 -> led_red_car(COMRAM[1]), lcd_1.lcd_data(BANK0[4]), lcd_1(BANK0[6]), seg2.segment_pins(BANK0[4]), 
		 -> seg2(BANK0[5]), seg1.segment_pins(BANK0[4]), seg1(BANK0[5]), 

    gpio_pin_direction_intialize@_pin_config	PTR const struct . size(2) Largest target is 6
		 -> int0_obj(BANK0[6]), MSSP_SPI_Slave_Mode_GPIO_PIN_Configurations@SPI_SS(COMRAM[1]), MSSP_SPI_Slave_Mode_GPIO_PIN_Configurations@SPI_CLK(COMRAM[1]), MSSP_SPI_Slave_Mode_GPIO_PIN_Configurations@SPI_SDI(COMRAM[1]), 
		 -> MSSP_SPI_Slave_Mode_GPIO_PIN_Configurations@SPI_SDO(COMRAM[1]), MSSP_SPI_Msster_Mode_GPIO_PIN_Configurations@SPI_CLK(COMRAM[1]), MSSP_SPI_Msster_Mode_GPIO_PIN_Configurations@SPI_SDI(COMRAM[1]), MSSP_SPI_Msster_Mode_GPIO_PIN_Configurations@SPI_SDO(COMRAM[1]), 
		 -> ready_yellow(COMRAM[1]), led_green_people(COMRAM[1]), led_red_people(COMRAM[1]), led_green_car(COMRAM[1]), 
		 -> led_red_car(COMRAM[1]), lcd_1.lcd_data(BANK0[4]), lcd_1(BANK0[6]), seg2.segment_pins(BANK0[4]), 
		 -> seg2(BANK0[5]), seg1.segment_pins(BANK0[4]), seg1(BANK0[5]), 

    port_registers	PTR volatile unsigned char [5] size(2) Largest target is 1
		 -> PORTE(BITBIGSFRlllll[1]), PORTD(BITBIGSFRlllll[1]), PORTC(BITBIGSFRlllll[1]), PORTB(BITBIGSFRlllll[1]), 
		 -> PORTA(BITBIGSFRlllll[1]), 

    lat_registers	PTR volatile unsigned char [5] size(2) Largest target is 1
		 -> LATE(BITBIGSFRllllh[1]), LATD(BITBIGSFRllllh[1]), LATC(BITBIGSFRllllh[1]), LATB(BITBIGSFRllllh[1]), 
		 -> LATA(BITBIGSFRlllll[1]), 

    tris_registers	PTR volatile unsigned char [5] size(2) Largest target is 1
		 -> TRISD(ABS[1]), TRISC(ABS[1]), TRISB(ABS[1]), TRISE(ABS[1]), 
		 -> TRISA(BITBIGSFRlllll[1]), 

    CCP_Compare_Mode_Config@_ccp_obj.CCP2_InterruptHandler	PTR FTN()void  size(2) Largest target is 0

    CCP_Compare_Mode_Config@_ccp_obj.CCP1_InterruptHandler	PTR FTN()void  size(2) Largest target is 0

    CCP_Capture_Mode_Config@_ccp_obj.CCP2_InterruptHandler	PTR FTN()void  size(2) Largest target is 0

    CCP_Capture_Mode_Config@_ccp_obj.CCP1_InterruptHandler	PTR FTN()void  size(2) Largest target is 0

    CCP_Mode_Timer_Select@_ccp_obj.CCP2_InterruptHandler	PTR FTN()void  size(2) Largest target is 0

    CCP_Mode_Timer_Select@_ccp_obj.CCP1_InterruptHandler	PTR FTN()void  size(2) Largest target is 0

    CCP_Interrupt_Config@_ccp_obj.CCP2_InterruptHandler	PTR FTN()void  size(2) Largest target is 0

    CCP_Interrupt_Config@_ccp_obj.CCP1_InterruptHandler	PTR FTN()void  size(2) Largest target is 0

    CCP2_InterruptHandler	PTR FTN()void  size(2) Largest target is 1
		 -> NULL(), 

    CCP1_InterruptHandler	PTR FTN()void  size(2) Largest target is 1
		 -> NULL(), 

    CCP_DeInit@_ccp_obj.CCP2_InterruptHandler	PTR FTN()void  size(2) Largest target is 0

    CCP_DeInit@_ccp_obj.CCP1_InterruptHandler	PTR FTN()void  size(2) Largest target is 0

    S1181$CCP2_InterruptHandler	PTR FTN()void  size(2) Largest target is 0

    CCP_Init@_ccp_obj.CCP2_InterruptHandler	PTR FTN()void  size(2) Largest target is 0

    S1181$CCP1_InterruptHandler	PTR FTN()void  size(2) Largest target is 0

    CCP_Init@_ccp_obj.CCP1_InterruptHandler	PTR FTN()void  size(2) Largest target is 0

    configure_voltage_reference@_adc.ADC_InterruptHandler	PTR FTN()void  size(2) Largest target is 0

    select_result_format@_adc.ADC_InterruptHandler	PTR FTN()void  size(2) Largest target is 0

    ADC_GetConversionResult@_adc.ADC_InterruptHandler	PTR FTN()void  size(2) Largest target is 0

    ADC_InterruptHandler	PTR FTN()void  size(2) Largest target is 1
		 -> NULL(), 

    S763$ADC_InterruptHandler	PTR FTN()void  size(2) Largest target is 0

    ADC_Init@_adc.ADC_InterruptHandler	PTR FTN()void  size(2) Largest target is 0

    led_turn_toggle@led	PTR const struct . size(2) Largest target is 1
		 -> ready_yellow(COMRAM[1]), 

    led_turn_off@led	PTR const struct . size(2) Largest target is 1
		 -> ready_yellow(COMRAM[1]), led_green_people(COMRAM[1]), led_red_people(COMRAM[1]), led_green_car(COMRAM[1]), 
		 -> led_red_car(COMRAM[1]), 

    led_turn_on@led	PTR const struct . size(2) Largest target is 1
		 -> led_green_people(COMRAM[1]), led_red_people(COMRAM[1]), led_green_car(COMRAM[1]), led_red_car(COMRAM[1]), 

    led_initialize@led	PTR const struct . size(2) Largest target is 1
		 -> ready_yellow(COMRAM[1]), led_green_people(COMRAM[1]), led_red_people(COMRAM[1]), led_green_car(COMRAM[1]), 
		 -> led_red_car(COMRAM[1]), 

    lcd_4bit_set_cursor@lcd	PTR const struct . size(2) Largest target is 6
		 -> lcd_1(BANK0[6]), 

    lcd_4bit_send_enable_signal@lcd	PTR const struct . size(2) Largest target is 6
		 -> lcd_1(BANK0[6]), 

    lcd_send_4bits@lcd	PTR const struct . size(2) Largest target is 6
		 -> lcd_1(BANK0[6]), 

    sp__memset	PTR void  size(2) Largest target is 0

    lcd_4bit_clear@lcd	PTR const struct . size(2) Largest target is 6
		 -> lcd_1(BANK0[6]), 

    lcd_4bit_send_string_pos@str	PTR unsigned char  size(2) Largest target is 22
		 -> STR_15(CODE[13]), STR_14(CODE[21]), STR_13(CODE[20]), STR_12(CODE[15]), 
		 -> STR_11(CODE[16]), STR_10(CODE[16]), STR_9(CODE[17]), STR_8(CODE[15]), 
		 -> STR_7(CODE[16]), STR_6(CODE[9]), STR_5(CODE[13]), STR_4(CODE[22]), 

    lcd_4bit_send_string_pos@lcd	PTR const struct . size(2) Largest target is 6
		 -> lcd_1(BANK0[6]), 

    lcd_4bit_send_char_data@lcd	PTR const struct . size(2) Largest target is 6
		 -> lcd_1(BANK0[6]), 

    lcd_4bit_send_command@lcd	PTR const struct . size(2) Largest target is 6
		 -> lcd_1(BANK0[6]), 

    lcd_4bit_intialize@lcd	PTR const struct . size(2) Largest target is 6
		 -> lcd_1(BANK0[6]), 

    seven_segement_write_number@seg	PTR const struct . size(2) Largest target is 5
		 -> seg2(BANK0[5]), seg1(BANK0[5]), 

    seven_segement_intialize@seg	PTR const struct . size(2) Largest target is 5
		 -> seg2(BANK0[5]), seg1(BANK0[5]), 


Critical Paths under _main in COMRAM

    _main->___awdiv
    _main->___awmod
    _seven_segement_write_number->___awdiv
    _seven_segement_write_number->___awmod
    _seven_segement_write_number->_gpio_pin_write_logic
    _application_initialize->_Timer0_Init
    _gpio_pin_intialize->_gpio_pin_write_logic
    _Timer0_Init->_Timer0_Prescaler_Config
    _Interrupt_INTx_Init->_Interrupt_INTx_Clear_Flag
    _Interrupt_INTx_Init->_Interrupt_INTx_Disable
    _Interrupt_INTx_Init->_Interrupt_INTx_Edge_Init
    _Interrupt_INTx_Init->_Interrupt_INTx_Enable
    _Interrupt_INTx_Init->_Interrupt_INTx_Pin_Init
    _Interrupt_INTx_Init->_Interrupt_INTx_SetInterruptHandler
    _Interrupt_INTx_SetInterruptHandler->_INT0_SetInterruptHandler
    _Interrupt_INTx_SetInterruptHandler->_INT1_SetInterruptHandler
    _Interrupt_INTx_SetInterruptHandler->_INT2_SetInterruptHandler
    _Interrupt_INTx_Pin_Init->_gpio_pin_direction_intialize
    _TimeOfPedestriansMoveFinishedHandler->_led_turn_toggle
    _TimeOfCarsMoveFinishedHandler->_led_turn_toggle
    _led_turn_toggle->_gpio_pin_toggle_logic
    _led_turn_on->_gpio_pin_write_logic
    _led_turn_off->_gpio_pin_write_logic
    _lcd_4bit_send_command->_gpio_pin_write_logic
    _lcd_4bit_send_char_data->_gpio_pin_write_logic
    _lcd_send_4bits->_gpio_pin_write_logic
    _lcd_4bit_send_enable_signal->_gpio_pin_write_logic

Critical Paths under _InterruptManager in COMRAM

    _TMR0_ISR->_TMR0_DefualtInterruptHandler
    _TMR0_DefualtInterruptHandler->_lcd_4bit_clear
    _Int0_APP_ISR->_lcd_4bit_clear
    i2_led_turn_off->i2_gpio_pin_write_logic
    _lcd_4bit_clear->i2_lcd_4bit_send_command
    i2_lcd_4bit_send_command->i2_lcd_send_4bits
    i2_lcd_send_4bits->i2_gpio_pin_write_logic
    i2_lcd_4bit_send_enable_signal->i2_gpio_pin_write_logic

Critical Paths under _main in BANK0

    _seven_segement_write_number->_gpio_pin_write_logic
    _ecu_layer_init->_lcd_4bit_intialize
    _seven_segement_intialize->_gpio_pin_intialize
    _led_initialize->_gpio_pin_intialize
    _lcd_4bit_intialize->_lcd_4bit_send_command
    _gpio_pin_intialize->_gpio_pin_direction_intialize
    _gpio_pin_intialize->_gpio_pin_write_logic
    _Interrupt_INTx_Init->_Interrupt_INTx_Pin_Init
    _Interrupt_INTx_Pin_Init->_gpio_pin_direction_intialize
    _TimeOfPedestriansMoveFinishedHandler->_lcd_4bit_send_string_pos
    _TimeOfCarsMoveFinishedHandler->_lcd_4bit_send_string_pos
    _led_turn_toggle->_gpio_pin_toggle_logic
    _ReadyTimeOfPedestriansToMoveFinishedHandler->_lcd_4bit_send_string_pos
    _ReadyTimeOfCarsToMoveFinishedHandler->_lcd_4bit_send_string_pos
    _led_turn_on->_gpio_pin_write_logic
    _led_turn_off->_gpio_pin_write_logic
    _lcd_4bit_send_string_pos->_lcd_4bit_set_cursor
    _lcd_4bit_set_cursor->_lcd_4bit_send_command
    _lcd_4bit_send_command->_lcd_send_4bits
    _lcd_4bit_send_char_data->_lcd_send_4bits
    _lcd_send_4bits->_gpio_pin_write_logic
    _lcd_4bit_send_enable_signal->_gpio_pin_write_logic

Critical Paths under _InterruptManager in BANK0

    None.

Critical Paths under _main in BANK1

    _TimeOfPedestriansMoveFinishedHandler->_lcd_4bit_send_string_pos
    _TimeOfCarsMoveFinishedHandler->_lcd_4bit_send_string_pos
    _ReadyTimeOfPedestriansToMoveFinishedHandler->_lcd_4bit_send_string_pos
    _ReadyTimeOfCarsToMoveFinishedHandler->_lcd_4bit_send_string_pos

Critical Paths under _InterruptManager in BANK1

    None.

Critical Paths under _main in BANK2

    None.

Critical Paths under _InterruptManager in BANK2

    None.

Critical Paths under _main in BANK3

    None.

Critical Paths under _InterruptManager in BANK3

    None.

Critical Paths under _main in BANK4

    None.

Critical Paths under _InterruptManager in BANK4

    None.

Critical Paths under _main in BANK5

    None.

Critical Paths under _InterruptManager in BANK5

    None.

Critical Paths under _main in BANK6

    None.

Critical Paths under _InterruptManager in BANK6

    None.

Critical Paths under _main in BANK7

    None.

Critical Paths under _InterruptManager in BANK7

    None.

Critical Paths under _main in BANK8

    None.

Critical Paths under _InterruptManager in BANK8

    None.

Critical Paths under _main in BANK9

    None.

Critical Paths under _InterruptManager in BANK9

    None.

Critical Paths under _main in BANK10

    None.

Critical Paths under _InterruptManager in BANK10

    None.

Critical Paths under _main in BANK11

    None.

Critical Paths under _InterruptManager in BANK11

    None.

Critical Paths under _main in BANK12

    None.

Critical Paths under _InterruptManager in BANK12

    None.

Critical Paths under _main in BANK13

    None.

Critical Paths under _InterruptManager in BANK13

    None.

Critical Paths under _main in BANK14

    None.

Critical Paths under _InterruptManager in BANK14

    None.

Critical Paths under _main in BANK15

    None.

Critical Paths under _InterruptManager in BANK15

    None.

Call Graph Tables:

 ---------------------------------------------------------------------------------
 (Depth) Function   	        Calls       Base Space   Used Autos Params    Refs
 ---------------------------------------------------------------------------------
 (0) _main                                                 2     2      0  307187
                                             22 BANK0      2     2      0
_ReadyTimeOfCarsToMoveFinishedHandle
_ReadyTimeOfPedestriansToMoveFinishe
      _TimeOfCarsMoveFinishedHandler
_TimeOfPedestriansMoveFinishedHandle
                            ___awdiv
                            ___awmod
             _application_initialize
        _seven_segement_write_number
 ---------------------------------------------------------------------------------
 (1) _seven_segement_write_number                          4     1      3    6916
                                              6 BANK0      4     1      3
                            ___awdiv (ARG)
                            ___awmod (ARG)
               _gpio_pin_write_logic
 ---------------------------------------------------------------------------------
 (1) _application_initialize                               1     1      0   57625
                _Interrupt_INTx_Init
                        _Timer0_Init
                     _ecu_layer_init
 ---------------------------------------------------------------------------------
 (2) _ecu_layer_init                                       1     1      0   52971
                 _lcd_4bit_intialize
                     _led_initialize
           _seven_segement_intialize
 ---------------------------------------------------------------------------------
 (3) _seven_segement_intialize                             3     1      2    9736
                                             10 BANK0      3     1      2
                 _gpio_pin_intialize
 ---------------------------------------------------------------------------------
 (3) _led_initialize                                       3     1      2    9901
                                             10 BANK0      3     1      2
                 _gpio_pin_intialize
 ---------------------------------------------------------------------------------
 (3) _lcd_4bit_intialize                                   6     4      2   33307
                                             14 BANK0      6     4      2
                 _gpio_pin_intialize
              _lcd_4bit_send_command
 ---------------------------------------------------------------------------------
 (4) _gpio_pin_intialize                                   4     2      2    9352
                                              6 BANK0      4     2      2
       _gpio_pin_direction_intialize
               _gpio_pin_write_logic
 ---------------------------------------------------------------------------------
 (2) _Timer0_Init                                          5     3      2     804
                                             33 COMRAM     1     1      0
                                              0 BANK0      4     2      2
                 _Timer0_Mode_Select
            _Timer0_Prescaler_Config
        _Timer0_Register_Size_Config
 ---------------------------------------------------------------------------------
 (3) _Timer0_Register_Size_Config                          2     0      2     120
                                             30 COMRAM     2     0      2
 ---------------------------------------------------------------------------------
 (3) _Timer0_Prescaler_Config                              3     1      2     142
                                             30 COMRAM     3     1      2
 ---------------------------------------------------------------------------------
 (3) _Timer0_Mode_Select                                   2     0      2     164
                                             30 COMRAM     2     0      2
 ---------------------------------------------------------------------------------
 (2) _Interrupt_INTx_Init                                  3     1      2    3841
                                              8 BANK0      3     1      2
          _Interrupt_INTx_Clear_Flag
             _Interrupt_INTx_Disable
           _Interrupt_INTx_Edge_Init
              _Interrupt_INTx_Enable
            _Interrupt_INTx_Pin_Init
 _Interrupt_INTx_SetInterruptHandler
 ---------------------------------------------------------------------------------
 (3) _Interrupt_INTx_SetInterruptHandler                   5     3      2     870
                                             33 COMRAM     1     1      0
                                              0 BANK0      4     2      2
           _INT0_SetInterruptHandler
           _INT1_SetInterruptHandler
           _INT2_SetInterruptHandler
 ---------------------------------------------------------------------------------
 (4) _INT2_SetInterruptHandler                             3     1      2     192
                                             30 COMRAM     3     1      2
 ---------------------------------------------------------------------------------
 (4) _INT1_SetInterruptHandler                             3     1      2     192
                                             30 COMRAM     3     1      2
 ---------------------------------------------------------------------------------
 (4) _INT0_SetInterruptHandler                             3     1      2     192
                                             30 COMRAM     3     1      2
 ---------------------------------------------------------------------------------
 (3) _Interrupt_INTx_Pin_Init                              3     1      2    1529
                                             33 COMRAM     1     1      0
                                              6 BANK0      2     0      2
       _gpio_pin_direction_intialize
 ---------------------------------------------------------------------------------
 (5) _gpio_pin_direction_intialize                         9     7      2    1337
                                             30 COMRAM     3     1      2
                                              0 BANK0      6     6      0
 ---------------------------------------------------------------------------------
 (3) _Interrupt_INTx_Enable                                5     3      2     201
                                             30 COMRAM     4     2      2
                                              0 BANK0      1     1      0
 ---------------------------------------------------------------------------------
 (3) _Interrupt_INTx_Edge_Init                             5     3      2     387
                                             30 COMRAM     4     2      2
                                              0 BANK0      1     1      0
 ---------------------------------------------------------------------------------
 (3) _Interrupt_INTx_Disable                               5     3      2     291
                                             30 COMRAM     4     2      2
                                              0 BANK0      1     1      0
 ---------------------------------------------------------------------------------
 (3) _Interrupt_INTx_Clear_Flag                            5     3      2     201
                                             30 COMRAM     4     2      2
                                              0 BANK0      1     1      0
 ---------------------------------------------------------------------------------
 (1) ___awmod                                              6     2      4     613
                                             30 COMRAM     4     0      4
                                              0 BANK0      2     2      0
 ---------------------------------------------------------------------------------
 (1) ___awdiv                                              8     4      4     625
                                             30 COMRAM     4     0      4
                                              0 BANK0      4     4      0
 ---------------------------------------------------------------------------------
 (1) _TimeOfPedestriansMoveFinishedHandler                 0     0      0   57277
           _lcd_4bit_send_string_pos
                       _led_turn_off
                    _led_turn_toggle
 ---------------------------------------------------------------------------------
 (1) _TimeOfCarsMoveFinishedHandler                        0     0      0   57277
           _lcd_4bit_send_string_pos
                       _led_turn_off
                    _led_turn_toggle
 ---------------------------------------------------------------------------------
 (2) _led_turn_toggle                                      3     1      2     506
                                             32 COMRAM     2     0      2
                                              5 BANK0      1     1      0
              _gpio_pin_toggle_logic
 ---------------------------------------------------------------------------------
 (3) _gpio_pin_toggle_logic                                8     6      2     227
                                             30 COMRAM     2     0      2
                                              0 BANK0      5     5      0
 ---------------------------------------------------------------------------------
 (1) _ReadyTimeOfPedestriansToMoveFinishedHandler          0     0      0   63427
           _lcd_4bit_send_string_pos
                       _led_turn_off
                        _led_turn_on
 ---------------------------------------------------------------------------------
 (1) _ReadyTimeOfCarsToMoveFinishedHandler                 0     0      0   63427
           _lcd_4bit_send_string_pos
                       _led_turn_off
                        _led_turn_on
 ---------------------------------------------------------------------------------
 (2) _led_turn_on                                          3     1      2    6656
                                              6 BANK0      3     1      2
               _gpio_pin_write_logic
 ---------------------------------------------------------------------------------
 (2) _led_turn_off                                         3     1      2    6946
                                              6 BANK0      3     1      2
               _gpio_pin_write_logic
 ---------------------------------------------------------------------------------
 (2) _lcd_4bit_send_string_pos                             7     1      6   49825
                                             21 BANK0      1     1      0
                                              0 BANK1      6     0      6
            _lcd_4bit_send_char_data
                _lcd_4bit_set_cursor
 ---------------------------------------------------------------------------------
 (3) _lcd_4bit_set_cursor                                  7     3      4   24155
                                             14 BANK0      7     3      4
              _lcd_4bit_send_command
 ---------------------------------------------------------------------------------
 (4) _lcd_4bit_send_command                                4     1      3   23287
                                             10 BANK0      4     1      3
               _gpio_pin_write_logic
        _lcd_4bit_send_enable_signal
                     _lcd_send_4bits
 ---------------------------------------------------------------------------------
 (3) _lcd_4bit_send_char_data                              4     1      3   21087
                                             10 BANK0      4     1      3
               _gpio_pin_write_logic
        _lcd_4bit_send_enable_signal
                     _lcd_send_4bits
 ---------------------------------------------------------------------------------
 (5) _lcd_send_4bits                                       4     1      3    7211
                                              6 BANK0      4     1      3
               _gpio_pin_write_logic
 ---------------------------------------------------------------------------------
 (5) _lcd_4bit_send_enable_signal                          3     1      2    6659
                                              6 BANK0      3     1      2
               _gpio_pin_write_logic
 ---------------------------------------------------------------------------------
 (2) _gpio_pin_write_logic                                10     7      3    6197
                                             30 COMRAM     4     1      3
                                              0 BANK0      6     6      0
 ---------------------------------------------------------------------------------
 Estimated maximum stack depth 5
 ---------------------------------------------------------------------------------
 (Depth) Function   	        Calls       Base Space   Used Autos Params    Refs
 ---------------------------------------------------------------------------------
 (7) _InterruptManager                                     7     7      0   13237
                                             23 COMRAM     7     7      0
                            _ADC_ISR
                           _CCP1_ISR
                           _CCP2_ISR
                      _EUSART_RX_ISR
                      _EUSART_TX_ISR
                           _INT0_ISR
                           _INT1_ISR
                           _INT2_ISR
                    _MSSP_I2C_BC_ISR
                       _MSSP_I2C_ISR
                       _MSSP_SPI_ISR
                            _RB4_ISR
                            _RB5_ISR
                            _RB6_ISR
                            _RB7_ISR
                           _TMR0_ISR
                           _TMR1_ISR
                           _TMR2_ISR
                           _TMR3_ISR
 ---------------------------------------------------------------------------------
 (8) _TMR3_ISR                                             0     0      0       0
 ---------------------------------------------------------------------------------
 (8) _TMR2_ISR                                             0     0      0       0
 ---------------------------------------------------------------------------------
 (8) _TMR1_ISR                                             0     0      0       0
 ---------------------------------------------------------------------------------
 (8) _TMR0_ISR                                             0     0      0    2743
                                NULL *
       _TMR0_DefualtInterruptHandler *
 ---------------------------------------------------------------------------------
 (9) _TMR0_DefualtInterruptHandler                         2     2      0    2743
                                             21 COMRAM     2     2      0
                     _lcd_4bit_clear
 ---------------------------------------------------------------------------------
 (8) _RB7_ISR                                              1     1      0      30
                                              0 COMRAM     1     1      0
 ---------------------------------------------------------------------------------
 (8) _RB6_ISR                                              1     1      0      30
                                              0 COMRAM     1     1      0
 ---------------------------------------------------------------------------------
 (8) _RB5_ISR                                              1     1      0      30
                                              0 COMRAM     1     1      0
 ---------------------------------------------------------------------------------
 (8) _RB4_ISR                                              1     1      0      30
                                              0 COMRAM     1     1      0
 ---------------------------------------------------------------------------------
 (8) _MSSP_SPI_ISR                                         0     0      0       0
 ---------------------------------------------------------------------------------
 (8) _MSSP_I2C_ISR                                         0     0      0       0
 ---------------------------------------------------------------------------------
 (8) _MSSP_I2C_BC_ISR                                      0     0      0       0
 ---------------------------------------------------------------------------------
 (8) _INT2_ISR                                             0     0      0    3458
                                NULL *
                       _Int0_APP_ISR *
 ---------------------------------------------------------------------------------
 (8) _INT1_ISR                                             0     0      0    3458
                                NULL *
                       _Int0_APP_ISR *
 ---------------------------------------------------------------------------------
 (8) _INT0_ISR                                             0     0      0    3458
                                NULL *
                       _Int0_APP_ISR *
 ---------------------------------------------------------------------------------
 (9) _Int0_APP_ISR                                         0     0      0    3458
                     _lcd_4bit_clear
                     i2_led_turn_off
 ---------------------------------------------------------------------------------
 (10) i2_led_turn_off                                      3     1      2     715
                                             10 COMRAM     3     1      2
             i2_gpio_pin_write_logic
 ---------------------------------------------------------------------------------
 (10) _lcd_4bit_clear                                      3     1      2    2743
                                             18 COMRAM     3     1      2
            i2_lcd_4bit_send_command
 ---------------------------------------------------------------------------------
 (11) i2_lcd_4bit_send_command                             4     1      3    2522
                                             14 COMRAM     4     1      3
             i2_gpio_pin_write_logic
      i2_lcd_4bit_send_enable_signal
                   i2_lcd_send_4bits
 ---------------------------------------------------------------------------------
 (12) i2_lcd_send_4bits                                    4     1      3     902
                                             10 COMRAM     4     1      3
             i2_gpio_pin_write_logic
 ---------------------------------------------------------------------------------
 (12) i2_lcd_4bit_send_enable_signal                       3     1      2     716
                                             10 COMRAM     3     1      2
             i2_gpio_pin_write_logic
 ---------------------------------------------------------------------------------
 (13) i2_gpio_pin_write_logic                             10     7      3     595
                                              0 COMRAM    10     7      3
 ---------------------------------------------------------------------------------
 (9) NULL(Fake)                                            0     0      0       0
 ---------------------------------------------------------------------------------
 (8) _EUSART_TX_ISR                                        0     0      0       0
 ---------------------------------------------------------------------------------
 (8) _EUSART_RX_ISR                                        0     0      0       0
 ---------------------------------------------------------------------------------
 (8) _CCP2_ISR                                             0     0      0       0
 ---------------------------------------------------------------------------------
 (8) _CCP1_ISR                                             0     0      0       0
 ---------------------------------------------------------------------------------
 (8) _ADC_ISR                                              0     0      0       0
 ---------------------------------------------------------------------------------
 Estimated maximum stack depth 13
 ---------------------------------------------------------------------------------

 Call Graph Graphs:

 _main (ROOT)
   _ReadyTimeOfCarsToMoveFinishedHandler
     _lcd_4bit_send_string_pos
       _lcd_4bit_send_char_data
         _gpio_pin_write_logic
         _lcd_4bit_send_enable_signal
           _gpio_pin_write_logic
         _lcd_send_4bits
           _gpio_pin_write_logic
       _lcd_4bit_set_cursor
         _lcd_4bit_send_command
           _gpio_pin_write_logic
           _lcd_4bit_send_enable_signal
           _lcd_send_4bits
     _led_turn_off
       _gpio_pin_write_logic
     _led_turn_on
       _gpio_pin_write_logic
   _ReadyTimeOfPedestriansToMoveFinishedHandler
     _lcd_4bit_send_string_pos
     _led_turn_off
     _led_turn_on
   _TimeOfCarsMoveFinishedHandler
     _lcd_4bit_send_string_pos
     _led_turn_off
     _led_turn_toggle
       _gpio_pin_toggle_logic
   _TimeOfPedestriansMoveFinishedHandler
     _lcd_4bit_send_string_pos
     _led_turn_off
     _led_turn_toggle
   ___awdiv
   ___awmod
   _application_initialize
     _Interrupt_INTx_Init
       _Interrupt_INTx_Clear_Flag
       _Interrupt_INTx_Disable
       _Interrupt_INTx_Edge_Init
       _Interrupt_INTx_Enable
       _Interrupt_INTx_Pin_Init
         _gpio_pin_direction_intialize
       _Interrupt_INTx_SetInterruptHandler
         _INT0_SetInterruptHandler
         _INT1_SetInterruptHandler
         _INT2_SetInterruptHandler
     _Timer0_Init
       _Timer0_Mode_Select
       _Timer0_Prescaler_Config
       _Timer0_Register_Size_Config
     _ecu_layer_init
       _lcd_4bit_intialize
         _gpio_pin_intialize
           _gpio_pin_direction_intialize
           _gpio_pin_write_logic
         _lcd_4bit_send_command
       _led_initialize
         _gpio_pin_intialize
       _seven_segement_intialize
         _gpio_pin_intialize
   _seven_segement_write_number
     ___awdiv (ARG)
     ___awmod (ARG)
     _gpio_pin_write_logic (ARG)

 _InterruptManager (ROOT)
   _ADC_ISR
   _CCP1_ISR
   _CCP2_ISR
   _EUSART_RX_ISR
   _EUSART_TX_ISR
   _INT0_ISR
     NULL(Fake) *
     _Int0_APP_ISR *
       _lcd_4bit_clear
         i2_lcd_4bit_send_command
           i2_gpio_pin_write_logic
           i2_lcd_4bit_send_enable_signal
             i2_gpio_pin_write_logic
           i2_lcd_send_4bits
             i2_gpio_pin_write_logic
       i2_led_turn_off
         i2_gpio_pin_write_logic
   _INT1_ISR
     NULL(Fake) *
     _Int0_APP_ISR *
   _INT2_ISR
     NULL(Fake) *
     _Int0_APP_ISR *
   _MSSP_I2C_BC_ISR
   _MSSP_I2C_ISR
   _MSSP_SPI_ISR
   _RB4_ISR
   _RB5_ISR
   _RB6_ISR
   _RB7_ISR
   _TMR0_ISR
     NULL(Fake) *
     _TMR0_DefualtInterruptHandler *
       _lcd_4bit_clear
   _TMR1_ISR
   _TMR2_ISR
   _TMR3_ISR

 Address spaces:
Name               Size   Autos  Total    Cost      Usage
BIGRAM             F7F      0       0      49        0.0%
EEDATA             400      0       0       0        0.0%
BITBANK14          100      0       0      33        0.0%
BANK14             100      0       0      34        0.0%
BITBANK13          100      0       0      31        0.0%
BANK13             100      0       0      32        0.0%
BITBANK12          100      0       0      29        0.0%
BANK12             100      0       0      30        0.0%
BITBANK11          100      0       0      27        0.0%
BANK11             100      0       0      28        0.0%
BITBANK10          100      0       0      25        0.0%
BANK10             100      0       0      26        0.0%
BITBANK9           100      0       0      23        0.0%
BANK9              100      0       0      24        0.0%
BITBANK8           100      0       0      21        0.0%
BANK8              100      0       0      22        0.0%
BITBANK7           100      0       0      19        0.0%
BANK7              100      0       0      20        0.0%
BITBANK6           100      0       0      17        0.0%
BANK6              100      0       0      18        0.0%
BITBANK5           100      0       0      15        0.0%
BANK5              100      0       0      16        0.0%
BITBANK4           100      0       0      13        0.0%
BANK4              100      0       0      14        0.0%
BITBANK3           100      0       0      10        0.0%
BANK3              100      0       0      11        0.0%
BITBANK2           100      0       0       8        0.0%
BANK2              100      0       0       9        0.0%
BITBANK1           100      0       0       6        0.0%
BANK1              100      6       6       7        2.3%
BITBANK15           80      0       0      35        0.0%
BANK15              80      0       0      36        0.0%
BITBANK0            80      0       0       4        0.0%
BANK0               80     18      80       5      100.0%
BITCOMRAM           7E      0       0       0        0.0%
COMRAM              7E     22      60       1       76.2%
BITBIGSFRhlhhhl     18      0       0      38        0.0%
BITBIGSFRhh          D      0       0      37        0.0%
BITBIGSFRlllhh       6      0       0      46        0.0%
BITBIGSFRhlhhhl      5      0       0      39        0.0%
BITBIGSFRllhllh      4      0       0      43        0.0%
BITBIGSFRllllh       4      0       0      47        0.0%
BITBIGSFRllhllh      4      0       0      44        0.0%
BITBIGSFRlllll       4      0       0      48        0.0%
BITBIGSFRllhlh       2      0       0      41        0.0%
BITBIGSFRllhllh      1      0       0      42        0.0%
BITBIGSFRhlhhhl      1      0       0      40        0.0%
BITBIGSFRllhlll      1      0       0      45        0.0%
BIGSFR               0      0       0     200        0.0%
BITSFR               0      0       0     200        0.0%
SFR                  0      0       0     200        0.0%
STACK                0      0       0       2        0.0%
NULL                 0      0       0       0        0.0%
ABS                  0      0      E6      12        0.0%
DATA                 0      0      E6       3        0.0%
CODE                 0      0       0       0        0.0%


Microchip Technology PIC18 Macro Assembler V2.41 build 20230208172133 
Symbol Table                                                                                   Fri Nov 24 20:54:48 2023

                                 ??_InterruptManager 0046                                                    l9 2A60  
                                     _led_red_people 005E                                      ?_lcd_send_4bits 00EB  
                                        _SSPSTATbits 0FC7                                                   l14 22B6  
                                                 l74 25CE                                                   l69 1688  
                                                 l79 264C                                         ___awdiv@sign 00E6  
                         i2lcd_4bit_send_command@lcd 003D                           i2lcd_4bit_send_command@ret 0040  
                                  lcd_4bit_clear@lcd 0041                                    lcd_4bit_clear@ret 0043  
                                  ??_led_turn_toggle 0051                                                  l100 23D0  
                                                l208 201A                                                  l182 2982  
                                                l185 2CA0                                                  l283 2CD6  
                                                l293 2E0E                                                  l365 289E  
                                                l278 2DAA                                                  l288 2D0C  
                                                l731 234C                                                  l717 1904  
                                                l738 2910                                                  l698 17D2  
                                                l982 24D2                           ??_INT0_SetInterruptHandler 004F  
                          _RB5_InterruptHandler_HIGH 0013                                      __end_of_ADC_ISR 3074  
                                                _ret 00FE                  __end_of_lcd_4bit_send_enable_signal 2CA2  
                     ?i2_lcd_4bit_send_enable_signal 0039                          _lcd_4bit_send_enable_signal 2C66  
                                       ___awmod@sign 00E6                                                  prod 0FF3  
                                                tosl 0FFD                                                  wreg 0FE8  
                                       ?_led_turn_on 00EB                          lcd_send_4bits@_data_command 00ED  
                                    __end_of_RB4_ISR 3026                                      __end_of_RB5_ISR 300C  
                                    __end_of_RB6_ISR 2FF2                                      __end_of_RB7_ISR 2FD8  
                                               l1121 27E0                                                 l1113 2DDC  
                                               l1122 27E6                                                 l1124 282C  
                                               l1108 1A34                                                 l1134 2F4A  
                                               l1150 20C6                                                 l1119 27D4  
                                               l1071 23FE                                                 l1080 275E  
                                               l1072 2408                                                 l1129 2F74  
                                               l1082 276A                                                 l1074 2452  
                                               l1083 2770                                                 l1139 2F20  
                                               l1085 27B6                                                 l1069 23EE  
                                               l1413 2B82                                                 l1423 2550  
                                               l1431 2C64                                                 l1424 2550  
                                               l2081 1F68                                                 l2068 1D3E  
                                               l1385 218E                                                 l1387 2218  
                                               l1804 2FBC                                                 l1831 2740  
                                               l1825 1EB6                                                 l1834 26C6  
                                               l6011 2B48                                                 l1828 1DFA  
                                               l6021 24F4                                                 l6013 2B66  
                                               l6031 254A                                                 l6023 250E  
                                               l6015 2B80                                                 l6007 2B2C  
                                               l6025 2510                                                 l6017 24D4  
                                               l6009 2B46                                                 l6033 2C28  
                                               l6027 252A                                                 l6019 24EE  
                                               l6035 2C42                                                 l1787 1B74  
                                               l6029 2530                                                 l6037 2C48  
                                               l6039 2C62                                                 l8001 2EF8  
                                               l8011 2F1E                                                 l8003 2EF8  
                                               l8005 2F0A                                                 l8021 2A12  
                                               l8007 2F12                                                 l8031 1556  
                                               l8111 2D92                                                 l8023 2A5E  
                                               l8015 29F6                                                 l8121 22B8  
                                               l8201 19AA                                                 l8009 2F1A  
                                               l8041 1586                                                 l8033 155E  
                                               l8113 2D9A                                                 l8017 29F6  
                                               l8123 22CA                                                 l8131 2742  
                                               l8211 19EE                                                 l8051 15DA  
                                               l8043 15A2                                                 l8035 1582  
                                               l8027 153E                                                 l8115 2DA6  
                                               l8107 2D7A                                                 l8019 2A0A  
                                               l8301 23AE                                                 l8125 22EE  
                                               l8133 2742                                                 l8205 19B0  
                                               l8061 163A                                                 l8053 15FE  
                                               l8045 15A6                                                 l8029 1544  
                                               l8109 2D80                                                 l8303 23CC  
                                               l8127 22F2                                                 l8119 22B8  
                                               l8135 2754                                                 l8207 19CC  
                                               l8231 2DC0                                                 l8063 164C  
                                               l8055 1604                                                 l8047 15B6  
                                               l8081 264A                                                 l8073 25D0  
                                               l8161 27D6                                                 l8137 2760  
                                               l8145 2776                                                 l8209 19D2  
                                               l8217 19F4                                                 l8233 2DC8  
                                               l8241 201C                                                 l8401 2454  
                                               l8065 165E                                                 l8057 1616  
                                               l8049 15C8                                                 l8075 25D0  
                                               l8091 1F90                                                 l8171 282A  
                                               l8155 27B8                                                 l8147 27B4  
                                               l8219 1A32                                                 l8235 2DDA  
                                               l8227 2DAC                                                 l8243 2030  
                                               l8411 24C0                                                 l8403 2468  
                                               l8067 1670                                                 l8059 1628  
                                               l8077 25E4                                                 l8093 1FAA  
                                               l8085 1F6A                                                 l8157 27B8  
                                               l8181 1906                                                 l8229 2DAC  
                                               l8245 2038                                                 l8253 2086  
                                               l8413 24D0                                                 l8405 2470  
                                               l8421 2186                                                 l8069 1686  
                                               l8079 25EC                                                 l8095 1FC4  
                                               l8087 1F70                                                 l8351 2CC2  
                                               l8159 27CA                                                 l8191 1960  
                                               l8183 1918                                                 l8271 23F4  
                                               l8247 2052                                                 l8255 20C4  
                                               l8239 201C                                                 l8407 24A0  
                                               l8431 21F8                                                 l8423 2190  
                                               l9151 1B6C                                                 l8089 1F76  
                                               l8097 1FDE                                                 l8361 2CF0  
                                               l8353 2CD2                                                 l8345 2CA2  
                                               l8601 1CBC                                                 l8169 27EC  
                                               l8193 1962                                                 l8185 1922  
                                               l8281 2450                                                 l8265 23D2  
                                               l8249 206C                                                 l8409 24B0  
                                               l8441 2210                                                 l8433 21FA  
                                               l8425 21B4                                                 l8417 2172  
                                               l9161 1BF4                                                 l9153 1B70  
                                               l8099 2018                                                 l8291 234E  
                                               l8363 2CF8                                                 l8347 2CA8  
                                               l8371 2DE4                                                 l8611 1CF2  
                                               l8603 1CCE                                                 l8195 196C  
                                               l8187 193E                                                 l8179 1906  
                                               l8267 23D2                                                 l8443 2212  
                                               l8435 21FC                                                 l8427 21D4  
                                               l8419 2172                                                 l8531 2F9C  
                                               l8451 221A                                                 l9163 1C00  
                                               l9155 1BC8                                                 l9147 1B62  
                                               l8293 2362                                                 l8365 2D08  
                                               l8357 2CD8                                                 l8349 2CBA  
                                               l8373 2DF6                                                 l8541 1E4E  
                                               l8613 1D08                                                 l8605 1CD6  
                                               l8621 1D1E                                                 l8197 1988  
                                               l8189 1944                                                 l8269 23E4  
                                               l7901 168E                                                 l8437 220C  
                                               l8429 21E4                                                 l8445 2216  
                                               l8381 282E                                                 l8533 2FA0  
                                               l8453 222E                                                 l9421 1C50  
                                               l9165 1C12                                                 l9157 1BD8  
                                               l9173 1C3C                                                 l9149 1B66  
                                               l8295 236C                                                 l8359 2CDE  
                                               l8375 2DFE                                                 l8543 1E70  
                                               l8551 1D40                                                 l8623 1D2E  
                                               l8615 1D10                                                 l8607 1CDE  
                                               l8631 1EBE                                                 l9431 2796  
                                               l8199 198E                                                 l8279 2412  
                                               l7903 16A0                                                 l9423 20A6  
                                               l8439 220E                                                 l8391 2866  
                                               l8383 282E                                                 l8535 2FAE  
                                               l8455 223E                                                 l9167 1C1E  
                                               l9159 1BE4                                                 l8297 2388  
                                               l8289 234E                                                 l8377 2E0A  
                                               l8369 2DDE                                                 l8545 1E92  
                                               l8537 1DFC                                                 l8561 1DF8  
                                               l8553 1D70                                                 l8625 1D36  
                                               l8617 1D12                                                 l8609 1CEC  
                                               l8641 1EEE                                                 l8633 1ECC  
                                               l9433 280C                                                 l9425 17BA  
                                               l7913 178E                                                 l7905 16C4  
                                               l8393 2874                                                 l8385 283C  
                                               l8529 2F9C                                                 l8457 2246  
                                               l8449 221A                                                 l9169 1C30  
                                               l7931 2960                                                 l7923 2912  
                                               l9435 1FF2                                                 l8299 23A8  
                                               l8571 273E                                                 l8547 1EB4  
                                               l8539 1E2C                                                 l8555 1D92  
                                               l8619 1D18                                                 l8651 1F34  
                                               l8643 1F00                                                 l8635 1ED4  
                                               l9427 2432                                                 l7907 16CC  
                                               l7915 17D0                                                 l8395 2882  
                                               l8387 284A                                                 l8459 22B4  
                                               l9437 18EC                                                 l7941 2C84  
                                               l7925 2912                                                 l8565 26C8  
                                               l8581 26C4                                                 l8557 1DB4  
                                               l8661 1F60                                                 l8653 1F3C  
                                               l8645 1F08                                                 l8637 1ED8  
                                               l8629 1EB8                                                 l9429 1A14  
                                               l7909 1730                                                 l8397 2890  
                                               l8389 2858                                                 l7943 2C9E  
                                               l7935 2C66                                                 l7927 292A  
                                               l8567 26FA                                                 l8575 264E  
                                               l8559 1DD6                                                 l8591 1C96  
                                               l8655 1F42                                                 l8647 1F10  
                                               l8639 1EE6                                                 l8399 2454  
                                               l7951 28B4                                                 l7881 180E  
                                               l7937 2C66                                                 l7929 2944  
                                               l7961 2552                                                 l8569 271C  
                                               l8577 2680                                                 l8593 1C9A  
                                               l8585 1C7A                                                 l8649 1F1E  
                                               l8657 1F48                                                 l7953 28D6  
                                               l7883 1816                                                 l7891 1902  
                                               l7875 17D4                                                 l7939 2C7C  
                                               l7963 2552                                                 l8579 26A2  
                                               l8595 1CA8                                                 l8587 1C80  
                                               l8659 1F58                                                 l7955 28DE  
                                               l7947 28A0                                                 l7885 187A  
                                               l7877 17D8                                                 l7965 2566  
                                               l8597 1CB0                                                 l8589 1C8E  
                                               l7981 2F6E                                                 l7973 2F4C  
                                               l7957 290E                                                 l7949 28A0  
                                               l7879 17EA                                                 l7967 256E  
                                               l8599 1CB4                                                 l7983 2F72  
                                               l7975 2F4C                                                 l7991 2F34  
                                               l7889 18D8                                                 l7969 25CC  
                                               l7977 2F5E                                                 l7993 2F3C  
                                               l7899 168A                                                 l7979 2F66  
                                               l7995 2F44                                                 l7987 2F22  
                                               l7997 2F48                                                 l7989 2F22  
                                               STR_1 10C2                                                 STR_4 1011  
                                               STR_5 10AC                                                 STR_6 10B9  
                                               STR_7 1071                                                 STR_8 1081  
                                               STR_9 1050                                                 _LATA 0F89  
                                               _LATB 0F8A                                                 _LATC 0F8B  
                                               _LATD 0F8C                                                 _LATE 0F8D  
                                               u4120 2B46                                                 u4121 2B42  
                                               u4130 2B80                                                 u4131 2B7C  
                                               u4140 24EE                                                 u4141 24EA  
                                               u4150 250E                                                 u4151 250A  
                                               u4160 252A                                                 u4161 2526  
                                               u4170 254A                                                 u4171 2546  
                                               u4180 2C42                                                 u4181 2C3E  
                                               u4190 2C62                                                 u4191 2C5E  
                                               u7000 1D08                                                 u7001 1D04  
                                               u7010 1D2E                                                 u7011 1D2A  
                                               u7020 1ECC                                                 u7021 1EC8  
                                               u7030 1EE6                                                 u7031 1EE2  
                                               u7040 1F00                                                 u7041 1EFC  
                                               u6410 17EA                                                 u7050 1F1E  
                                               u6411 17E6                                                 u7051 1F1A  
                                               u6420 180E                                                 u7060 1F34  
                                               u6500 17A8                                                 u6421 180A  
                                               u7061 1F30                                                 u7070 1F58  
                                               u6510 28B4                                                 u7071 1F54  
                                               u6511 28B0                                                 u6600 25E4  
                                               u6520 28D6                                                 u6601 25E0  
                                               u6521 28D2                                                 u6434 1836  
                                               u6530 2566                                                 u6450 16A0  
                                               u6610 2D92                                                 u6435 1832  
                                               u6531 2562                                                 u6451 169C  
                                               u6611 2D8E                                                 u6444 189A  
                                               u6620 22CA                                                 u6700 1988  
                                               u6460 16C4                                                 u6540 2F5E  
                                               u6445 1896                                                 u6621 22C6  
                                               u6701 1984                                                 u6461 16C0  
                                               u6541 2F5A                                                 u6630 22EE  
                                               u6710 19AA                                                 u6550 2F34  
                                               u6631 22EA                                                 u6711 19A6  
                                               u6551 2F30                                                 u6720 19CC  
                                               u6560 2F0A                                                 u6721 19C8  
                                               u6561 2F06                                                 i2l74 29F4  
                                               u6650 2754                                                 u6730 19EE  
                                               u6490 17A6                                                 u6474 16EC  
                                               u6570 2A0A                                                 u7530 1BD8  
                                               u6651 2750                                                 u6731 19EA  
                                               u6491 17A0                                                 u6475 16E8  
                                               u6571 2A06                                                 u7531 1BD4  
                                               u6820 2CBA                                                 u6644 2312  
                                               u6660 27CA                                                 u6484 1750  
                                               u6740 2DC0                                                 u6580 1556  
                                               u7540 1BF4                                                 u6821 2CB6  
                                               u6645 230E                                                 u6661 27C6  
                                               u6485 174C                                                 u6741 2DBC  
                                               u6581 1552                                                 u7541 1BF0  
                                               u6830 2CF0                                                 u6670 1918  
                                               u6750 2030                                                 u6590 15B6  
                                               u7550 1C12                                                 u7607 2C7E  
                                               u6831 2CEC                                                 u6671 1914  
                                               u6751 202C                                                 u6591 15B2  
                                               u7551 1C0E                                                 u6840 2DF6  
                                               u6680 193E                                                 u6760 23E4  
                                               u7560 1C30                                                 u6841 2DF2  
                                               u6681 193A                                                 u6761 23E0  
                                               u7561 1C2C                                                 u6770 2362  
                                               u6690 1960                                                 u6850 2468  
                                               u6771 235E                                                 u6691 195C  
                                               u6851 2464                                                 u6780 23CC  
                                               u6860 2186                                                 u6781 23C8  
                                               u6861 2182                                                 u6870 222E  
                                               u6871 222A                                                 u6960 1C8E  
                                               u6880 223E                                                 u6961 1C8A  
                                               u7577 15BE                                                 u6881 223A  
                                               u6970 1CA8                                                 u6971 1CA4  
                                               u7587 15E2                                                 u6980 1CCE  
                                               u6981 1CCA                                                 u7597 1600  
                                               u6990 1CEC                                                 u6991 1CE8  
                                               _TMR2 0FCC                        ??_lcd_4bit_send_enable_signal 0051  
                           _RB4_InterruptHandler_LOW 0015                                                 _seg1 00C8  
                                               _seg2 00C3                                                 _main 1B62  
                                   __end_of_CCP1_ISR 3070                                     __end_of_CCP2_ISR 306C  
                           _RB7_InterruptHandler_LOW 0009                                                 fsr2h 0FDA  
                                               indf2 0FDF                                                 fsr1l 0FE1  
                                               fsr2l 0FD9                                                 btemp 0061  
                             __end_of_led_initialize 2DAC                            ?_INT2_SetInterruptHandler 004D  
                                               prodh 0FF4                                                 prodl 0FF3  
              __end_of_TimeOfCarsMoveFinishedHandler 1EB8                        _TimeOfCarsMoveFinishedHandler 1DFC  
                                               start 000E                                        ?_led_turn_off 00EB  
                                       ___param_bank 0000                               ?_gpio_pin_toggle_logic 004D  
                               __end_of_Int0_APP_ISR 2BDA                                _lcd_4bit_send_command 2552  
                               _gpio_pin_write_logic 17D4                       lcd_4bit_send_string_pos@column 0103  
                              lcd_4bit_intialize@lcd 00F3                                lcd_4bit_intialize@ret 00F8  
                                   __end_of_INT0_ISR 2ECC                                     __end_of_INT1_ISR 2E9E  
                                   __end_of_INT2_ISR 2E70                            ?_Interrupt_INTx_Edge_Init 004D  
                                      _EUSART_RX_ISR 2ECC                                        _EUSART_TX_ISR 3064  
                                              ?_main 002F                             ??_application_initialize 0051  
                                    __end_of___awdiv 1D40                                                _EEADR 0FA9  
                                              STR_10 1061                                                STR_11 1071  
                                              STR_12 1090                                                STR_13 103C  
                                              STR_14 1027                                                STR_15 109F  
                                    __end_of___awmod 1F6A                                      ___awdiv@divisor 004F  
                                              i2l156 2F9A                                                i2l182 2AC8  
                                              i2l185 2D78                                                i2l288 2E40  
                                              i2l491 3072                                                i2l564 306E  
                                              i2l717 1B60                                                i2l569 306A  
                                              i2l923 3062                                                i2l919 305E  
                                    ___awdiv@counter 00E5                                                i2l992 2E9C  
                                              i2l987 2ECA                                                i2l997 2E6E  
                                              _RCREG 0FAE                                                _TMR0H 0FD7  
                                              _TMR1H 0FCF                                                _TMR0L 0FD6  
                                              _TMR1L 0FCE                                                _TMR3H 0FB3  
                                              _TMR3L 0FB2                                                _SPBRG 0FAF  
                                              _PORTA 0F80                                                _PORTB 0F81  
                                              _PORTC 0F82                                                _PORTD 0F83  
                                              _PORTE 0F84                                                _TRISA 0F92  
                                              _TRISB 0F93                                                _TRISC 0F94  
                                              _TRISD 0F95                                                _TRISE 0F96  
                                  Timer0_Init@_timer 00E5                                                _TXREG 0FAD  
                          lcd_4bit_set_cursor@coulmn 00F6                                     __end_of_TMR0_ISR 2D44  
                                   __end_of_TMR1_ISR 304E                                     __end_of_TMR2_ISR 3056  
                                   __end_of_TMR3_ISR 3042                                                _lcd_1 00BD  
                                              _lcd_2 009E                             Interrupt_INTx_Enable@ret 00E5  
                           _INT1_SetInterruptHandler 2F22                                                pclath 0FFA  
                                              pclatu 0FFB                                                tablat 0FF5  
                                              ttemp5 0062                                                ttemp6 0065  
                                              ttemp7 0069                                                status 0FD8  
                                   ??i2_led_turn_off 003B                                                wtemp8 0062  
                                    ?_led_initialize 00EF                               _Interrupt_INTx_Disable 2742  
                            _Timer0_Prescaler_Config 2B2C                                       ??_led_turn_off 0051  
          Interrupt_INTx_SetInterruptHandler@int_obj 00E5                                      __initialization 2ACA  
                                       __end_of_main 1C7A                            i2gpio_pin_write_logic@ret 0038  
                              ?_gpio_pin_write_logic 004D                                  i2lcd_send_4bits@lcd 0039  
                                i2lcd_send_4bits@ret 003C                          i2gpio_pin_write_logic@logic 0031  
                                          ??_ADC_ISR 002F                                       ?_EUSART_RX_ISR 002F  
                                     ?_EUSART_TX_ISR 002F                                        _lat_registers 008A  
                        INT1_SetInterruptHandler@ret 004F                                               ??_main 00FB  
                                      __activetblptr 0003                                _TMR3_InterruptHandler 00DB  
                                          ??_RB4_ISR 002F                                            ??_RB5_ISR 002F  
                                          ??_RB6_ISR 002F                                            ??_RB7_ISR 002F  
                   __end_of_seven_segement_intialize 2A62                           _EUSART_OverrunErrorHandler 00D3  
                                             _ADRESH 0FC4                                               _EEADRH 0FAA  
                                             _ADRESL 0FC3                                               _EEDATA 0FA8  
                                             _CCPR1H 0FBF                                               _CCPR1L 0FBE  
                                             _EECON2 0FA7                                     ___awdiv@dividend 004D  
                                             i2l1030 2FF0                                               i2l1008 3024  
                                             i2l1041 2FD6                                               i2l1019 300A  
                                             i2l1220 1120                                               i2l1230 1250  
                                             i2l1222 1140                                               i2l1240 1380  
                                             i2l1232 1294                                               i2l1224 1184  
                                             i2l1250 1420                                               i2l1242 13A0  
                                             i2l1234 12D8                                               i2l1226 11C8  
                                             i2l1218 1100                                               i2l1340 305A  
                                             i2l1260 1502                                               i2l1252 1440  
                                             i2l1244 13C0                                               i2l1236 131C  
                                             i2l1228 120C                                               i2l1406 2D42  
                                             i2l1254 1476                                               i2l1246 13E0  
                                             i2l1238 1360                                               i2l1263 1522  
                                             i2l1256 14AC                                               i2l1248 1400  
                                             i2l1258 14E2                                               i2l1526 3054  
                                             i2l1570 3040                                               i2l1475 304C  
                                             i2l1709 3066                                               i2l3413 3060  
                                             i2l1718 2EF6                                               i2l1822 2BD8  
                                             i2l3409 305C                                               i2l1818 2170  
                       Interrupt_INTx_Enable@int_obj 004D                                               i2l3443 3024  
                                             i2l3435 300E                                               i2l3451 2FF6  
                                             i2l3381 3070                                               i2l3437 3010  
                                             i2l3391 3068                                               i2l3471 2FF0  
                                             i2l3463 2FDA                                               i2l3385 306C  
                                             i2l6041 2E10                                               i2l3457 300A  
                                             i2l3449 2FF4                                               i2l3465 2FDC  
                                             i2l6043 2E14                                               i2l6045 2E26  
                                             i2l3485 2FD6                                               i2l3477 2FC0  
                                             i2l6221 2104                                               i2l6213 20C8  
                                             i2l6047 2E2E                                               i2l3479 2FC2  
                                             i2l6223 2110                                               i2l6231 2134  
                                             i2l6215 20D8                                               i2l6049 2E3E  
                                             i2l6241 2B98                                               i2l6225 211C  
                                             i2l6217 20EC                                               i2l6233 216E  
                                             i2l6243 2BB8                                               i2l6331 2EA0  
                                             i2l6227 2128                                               i2l6219 20FC  
                                             i2l7211 10E0                                               i2l6245 2BBC  
                                             i2l6333 2EB2                                               i2l6341 2E42  
                                             i2l7301 1356                                               i2l7221 112E  
                                             i2l7213 10EE                                               i2l5551 1A36  
                                             i2l5631 2AAA                                               i2l5623 2A62  
                                             i2l6247 2BD4                                               i2l6239 2B84  
                                             i2l6335 2E70                                               i2l6343 2E44  
                                             i2l6351 2D14                                               i2l7311 139C  
                                             i2l7303 135A                                               i2l7231 117A  
                                             i2l7223 113C                                               i2l7215 10FC  
                                             i2l5561 1AD8                                               i2l5553 1A3A  
                                             i2l5641 2D60                                               i2l5625 2A62  
                                             i2l5721 299E                                               i2l6329 2E9E  
                                             i2l6337 2E72                                               i2l6345 2E56  
                                             i2l6353 2D18                                               i2l6361 3048  
                                             i2l7321 13EE                                               i2l7313 13AE  
                                             i2l7305 136E                                               i2l7241 11BE  
                                             i2l7233 117E                                               i2l7225 114E  
                                             i2l7217 110E                                               i2l5555 1A4C  
                                             i2l5643 2D76                                               i2l5635 2D44  
                                             i2l5627 2A78                                               i2l5723 29F2  
                                             i2l5715 2984                                               i2l6339 2E84  
                                             i2l6355 2D2A                                               i2l6347 2D0E  
                                             i2l6371 3038                                               i2l7331 143C  
                                             i2l7323 13FC                                               i2l7315 13BC  
                                             i2l7307 137C                                               i2l7251 1202  
                                             i2l7243 11C2                                               i2l7235 1192  
                                             i2l7227 115C                                               i2l7219 111C  
                                             i2l5565 1B34                                               i2l5557 1A6E  
                                             i2l5637 2D44                                               i2l5629 2A90  
                                             i2l5717 2984                                               i2l5821 2F76  
                                             i2l6349 2D10                                               i2l6357 3042  
                                             i2l6365 304E                                               i2l6373 303C  
                                             i2l7341 1492                                               i2l7333 144E  
                                             i2l7325 140E                                               i2l7317 13CE  
                                             i2l7309 138E                                               i2l7261 1246  
                                             i2l7253 1206                                               i2l7245 11D6  
                                             i2l7237 11A0                                               i2l7229 116A  
                                             i2l6383 2ECC                                               i2l5559 1A76  
                                             i2l5567 1B5E                                               i2l5639 2D58  
                                             i2l5719 2996                                               i2l5823 2F86  
                                             i2l6359 3044                                               i2l7351 14F0  
                                             i2l7343 14A8                                               i2l7335 145C  
                                             i2l7327 141C                                               i2l7319 13DC  
                                             i2l7271 128A                                               i2l7263 124A  
                                             i2l7255 121A                                               i2l7247 11E4  
                                             i2l7239 11AE                                               i2l6393 2EE2  
                                             i2l6377 3064                                               i2l6369 3036  
                                             i2l7353 14FE                                               i2l7345 14BA  
                                             i2l7337 1472                                               i2l7329 142E  
                                             i2l7281 12CE                                               i2l7273 128E  
                                             i2l7265 125E                                               i2l7257 1228  
                                             i2l7249 11F2                                               i2l6395 2EF4  
                                             i2l6387 2ECC                                               i2l5819 2F76  
                                             i2l7355 1510                                               i2l7347 14C8  
                                             i2l7339 1484                                               i2l7291 1312  
                                             i2l7283 12D2                                               i2l7275 12A2  
                                             i2l7267 126C                                               i2l7259 1236  
                                             i2l6389 2EE0                                               i2l7357 151E  
                                             i2l7349 14DE                                               i2l7293 1316  
                                             i2l7285 12E6                                               i2l7277 12B0  
                                             i2l7269 127A                                               i2l6399 3056  
                                             i2l7295 132A                                               i2l7287 12F4  
                                             i2l7279 12BE                                               i2l7297 1338  
                                             i2l7289 1302                                               i2l7299 1346  
                                             i2l9441 1B48                                               i2l9439 2148  
                                             _SPBRGH 0FB0                                               _SSPADD 0FC8  
                                             _SSPBUF 0FC9                           ?_Interrupt_INTx_Clear_Flag 004D  
                   gpio_pin_toggle_logic@_pin_config 004D                     __end_of_lcd_4bit_send_string_pos 23D2  
                                      ??_Timer0_Init 00E7                               ?_lcd_4bit_send_command 00EF  
                        seven_segement_intialize@seg 00EF                         ?_Timer0_Register_Size_Config 004D  
                        seven_segement_intialize@ret 00F1                                            ??___awdiv 0051  
                     ?_TimeOfCarsMoveFinishedHandler 002F                                            ??___awmod 0051  
                  Timer0_Register_Size_Config@_timer 004D                                               clear_0 2B10  
                                             clear_1 2B1C                                     ___awdiv@quotient 00E7  
                                    ___awmod@divisor 004F                                               _timer0 00B0  
                                             isa$std 0001                                      ___awmod@counter 00E5  
                      __end_of_Interrupt_INTx_Enable 2454  __end_of_ReadyTimeOfPedestriansToMoveFinishedHandler 26C8  
      ??_ReadyTimeOfPedestriansToMoveFinishedHandler 0051         ?_ReadyTimeOfPedestriansToMoveFinishedHandler 002F  
        _ReadyTimeOfPedestriansToMoveFinishedHandler 264E              gpio_pin_direction_intialize@_pin_config 004D  
                                  ?i2_lcd_send_4bits 0039          _I2C_Report_Receive_Overflow_InterruptHandle 00E3  
                                          ?_CCP1_ISR 002F                                         __pdataCOMRAM 0051  
                                          ?_CCP2_ISR 002F                                         __mediumconst 0000  
                                 ??i2_lcd_send_4bits 003C                                               tblptrh 0FF7  
                                             tblptrl 0FF6                                               tblptru 0FF8  
           INT2_SetInterruptHandler@InterruptHandler 004D             INT1_SetInterruptHandler@InterruptHandler 004D  
           INT0_SetInterruptHandler@InterruptHandler 004D                            ??_Timer0_Prescaler_Config 004F  
                                         __accesstop 0080                              __end_of__initialization 2B22  
                                          ?_INT0_ISR 002F                                            ?_INT1_ISR 002F  
                                          ?_INT2_ISR 002F                                        ___rparam_used 0001  
                  __end_of_Interrupt_INTx_Clear_Flag 282E                                     ??_lcd_send_4bits 0051  
                                  led_initialize@led 00EF                                      _led_turn_toggle 2DDE  
                                  led_initialize@ret 00F1                              _lcd_4bit_send_char_data 25D0  
                                  i2led_turn_off@led 0039                              _Interrupt_INTx_Pin_Init 2DAC  
                                  i2led_turn_off@ret 003B                              i2_lcd_4bit_send_command 2984  
                                  RB5_ISR@RB5_Source 002F                               ??_gpio_pin_write_logic 00E5  
                                     __pcstackCOMRAM 002F                           _I2C_DefaultInterruptHandle 001F  
                                       __pidataBANK0 2BDA                                            ?_TMR0_ISR 002F  
                                    ??_EUSART_RX_ISR 002F                                            ?_TMR1_ISR 002F  
                                          ?_TMR2_ISR 002F                                            ?_TMR3_ISR 002F  
                                    ??_EUSART_TX_ISR 002F                        ??_Timer0_Register_Size_Config 004F  
                                __end_of_Timer0_Init 221A                             lcd_4bit_send_command@lcd 00EF  
                           lcd_4bit_send_command@ret 00F2                                           ??_CCP1_ISR 002F  
                                         ??_CCP2_ISR 002F                                 __end_of_led_turn_off 2D0E  
                   __end_of_INT2_SetInterruptHandler 2F22                          __end_of_Interrupt_INTx_Init 24D4  
                                       _Int0_APP_ISR 2B84                                           __pbssBANK0 00CD  
                              _INT0_InterruptHandler 001D                                           ??_INT0_ISR 0044  
                                         ??_INT1_ISR 0044                                           ??_INT2_ISR 0044  
                             _application_initialize 2F9C                                           __pnvCOMRAM 0060  
                   __end_of_Interrupt_INTx_Edge_Init 1A36                              ??_gpio_pin_toggle_logic 00E5  
                                         ??_TMR0_ISR 0046                                           ??_TMR1_ISR 002F  
                                         ??_TMR2_ISR 002F                                           ??_TMR3_ISR 002F  
                          ?_seven_segement_intialize 00EF                                              _ADC_ISR 3070  
         __end_of_Interrupt_INTx_SetInterruptHandler 20C8                 ??_Interrupt_INTx_SetInterruptHandler 00E7  
                ?_Interrupt_INTx_SetInterruptHandler 00E5                   _Interrupt_INTx_SetInterruptHandler 201C  
                                  RB7_ISR@RB7_Source 002F                                       _lcd_4bit_clear 2F76  
                         ??_INT1_SetInterruptHandler 004F                                              _RB4_ISR 300C  
                                            _RB5_ISR 2FF2                                              _RB6_ISR 2FD8  
                                            _RB7_ISR 2FBE                            ?_lcd_4bit_send_string_pos 0100  
                          _RB6_InterruptHandler_HIGH 000F                                        ?_MSSP_I2C_ISR 002F  
                                            i2u90_40 3006                                              i2u90_41 3002  
                                            i2u91_40 2FEC                                              i2u91_41 2FE8  
                                            i2u92_40 2FD2                                              i2u92_41 2FCE  
                                            i2u89_40 3020                                              i2u89_41 301C  
                                   ??_led_initialize 0051                                           _btn_values 1001  
                            ?_Interrupt_INTx_Disable 004D                              __end_of_led_turn_toggle 2E10  
                                     _tris_registers 0094                             _RB6_InterruptHandler_LOW 000D  
                          ??_lcd_4bit_send_char_data 0051                            ??_Interrupt_INTx_Pin_Init 0050  
                          ??i2_lcd_4bit_send_command 0040                            ?_INT0_SetInterruptHandler 004D  
                                      ?_MSSP_SPI_ISR 002F                                    ??_MSSP_I2C_BC_ISR 002F  
                               _ADC_InterruptHandler 0029                                              __Hparam 0000  
                                        _Timer0_Init 2172                                              __Lparam 0000  
                       ?_seven_segement_write_number 00EB                                 _SPI_InterruptHandler 00E1  
                                            ___awdiv 1C7A                                              ___awmod 1EB8  
                                       __psmallconst 1000                               __end_of_lcd_4bit_clear 2F9C  
                         __end_of_gpio_pin_intialize 2912                                              __pcinit 2ACA  
                                            __ramtop 1000                                              __ptext0 1B62  
                                            __ptext1 221A                                              __ptext2 2F9C  
                                            __ptext3 282E                                              __ptext4 29F6  
                                            __ptext5 2D7A                                              __ptext6 153E  
                                            __ptext7 28A0                                              __ptext8 2172  
                                            __ptext9 2C28                                            _T0CONbits 0FD5  
                                          _T1CONbits 0FCD                                       ??_MSSP_I2C_ISR 002F  
                                          _T2CONbits 0FCA                                              _keypad1 00A8  
                                          _T3CONbits 0FB1                                     ___awmod@dividend 004D  
                     __end_of_Interrupt_INTx_Disable 27B8                             ??i2_gpio_pin_write_logic 0032  
              lcd_4bit_intialize@l_data_pins_counter 00F7                                       __pintcode_body 10C6  
                               end_of_initialization 2B22                                    lcd_send_4bits@lcd 00EB  
                                  lcd_send_4bits@ret 00EE                             _INT2_SetInterruptHandler 2EF8  
                                         _next_state 002B                                              int_func 10C6  
                                     ??_MSSP_SPI_ISR 002F                           __end_of_lcd_4bit_intialize 168A  
                            ??_lcd_4bit_send_command 0051                          ??_Interrupt_INTx_Clear_Flag 004F  
                              gpio_pin_intialize@ret 00EE                                            _RCSTAbits 0FAB  
                                            postdec1 0FE5                                              postdec2 0FDD  
                           _Interrupt_INTx_Edge_Init 1906                                              postinc0 0FEE  
                                            postinc2 0FDE                        ??_seven_segement_write_number 0051  
                                     _ecu_layer_init 282E                                      ?_lcd_4bit_clear 0041  
                    __end_of_lcd_4bit_send_char_data 264E                                _INT1_InterruptHandler 001B  
                                          _PORTBbits 0F81                                     _InterruptManager 0008  
                      gpio_pin_intialize@_pin_config 00EB                          INT2_SetInterruptHandler@ret 004F  
                         lcd_4bit_send_char_data@lcd 00EF                           lcd_4bit_send_char_data@ret 00F2  
               __end_of_gpio_pin_direction_intialize 17D4                         _gpio_pin_direction_intialize 168A  
                                          _TRISCbits 0F94                        Timer0_Prescaler_Config@_timer 004D  
                        Interrupt_INTx_Edge_Init@ret 00E5                                     ?_led_turn_toggle 004F  
       __end_of_TimeOfPedestriansMoveFinishedHandler 1DFC               ??_TimeOfPedestriansMoveFinishedHandler 0051  
              ?_TimeOfPedestriansMoveFinishedHandler 002F                 _TimeOfPedestriansMoveFinishedHandler 1D40  
                                        _CCP1CONbits 0FBD                                          _CCP2CONbits 0FBA  
                                          _TXSTAbits 0FAC                           __end_of_Timer0_Mode_Select 2552  
               __end_of_TMR0_DefualtInterruptHandler 2172                         _TMR0_DefualtInterruptHandler 20C8  
                                       _led_turn_off 2CD8                                  _lcd_4bit_set_cursor 1F6A  
                        lcd_4bit_send_string_pos@lcd 0100                          lcd_4bit_send_string_pos@ret 00FA  
                        lcd_4bit_send_string_pos@row 0102                          lcd_4bit_send_string_pos@str 0104  
                             __end_of_ecu_layer_init 28A0                               Interrupt_INTx_Init@ret 00EF  
                      convert_uint16_to_string@F3702 00CD                                          _BAUDCONbits 0FB8  
                                      __pidataCOMRAM 3026                                       _timer0_preload 0005  
                      Interrupt_INTx_Disable@int_obj 004D                            _Interrupt_INTx_Clear_Flag 27B8  
                                     _timer1_preload 0003                                       _timer2_preload 002D  
                              _Interrupt_INTx_Enable 23D2                                  start_initialization 2ACA  
                                      ??_led_turn_on 0051                                       _timer3_preload 0001  
                       ?_lcd_4bit_send_enable_signal 00EB                                 ?_lcd_4bit_set_cursor 00F3  
  MSSP_SPI_Msster_Mode_GPIO_PIN_Configurations@F3600 0055     MSSP_SPI_Slave_Mode_GPIO_PIN_Configurations@F3611 0051  
   MSSP_SPI_Slave_Mode_GPIO_PIN_Configurations@F3605 0054     MSSP_SPI_Slave_Mode_GPIO_PIN_Configurations@F3607 0053  
   MSSP_SPI_Slave_Mode_GPIO_PIN_Configurations@F3609 0052    MSSP_SPI_Msster_Mode_GPIO_PIN_Configurations@F3596 0057  
  MSSP_SPI_Msster_Mode_GPIO_PIN_Configurations@F3598 0056                        ?_gpio_pin_direction_intialize 004D  
                            ?_application_initialize 002F                            _EUSART_RxInterruptHandler 00D7  
                                    led_turn_off@led 00EB                                      led_turn_off@ret 00ED  
                               __end_of_MSSP_I2C_ISR 3060                        __end_of_gpio_pin_toggle_logic 234E  
                    fp__TMR0_DefualtInterruptHandler 0000                        ?_TMR0_DefualtInterruptHandler 002F  
                  CCP1_Capture_Mode_Read_Value@F3598 0023                           _EUSART_FramingErrorHandler 00D5  
                                    ?_ecu_layer_init 002F                                          __pdataBANK0 0080  
                                           ?_ADC_ISR 002F                                __end_of_EUSART_RX_ISR 2EF8  
                              __end_of_EUSART_TX_ISR 3068                         lcd_4bit_send_command@command 00F1  
                               __end_of_MSSP_SPI_ISR 305C                                             ?_RB4_ISR 002F  
                                           ?_RB5_ISR 002F                                             ?_RB6_ISR 002F  
                                           ?_RB7_ISR 002F                                          __pbssCOMRAM 0001  
                              ??_lcd_4bit_set_cursor 00F7                     __end_of_INT0_SetInterruptHandler 2F76  
        _I2C_Report_Write_Collision_InterruptHandler 0021                                        __pcstackBANK0 00E5  
                                      __pcstackBANK1 0100                       __end_of_application_initialize 2FBE  
                           ?_Timer0_Prescaler_Config 004D                                      _MSSP_I2C_BC_ISR 3060  
                                __end_of_led_turn_on 2CD8                                _INT2_InterruptHandler 0019  
                    gpio_pin_direction_intialize@ret 004F                                _TMR0_InterruptHandler 0007  
                                          __pnvBANK0 00FD                                         ?_Timer0_Init 00E5  
                     seven_segement_write_number@seg 00EB                       seven_segement_write_number@ret 00EE  
                __end_of_Timer0_Register_Size_Config 2C66                          _Timer0_Register_Size_Config 2C28  
                                          __pintcode 0008                               i2_gpio_pin_write_logic 1A36  
                    gpio_pin_write_logic@_pin_config 004D                    i2gpio_pin_write_logic@_pin_config 002F  
                                           ?___awdiv 004D                                             ?___awmod 004D  
                          gpio_pin_write_logic@logic 004F                             _next_traffic_light_event 00FF  
                             ?_Interrupt_INTx_Enable 004D                                          __smallconst 1000  
                          _RB4_InterruptHandler_HIGH 0017                           ??_INT2_SetInterruptHandler 004F  
                                           _CCP1_ISR 306C                                             _CCP2_ISR 3068  
                          _RB7_InterruptHandler_HIGH 000B                                   _gpio_pin_intialize 28A0  
                    Interrupt_INTx_Edge_Init@int_obj 004D                       ??_gpio_pin_direction_intialize 00E5  
                         ??_Interrupt_INTx_Edge_Init 004F                             _RB5_InterruptHandler_LOW 0011  
                                           _INT0_ISR 2E9E                                             _INT1_ISR 2E70  
                                           _INT2_ISR 2E42                                     i2_lcd_send_4bits 2A62  
                                           _RB4_Flag 005B                                             _RB5_Flag 005A  
                                       _ready_yellow 005C                                             _RB6_Flag 0059  
                                           _RB7_Flag 0058                                    RB4_ISR@RB4_Source 002F  
                                ?_gpio_pin_intialize 00EB                            ?_INT1_SetInterruptHandler 004D  
                           __end_of_InterruptManager 153E                                             _PIE1bits 0F9D  
                                           _PIE2bits 0FA0                             _seven_segement_intialize 29F6  
                      __end_of_lcd_4bit_send_command 25D0                                             i2u420_40 2E26  
                                           i2u420_41 2E22                                             i2u431_40 20D8  
                                           i2u431_41 20D4                                             i2u432_40 20EC  
                                           i2u600_40 14BA                                             i2u432_41 20E8  
                                           i2u600_41 14B6                                             i2u433_40 2B98  
                                           i2u601_40 14C8                                             i2u433_41 2B94  
                                           i2u601_41 14C4                                             _PIR1bits 0F9E  
                                           i2u602_40 14DE                                             i2u602_41 14DA  
                                           i2u451_40 2EE0                                             i2u443_40 2EB2  
                                           i2u450_48 2D30                                             i2u603_40 14F0  
                                           i2u451_41 2EDC                                             i2u443_41 2EAE  
                                           i2u450_49 2D42                                             i2u603_41 14EC  
                                           _PIR2bits 0FA1                                             i2u452_40 2EF4  
                                           i2u604_40 14FE                                             i2u452_41 2EF0  
                                           i2u604_41 14FA                                             i2u444_48 2EB8  
                                           i2u445_40 2E84                                             i2u605_40 1510  
                                           i2u444_49 2ECA                                             i2u445_41 2E80  
                                           i2u605_41 150C                                             i2u606_40 151E  
                                           i2u550_40 116A                                             i2u542_40 10EE  
                                           i2u606_41 151A                                             i2u550_41 1166  
                                           i2u542_41 10EA                      ??i2_lcd_4bit_send_enable_signal 003B  
                                           i2u375_40 1A4C                                             i2u391_40 2996  
                                           i2u446_48 2E8A                                             i2u447_40 2E56  
                                           i2u551_40 117A                                             i2u543_40 10FC  
                                           i2u375_41 1A48                                             i2u391_41 2992  
                                           i2u446_49 2E9C                                             i2u447_41 2E52  
                                           i2u551_41 1176                                             i2u543_41 10F8  
                                           i2u376_40 1A6E                                             i2u560_40 121A  
                                           i2u552_40 1192                                             i2u544_40 110E  
                                           i2u376_41 1A6A                                             i2u560_41 1216  
                                           i2u552_41 118E                                             i2u544_41 110A  
                                           i2u448_48 2E5C                                             i2u449_40 2D2A  
                                           i2u561_40 1228                                             i2u553_40 11A0  
                                           i2u545_40 111C                                             i2u448_49 2E6E  
                                           i2u449_41 2D26                                             i2u561_41 1224  
                                           i2u553_41 119C                                             i2u545_41 1118  
                                           i2u377_44 1A96                                             i2u377_45 1A92  
                                           i2u570_40 12BE                                             i2u562_40 1236  
                                           i2u554_40 11AE                                             i2u546_40 112E  
                                           i2u570_41 12BA                                             i2u562_41 1232  
                                           i2u554_41 11AA                                             i2u546_41 112A  
                                           i2u378_44 1AF8                                             i2u378_45 1AF4  
                                           i2u571_40 12CE                                             i2u563_40 1246  
                                           i2u555_40 11BE                                             i2u547_40 113C  
                                           i2u571_41 12CA                                             i2u563_41 1242  
                                           i2u555_41 11BA                                             i2u547_41 1138  
                                           i2u580_40 136E                                             i2u572_40 12E6  
                                           i2u564_40 125E                                             i2u556_40 11D6  
                                           i2u548_40 114E                                             i2u580_41 136A  
                                           i2u572_41 12E2                                             i2u564_41 125A  
                                           i2u556_41 11D2                                             i2u548_41 114A  
                                           i2u581_40 137C                                             i2u573_40 12F4  
                                           i2u565_40 126C                                             i2u557_40 11E4  
                                           i2u549_40 115C                                             i2u581_41 1378  
                                           i2u573_41 12F0                                             i2u565_41 1268  
                                           i2u557_41 11E0                                             i2u549_41 1158  
                                           i2u590_40 140E                                             i2u582_40 138E  
                                           i2u574_40 1302                                             i2u566_40 127A  
                                           i2u558_40 11F2                                             i2u590_41 140A  
                                           i2u582_41 138A                                             i2u574_41 12FE  
                                           i2u566_41 1276                                             i2u558_41 11EE  
                                           i2u591_40 141C                                             i2u583_40 139C  
                                           i2u575_40 1312                                             i2u567_40 128A  
                                           i2u559_40 1202                                             i2u591_41 1418  
                                           i2u583_41 1398                                             i2u575_41 130E  
                                           i2u567_41 1286                                             i2u559_41 11FE  
                                           i2u592_40 142E                                             i2u584_40 13AE  
                                           i2u576_40 132A                                             i2u568_40 12A2  
                                           i2u592_41 142A                                             i2u584_41 13AA  
                                           i2u576_41 1326                                             i2u568_41 129E  
                                   ??_lcd_4bit_clear 0043                                             i2u593_40 143C  
                                           i2u585_40 13BC                                             i2u577_40 1338  
                                           i2u569_40 12B0                                             i2u593_41 1438  
                                           i2u585_41 13B8                                             i2u577_41 1334  
                                           i2u569_41 12AC                                             i2u761_47 2D5A  
                                           i2u594_40 144E                                             i2u586_40 13CE  
                                           i2u578_40 1346                                             i2u594_41 144A  
                                           i2u586_41 13CA                                             i2u578_41 1342  
                                           i2u595_40 145C                                             i2u587_40 13DC  
                                           i2u579_40 1356                                             i2u595_41 1458  
                                           i2u587_41 13D8                                             i2u579_41 1352  
                                           i2u596_40 1472                                             i2u588_40 13EE  
                                           i2u596_41 146E                                             i2u588_41 13EA  
                                           i2u597_40 1484                                             i2u589_40 13FC  
                                           i2u597_41 1480                                             i2u589_41 13F8  
                                           i2u598_40 1492                                             i2u598_41 148E  
                                           i2u599_40 14A8                       Interrupt_INTx_Pin_Init@int_obj 00EB  
                                           i2u599_41 14A4                                             _TMR0_ISR 2D0E  
                                           _TMR1_ISR 3042                                             _TMR2_ISR 304E  
                                           _TMR3_ISR 3036                                       i2_led_turn_off 2E10  
                                 _lcd_4bit_intialize 153E                       ??_TMR0_DefualtInterruptHandler 0044  
                           _lcd_4bit_send_string_pos 234E                                          _led_red_car 002E  
                                _traffic_light_event 0060                                           _ADCON0bits 0FC2  
                                         _ADCON1bits 0FC1                                           _ADCON2bits 0FC0  
                                _traffic_light_state 00FD                              __end_of_MSSP_I2C_BC_ISR 3064  
                    __end_of_Timer0_Prescaler_Config 2B84                                 ??_gpio_pin_intialize 00ED  
                                    fp__Int0_APP_ISR 0000                                  ?_lcd_4bit_intialize 00F3  
                                        _led_turn_on 2CA2                              gpio_pin_write_logic@ret 0050  
                                        _INTCON2bits 0FF1                                          _INTCON3bits 0FF0  
                           ?_lcd_4bit_send_char_data 00EF                                            copy_data0 2ADE  
                                          copy_data1 2AFE                             ?_Interrupt_INTx_Pin_Init 00EB  
                           ?i2_lcd_4bit_send_command 003D                             _INT0_SetInterruptHandler 2F4C  
                                         _EECON1bits 0FA6                                 ??_lcd_4bit_intialize 00F5  
                                     led_turn_on@led 00EB                                       led_turn_on@ret 00ED  
                                           __Hrparam 0000                               __end_ofi2_led_turn_off 2E42  
                                           __Lrparam 0000         __end_of_ReadyTimeOfCarsToMoveFinishedHandler 2742  
             ??_ReadyTimeOfCarsToMoveFinishedHandler 0051                ?_ReadyTimeOfCarsToMoveFinishedHandler 002F  
               _ReadyTimeOfCarsToMoveFinishedHandler 26C8                          INT0_SetInterruptHandler@ret 004F  
                                  RB6_ISR@RB6_Source 002F                                _CCP1_InterruptHandler 0027  
                             lcd_4bit_set_cursor@lcd 00F3                            Interrupt_INTx_Disable@ret 00E5  
                             lcd_4bit_set_cursor@ret 00F9                               lcd_4bit_set_cursor@row 00F5  
                         Interrupt_INTx_Init@int_obj 00ED                                        _seven_seg_cnt 002C  
                                 _Timer0_Mode_Select 24D4                                   __end_of_btn_values 1011  
                              _TMR1_InterruptHandler 00DF                                         _MSSP_I2C_ISR 305C  
                                ?_Timer0_Mode_Select 004D                                             __ptext10 2B2C  
                                           __ptext11 24D4                                             __ptext20 1906  
                                           __ptext12 2454                                             __ptext21 2742  
                                           __ptext13 201C                                             __ptext30 26C8  
                                           __ptext22 27B8                                             __ptext14 2EF8  
                                           __ptext31 2CA2                                             __ptext23 1EB8  
                                           __ptext15 2F22                                             __ptext32 2CD8  
                                           __ptext24 1C7A                                             __ptext16 2F4C  
                                           __ptext41 3036                                             __ptext33 234E  
                                           __ptext25 1D40                                             __ptext17 2DAC  
                                           __ptext50 3056                                             __ptext42 304E  
                                           __ptext34 1F6A                                             __ptext26 1DFC  
                                           __ptext18 168A                                             __ptext51 305C  
                                           __ptext43 3042                                             __ptext35 2552  
                                           __ptext27 2DDE                                             __ptext19 23D2  
                                           __ptext60 2A62                                             __ptext52 3060  
                                           __ptext44 2D0E                                             __ptext36 25D0  
                                           __ptext28 22B8                                             __ptext61 2D44  
                                           __ptext53 2E42                                             __ptext45 20C8  
                                           __ptext37 2912                                             __ptext29 264E  
                                           __ptext62 1A36                                             __ptext54 2E70  
                                           __ptext46 2FBE                                             __ptext38 2C66  
                                           __ptext63 3064                                             __ptext55 2E9E  
                                           __ptext47 2FD8                                             __ptext39 17D4  
                                           __ptext64 2ECC                                             __ptext56 2B84  
                                           __ptext48 2FF2                                             __ptext65 3068  
                                           __ptext57 2E10                                             __ptext49 300C  
                                           __ptext66 306C                                             __ptext58 2F76  
                                           __ptext67 3070                                             __ptext59 2984  
                                           __ptext68 0000                                        ?_Int0_APP_ISR 002F  
                                           _int0_obj 00B7                     Interrupt_INTx_Clear_Flag@int_obj 004D  
                                 led_turn_toggle@led 004F                                   led_turn_toggle@ret 00EA  
                                       _MSSP_SPI_ISR 3056                                     ??_ecu_layer_init 0051  
                __end_of_seven_segement_write_number 22B8                          _seven_segement_write_number 221A  
                               ??_Timer0_Mode_Select 004F                                      ?i2_led_turn_off 0039  
                                           isa$xinst 0000                                             int$flags 0061  
              __end_ofi2_lcd_4bit_send_enable_signal 2D7A                        i2_lcd_4bit_send_enable_signal 2D44  
                                     _lcd_send_4bits 2912                        i2lcd_send_4bits@_data_command 003B  
                                     Timer0_Init@ret 0050                             Timer0_Mode_Select@_timer 004D  
                           ??_Interrupt_INTx_Disable 004F                                     ?_MSSP_I2C_BC_ISR 002F  
                                _Interrupt_INTx_Init 2454                                           _INTCONbits 0FF2  
                    __end_of_Interrupt_INTx_Pin_Init 2DDE                      __end_ofi2_lcd_4bit_send_command 29F6  
                                   _led_green_people 005D                                       ??_Int0_APP_ISR 0044  
                       __end_of_gpio_pin_write_logic 1906                      ??_TimeOfCarsMoveFinishedHandler 0051  
                                           intlevel2 0000                       i2lcd_4bit_send_command@command 003F  
                  seven_segement_write_number@number 00ED                     i2lcd_4bit_send_enable_signal@lcd 0039  
                     lcd_4bit_send_enable_signal@lcd 00EB                     i2lcd_4bit_send_enable_signal@ret 003B  
                     lcd_4bit_send_enable_signal@ret 00ED                            _EUSART_TxInterruptHandler 00D9  
                       Interrupt_INTx_Clear_Flag@ret 00E5                                 ?_Interrupt_INTx_Init 00ED  
                            ?i2_gpio_pin_write_logic 002F                Interrupt_INTx_SetInterruptHandler@ret 0050  
                             __end_of_lcd_send_4bits 2984                           Interrupt_INTx_Pin_Init@ret 0050  
                              _gpio_pin_toggle_logic 22B8                              ??_Interrupt_INTx_Enable 004F  
                        __end_of_lcd_4bit_set_cursor 201C                             __end_ofi2_lcd_send_4bits 2ACA  
                                     _port_registers 0080                     __end_of_INT1_SetInterruptHandler 2F4C  
                                        _SSPCON1bits 0FC6                                          _SSPCON2bits 0FC5  
                         ??_seven_segement_intialize 0051                                _CCP2_InterruptHandler 0025  
                                      _led_green_car 005F                                ??_Interrupt_INTx_Init 0051  
                        lcd_4bit_send_char_data@data 00F1                       __end_ofi2_gpio_pin_write_logic 1B62  
                              _TMR2_InterruptHandler 00DD                                    ?_InterruptManager 002F  
                         ??_lcd_4bit_send_string_pos 0051                                       _led_initialize 2D7A  
