

Microchip MPLAB XC8 Assembler V2.41 build 20230208172133 
                                                                                               Wed Nov 29 09:40:56 2023

Microchip MPLAB XC8 C Compiler v2.41 (Free license) build 20230208172133 Og1 
     1                           	processor	18F4620
     2                           	fnconf	rparam,??,?,0
     3                           	pagewidth 120
     4                           	opt	flic
     5                           	psect	idataCOMRAM,global,class=CODE,delta=1,noexec
     6                           	psect	idataBANK0,global,class=CODE,delta=1,noexec
     7                           	psect	idataBANK1,global,class=CODE,delta=1,noexec
     8                           	psect	smallconst,global,reloc=2,class=SMALLCONST,delta=1,noexec
     9                           	psect	cinit,global,reloc=2,class=CODE,delta=1
    10                           	psect	bssCOMRAM,global,class=COMRAM,space=1,delta=1,lowdata,noexec
    11                           	psect	dataCOMRAM,global,class=COMRAM,space=1,delta=1,lowdata,noexec
    12                           	psect	bssBANK0,global,class=BANK0,space=1,delta=1,lowdata,noexec
    13                           	psect	dataBANK0,global,class=BANK0,space=1,delta=1,lowdata,noexec
    14                           	psect	bssBANK1,global,class=BANK1,space=1,delta=1,lowdata,noexec
    15                           	psect	dataBANK1,global,class=BANK1,space=1,delta=1,lowdata,noexec
    16                           	psect	cstackBANK1,global,class=BANK1,space=1,delta=1,lowdata,noexec
    17                           	psect	cstackBANK0,global,class=BANK0,space=1,delta=1,lowdata,noexec
    18                           	psect	cstackCOMRAM,global,class=COMRAM,space=1,delta=1,lowdata,noexec
    19                           	psect	text0,global,reloc=2,class=CODE,delta=1
    20                           	psect	text1,global,reloc=2,class=CODE,delta=1
    21                           	psect	text2,global,reloc=2,class=CODE,delta=1
    22                           	psect	text3,global,reloc=2,class=CODE,delta=1
    23                           	psect	text4,global,reloc=2,class=CODE,delta=1
    24                           	psect	text5,global,reloc=2,class=CODE,delta=1
    25                           	psect	text6,global,reloc=2,class=CODE,delta=1
    26                           	psect	text7,global,reloc=2,class=CODE,delta=1
    27                           	psect	text8,global,reloc=2,class=CODE,delta=1
    28                           	psect	text9,global,reloc=2,class=CODE,delta=1
    29                           	psect	text10,global,reloc=2,class=CODE,delta=1
    30                           	psect	text11,global,reloc=2,class=CODE,delta=1,inline
    31                           	psect	text12,global,reloc=2,class=CODE,delta=1,inline
    32                           	psect	text13,global,reloc=2,class=CODE,delta=1,inline
    33                           	psect	text14,global,reloc=2,class=CODE,delta=1
    34                           	psect	text15,global,reloc=2,class=CODE,delta=1,inline
    35                           	psect	text16,global,reloc=2,class=CODE,delta=1,inline
    36                           	psect	text17,global,reloc=2,class=CODE,delta=1,inline
    37                           	psect	text18,global,reloc=2,class=CODE,delta=1,inline
    38                           	psect	text19,global,reloc=2,class=CODE,delta=1
    39                           	psect	text20,global,reloc=2,class=CODE,delta=1
    40                           	psect	text21,global,reloc=2,class=CODE,delta=1,group=1
    41                           	psect	text22,global,reloc=2,class=CODE,delta=1,group=1
    42                           	psect	text23,global,reloc=2,class=CODE,delta=1,group=1
    43                           	psect	text24,global,reloc=2,class=CODE,delta=1,group=1
    44                           	psect	text25,global,reloc=2,class=CODE,delta=1
    45                           	psect	text26,global,reloc=2,class=CODE,delta=1
    46                           	psect	text27,global,reloc=2,class=CODE,delta=1
    47                           	psect	text28,global,reloc=2,class=CODE,delta=1
    48                           	psect	text29,global,reloc=2,class=CODE,delta=1
    49                           	psect	text30,global,reloc=2,class=CODE,delta=1
    50                           	psect	text31,global,reloc=2,class=CODE,delta=1
    51                           	psect	text32,global,reloc=2,class=CODE,delta=1
    52                           	psect	text33,global,reloc=2,class=CODE,delta=1
    53                           	psect	text34,global,reloc=2,class=CODE,delta=1
    54                           	psect	intcode,global,reloc=2,class=CODE,delta=1
    55                           	psect	intcode_body,global,reloc=2,class=CODE,delta=1
    56                           	psect	text36,global,reloc=2,class=CODE,delta=1
    57                           	psect	text37,global,reloc=2,class=CODE,delta=1
    58                           	psect	text38,global,reloc=2,class=CODE,delta=1
    59                           	psect	text39,global,reloc=2,class=CODE,delta=1
    60                           	psect	text40,global,reloc=2,class=CODE,delta=1
    61                           	psect	text41,global,reloc=2,class=CODE,delta=1
    62                           	psect	text42,global,reloc=2,class=CODE,delta=1
    63                           	psect	text43,global,reloc=2,class=CODE,delta=1
    64                           	psect	text44,global,reloc=2,class=CODE,delta=1
    65                           	psect	text45,global,reloc=2,class=CODE,delta=1
    66                           	psect	text46,global,reloc=2,class=CODE,delta=1
    67                           	psect	text47,global,reloc=2,class=CODE,delta=1
    68                           	psect	text48,global,reloc=2,class=CODE,delta=1
    69                           	psect	text49,global,reloc=2,class=CODE,delta=1
    70                           	psect	text50,global,reloc=2,class=CODE,delta=1
    71                           	psect	text51,global,reloc=2,class=CODE,delta=1
    72                           	psect	text52,global,reloc=2,class=CODE,delta=1
    73                           	psect	text53,global,reloc=2,class=CODE,delta=1
    74                           	psect	text54,global,reloc=2,class=CODE,delta=1
    75                           	psect	text55,global,reloc=2,class=CODE,delta=1
    76                           	psect	text56,global,reloc=2,class=CODE,delta=1
    77                           	psect	text57,global,reloc=2,class=CODE,delta=1
    78                           	psect	text58,global,reloc=2,class=CODE,delta=1
    79                           	psect	text59,global,reloc=2,class=CODE,delta=1
    80                           	psect	text60,global,reloc=2,class=CODE,delta=1
    81                           	psect	intsave_regs,global,class=BIGRAM,space=1,delta=1,noexec
    82                           	psect	text61,global,reloc=2,class=CODE,delta=1
    83                           	psect	rparam,global,class=COMRAM,space=1,delta=1,noexec
    84                           	psect	temp,global,ovrld,common,class=COMRAM,space=1,delta=1
    85                           	psect	idloc,global,abs,ovrld,class=IDLOC,space=5,delta=1,noexec
    86                           	psect	config,global,abs,ovrld,class=CONFIG,space=4,delta=1,noexec
    87   000000                     
    88                           ; Generated 23/03/2023 GMT
    89                           ; 
    90                           ; Copyright © 2023, Microchip Technology Inc. and its subsidiaries ("Microchip")
    91                           ; All rights reserved.
    92                           ; 
    93                           ; This software is developed by Microchip Technology Inc. and its subsidiaries ("Microch
      +                          ip").
    94                           ; 
    95                           ; Redistribution and use in source and binary forms, with or without modification, are
    96                           ; permitted provided that the following conditions are met:
    97                           ; 
    98                           ;     1. Redistributions of source code must retain the above copyright notice, this lis
      +                          t of
    99                           ;        conditions and the following disclaimer.
   100                           ; 
   101                           ;     2. Redistributions in binary form must reproduce the above copyright notice, this 
      +                          list
   102                           ;        of conditions and the following disclaimer in the documentation and/or other
   103                           ;        materials provided with the distribution. Publication is not required when
   104                           ;        this file is used in an embedded application.
   105                           ; 
   106                           ;     3. Microchip's name may not be used to endorse or promote products derived from th
      +                          is
   107                           ;        software without specific prior written permission.
   108                           ; 
   109                           ; THIS SOFTWARE IS PROVIDED BY MICROCHIP "AS IS" AND ANY EXPRESS OR IMPLIED WARRANTIES,
   110                           ; INCLUDING, BUT NOT LIMITED TO, THE IMPLIED WARRANTIES OF MERCHANTABILITY AND FITNESS F
      +                          OR
   111                           ; PURPOSE ARE DISCLAIMED.  IN NO EVENT SHALL MICROCHIP BE LIABLE FOR ANY DIRECT, INDIREC
      +                          T,
   112                           ; INCIDENTAL, SPECIAL, EXEMPLARY, OR CONSEQUENTIAL DAMAGES (INCLUDING BUT NOT LIMITED TO
   113                           ; PROCUREMENT OF SUBSTITUTE GOODS OR SERVICES; LOSS OF USE, DATA OR PROFITS; OR BUSINESS
   114                           ; INTERRUPTION) HOWSOEVER CAUSED AND ON ANY THEORY OF LIABILITY, WHETHER IN CONTRACT, ST
      +                          RICT
   115                           ; LIABILITY, OR TORT (INCLUDING NEGLIGENCE OR OTHERWISE) ARISING IN ANY WAY OUT OF THE U
      +                          SE OF
   116                           ; THIS SOFTWARE, EVEN IF ADVISED OF THE POSSIBILITY OF SUCH DAMAGE.
   117                           ; 
   118                           ; 
   119                           ; Code-generator required, PIC18F4620 Definitions
   120                           ; 
   121                           ; SFR Addresses
   122   000000                     
   123                           	psect	idataCOMRAM
   124   0038E4                     __pidataCOMRAM:
   125                           	callstack 0
   126                           
   127                           ;initializer for MSSP_SPI_Slave_Mode_GPIO_PIN_Configurations@F3611
   128   0038E4  68                 	db	104
   129                           
   130                           ;initializer for MSSP_SPI_Slave_Mode_GPIO_PIN_Configurations@F3609
   131   0038E5  5A                 	db	90
   132                           
   133                           ;initializer for MSSP_SPI_Slave_Mode_GPIO_PIN_Configurations@F3607
   134   0038E6  62                 	db	98
   135                           
   136                           ;initializer for MSSP_SPI_Slave_Mode_GPIO_PIN_Configurations@F3605
   137   0038E7  2A                 	db	42
   138                           
   139                           ;initializer for MSSP_SPI_Msster_Mode_GPIO_PIN_Configurations@F3600
   140   0038E8  1A                 	db	26
   141                           
   142                           ;initializer for MSSP_SPI_Msster_Mode_GPIO_PIN_Configurations@F3598
   143   0038E9  62                 	db	98
   144                           
   145                           ;initializer for MSSP_SPI_Msster_Mode_GPIO_PIN_Configurations@F3596
   146   0038EA  2A                 	db	42
   147                           
   148                           ;initializer for _RB7_Flag
   149   0038EB  01                 	db	1
   150                           
   151                           ;initializer for _RB6_Flag
   152   0038EC  01                 	db	1
   153                           
   154                           ;initializer for _RB5_Flag
   155   0038ED  01                 	db	1
   156                           
   157                           ;initializer for _RB4_Flag
   158   0038EE  01                 	db	1
   159                           
   160                           ;initializer for _buzzer
   161   0038EF  12                 	db	18
   162                           
   163                           	psect	idataBANK0
   164   0037B4                     __pidataBANK0:
   165                           	callstack 0
   166                           
   167                           ;initializer for _lat_registers
   168   0037B4  89                 	db	137
   169   0037B5  0F                 	db	15
   170   0037B6  8A                 	db	138
   171   0037B7  0F                 	db	15
   172   0037B8  8B                 	db	139
   173   0037B9  0F                 	db	15
   174   0037BA  8C                 	db	140
   175   0037BB  0F                 	db	15
   176   0037BC  8D                 	db	141
   177   0037BD  0F                 	db	15
   178                           
   179                           ;initializer for _tris_registers
   180   0037BE  92                 	db	146
   181   0037BF  0F                 	db	15
   182   0037C0  93                 	db	147
   183   0037C1  0F                 	db	15
   184   0037C2  94                 	db	148
   185   0037C3  0F                 	db	15
   186   0037C4  95                 	db	149
   187   0037C5  0F                 	db	15
   188   0037C6  96                 	db	150
   189   0037C7  0F                 	db	15
   190                           
   191                           ;initializer for _seg1
   192   0037C8  02                 	db	2
   193   0037C9  0A                 	db	10
   194   0037CA  12                 	db	18
   195   0037CB  1A                 	db	26
   196   0037CC  01                 	db	1
   197                           
   198                           ;initializer for _dc_motor_2
   199   0037CD  13                 	db	19
   200   0037CE  1B                 	db	27
   201                           
   202                           ;initializer for _i2c_obj
   203   0037CF  86A0               	dw	34464
   204   0037D1  0001               	dw	1
   205   0037D3  08                 	db	8
   206   0037D4  00                 	db	0
   207   0037D5  03                 	db	3
   208   0037D6  00                 	db	0
   209   0037D7  00                 	db	0
   210   0037D8  00                 	db	0
   211   0037D9  00                 	db	0
   212   0037DA  00                 	db	0
   213   0037DB  00                 	db	0
   214   0037DC  00                 	db	0
   215   0037DD  00                 	db	0
   216                           
   217                           ;initializer for _timer_obj
   218   0037DE  2C                 	db	low _Timer0_DefaultInterruptHandler
   219   0037DF  33                 	db	high _Timer0_DefaultInterruptHandler
   220   0037E0  00                 	db	0
   221   0037E1  04                 	db	4
   222   0037E2  0BDC               	dw	3036
   223   0037E4  05                 	db	5
   224                           
   225                           ;initializer for _dc_motor_1
   226   0037E5  02                 	db	2
   227   0037E6  0A                 	db	10
   228                           
   229                           	psect	idataBANK1
   230   00374C                     __pidataBANK1:
   231                           	callstack 0
   232                           
   233                           ;initializer for _port_registers
   234   00374C  80                 	db	128
   235   00374D  0F                 	db	15
   236   00374E  81                 	db	129
   237   00374F  0F                 	db	15
   238   003750  82                 	db	130
   239   003751  0F                 	db	15
   240   003752  83                 	db	131
   241   003753  0F                 	db	15
   242   003754  84                 	db	132
   243   003755  0F                 	db	15
   244                           
   245                           ;initializer for _lcd_2
   246   003756  32                 	db	50
   247   003757  3A                 	db	58
   248   003758  03                 	db	3
   249   003759  0B                 	db	11
   250   00375A  13                 	db	19
   251   00375B  1B                 	db	27
   252   00375C  23                 	db	35
   253   00375D  2B                 	db	43
   254   00375E  33                 	db	51
   255   00375F  3B                 	db	59
   256                           
   257                           ;initializer for _keypad1
   258   003760  32                 	db	50
   259   003761  3A                 	db	58
   260   003762  03                 	db	3
   261   003763  0B                 	db	11
   262   003764  53                 	db	83
   263   003765  5B                 	db	91
   264   003766  63                 	db	99
   265   003767  6B                 	db	107
   266                           
   267                           ;initializer for _lcd_1
   268   003768  02                 	db	2
   269   003769  0A                 	db	10
   270   00376A  12                 	db	18
   271   00376B  33                 	db	51
   272   00376C  3B                 	db	59
   273   00376D  2A                 	db	42
   274                           
   275                           ;initializer for _usart_obj
   276   00376E  2580               	dw	9600
   277   003770  0000               	dw	0
   278   003772  00                 	db	0
   279   003773  00                 	db	0
   280   003774  03                 	db	3
   281   003775  00                 	db	0
   282   003776  03                 	db	3
   283   003777  00                 	db	0
   284   003778  00                 	db	0
   285   003779  00                 	db	0
   286   00377A  8A                 	db	low _EUSART_RxDefaultInterruptHandler
   287   00377B  26                 	db	high _EUSART_RxDefaultInterruptHandler
   288   00377C  00                 	db	0
   289   00377D  00                 	db	0
   290   00377E  00                 	db	0
   291   00377F  00                 	db	0
   292                           
   293                           	psect	smallconst
   294   001000                     __psmallconst:
   295                           	callstack 0
   296   001000  00                 	db	0
   297   001001                     _btn_values:
   298                           	callstack 0
   299   001001  37                 	db	55
   300   001002  38                 	db	56
   301   001003  39                 	db	57
   302   001004  2F                 	db	47
   303   001005  34                 	db	52
   304   001006  35                 	db	53
   305   001007  36                 	db	54
   306   001008  2A                 	db	42
   307   001009  31                 	db	49
   308   00100A  32                 	db	50
   309   00100B  33                 	db	51
   310   00100C  2D                 	db	45
   311   00100D  23                 	db	35
   312   00100E  30                 	db	48
   313   00100F  3D                 	db	61
   314   001010  2B                 	db	43
   315   001011                     __end_of_btn_values:
   316                           	callstack 0
   317   000000                     _SPBRGH	set	4016
   318   000000                     _SPBRG	set	4015
   319   000000                     _TXREG	set	4013
   320   000000                     _TXSTAbits	set	4012
   321   000000                     _RCREG	set	4014
   322   000000                     _RCSTAbits	set	4011
   323   000000                     _TMR3L	set	4018
   324   000000                     _TMR3H	set	4019
   325   000000                     _TMR2	set	4044
   326   000000                     _T2CONbits	set	4042
   327   000000                     _TMR1L	set	4046
   328   000000                     _TMR1H	set	4047
   329   000000                     _T1CONbits	set	4045
   330   000000                     _TMR0L	set	4054
   331   000000                     _TMR0H	set	4055
   332   000000                     _T0CONbits	set	4053
   333   000000                     _INTCON2bits	set	4081
   334   000000                     _INTCON3bits	set	4080
   335   000000                     _SSPBUF	set	4041
   336   000000                     _SSPSTATbits	set	4039
   337   000000                     _SSPADD	set	4040
   338   000000                     _SSPCON2bits	set	4037
   339   000000                     _SSPCON1bits	set	4038
   340   000000                     _EECON2	set	4007
   341   000000                     _ADCON1bits	set	4033
   342   000000                     _ADRESL	set	4035
   343   000000                     _ADRESH	set	4036
   344   000000                     _INTCONbits	set	4082
   345   000000                     _TRISD	set	3989
   346   000000                     _TRISC	set	3988
   347   000000                     _PR2	set	4043
   348   000000                     _TRISB	set	3987
   349   000000                     _TRISE	set	3990
   350   000000                     _PORTBbits	set	3969
   351   000000                     _TRISCbits	set	3988
   352   000000                     _PIE1bits	set	3997
   353   000000                     _ADCON2bits	set	4032
   354   000000                     _ADCON0bits	set	4034
   355   000000                     _PORTE	set	3972
   356   000000                     _PORTD	set	3971
   357   000000                     _PORTC	set	3970
   358   000000                     _PORTB	set	3969
   359   000000                     _PORTA	set	3968
   360   000000                     _LATA	set	3977
   361   000000                     _TRISA	set	3986
   362   000000                     _PIE2bits	set	4000
   363   000000                     _CCP2CONbits	set	4026
   364   000000                     _CCP1CONbits	set	4029
   365   000000                     _PIR1bits	set	3998
   366   000000                     _CCPR1L	set	4030
   367   000000                     _CCPR2L	set	4027
   368   000000                     _EECON1bits	set	4006
   369   000000                     _EEDATA	set	4008
   370   000000                     _EEADR	set	4009
   371   000000                     _EEADRH	set	4010
   372   000000                     _T3CONbits	set	4017
   373   000000                     _PIR2bits	set	4001
   374   000000                     _LATE	set	3981
   375   000000                     _LATD	set	3980
   376   000000                     _LATC	set	3979
   377   000000                     _LATB	set	3978
   378   000000                     _BAUDCONbits	set	4024
   379   001011                     STR_1:
   380   001011  25                 	db	37
   381   001012  69                 	db	105	;'i'
   382   001013  00                 	db	0
   383   001014  00                 	db	0	; dummy byte at the end
   384   000000                     
   385                           ; #config settings
   386                           
   387                           	psect	cinit
   388   003144                     __pcinit:
   389                           	callstack 0
   390   003144                     start_initialization:
   391                           	callstack 0
   392   003144                     __initialization:
   393                           	callstack 0
   394                           
   395                           ; Initialize objects allocated to BANK1 (52 bytes)
   396                           ; load TBLPTR registers with __pidataBANK1
   397   003144  0E4C               	movlw	low __pidataBANK1
   398   003146  6EF6               	movwf	tblptrl,c
   399   003148  0E37               	movlw	high __pidataBANK1
   400   00314A  6EF7               	movwf	tblptrh,c
   401   00314C  0E00               	movlw	low (__pidataBANK1 shr (0+16))
   402   00314E  6EF8               	movwf	tblptru,c
   403   003150  EE01  F000         	lfsr	0,__pdataBANK1
   404   003154  EE10 F034          	lfsr	1,52
   405   003158                     copy_data0:
   406   003158  0009               	tblrd		*+
   407   00315A  CFF5 FFEE          	movff	tablat,postinc0
   408   00315E  50E5               	movf	postdec1,w,c
   409   003160  50E1               	movf	fsr1l,w,c
   410   003162  E1FA               	bnz	copy_data0
   411                           
   412                           ; Initialize objects allocated to BANK0 (51 bytes)
   413                           ; load TBLPTR registers with __pidataBANK0
   414   003164  0EB4               	movlw	low __pidataBANK0
   415   003166  6EF6               	movwf	tblptrl,c
   416   003168  0E37               	movlw	high __pidataBANK0
   417   00316A  6EF7               	movwf	tblptrh,c
   418   00316C  0E00               	movlw	low (__pidataBANK0 shr (0+16))
   419   00316E  6EF8               	movwf	tblptru,c
   420   003170  EE00  F0CB         	lfsr	0,__pdataBANK0
   421   003174  EE10 F033          	lfsr	1,51
   422   003178                     copy_data1:
   423   003178  0009               	tblrd		*+
   424   00317A  CFF5 FFEE          	movff	tablat,postinc0
   425   00317E  50E5               	movf	postdec1,w,c
   426   003180  50E1               	movf	fsr1l,w,c
   427   003182  E1FA               	bnz	copy_data1
   428                           
   429                           ; Initialize objects allocated to COMRAM (12 bytes)
   430                           ; load TBLPTR registers with __pidataCOMRAM
   431   003184  0EE4               	movlw	low __pidataCOMRAM
   432   003186  6EF6               	movwf	tblptrl,c
   433   003188  0E38               	movlw	high __pidataCOMRAM
   434   00318A  6EF7               	movwf	tblptrh,c
   435   00318C  0E00               	movlw	low (__pidataCOMRAM shr (0+16))
   436   00318E  6EF8               	movwf	tblptru,c
   437   003190  EE00  F056         	lfsr	0,__pdataCOMRAM
   438   003194  EE10 F00C          	lfsr	1,12
   439   003198                     copy_data2:
   440   003198  0009               	tblrd		*+
   441   00319A  CFF5 FFEE          	movff	tablat,postinc0
   442   00319E  50E5               	movf	postdec1,w,c
   443   0031A0  50E1               	movf	fsr1l,w,c
   444   0031A2  E1FA               	bnz	copy_data2
   445                           
   446                           ; Clear objects allocated to BANK1 (12 bytes)
   447   0031A4  EE01  F044         	lfsr	0,__pbssBANK1
   448   0031A8  0E0C               	movlw	12
   449   0031AA                     clear_0:
   450   0031AA  6AEE               	clrf	postinc0,c
   451   0031AC  06E8               	decf	wreg,f,c
   452   0031AE  E1FD               	bnz	clear_0
   453                           
   454                           ; Clear objects allocated to BANK0 (75 bytes)
   455   0031B0  EE00  F080         	lfsr	0,__pbssBANK0
   456   0031B4  0E4B               	movlw	75
   457   0031B6                     clear_1:
   458   0031B6  6AEE               	clrf	postinc0,c
   459   0031B8  06E8               	decf	wreg,f,c
   460   0031BA  E1FD               	bnz	clear_1
   461                           
   462                           ; Clear objects allocated to COMRAM (11 bytes)
   463   0031BC  EE00  F062         	lfsr	0,__pbssCOMRAM
   464   0031C0  0E0B               	movlw	11
   465   0031C2                     clear_2:
   466   0031C2  6AEE               	clrf	postinc0,c
   467   0031C4  06E8               	decf	wreg,f,c
   468   0031C6  E1FD               	bnz	clear_2
   469   0031C8                     end_of_initialization:
   470                           	callstack 0
   471   0031C8                     __end_of__initialization:
   472                           	callstack 0
   473   0031C8  906D               	bcf	int$flags,0,c	;clear compiler interrupt flag (level 1)
   474   0031CA  926D               	bcf	int$flags,1,c	;clear compiler interrupt flag (level 2)
   475   0031CC  0100               	movlb	0
   476   0031CE  EFBF  F011         	goto	_main	;jump to C main() function
   477                           
   478                           	psect	bssCOMRAM
   479   000062                     __pbssCOMRAM:
   480                           	callstack 0
   481   000062                     _timer1_preload:
   482                           	callstack 0
   483   000062                     	ds	2
   484   000064                     _no_of_tries:
   485                           	callstack 0
   486   000064                     	ds	1
   487   000065                     _action:
   488                           	callstack 0
   489   000065                     	ds	1
   490   000066                     _timer0_falg_deinit:
   491                           	callstack 0
   492   000066                     	ds	1
   493   000067                     _timer0_falg:
   494                           	callstack 0
   495   000067                     	ds	1
   496   000068                     _rec_falg:
   497                           	callstack 0
   498   000068                     	ds	1
   499   000069                     _rec_counter:
   500                           	callstack 0
   501   000069                     	ds	1
   502   00006A                     _timer2_preload:
   503                           	callstack 0
   504   00006A                     	ds	1
   505   00006B                     _uart_choice:
   506                           	callstack 0
   507   00006B                     	ds	1
   508   00006C                     _slave_ack:
   509                           	callstack 0
   510   00006C                     	ds	1
   511                           
   512                           	psect	dataCOMRAM
   513   000056                     __pdataCOMRAM:
   514                           	callstack 0
   515   000056                     MSSP_SPI_Slave_Mode_GPIO_PIN_Configurations@F3611:
   516                           	callstack 0
   517   000056                     	ds	1
   518   000057                     MSSP_SPI_Slave_Mode_GPIO_PIN_Configurations@F3609:
   519                           	callstack 0
   520   000057                     	ds	1
   521   000058                     MSSP_SPI_Slave_Mode_GPIO_PIN_Configurations@F3607:
   522                           	callstack 0
   523   000058                     	ds	1
   524   000059                     MSSP_SPI_Slave_Mode_GPIO_PIN_Configurations@F3605:
   525                           	callstack 0
   526   000059                     	ds	1
   527   00005A                     MSSP_SPI_Msster_Mode_GPIO_PIN_Configurations@F3600:
   528                           	callstack 0
   529   00005A                     	ds	1
   530   00005B                     MSSP_SPI_Msster_Mode_GPIO_PIN_Configurations@F3598:
   531                           	callstack 0
   532   00005B                     	ds	1
   533   00005C                     MSSP_SPI_Msster_Mode_GPIO_PIN_Configurations@F3596:
   534                           	callstack 0
   535   00005C                     	ds	1
   536   00005D                     _RB7_Flag:
   537                           	callstack 0
   538   00005D                     	ds	1
   539   00005E                     _RB6_Flag:
   540                           	callstack 0
   541   00005E                     	ds	1
   542   00005F                     _RB5_Flag:
   543                           	callstack 0
   544   00005F                     	ds	1
   545   000060                     _RB4_Flag:
   546                           	callstack 0
   547   000060                     	ds	1
   548   000061                     _buzzer:
   549                           	callstack 0
   550   000061                     	ds	1
   551                           
   552                           	psect	bssBANK0
   553   000080                     __pbssBANK0:
   554                           	callstack 0
   555   000080                     _user_received_password:
   556                           	callstack 0
   557   000080                     	ds	6
   558   000086                     _eeprom_value1:
   559                           	callstack 0
   560   000086                     	ds	4
   561   00008A                     _EUSART_OverrunErrorHandler:
   562                           	callstack 0
   563   00008A                     	ds	2
   564   00008C                     _EUSART_FramingErrorHandler:
   565                           	callstack 0
   566   00008C                     	ds	2
   567   00008E                     _EUSART_RxInterruptHandler:
   568                           	callstack 0
   569   00008E                     	ds	2
   570   000090                     _EUSART_TxInterruptHandler:
   571                           	callstack 0
   572   000090                     	ds	2
   573   000092                     _timer3_preload:
   574                           	callstack 0
   575   000092                     	ds	2
   576   000094                     _TMR3_InterruptHandler:
   577                           	callstack 0
   578   000094                     	ds	2
   579   000096                     _TMR2_InterruptHandler:
   580                           	callstack 0
   581   000096                     	ds	2
   582   000098                     _TMR1_InterruptHandler:
   583                           	callstack 0
   584   000098                     	ds	2
   585   00009A                     _timer0_preload:
   586                           	callstack 0
   587   00009A                     	ds	2
   588   00009C                     _TMR0_InterruptHandler:
   589                           	callstack 0
   590   00009C                     	ds	2
   591   00009E                     _SPI_InterruptHandler:
   592                           	callstack 0
   593   00009E                     	ds	2
   594   0000A0                     _RB7_InterruptHandler_LOW:
   595                           	callstack 0
   596   0000A0                     	ds	2
   597   0000A2                     _RB7_InterruptHandler_HIGH:
   598                           	callstack 0
   599   0000A2                     	ds	2
   600   0000A4                     _RB6_InterruptHandler_LOW:
   601                           	callstack 0
   602   0000A4                     	ds	2
   603   0000A6                     _RB6_InterruptHandler_HIGH:
   604                           	callstack 0
   605   0000A6                     	ds	2
   606   0000A8                     _RB5_InterruptHandler_LOW:
   607                           	callstack 0
   608   0000A8                     	ds	2
   609   0000AA                     _RB5_InterruptHandler_HIGH:
   610                           	callstack 0
   611   0000AA                     	ds	2
   612   0000AC                     _RB4_InterruptHandler_LOW:
   613                           	callstack 0
   614   0000AC                     	ds	2
   615   0000AE                     _RB4_InterruptHandler_HIGH:
   616                           	callstack 0
   617   0000AE                     	ds	2
   618   0000B0                     _INT2_InterruptHandler:
   619                           	callstack 0
   620   0000B0                     	ds	2
   621   0000B2                     _INT1_InterruptHandler:
   622                           	callstack 0
   623   0000B2                     	ds	2
   624   0000B4                     _INT0_InterruptHandler:
   625                           	callstack 0
   626   0000B4                     	ds	2
   627   0000B6                     _I2C_Report_Receive_Overflow_InterruptHandle:
   628                           	callstack 0
   629   0000B6                     	ds	2
   630   0000B8                     _I2C_DefaultInterruptHandle:
   631                           	callstack 0
   632   0000B8                     	ds	2
   633   0000BA                     _I2C_Report_Write_Collision_InterruptHandler:
   634                           	callstack 0
   635   0000BA                     	ds	2
   636   0000BC                     _CCP2_InterruptHandler:
   637                           	callstack 0
   638   0000BC                     	ds	2
   639   0000BE                     _CCP1_InterruptHandler:
   640                           	callstack 0
   641   0000BE                     	ds	2
   642   0000C0                     _ADC_InterruptHandler:
   643                           	callstack 0
   644   0000C0                     	ds	2
   645   0000C2                     _close_door__falg:
   646                           	callstack 0
   647   0000C2                     	ds	1
   648   0000C3                     _open_door_falg:
   649                           	callstack 0
   650   0000C3                     	ds	1
   651   0000C4                     _keypad_value:
   652                           	callstack 0
   653   0000C4                     	ds	1
   654   0000C5                     _ret_password:
   655                           	callstack 0
   656   0000C5                     	ds	6
   657                           
   658                           	psect	dataBANK0
   659   0000CB                     __pdataBANK0:
   660                           	callstack 0
   661   0000CB                     _lat_registers:
   662                           	callstack 0
   663   0000CB                     	ds	10
   664   0000D5                     _tris_registers:
   665                           	callstack 0
   666   0000D5                     	ds	10
   667   0000DF                     _seg1:
   668                           	callstack 0
   669   0000DF                     	ds	5
   670   0000E4                     _dc_motor_2:
   671                           	callstack 0
   672   0000E4                     	ds	2
   673   0000E6                     _i2c_obj:
   674                           	callstack 0
   675   0000E6                     	ds	15
   676   0000F5                     _timer_obj:
   677                           	callstack 0
   678   0000F5                     	ds	7
   679   0000FC                     _dc_motor_1:
   680                           	callstack 0
   681   0000FC                     	ds	2
   682                           
   683                           	psect	bssBANK1
   684   000144                     __pbssBANK1:
   685                           	callstack 0
   686   000144                     _saved_password:
   687                           	callstack 0
   688   000144                     	ds	6
   689   00014A                     	ds	6
   690                           
   691                           	psect	dataBANK1
   692   000100                     __pdataBANK1:
   693                           	callstack 0
   694   000100                     _port_registers:
   695                           	callstack 0
   696   000100                     	ds	10
   697   00010A                     _lcd_2:
   698                           	callstack 0
   699   00010A                     	ds	10
   700   000114                     _keypad1:
   701                           	callstack 0
   702   000114                     	ds	8
   703   00011C                     _lcd_1:
   704                           	callstack 0
   705   00011C                     	ds	6
   706   000122                     _usart_obj:
   707                           	callstack 0
   708   000122                     	ds	18
   709                           
   710                           	psect	cstackBANK1
   711   000134                     __pcstackBANK1:
   712                           	callstack 0
   713   000134                     MSSP_I2C_Init@i2c_obj:
   714                           	callstack 0
   715   000134                     EUSART_Baud_Rate_Calculation@Baud_Rate_Temp:
   716                           	callstack 0
   717                           
   718                           ; 4 bytes @ 0x0
   719   000134                     	ds	4
   720   000138                     _EUSART_Baud_Rate_Calculation$5686:
   721                           	callstack 0
   722                           
   723                           ; 4 bytes @ 0x4
   724   000138                     	ds	4
   725   00013C                     EUSART_ASYNC_Init@_eusart:
   726                           	callstack 0
   727                           
   728                           ; 2 bytes @ 0x8
   729   00013C                     	ds	2
   730   00013E                     EUSART_ASYNC_Init@ret:
   731                           	callstack 0
   732                           
   733                           ; 1 bytes @ 0xA
   734   00013E                     	ds	1
   735   00013F                     ??_main:
   736                           
   737                           ; 1 bytes @ 0xB
   738   00013F                     	ds	2
   739   000141                     main@i:
   740                           	callstack 0
   741                           
   742                           ; 1 bytes @ 0xD
   743   000141                     	ds	1
   744   000142                     main@i_4695:
   745                           	callstack 0
   746                           
   747                           ; 1 bytes @ 0xE
   748   000142                     	ds	1
   749   000143                     main@i_4697:
   750                           	callstack 0
   751                           
   752                           ; 1 bytes @ 0xF
   753   000143                     	ds	1
   754                           
   755                           	psect	cstackBANK0
   756   0000FE                     __pcstackBANK0:
   757                           	callstack 0
   758   0000FE                     ??_I2C_Master_Mode_Clock_Configurations:
   759   0000FE                     ??_EUSART_Baud_Rate_Calculation:
   760                           
   761                           ; 1 bytes @ 0x0
   762   0000FE                     	ds	1
   763   0000FF                     MSSP_I2C_Init@ret:
   764                           	callstack 0
   765                           
   766                           ; 1 bytes @ 0x1
   767   0000FF                     	ds	1
   768                           
   769                           	psect	cstackCOMRAM
   770   000001                     __pcstackCOMRAM:
   771                           	callstack 0
   772   000001                     RB4_ISR@RB4_Source:
   773                           	callstack 0
   774   000001                     RB5_ISR@RB5_Source:
   775                           	callstack 0
   776   000001                     RB6_ISR@RB6_Source:
   777                           	callstack 0
   778   000001                     RB7_ISR@RB7_Source:
   779                           	callstack 0
   780   000001                     EUSART_ASYNC_ReadByteNonBlocking@_data:
   781                           	callstack 0
   782   000001                     i2gpio_pin_write_logic@_pin_config:
   783                           	callstack 0
   784                           
   785                           ; 2 bytes @ 0x0
   786   000001                     	ds	2
   787   000003                     EUSART_ASYNC_ReadByteNonBlocking@ret:
   788                           	callstack 0
   789   000003                     i2gpio_pin_write_logic@logic:
   790                           	callstack 0
   791                           
   792                           ; 1 bytes @ 0x2
   793   000003                     	ds	1
   794   000004                     ??i2_gpio_pin_write_logic:
   795                           
   796                           ; 1 bytes @ 0x3
   797   000004                     	ds	6
   798   00000A                     dc_motor_move_left@_dc_motor:
   799                           	callstack 0
   800   00000A                     dc_motor_stop@_dc_motor:
   801                           	callstack 0
   802                           
   803                           ; 2 bytes @ 0x9
   804   00000A                     	ds	2
   805   00000C                     ??_InterruptManager:
   806                           
   807                           ; 1 bytes @ 0xB
   808   00000C                     	ds	7
   809   000013                     ?___xxtofl:
   810                           	callstack 0
   811   000013                     EUSART_ASYNC_WriteByteNonBlocking@_data:
   812                           	callstack 0
   813   000013                     gpio_pin_direction_intialize@_pin_config:
   814                           	callstack 0
   815   000013                     gpio_pin_write_logic@_pin_config:
   816                           	callstack 0
   817   000013                     MSSP_I2C_Master_Send_Start@i2c_obj:
   818                           	callstack 0
   819   000013                     MSSP_I2C_Master_Send_Repeated_Start@i2c_obj:
   820                           	callstack 0
   821   000013                     MSSP_I2C_Master_Send_Stop@i2c_obj:
   822                           	callstack 0
   823   000013                     MSSP_I2C_Master_Write_Blocking@i2c_obj:
   824                           	callstack 0
   825   000013                     MSSP_I2C_Master_Read_Blocking@i2c_obj:
   826                           	callstack 0
   827   000013                     I2C_Slave_Mode_Configurations@i2c_obj:
   828                           	callstack 0
   829   000013                     MSSP_I2C_Interrupt_Configurations@i2c_obj:
   830                           	callstack 0
   831   000013                     Timer0_Prescaler_Config@_timer:
   832                           	callstack 0
   833   000013                     Timer0_Mode_Select@_timer:
   834                           	callstack 0
   835   000013                     Timer0_Register_Size_Config@_timer:
   836                           	callstack 0
   837   000013                     EUSART_ASYNC_TX_Init@_eusart:
   838                           	callstack 0
   839   000013                     EUSART_ASYNC_RX_Init@_eusart:
   840                           	callstack 0
   841   000013                     ___xxtofl@val:
   842                           	callstack 0
   843                           
   844                           ; 4 bytes @ 0x12
   845   000013                     	ds	2
   846   000015                     ??_gpio_pin_direction_intialize:
   847   000015                     ??_I2C_Slave_Mode_Configurations:
   848   000015                     ??_Timer0_Prescaler_Config:
   849   000015                     gpio_pin_write_logic@logic:
   850                           	callstack 0
   851   000015                     MSSP_I2C_Master_Send_Start@ret:
   852                           	callstack 0
   853   000015                     MSSP_I2C_Master_Send_Repeated_Start@ret:
   854                           	callstack 0
   855   000015                     MSSP_I2C_Master_Send_Stop@ret:
   856                           	callstack 0
   857   000015                     MSSP_I2C_Master_Write_Blocking@i2c_data:
   858                           	callstack 0
   859   000015                     MSSP_I2C_Master_Read_Blocking@ack:
   860                           	callstack 0
   861   000015                     check_password_ctrl@i:
   862                           	callstack 0
   863                           
   864                           ; 1 bytes @ 0x14
   865   000015                     	ds	1
   866   000016                     ??_gpio_pin_write_logic:
   867   000016                     MSSP_I2C_Master_Write_Blocking@_ack:
   868                           	callstack 0
   869   000016                     MSSP_I2C_Master_Read_Blocking@i2c_data:
   870                           	callstack 0
   871   000016                     Timer0_Init@_timer:
   872                           	callstack 0
   873                           
   874                           ; 2 bytes @ 0x15
   875   000016                     	ds	1
   876   000017                     ??___xxtofl:
   877                           
   878                           ; 1 bytes @ 0x16
   879   000017                     	ds	1
   880   000018                     ??_Timer0_Init:
   881   000018                     MSSP_I2C_Master_Write_Blocking@ret:
   882                           	callstack 0
   883   000018                     MSSP_I2C_Master_Read_Blocking@ret:
   884                           	callstack 0
   885                           
   886                           ; 1 bytes @ 0x17
   887   000018                     	ds	1
   888   000019                     MSSP_I2C_EXT_Device_Write_1_Byte@i2c_obj:
   889                           	callstack 0
   890   000019                     MSSP_I2C_EXT_Device_Read_1_Byte@i2c_obj:
   891                           	callstack 0
   892                           
   893                           ; 2 bytes @ 0x18
   894   000019                     	ds	1
   895   00001A                     Timer0_Init@ret:
   896                           	callstack 0
   897                           
   898                           ; 1 bytes @ 0x19
   899   00001A                     	ds	1
   900   00001B                     gpio_pin_direction_intialize@ret:
   901                           	callstack 0
   902   00001B                     MSSP_I2C_EXT_Device_Write_1_Byte@slave_add:
   903                           	callstack 0
   904   00001B                     MSSP_I2C_EXT_Device_Read_1_Byte@slave_add:
   905                           	callstack 0
   906   00001B                     ___xxtofl@sign:
   907                           	callstack 0
   908                           
   909                           ; 1 bytes @ 0x1A
   910   00001B                     	ds	1
   911   00001C                     gpio_pin_write_logic@ret:
   912                           	callstack 0
   913   00001C                     MSSP_I2C_EXT_Device_Write_1_Byte@byte_address:
   914                           	callstack 0
   915   00001C                     MSSP_I2C_EXT_Device_Read_1_Byte@byte_address:
   916                           	callstack 0
   917   00001C                     ___xxtofl@exp:
   918                           	callstack 0
   919                           
   920                           ; 1 bytes @ 0x1B
   921   00001C                     	ds	1
   922   00001D                     MSSP_I2C_EXT_Device_Write_1_Byte@_data:
   923                           	callstack 0
   924   00001D                     dc_motor_move_right@_dc_motor:
   925                           	callstack 0
   926   00001D                     gpio_pin_intialize@_pin_config:
   927                           	callstack 0
   928   00001D                     MSSP_I2C_EXT_Device_Read_1_Byte@_data:
   929                           	callstack 0
   930   00001D                     ___xxtofl@arg:
   931                           	callstack 0
   932                           
   933                           ; 4 bytes @ 0x1C
   934   00001D                     	ds	1
   935   00001E                     MSSP_I2C_EXT_Device_Write_1_Byte@slave_ack:
   936                           	callstack 0
   937                           
   938                           ; 2 bytes @ 0x1D
   939   00001E                     	ds	1
   940   00001F                     ??_gpio_pin_intialize:
   941   00001F                     MSSP_I2C_EXT_Device_Read_1_Byte@slave_ack:
   942                           	callstack 0
   943                           
   944                           ; 2 bytes @ 0x1E
   945   00001F                     	ds	1
   946   000020                     ??_MSSP_I2C_EXT_Device_Write_1_Byte:
   947   000020                     gpio_pin_intialize@ret:
   948                           	callstack 0
   949                           
   950                           ; 1 bytes @ 0x1F
   951   000020                     	ds	1
   952   000021                     ??_MSSP_I2C_EXT_Device_Read_1_Byte:
   953   000021                     ?___fldiv:
   954                           	callstack 0
   955   000021                     dc_motor_initialize@_dc_motor:
   956                           	callstack 0
   957   000021                     ___fldiv@b:
   958                           	callstack 0
   959                           
   960                           ; 4 bytes @ 0x20
   961   000021                     	ds	1
   962   000022                     MSSP_I2C_EXT_Device_Read_1_Byte@ret:
   963                           	callstack 0
   964                           
   965                           ; 1 bytes @ 0x21
   966   000022                     	ds	1
   967   000023                     dc_motor_initialize@ret:
   968                           	callstack 0
   969                           
   970                           ; 1 bytes @ 0x22
   971   000023                     	ds	1
   972   000024                     
   973                           ; 1 bytes @ 0x23
   974   000024                     	ds	1
   975   000025                     ___fldiv@a:
   976                           	callstack 0
   977                           
   978                           ; 4 bytes @ 0x24
   979   000025                     	ds	4
   980   000029                     ??___fldiv:
   981                           
   982                           ; 1 bytes @ 0x28
   983   000029                     	ds	4
   984   00002D                     ___fldiv@rem:
   985                           	callstack 0
   986                           
   987                           ; 4 bytes @ 0x2C
   988   00002D                     	ds	4
   989   000031                     ___fldiv@sign:
   990                           	callstack 0
   991                           
   992                           ; 1 bytes @ 0x30
   993   000031                     	ds	1
   994   000032                     ___fldiv@new_exp:
   995                           	callstack 0
   996                           
   997                           ; 2 bytes @ 0x31
   998   000032                     	ds	2
   999   000034                     ___fldiv@grs:
  1000                           	callstack 0
  1001                           
  1002                           ; 4 bytes @ 0x33
  1003   000034                     	ds	4
  1004   000038                     ___fldiv@bexp:
  1005                           	callstack 0
  1006                           
  1007                           ; 1 bytes @ 0x37
  1008   000038                     	ds	1
  1009   000039                     ___fldiv@aexp:
  1010                           	callstack 0
  1011                           
  1012                           ; 1 bytes @ 0x38
  1013   000039                     	ds	1
  1014   00003A                     ?___fladd:
  1015                           	callstack 0
  1016   00003A                     ___fladd@b:
  1017                           	callstack 0
  1018                           
  1019                           ; 4 bytes @ 0x39
  1020   00003A                     	ds	4
  1021   00003E                     ___fladd@a:
  1022                           	callstack 0
  1023                           
  1024                           ; 4 bytes @ 0x3D
  1025   00003E                     	ds	4
  1026   000042                     ??___fladd:
  1027                           
  1028                           ; 1 bytes @ 0x41
  1029   000042                     	ds	4
  1030   000046                     ___fladd@signs:
  1031                           	callstack 0
  1032                           
  1033                           ; 1 bytes @ 0x45
  1034   000046                     	ds	1
  1035   000047                     ___fladd@aexp:
  1036                           	callstack 0
  1037                           
  1038                           ; 1 bytes @ 0x46
  1039   000047                     	ds	1
  1040   000048                     ___fladd@bexp:
  1041                           	callstack 0
  1042                           
  1043                           ; 1 bytes @ 0x47
  1044   000048                     	ds	1
  1045   000049                     ___fladd@grs:
  1046                           	callstack 0
  1047                           
  1048                           ; 1 bytes @ 0x48
  1049   000049                     	ds	1
  1050   00004A                     ?___fltol:
  1051                           	callstack 0
  1052   00004A                     ___fltol@f1:
  1053                           	callstack 0
  1054                           
  1055                           ; 4 bytes @ 0x49
  1056   00004A                     	ds	4
  1057   00004E                     ??___fltol:
  1058                           
  1059                           ; 1 bytes @ 0x4D
  1060   00004E                     	ds	4
  1061   000052                     ___fltol@sign1:
  1062                           	callstack 0
  1063                           
  1064                           ; 1 bytes @ 0x51
  1065   000052                     	ds	1
  1066   000053                     ___fltol@exp1:
  1067                           	callstack 0
  1068                           
  1069                           ; 1 bytes @ 0x52
  1070   000053                     	ds	1
  1071   000054                     I2C_Master_Mode_Clock_Configurations@i2c_obj:
  1072                           	callstack 0
  1073   000054                     EUSART_Baud_Rate_Calculation@_eusart:
  1074                           	callstack 0
  1075                           
  1076                           ; 2 bytes @ 0x53
  1077   000054                     	ds	2
  1078   000056                     
  1079                           ; 1 bytes @ 0x55
  1080 ;;
  1081 ;;Main: autosize = 0, tempsize = 2, incstack = 0, save=0
  1082 ;;
  1083 ;; *************** function _main *****************
  1084 ;; Defined at:
  1085 ;;		line 78 in file "application.c"
  1086 ;; Parameters:    Size  Location     Type
  1087 ;;		None
  1088 ;; Auto vars:     Size  Location     Type
  1089 ;;  i               1   15[BANK1 ] unsigned char 
  1090 ;;  i               1   14[BANK1 ] unsigned char 
  1091 ;;  i               1   13[BANK1 ] unsigned char 
  1092 ;;  ret             1    0        unsigned char 
  1093 ;; Return value:  Size  Location     Type
  1094 ;;                  2  1834[None  ] int 
  1095 ;; Registers used:
  1096 ;;		wreg, fsr1l, fsr1h, fsr2l, fsr2h, status,2, status,0, prodl, prodh, cstack
  1097 ;; Tracked objects:
  1098 ;;		On entry : 0/0
  1099 ;;		On exit  : 0/0
  1100 ;;		Unchanged: 0/0
  1101 ;; Data sizes:     COMRAM   BANK0   BANK1   BANK2   BANK3   BANK4   BANK5   BANK6   BANK7   BANK8   BANK9  BANK10  BANK1
      +1  BANK12  BANK13  BANK14  BANK15
  1102 ;;      Params:         0       0       0       0       0       0       0       0       0       0       0       0       
      +0       0       0       0       0
  1103 ;;      Locals:         0       0       3       0       0       0       0       0       0       0       0       0       
      +0       0       0       0       0
  1104 ;;      Temps:          0       0       2       0       0       0       0       0       0       0       0       0       
      +0       0       0       0       0
  1105 ;;      Totals:         0       0       5       0       0       0       0       0       0       0       0       0       
      +0       0       0       0       0
  1106 ;;Total ram usage:        5 bytes
  1107 ;; Hardware stack levels required when called: 10
  1108 ;; This function calls:
  1109 ;;		_EUSART_ASYNC_WriteByteNonBlocking
  1110 ;;		_MSSP_I2C_EXT_Device_Read_1_Byte
  1111 ;;		_MSSP_I2C_EXT_Device_Write_1_Byte
  1112 ;;		_application_initialize
  1113 ;;		_check_password_ctrl
  1114 ;;		_gpio_pin_write_logic
  1115 ;;		_unlock_door
  1116 ;; This function is called by:
  1117 ;;		Startup code after reset
  1118 ;; This function uses a non-reentrant model
  1119 ;;
  1120                           
  1121                           	psect	text0
  1122   00237E                     __ptext0:
  1123                           	callstack 0
  1124   00237E                     _main:
  1125                           	callstack 21
  1126   00237E                     
  1127                           ;application.c: 80:     application_initialize();
  1128   00237E  EC30  F01B         	call	_application_initialize	;wreg free
  1129   002382                     
  1130                           ;application.c: 86:     for (uint8 i = 0; i < 6; i++) {
  1131   002382  0E00               	movlw	0
  1132   002384  0101               	movlb	1	; () banked
  1133   002386  6F41               	movwf	main@i& (0+255),b
  1134   002388                     l10615:
  1135                           
  1136                           ; BSR set to: 1
  1137   002388  0EE6               	movlw	low _i2c_obj
  1138   00238A  6E19               	movwf	MSSP_I2C_EXT_Device_Read_1_Byte@i2c_obj^0,c
  1139   00238C  0E00               	movlw	high _i2c_obj
  1140   00238E  6E1A               	movwf	(MSSP_I2C_EXT_Device_Read_1_Byte@i2c_obj+1)^0,c
  1141   002390  0EA2               	movlw	162
  1142   002392  6E1B               	movwf	MSSP_I2C_EXT_Device_Read_1_Byte@slave_add^0,c
  1143   002394  C141  F01C         	movff	main@i,MSSP_I2C_EXT_Device_Read_1_Byte@byte_address
  1144   002398  0EC5               	movlw	low _ret_password
  1145   00239A  2541               	addwf	main@i& (0+255),w,b
  1146   00239C  6E1D               	movwf	MSSP_I2C_EXT_Device_Read_1_Byte@_data^0,c
  1147   00239E  6A1E               	clrf	(MSSP_I2C_EXT_Device_Read_1_Byte@_data+1)^0,c
  1148   0023A0  0E00               	movlw	high _ret_password
  1149   0023A2  221E               	addwfc	(MSSP_I2C_EXT_Device_Read_1_Byte@_data+1)^0,f,c
  1150   0023A4  0E6C               	movlw	low _slave_ack
  1151   0023A6  6E1F               	movwf	MSSP_I2C_EXT_Device_Read_1_Byte@slave_ack^0,c
  1152   0023A8  0E00               	movlw	high _slave_ack
  1153   0023AA  6E20               	movwf	(MSSP_I2C_EXT_Device_Read_1_Byte@slave_ack+1)^0,c
  1154   0023AC  ECA2  F016         	call	_MSSP_I2C_EXT_Device_Read_1_Byte	;wreg free
  1155   0023B0                     
  1156                           ;application.c: 88:     }
  1157   0023B0  0101               	movlb	1	; () banked
  1158   0023B2  2B41               	incf	main@i& (0+255),f,b
  1159   0023B4                     
  1160                           ; BSR set to: 1
  1161   0023B4  0E05               	movlw	5
  1162   0023B6  6541               	cpfsgt	main@i& (0+255),b
  1163   0023B8  EFE0  F011         	goto	u10731
  1164   0023BC  EFE2  F011         	goto	u10730
  1165   0023C0                     u10731:
  1166   0023C0  EFC4  F011         	goto	l10615
  1167   0023C4                     u10730:
  1168   0023C4  EF7C  F012         	goto	l10687
  1169   0023C8                     l10621:
  1170                           
  1171                           ; BSR set to: 1
  1172                           ;application.c: 93:                 if(1 == check_password_ctrl()){
  1173   0023C8  EC48  F01A         	call	_check_password_ctrl	;wreg free
  1174   0023CC  06E8               	decf	wreg,f,c
  1175   0023CE  A4D8               	btfss	status,2,c
  1176   0023D0  EFEC  F011         	goto	u10741
  1177   0023D4  EFEE  F011         	goto	u10740
  1178   0023D8                     u10741:
  1179   0023D8  EFFF  F011         	goto	l10631
  1180   0023DC                     u10740:
  1181   0023DC                     
  1182                           ;application.c: 94:                     unlock_door();
  1183   0023DC  EC58  F01C         	call	_unlock_door	;wreg free
  1184   0023E0                     
  1185                           ;application.c: 95:                     EUSART_ASYNC_WriteByteNonBlocking('Y');
  1186   0023E0  0E59               	movlw	89
  1187   0023E2  EC17  F01C         	call	_EUSART_ASYNC_WriteByteNonBlocking
  1188   0023E6                     l10627:
  1189                           
  1190                           ;application.c: 96:                     no_of_tries = 0;
  1191   0023E6  0E00               	movlw	0
  1192   0023E8  6E64               	movwf	_no_of_tries^0,c
  1193   0023EA                     
  1194                           ;application.c: 97:                     gpio_pin_write_logic(&buzzer, GPIO_LOW);
  1195   0023EA  0E61               	movlw	low _buzzer
  1196   0023EC  6E13               	movwf	gpio_pin_write_logic@_pin_config^0,c
  1197   0023EE  0E00               	movlw	high _buzzer
  1198   0023F0  6E14               	movwf	(gpio_pin_write_logic@_pin_config+1)^0,c
  1199   0023F2  0E00               	movlw	0
  1200   0023F4  6E15               	movwf	gpio_pin_write_logic@logic^0,c
  1201   0023F6  EC8A  F014         	call	_gpio_pin_write_logic	;wreg free
  1202                           
  1203                           ;application.c: 98:                 }
  1204   0023FA  EF14  F012         	goto	l10639
  1205   0023FE                     l10631:
  1206                           
  1207                           ;application.c: 100:                     no_of_tries++;
  1208   0023FE  2A64               	incf	_no_of_tries^0,f,c
  1209   002400                     
  1210                           ;application.c: 101:                     EUSART_ASYNC_WriteByteNonBlocking('N');
  1211   002400  0E4E               	movlw	78
  1212   002402  EC17  F01C         	call	_EUSART_ASYNC_WriteByteNonBlocking
  1213   002406                     
  1214                           ;application.c: 102:                     if(3 == no_of_tries){
  1215   002406  0E03               	movlw	3
  1216   002408  1864               	xorwf	_no_of_tries^0,w,c
  1217   00240A  A4D8               	btfss	status,2,c
  1218   00240C  EF0A  F012         	goto	u10751
  1219   002410  EF0C  F012         	goto	u10750
  1220   002414                     u10751:
  1221   002414  EF14  F012         	goto	l10639
  1222   002418                     u10750:
  1223   002418                     l10637:
  1224                           
  1225                           ;application.c: 103:                         gpio_pin_write_logic(&buzzer, GPIO_HIGH);
  1226   002418  0E61               	movlw	low _buzzer
  1227   00241A  6E13               	movwf	gpio_pin_write_logic@_pin_config^0,c
  1228   00241C  0E00               	movlw	high _buzzer
  1229   00241E  6E14               	movwf	(gpio_pin_write_logic@_pin_config+1)^0,c
  1230   002420  0E01               	movlw	1
  1231   002422  6E15               	movwf	gpio_pin_write_logic@logic^0,c
  1232   002424  EC8A  F014         	call	_gpio_pin_write_logic	;wreg free
  1233   002428                     l10639:
  1234                           
  1235                           ;application.c: 106:                 action =0;
  1236   002428  0E00               	movlw	0
  1237   00242A  6E65               	movwf	_action^0,c
  1238                           
  1239                           ;application.c: 107:             break;
  1240   00242C  EF7C  F012         	goto	l10687
  1241   002430                     l10641:
  1242                           
  1243                           ; BSR set to: 1
  1244                           ;application.c: 109:                 if(1 == check_password_ctrl()){
  1245   002430  EC48  F01A         	call	_check_password_ctrl	;wreg free
  1246   002434  06E8               	decf	wreg,f,c
  1247   002436  A4D8               	btfss	status,2,c
  1248   002438  EF20  F012         	goto	u10761
  1249   00243C  EF22  F012         	goto	u10760
  1250   002440                     u10761:
  1251   002440  EF29  F012         	goto	l10651
  1252   002444                     u10760:
  1253   002444                     
  1254                           ;application.c: 110:                     no_of_tries =0;
  1255   002444  0E00               	movlw	0
  1256   002446  6E64               	movwf	_no_of_tries^0,c
  1257   002448                     
  1258                           ;application.c: 111:                     EUSART_ASYNC_WriteByteNonBlocking('K');
  1259   002448  0E4B               	movlw	75
  1260   00244A  EC17  F01C         	call	_EUSART_ASYNC_WriteByteNonBlocking
  1261   00244E  EFF3  F011         	goto	l10627
  1262   002452                     l10651:
  1263                           
  1264                           ;application.c: 116:                     no_of_tries++;
  1265   002452  2A64               	incf	_no_of_tries^0,f,c
  1266   002454                     
  1267                           ;application.c: 117:                     EUSART_ASYNC_WriteByteNonBlocking('N');
  1268   002454  0E4E               	movlw	78
  1269   002456  EC17  F01C         	call	_EUSART_ASYNC_WriteByteNonBlocking
  1270   00245A                     
  1271                           ;application.c: 118:                     if(3 == no_of_tries){
  1272   00245A  0E03               	movlw	3
  1273   00245C  1864               	xorwf	_no_of_tries^0,w,c
  1274   00245E  A4D8               	btfss	status,2,c
  1275   002460  EF34  F012         	goto	u10771
  1276   002464  EF36  F012         	goto	u10770
  1277   002468                     u10771:
  1278   002468  EF14  F012         	goto	l10639
  1279   00246C                     u10770:
  1280   00246C  EF0C  F012         	goto	l10637
  1281   002470                     l10661:
  1282                           
  1283                           ; BSR set to: 1
  1284                           ;application.c: 125:                 for (uint8 i = 0; i < 6; i++) {
  1285   002470  0E00               	movlw	0
  1286   002472  6F42               	movwf	main@i_4695& (0+255),b
  1287   002474                     l10667:
  1288                           
  1289                           ; BSR set to: 1
  1290   002474  0EE6               	movlw	low _i2c_obj
  1291   002476  6E19               	movwf	MSSP_I2C_EXT_Device_Write_1_Byte@i2c_obj^0,c
  1292   002478  0E00               	movlw	high _i2c_obj
  1293   00247A  6E1A               	movwf	(MSSP_I2C_EXT_Device_Write_1_Byte@i2c_obj+1)^0,c
  1294   00247C  0EA2               	movlw	162
  1295   00247E  6E1B               	movwf	MSSP_I2C_EXT_Device_Write_1_Byte@slave_add^0,c
  1296   002480  C142  F01C         	movff	main@i_4695,MSSP_I2C_EXT_Device_Write_1_Byte@byte_address
  1297   002484  0E80               	movlw	low _user_received_password
  1298   002486  2542               	addwf	main@i_4695& (0+255),w,b
  1299   002488  6ED9               	movwf	fsr2l,c
  1300   00248A  6ADA               	clrf	fsr2h,c
  1301   00248C  0E00               	movlw	high _user_received_password
  1302   00248E  22DA               	addwfc	fsr2h,f,c
  1303   002490  50DF               	movf	indf2,w,c
  1304   002492  6E1D               	movwf	MSSP_I2C_EXT_Device_Write_1_Byte@_data^0,c
  1305   002494  0E6C               	movlw	low _slave_ack
  1306   002496  6E1E               	movwf	MSSP_I2C_EXT_Device_Write_1_Byte@slave_ack^0,c
  1307   002498  0E00               	movlw	high _slave_ack
  1308   00249A  6E1F               	movwf	(MSSP_I2C_EXT_Device_Write_1_Byte@slave_ack+1)^0,c
  1309   00249C  EC56  F018         	call	_MSSP_I2C_EXT_Device_Write_1_Byte	;wreg free
  1310   0024A0                     
  1311                           ;application.c: 127:                 }
  1312   0024A0  0101               	movlb	1	; () banked
  1313   0024A2  2B42               	incf	main@i_4695& (0+255),f,b
  1314   0024A4                     
  1315                           ; BSR set to: 1
  1316   0024A4  0E05               	movlw	5
  1317   0024A6  6542               	cpfsgt	main@i_4695& (0+255),b
  1318   0024A8  EF58  F012         	goto	u10781
  1319   0024AC  EF5A  F012         	goto	u10780
  1320   0024B0                     u10781:
  1321   0024B0  EF3A  F012         	goto	l10667
  1322   0024B4                     u10780:
  1323   0024B4                     
  1324                           ; BSR set to: 1
  1325                           ;application.c: 129:                 for (uint8 i = 0; i < 6; i++) {
  1326   0024B4  0E00               	movlw	0
  1327   0024B6  6F43               	movwf	main@i_4697& (0+255),b
  1328   0024B8                     l10679:
  1329                           
  1330                           ; BSR set to: 1
  1331   0024B8  0EE6               	movlw	low _i2c_obj
  1332   0024BA  6E19               	movwf	MSSP_I2C_EXT_Device_Read_1_Byte@i2c_obj^0,c
  1333   0024BC  0E00               	movlw	high _i2c_obj
  1334   0024BE  6E1A               	movwf	(MSSP_I2C_EXT_Device_Read_1_Byte@i2c_obj+1)^0,c
  1335   0024C0  0EA2               	movlw	162
  1336   0024C2  6E1B               	movwf	MSSP_I2C_EXT_Device_Read_1_Byte@slave_add^0,c
  1337   0024C4  C143  F01C         	movff	main@i_4697,MSSP_I2C_EXT_Device_Read_1_Byte@byte_address
  1338   0024C8  0EC5               	movlw	low _ret_password
  1339   0024CA  2543               	addwf	main@i_4697& (0+255),w,b
  1340   0024CC  6E1D               	movwf	MSSP_I2C_EXT_Device_Read_1_Byte@_data^0,c
  1341   0024CE  6A1E               	clrf	(MSSP_I2C_EXT_Device_Read_1_Byte@_data+1)^0,c
  1342   0024D0  0E00               	movlw	high _ret_password
  1343   0024D2  221E               	addwfc	(MSSP_I2C_EXT_Device_Read_1_Byte@_data+1)^0,f,c
  1344   0024D4  0E6C               	movlw	low _slave_ack
  1345   0024D6  6E1F               	movwf	MSSP_I2C_EXT_Device_Read_1_Byte@slave_ack^0,c
  1346   0024D8  0E00               	movlw	high _slave_ack
  1347   0024DA  6E20               	movwf	(MSSP_I2C_EXT_Device_Read_1_Byte@slave_ack+1)^0,c
  1348   0024DC  ECA2  F016         	call	_MSSP_I2C_EXT_Device_Read_1_Byte	;wreg free
  1349   0024E0                     
  1350                           ;application.c: 131:                 }
  1351   0024E0  0101               	movlb	1	; () banked
  1352   0024E2  2B43               	incf	main@i_4697& (0+255),f,b
  1353   0024E4                     
  1354                           ; BSR set to: 1
  1355   0024E4  0E05               	movlw	5
  1356   0024E6  6543               	cpfsgt	main@i_4697& (0+255),b
  1357   0024E8  EF78  F012         	goto	u10791
  1358   0024EC  EF7A  F012         	goto	u10790
  1359   0024F0                     u10791:
  1360   0024F0  EF5C  F012         	goto	l10679
  1361   0024F4                     u10790:
  1362   0024F4  EF14  F012         	goto	l10639
  1363   0024F8                     l10687:
  1364   0024F8  5065               	movf	_action^0,w,c
  1365   0024FA  0101               	movlb	1	; () banked
  1366   0024FC  6F3F               	movwf	??_main& (0+255),b
  1367   0024FE  6B40               	clrf	(??_main+1)& (0+255),b
  1368                           
  1369                           ; Switch on 2 bytes has been partitioned into a top level switch of size 1, and 1 sub-sw
      +                          itches
  1370                           ; Switch size 1, requested type "simple"
  1371                           ; Number of cases is 1, Range of values is 0 to 0
  1372                           ; switch strategies available:
  1373                           ; Name         Instructions Cycles
  1374                           ; simple_byte            4     3 (average)
  1375                           ;	Chosen strategy is simple_byte
  1376   002500  5140               	movf	(??_main+1)& (0+255),w,b
  1377   002502  0A00               	xorlw	0	; case 0
  1378   002504  B4D8               	btfsc	status,2,c
  1379   002506  EF87  F012         	goto	l10815
  1380   00250A  EF7C  F012         	goto	l10687
  1381   00250E                     l10815:
  1382                           
  1383                           ; BSR set to: 1
  1384                           ; Switch size 1, requested type "simple"
  1385                           ; Number of cases is 3, Range of values is 1 to 3
  1386                           ; switch strategies available:
  1387                           ; Name         Instructions Cycles
  1388                           ; simple_byte           10     6 (average)
  1389                           ;	Chosen strategy is simple_byte
  1390   00250E  513F               	movf	??_main& (0+255),w,b
  1391   002510  0A01               	xorlw	1	; case 1
  1392   002512  B4D8               	btfsc	status,2,c
  1393   002514  EFE4  F011         	goto	l10621
  1394   002518  0A03               	xorlw	3	; case 2
  1395   00251A  B4D8               	btfsc	status,2,c
  1396   00251C  EF18  F012         	goto	l10641
  1397   002520  0A01               	xorlw	1	; case 3
  1398   002522  B4D8               	btfsc	status,2,c
  1399   002524  EF38  F012         	goto	l10661
  1400   002528  EF7C  F012         	goto	l10687
  1401   00252C  EF07  F000         	goto	start
  1402   002530                     __end_of_main:
  1403                           	callstack 0
  1404                           
  1405 ;; *************** function _unlock_door *****************
  1406 ;; Defined at:
  1407 ;;		line 170 in file "application.c"
  1408 ;; Parameters:    Size  Location     Type
  1409 ;;		None
  1410 ;; Auto vars:     Size  Location     Type
  1411 ;;		None
  1412 ;; Return value:  Size  Location     Type
  1413 ;;                  1    wreg      void 
  1414 ;; Registers used:
  1415 ;;		wreg, fsr2l, fsr2h, status,2, status,0, prodl, prodh, cstack
  1416 ;; Tracked objects:
  1417 ;;		On entry : 0/0
  1418 ;;		On exit  : 0/0
  1419 ;;		Unchanged: 0/0
  1420 ;; Data sizes:     COMRAM   BANK0   BANK1   BANK2   BANK3   BANK4   BANK5   BANK6   BANK7   BANK8   BANK9  BANK10  BANK1
      +1  BANK12  BANK13  BANK14  BANK15
  1421 ;;      Params:         0       0       0       0       0       0       0       0       0       0       0       0       
      +0       0       0       0       0
  1422 ;;      Locals:         0       0       0       0       0       0       0       0       0       0       0       0       
      +0       0       0       0       0
  1423 ;;      Temps:          0       0       0       0       0       0       0       0       0       0       0       0       
      +0       0       0       0       0
  1424 ;;      Totals:         0       0       0       0       0       0       0       0       0       0       0       0       
      +0       0       0       0       0
  1425 ;;Total ram usage:        0 bytes
  1426 ;; Hardware stack levels used: 1
  1427 ;; Hardware stack levels required when called: 7
  1428 ;; This function calls:
  1429 ;;		_dc_motor_move_right
  1430 ;; This function is called by:
  1431 ;;		_main
  1432 ;; This function uses a non-reentrant model
  1433 ;;
  1434                           
  1435                           	psect	text1
  1436   0038B0                     __ptext1:
  1437                           	callstack 0
  1438   0038B0                     _unlock_door:
  1439                           	callstack 23
  1440   0038B0                     
  1441                           ;application.c: 171:     dc_motor_move_right(&dc_motor_1);
  1442   0038B0  0EFC               	movlw	low _dc_motor_1
  1443   0038B2  6E1D               	movwf	dc_motor_move_right@_dc_motor^0,c
  1444   0038B4  0E00               	movlw	high _dc_motor_1
  1445   0038B6  6E1E               	movwf	(dc_motor_move_right@_dc_motor+1)^0,c
  1446   0038B8  EC12  F01B         	call	_dc_motor_move_right	;wreg free
  1447   0038BC                     
  1448                           ;application.c: 172:     (T0CONbits.TMR0ON = 1);
  1449   0038BC  8ED5               	bsf	213,7,c	;volatile
  1450   0038BE                     
  1451                           ;application.c: 173:     timer0_falg =0;
  1452   0038BE  0E00               	movlw	0
  1453   0038C0  6E67               	movwf	_timer0_falg^0,c
  1454   0038C2                     
  1455                           ;application.c: 174:     timer0_falg_deinit = 0;
  1456   0038C2  0E00               	movlw	0
  1457   0038C4  6E66               	movwf	_timer0_falg_deinit^0,c
  1458   0038C6  0012               	return		;funcret
  1459   0038C8                     __end_of_unlock_door:
  1460                           	callstack 0
  1461                           
  1462 ;; *************** function _dc_motor_move_right *****************
  1463 ;; Defined at:
  1464 ;;		line 36 in file "ECU_Layer/DC_Motor/ecu_dc_motor.c"
  1465 ;; Parameters:    Size  Location     Type
  1466 ;;  _dc_motor       2   28[COMRAM] PTR const struct .
  1467 ;;		 -> dc_motor_1(2), 
  1468 ;; Auto vars:     Size  Location     Type
  1469 ;;  ret             1    0        unsigned char 
  1470 ;; Return value:  Size  Location     Type
  1471 ;;                  1    wreg      unsigned char 
  1472 ;; Registers used:
  1473 ;;		wreg, fsr2l, fsr2h, status,2, status,0, prodl, prodh, cstack
  1474 ;; Tracked objects:
  1475 ;;		On entry : 0/0
  1476 ;;		On exit  : 0/0
  1477 ;;		Unchanged: 0/0
  1478 ;; Data sizes:     COMRAM   BANK0   BANK1   BANK2   BANK3   BANK4   BANK5   BANK6   BANK7   BANK8   BANK9  BANK10  BANK1
      +1  BANK12  BANK13  BANK14  BANK15
  1479 ;;      Params:         2       0       0       0       0       0       0       0       0       0       0       0       
      +0       0       0       0       0
  1480 ;;      Locals:         0       0       0       0       0       0       0       0       0       0       0       0       
      +0       0       0       0       0
  1481 ;;      Temps:          0       0       0       0       0       0       0       0       0       0       0       0       
      +0       0       0       0       0
  1482 ;;      Totals:         2       0       0       0       0       0       0       0       0       0       0       0       
      +0       0       0       0       0
  1483 ;;Total ram usage:        2 bytes
  1484 ;; Hardware stack levels used: 1
  1485 ;; Hardware stack levels required when called: 6
  1486 ;; This function calls:
  1487 ;;		_gpio_pin_write_logic
  1488 ;; This function is called by:
  1489 ;;		_unlock_door
  1490 ;; This function uses a non-reentrant model
  1491 ;;
  1492                           
  1493                           	psect	text2
  1494   003624                     __ptext2:
  1495                           	callstack 0
  1496   003624                     _dc_motor_move_right:
  1497                           	callstack 23
  1498   003624                     
  1499                           ;ECU_Layer/DC_Motor/ecu_dc_motor.c: 38:     if(((void*)0) == _dc_motor){
  1500   003624  501D               	movf	dc_motor_move_right@_dc_motor^0,w,c
  1501   003626  101E               	iorwf	(dc_motor_move_right@_dc_motor+1)^0,w,c
  1502   003628  A4D8               	btfss	status,2,c
  1503   00362A  EF19  F01B         	goto	u9651
  1504   00362E  EF1B  F01B         	goto	u9650
  1505   003632                     u9651:
  1506   003632  EF1D  F01B         	goto	l9611
  1507   003636                     u9650:
  1508   003636                     
  1509                           ;ECU_Layer/DC_Motor/ecu_dc_motor.c: 40:     }
  1510   003636  EF2F  F01B         	goto	l222
  1511   00363A                     l9611:
  1512                           
  1513                           ;ECU_Layer/DC_Motor/ecu_dc_motor.c: 42:         gpio_pin_write_logic(&(_dc_motor->dc_mot
      +                          or_pin[0x00U]), GPIO_HIGH);
  1514   00363A  C01D  F013         	movff	dc_motor_move_right@_dc_motor,gpio_pin_write_logic@_pin_config
  1515   00363E  C01E  F014         	movff	dc_motor_move_right@_dc_motor+1,gpio_pin_write_logic@_pin_config+1
  1516   003642  0E01               	movlw	1
  1517   003644  6E15               	movwf	gpio_pin_write_logic@logic^0,c
  1518   003646  EC8A  F014         	call	_gpio_pin_write_logic	;wreg free
  1519                           
  1520                           ;ECU_Layer/DC_Motor/ecu_dc_motor.c: 43:         gpio_pin_write_logic(&(_dc_motor->dc_mot
      +                          or_pin[0x01U]), GPIO_LOW);
  1521   00364A  0E01               	movlw	1
  1522   00364C  241D               	addwf	dc_motor_move_right@_dc_motor^0,w,c
  1523   00364E  6E13               	movwf	gpio_pin_write_logic@_pin_config^0,c
  1524   003650  0E00               	movlw	0
  1525   003652  201E               	addwfc	(dc_motor_move_right@_dc_motor+1)^0,w,c
  1526   003654  6E14               	movwf	(gpio_pin_write_logic@_pin_config+1)^0,c
  1527   003656  0E00               	movlw	0
  1528   003658  6E15               	movwf	gpio_pin_write_logic@logic^0,c
  1529   00365A  EC8A  F014         	call	_gpio_pin_write_logic	;wreg free
  1530   00365E                     l222:
  1531   00365E  0012               	return		;funcret
  1532   003660                     __end_of_dc_motor_move_right:
  1533                           	callstack 0
  1534                           
  1535 ;; *************** function _check_password_ctrl *****************
  1536 ;; Defined at:
  1537 ;;		line 154 in file "application.c"
  1538 ;; Parameters:    Size  Location     Type
  1539 ;;		None
  1540 ;; Auto vars:     Size  Location     Type
  1541 ;;  i               1   20[COMRAM] unsigned char 
  1542 ;; Return value:  Size  Location     Type
  1543 ;;                  1    wreg      unsigned char 
  1544 ;; Registers used:
  1545 ;;		wreg, fsr1l, fsr1h, fsr2l, fsr2h, status,2, status,0
  1546 ;; Tracked objects:
  1547 ;;		On entry : 0/0
  1548 ;;		On exit  : 0/0
  1549 ;;		Unchanged: 0/0
  1550 ;; Data sizes:     COMRAM   BANK0   BANK1   BANK2   BANK3   BANK4   BANK5   BANK6   BANK7   BANK8   BANK9  BANK10  BANK1
      +1  BANK12  BANK13  BANK14  BANK15
  1551 ;;      Params:         0       0       0       0       0       0       0       0       0       0       0       0       
      +0       0       0       0       0
  1552 ;;      Locals:         1       0       0       0       0       0       0       0       0       0       0       0       
      +0       0       0       0       0
  1553 ;;      Temps:          2       0       0       0       0       0       0       0       0       0       0       0       
      +0       0       0       0       0
  1554 ;;      Totals:         3       0       0       0       0       0       0       0       0       0       0       0       
      +0       0       0       0       0
  1555 ;;Total ram usage:        3 bytes
  1556 ;; Hardware stack levels used: 1
  1557 ;; Hardware stack levels required when called: 5
  1558 ;; This function calls:
  1559 ;;		Nothing
  1560 ;; This function is called by:
  1561 ;;		_main
  1562 ;; This function uses a non-reentrant model
  1563 ;;
  1564                           
  1565                           	psect	text3
  1566   003490                     __ptext3:
  1567                           	callstack 0
  1568   003490                     _check_password_ctrl:
  1569                           	callstack 25
  1570   003490                     
  1571                           ;application.c: 155:     for (uint8 i = 0; i < 6; i++) {
  1572   003490  0E00               	movlw	0
  1573   003492  6E15               	movwf	check_password_ctrl@i^0,c
  1574   003494                     l9935:
  1575                           
  1576                           ;application.c: 156:         if( user_received_password[i] != ret_password[i]){
  1577   003494  0EC5               	movlw	low _ret_password
  1578   003496  2415               	addwf	check_password_ctrl@i^0,w,c
  1579   003498  6ED9               	movwf	fsr2l,c
  1580   00349A  6ADA               	clrf	fsr2h,c
  1581   00349C  0E00               	movlw	high _ret_password
  1582   00349E  22DA               	addwfc	fsr2h,f,c
  1583   0034A0  0E80               	movlw	low _user_received_password
  1584   0034A2  2415               	addwf	check_password_ctrl@i^0,w,c
  1585   0034A4  6EE1               	movwf	fsr1l,c
  1586   0034A6  6AE2               	clrf	fsr1h,c
  1587   0034A8  0E00               	movlw	high _user_received_password
  1588   0034AA  22E2               	addwfc	fsr1h,f,c
  1589   0034AC  50DE               	movf	postinc2,w,c
  1590   0034AE  18E6               	xorwf	postinc1,w,c
  1591   0034B0  B4D8               	btfsc	status,2,c
  1592   0034B2  EF5D  F01A         	goto	u10101
  1593   0034B6  EF5F  F01A         	goto	u10100
  1594   0034BA                     u10101:
  1595   0034BA  EF62  F01A         	goto	l9941
  1596   0034BE                     u10100:
  1597   0034BE                     
  1598                           ;application.c: 157:             return 0;
  1599   0034BE  0E00               	movlw	0
  1600   0034C0  EF6C  F01A         	goto	l1867
  1601   0034C4                     l9941:
  1602                           
  1603                           ;application.c: 159:     }
  1604   0034C4  2A15               	incf	check_password_ctrl@i^0,f,c
  1605   0034C6  0E05               	movlw	5
  1606   0034C8  6415               	cpfsgt	check_password_ctrl@i^0,c
  1607   0034CA  EF69  F01A         	goto	u10111
  1608   0034CE  EF6B  F01A         	goto	u10110
  1609   0034D2                     u10111:
  1610   0034D2  EF4A  F01A         	goto	l9935
  1611   0034D6                     u10110:
  1612   0034D6                     
  1613                           ;application.c: 160:     return 1;
  1614   0034D6  0E01               	movlw	1
  1615   0034D8                     l1867:
  1616   0034D8  0012               	return		;funcret
  1617   0034DA                     __end_of_check_password_ctrl:
  1618                           	callstack 0
  1619                           
  1620 ;; *************** function _application_initialize *****************
  1621 ;; Defined at:
  1622 ;;		line 140 in file "application.c"
  1623 ;; Parameters:    Size  Location     Type
  1624 ;;		None
  1625 ;; Auto vars:     Size  Location     Type
  1626 ;;  ret             1    0        unsigned char 
  1627 ;; Return value:  Size  Location     Type
  1628 ;;                  1    wreg      void 
  1629 ;; Registers used:
  1630 ;;		wreg, fsr2l, fsr2h, status,2, status,0, prodl, prodh, cstack
  1631 ;; Tracked objects:
  1632 ;;		On entry : 0/0
  1633 ;;		On exit  : 0/0
  1634 ;;		Unchanged: 0/0
  1635 ;; Data sizes:     COMRAM   BANK0   BANK1   BANK2   BANK3   BANK4   BANK5   BANK6   BANK7   BANK8   BANK9  BANK10  BANK1
      +1  BANK12  BANK13  BANK14  BANK15
  1636 ;;      Params:         0       0       0       0       0       0       0       0       0       0       0       0       
      +0       0       0       0       0
  1637 ;;      Locals:         0       0       0       0       0       0       0       0       0       0       0       0       
      +0       0       0       0       0
  1638 ;;      Temps:          0       0       0       0       0       0       0       0       0       0       0       0       
      +0       0       0       0       0
  1639 ;;      Totals:         0       0       0       0       0       0       0       0       0       0       0       0       
      +0       0       0       0       0
  1640 ;;Total ram usage:        0 bytes
  1641 ;; Hardware stack levels used: 1
  1642 ;; Hardware stack levels required when called: 9
  1643 ;; This function calls:
  1644 ;;		_EUSART_ASYNC_Init
  1645 ;;		_MSSP_I2C_Init
  1646 ;;		_Timer0_Init
  1647 ;;		_ecu_layer_init
  1648 ;;		_gpio_pin_intialize
  1649 ;; This function is called by:
  1650 ;;		_main
  1651 ;; This function uses a non-reentrant model
  1652 ;;
  1653                           
  1654                           	psect	text4
  1655   003660                     __ptext4:
  1656                           	callstack 0
  1657   003660                     _application_initialize:
  1658                           	callstack 21
  1659   003660                     
  1660                           ;application.c: 142:     ecu_layer_init();
  1661   003660  EC64  F01C         	call	_ecu_layer_init	;wreg free
  1662   003664  0E22               	movlw	low _usart_obj
  1663   003666  0101               	movlb	1	; () banked
  1664   003668  6F3C               	movwf	EUSART_ASYNC_Init@_eusart& (0+255),b
  1665   00366A  0E01               	movlw	high _usart_obj
  1666   00366C  6F3D               	movwf	(EUSART_ASYNC_Init@_eusart+1)& (0+255),b
  1667   00366E  EC1F  F01A         	call	_EUSART_ASYNC_Init	;wreg free
  1668   003672  0EE6               	movlw	low _i2c_obj
  1669   003674  0101               	movlb	1	; () banked
  1670   003676  6F34               	movwf	MSSP_I2C_Init@i2c_obj& (0+255),b
  1671   003678  0E00               	movlw	high _i2c_obj
  1672   00367A  6F35               	movwf	(MSSP_I2C_Init@i2c_obj+1)& (0+255),b
  1673   00367C  EC98  F012         	call	_MSSP_I2C_Init	;wreg free
  1674   003680  0EF5               	movlw	low _timer_obj
  1675   003682  6E16               	movwf	Timer0_Init@_timer^0,c
  1676   003684  0E00               	movlw	high _timer_obj
  1677   003686  6E17               	movwf	(Timer0_Init@_timer+1)^0,c
  1678   003688  EC68  F017         	call	_Timer0_Init	;wreg free
  1679   00368C  0E61               	movlw	low _buzzer
  1680   00368E  6E1D               	movwf	gpio_pin_intialize@_pin_config^0,c
  1681   003690  0E00               	movlw	high _buzzer
  1682   003692  6E1E               	movwf	(gpio_pin_intialize@_pin_config+1)^0,c
  1683   003694  EC60  F019         	call	_gpio_pin_intialize	;wreg free
  1684   003698                     
  1685                           ;application.c: 147:     (T0CONbits.TMR0ON = 0);
  1686   003698  9ED5               	bcf	213,7,c	;volatile
  1687   00369A  0012               	return		;funcret
  1688   00369C                     __end_of_application_initialize:
  1689                           	callstack 0
  1690                           
  1691 ;; *************** function _ecu_layer_init *****************
  1692 ;; Defined at:
  1693 ;;		line 227 in file "ECU_Layer/ecu_layer_init.c"
  1694 ;; Parameters:    Size  Location     Type
  1695 ;;		None
  1696 ;; Auto vars:     Size  Location     Type
  1697 ;;  ret             1    0        unsigned char 
  1698 ;; Return value:  Size  Location     Type
  1699 ;;                  1    wreg      void 
  1700 ;; Registers used:
  1701 ;;		wreg, fsr2l, fsr2h, status,2, status,0, prodl, prodh, cstack
  1702 ;; Tracked objects:
  1703 ;;		On entry : 0/0
  1704 ;;		On exit  : 0/0
  1705 ;;		Unchanged: 0/0
  1706 ;; Data sizes:     COMRAM   BANK0   BANK1   BANK2   BANK3   BANK4   BANK5   BANK6   BANK7   BANK8   BANK9  BANK10  BANK1
      +1  BANK12  BANK13  BANK14  BANK15
  1707 ;;      Params:         0       0       0       0       0       0       0       0       0       0       0       0       
      +0       0       0       0       0
  1708 ;;      Locals:         0       0       0       0       0       0       0       0       0       0       0       0       
      +0       0       0       0       0
  1709 ;;      Temps:          0       0       0       0       0       0       0       0       0       0       0       0       
      +0       0       0       0       0
  1710 ;;      Totals:         0       0       0       0       0       0       0       0       0       0       0       0       
      +0       0       0       0       0
  1711 ;;Total ram usage:        0 bytes
  1712 ;; Hardware stack levels used: 1
  1713 ;; Hardware stack levels required when called: 8
  1714 ;; This function calls:
  1715 ;;		_dc_motor_initialize
  1716 ;; This function is called by:
  1717 ;;		_application_initialize
  1718 ;; This function uses a non-reentrant model
  1719 ;;
  1720                           
  1721                           	psect	text5
  1722   0038C8                     __ptext5:
  1723                           	callstack 0
  1724   0038C8                     _ecu_layer_init:
  1725                           	callstack 21
  1726   0038C8  0EFC               	movlw	low _dc_motor_1
  1727   0038CA  6E21               	movwf	dc_motor_initialize@_dc_motor^0,c
  1728   0038CC  0E00               	movlw	high _dc_motor_1
  1729   0038CE  6E22               	movwf	(dc_motor_initialize@_dc_motor+1)^0,c
  1730   0038D0  ECD4  F01A         	call	_dc_motor_initialize	;wreg free
  1731   0038D4  0012               	return		;funcret
  1732   0038D6                     __end_of_ecu_layer_init:
  1733                           	callstack 0
  1734                           
  1735 ;; *************** function _dc_motor_initialize *****************
  1736 ;; Defined at:
  1737 ;;		line 17 in file "ECU_Layer/DC_Motor/ecu_dc_motor.c"
  1738 ;; Parameters:    Size  Location     Type
  1739 ;;  _dc_motor       2   32[COMRAM] PTR const struct .
  1740 ;;		 -> dc_motor_1(2), 
  1741 ;; Auto vars:     Size  Location     Type
  1742 ;;  ret             1   34[COMRAM] unsigned char 
  1743 ;; Return value:  Size  Location     Type
  1744 ;;                  1    wreg      unsigned char 
  1745 ;; Registers used:
  1746 ;;		wreg, fsr2l, fsr2h, status,2, status,0, prodl, prodh, cstack
  1747 ;; Tracked objects:
  1748 ;;		On entry : 0/0
  1749 ;;		On exit  : 0/0
  1750 ;;		Unchanged: 0/0
  1751 ;; Data sizes:     COMRAM   BANK0   BANK1   BANK2   BANK3   BANK4   BANK5   BANK6   BANK7   BANK8   BANK9  BANK10  BANK1
      +1  BANK12  BANK13  BANK14  BANK15
  1752 ;;      Params:         2       0       0       0       0       0       0       0       0       0       0       0       
      +0       0       0       0       0
  1753 ;;      Locals:         1       0       0       0       0       0       0       0       0       0       0       0       
      +0       0       0       0       0
  1754 ;;      Temps:          0       0       0       0       0       0       0       0       0       0       0       0       
      +0       0       0       0       0
  1755 ;;      Totals:         3       0       0       0       0       0       0       0       0       0       0       0       
      +0       0       0       0       0
  1756 ;;Total ram usage:        3 bytes
  1757 ;; Hardware stack levels used: 1
  1758 ;; Hardware stack levels required when called: 7
  1759 ;; This function calls:
  1760 ;;		_gpio_pin_intialize
  1761 ;; This function is called by:
  1762 ;;		_ecu_layer_init
  1763 ;; This function uses a non-reentrant model
  1764 ;;
  1765                           
  1766                           	psect	text6
  1767   0035A8                     __ptext6:
  1768                           	callstack 0
  1769   0035A8                     _dc_motor_initialize:
  1770                           	callstack 21
  1771   0035A8                     
  1772                           ;ECU_Layer/DC_Motor/ecu_dc_motor.c: 18:     Std_ReturnType ret = (Std_ReturnType)0x01;
  1773   0035A8  0E01               	movlw	1
  1774   0035AA  6E23               	movwf	dc_motor_initialize@ret^0,c
  1775   0035AC                     
  1776                           ;ECU_Layer/DC_Motor/ecu_dc_motor.c: 19:     if(((void*)0) == _dc_motor){
  1777   0035AC  5021               	movf	dc_motor_initialize@_dc_motor^0,w,c
  1778   0035AE  1022               	iorwf	(dc_motor_initialize@_dc_motor+1)^0,w,c
  1779   0035B0  A4D8               	btfss	status,2,c
  1780   0035B2  EFDD  F01A         	goto	u9421
  1781   0035B6  EFDF  F01A         	goto	u9420
  1782   0035BA                     u9421:
  1783   0035BA  EFE3  F01A         	goto	l9399
  1784   0035BE                     u9420:
  1785   0035BE                     
  1786                           ;ECU_Layer/DC_Motor/ecu_dc_motor.c: 20:         ret = (Std_ReturnType)0x00;
  1787   0035BE  0E00               	movlw	0
  1788   0035C0  6E23               	movwf	dc_motor_initialize@ret^0,c
  1789                           
  1790                           ;ECU_Layer/DC_Motor/ecu_dc_motor.c: 21:     }
  1791   0035C2  EFF1  F01A         	goto	l9401
  1792   0035C6                     l9399:
  1793                           
  1794                           ;ECU_Layer/DC_Motor/ecu_dc_motor.c: 23:         gpio_pin_intialize(&(_dc_motor->dc_motor
      +                          _pin[0x00U]));
  1795   0035C6  C021  F01D         	movff	dc_motor_initialize@_dc_motor,gpio_pin_intialize@_pin_config
  1796   0035CA  C022  F01E         	movff	dc_motor_initialize@_dc_motor+1,gpio_pin_intialize@_pin_config+1
  1797   0035CE  EC60  F019         	call	_gpio_pin_intialize	;wreg free
  1798                           
  1799                           ;ECU_Layer/DC_Motor/ecu_dc_motor.c: 24:         gpio_pin_intialize(&(_dc_motor->dc_motor
      +                          _pin[0x01U]));
  1800   0035D2  0E01               	movlw	1
  1801   0035D4  2421               	addwf	dc_motor_initialize@_dc_motor^0,w,c
  1802   0035D6  6E1D               	movwf	gpio_pin_intialize@_pin_config^0,c
  1803   0035D8  0E00               	movlw	0
  1804   0035DA  2022               	addwfc	(dc_motor_initialize@_dc_motor+1)^0,w,c
  1805   0035DC  6E1E               	movwf	(gpio_pin_intialize@_pin_config+1)^0,c
  1806   0035DE  EC60  F019         	call	_gpio_pin_intialize	;wreg free
  1807   0035E2                     l9401:
  1808                           
  1809                           ;ECU_Layer/DC_Motor/ecu_dc_motor.c: 26:     return ret;
  1810   0035E2  5023               	movf	dc_motor_initialize@ret^0,w,c
  1811   0035E4  0012               	return		;funcret
  1812   0035E6                     __end_of_dc_motor_initialize:
  1813                           	callstack 0
  1814                           
  1815 ;; *************** function _gpio_pin_intialize *****************
  1816 ;; Defined at:
  1817 ;;		line 144 in file "MCAL_Layer/GPIO/hal_gpio.c"
  1818 ;; Parameters:    Size  Location     Type
  1819 ;;  _pin_config     2   28[COMRAM] PTR const struct .
  1820 ;;		 -> buzzer(1), dc_motor_1.dc_motor_pin(2), dc_motor_1(2), 
  1821 ;; Auto vars:     Size  Location     Type
  1822 ;;  ret             1   31[COMRAM] unsigned char 
  1823 ;; Return value:  Size  Location     Type
  1824 ;;                  1    wreg      unsigned char 
  1825 ;; Registers used:
  1826 ;;		wreg, fsr2l, fsr2h, status,2, status,0, prodl, prodh, cstack
  1827 ;; Tracked objects:
  1828 ;;		On entry : 0/0
  1829 ;;		On exit  : 0/0
  1830 ;;		Unchanged: 0/0
  1831 ;; Data sizes:     COMRAM   BANK0   BANK1   BANK2   BANK3   BANK4   BANK5   BANK6   BANK7   BANK8   BANK9  BANK10  BANK1
      +1  BANK12  BANK13  BANK14  BANK15
  1832 ;;      Params:         2       0       0       0       0       0       0       0       0       0       0       0       
      +0       0       0       0       0
  1833 ;;      Locals:         1       0       0       0       0       0       0       0       0       0       0       0       
      +0       0       0       0       0
  1834 ;;      Temps:          1       0       0       0       0       0       0       0       0       0       0       0       
      +0       0       0       0       0
  1835 ;;      Totals:         4       0       0       0       0       0       0       0       0       0       0       0       
      +0       0       0       0       0
  1836 ;;Total ram usage:        4 bytes
  1837 ;; Hardware stack levels used: 1
  1838 ;; Hardware stack levels required when called: 6
  1839 ;; This function calls:
  1840 ;;		_gpio_pin_direction_intialize
  1841 ;;		_gpio_pin_write_logic
  1842 ;; This function is called by:
  1843 ;;		_dc_motor_initialize
  1844 ;;		_application_initialize
  1845 ;;		_seven_segement_intialize
  1846 ;;		_lcd_4bit_intialize
  1847 ;;		_lcd_8bit_intialize
  1848 ;;		_keypad_initialize
  1849 ;;		_led_initialize
  1850 ;;		_relay_initialize
  1851 ;;		_Ultrasonic_Init
  1852 ;;		_CCP_Init
  1853 ;; This function uses a non-reentrant model
  1854 ;;
  1855                           
  1856                           	psect	text7
  1857   0032C0                     __ptext7:
  1858                           	callstack 0
  1859   0032C0                     _gpio_pin_intialize:
  1860                           	callstack 23
  1861   0032C0                     
  1862                           ;MCAL_Layer/GPIO/hal_gpio.c: 146:     if(((void*)0) == _pin_config || _pin_config->pin >
      +                           8 -1){
  1863   0032C0  501D               	movf	gpio_pin_intialize@_pin_config^0,w,c
  1864   0032C2  101E               	iorwf	(gpio_pin_intialize@_pin_config+1)^0,w,c
  1865   0032C4  B4D8               	btfsc	status,2,c
  1866   0032C6  EF67  F019         	goto	u8611
  1867   0032CA  EF69  F019         	goto	u8610
  1868   0032CE                     u8611:
  1869   0032CE  EF7A  F019         	goto	l8955
  1870   0032D2                     u8610:
  1871   0032D2  C01D  FFD9         	movff	gpio_pin_intialize@_pin_config,fsr2l
  1872   0032D6  C01E  FFDA         	movff	gpio_pin_intialize@_pin_config+1,fsr2h
  1873   0032DA  30DF               	rrcf	223,w,c
  1874   0032DC  32E8               	rrcf	wreg,f,c
  1875   0032DE  32E8               	rrcf	wreg,f,c
  1876   0032E0  0B07               	andlw	7
  1877   0032E2  6E1F               	movwf	??_gpio_pin_intialize^0,c
  1878   0032E4  0E07               	movlw	7
  1879   0032E6  641F               	cpfsgt	??_gpio_pin_intialize^0,c
  1880   0032E8  EF78  F019         	goto	u8621
  1881   0032EC  EF7A  F019         	goto	u8620
  1882   0032F0                     u8621:
  1883   0032F0  EF7E  F019         	goto	l8957
  1884   0032F4                     u8620:
  1885   0032F4                     l8955:
  1886                           
  1887                           ;MCAL_Layer/GPIO/hal_gpio.c: 147:         ret = (Std_ReturnType)0x00;
  1888   0032F4  0E00               	movlw	0
  1889   0032F6  6E20               	movwf	gpio_pin_intialize@ret^0,c
  1890                           
  1891                           ;MCAL_Layer/GPIO/hal_gpio.c: 148:     }
  1892   0032F8  EF94  F019         	goto	l8959
  1893   0032FC                     l8957:
  1894                           
  1895                           ;MCAL_Layer/GPIO/hal_gpio.c: 150:         ret = gpio_pin_direction_intialize(_pin_config
      +                          );
  1896   0032FC  C01D  F013         	movff	gpio_pin_intialize@_pin_config,gpio_pin_direction_intialize@_pin_config
  1897   003300  C01E  F014         	movff	gpio_pin_intialize@_pin_config+1,gpio_pin_direction_intialize@_pin_config+1
  1898   003304  ECE8  F013         	call	_gpio_pin_direction_intialize	;wreg free
  1899   003308  6E20               	movwf	gpio_pin_intialize@ret^0,c
  1900                           
  1901                           ;MCAL_Layer/GPIO/hal_gpio.c: 151:         ret = gpio_pin_write_logic(_pin_config, _pin_c
      +                          onfig->logic);
  1902   00330A  C01D  F013         	movff	gpio_pin_intialize@_pin_config,gpio_pin_write_logic@_pin_config
  1903   00330E  C01E  F014         	movff	gpio_pin_intialize@_pin_config+1,gpio_pin_write_logic@_pin_config+1
  1904   003312  C01D  FFD9         	movff	gpio_pin_intialize@_pin_config,fsr2l
  1905   003316  C01E  FFDA         	movff	gpio_pin_intialize@_pin_config+1,fsr2h
  1906   00331A  0E00               	movlw	0
  1907   00331C  BEDF               	btfsc	indf2,7,c
  1908   00331E  0E01               	movlw	1
  1909   003320  6E15               	movwf	gpio_pin_write_logic@logic^0,c
  1910   003322  EC8A  F014         	call	_gpio_pin_write_logic	;wreg free
  1911   003326  6E20               	movwf	gpio_pin_intialize@ret^0,c
  1912   003328                     l8959:
  1913                           
  1914                           ;MCAL_Layer/GPIO/hal_gpio.c: 153:     return ret;
  1915   003328  5020               	movf	gpio_pin_intialize@ret^0,w,c
  1916   00332A  0012               	return		;funcret
  1917   00332C                     __end_of_gpio_pin_intialize:
  1918                           	callstack 0
  1919                           
  1920 ;; *************** function _gpio_pin_write_logic *****************
  1921 ;; Defined at:
  1922 ;;		line 75 in file "MCAL_Layer/GPIO/hal_gpio.c"
  1923 ;; Parameters:    Size  Location     Type
  1924 ;;  _pin_config     2   18[COMRAM] PTR const struct .
  1925 ;;		 -> buzzer(1), dc_motor_1.dc_motor_pin(2), dc_motor_1(2), 
  1926 ;;  logic           1   20[COMRAM] enum E3462
  1927 ;; Auto vars:     Size  Location     Type
  1928 ;;  ret             1   27[COMRAM] unsigned char 
  1929 ;; Return value:  Size  Location     Type
  1930 ;;                  1    wreg      unsigned char 
  1931 ;; Registers used:
  1932 ;;		wreg, fsr2l, fsr2h, status,2, status,0, prodl, prodh
  1933 ;; Tracked objects:
  1934 ;;		On entry : 0/0
  1935 ;;		On exit  : 0/0
  1936 ;;		Unchanged: 0/0
  1937 ;; Data sizes:     COMRAM   BANK0   BANK1   BANK2   BANK3   BANK4   BANK5   BANK6   BANK7   BANK8   BANK9  BANK10  BANK1
      +1  BANK12  BANK13  BANK14  BANK15
  1938 ;;      Params:         3       0       0       0       0       0       0       0       0       0       0       0       
      +0       0       0       0       0
  1939 ;;      Locals:         1       0       0       0       0       0       0       0       0       0       0       0       
      +0       0       0       0       0
  1940 ;;      Temps:          6       0       0       0       0       0       0       0       0       0       0       0       
      +0       0       0       0       0
  1941 ;;      Totals:        10       0       0       0       0       0       0       0       0       0       0       0       
      +0       0       0       0       0
  1942 ;;Total ram usage:       10 bytes
  1943 ;; Hardware stack levels used: 1
  1944 ;; Hardware stack levels required when called: 5
  1945 ;; This function calls:
  1946 ;;		Nothing
  1947 ;; This function is called by:
  1948 ;;		_dc_motor_move_right
  1949 ;;		_gpio_pin_intialize
  1950 ;;		_main
  1951 ;;		_seven_segement_write_number
  1952 ;;		_lcd_4bit_send_command
  1953 ;;		_lcd_4bit_send_char_data
  1954 ;;		_lcd_8bit_send_command
  1955 ;;		_lcd_8bit_send_char_data
  1956 ;;		_lcd_send_4bits
  1957 ;;		_lcd_4bit_send_enable_signal
  1958 ;;		_lcd_8bit_send_enable_signal
  1959 ;;		_keypad_get_value
  1960 ;;		_led_turn_on
  1961 ;;		_led_turn_off
  1962 ;;		_relay_turn_on
  1963 ;;		_relay_turn_off
  1964 ;;		_Ultrasonic_Calculate_Distance
  1965 ;; This function uses a non-reentrant model
  1966 ;;
  1967                           
  1968                           	psect	text8
  1969   002914                     __ptext8:
  1970                           	callstack 0
  1971   002914                     _gpio_pin_write_logic:
  1972                           	callstack 23
  1973   002914                     
  1974                           ;MCAL_Layer/GPIO/hal_gpio.c: 76:     Std_ReturnType ret = (Std_ReturnType)0x01;
  1975   002914  0E01               	movlw	1
  1976   002916  6E1C               	movwf	gpio_pin_write_logic@ret^0,c
  1977   002918                     
  1978                           ;MCAL_Layer/GPIO/hal_gpio.c: 77:     if(((void*)0) == _pin_config || _pin_config->pin > 
      +                          8 -1){
  1979   002918  5013               	movf	gpio_pin_write_logic@_pin_config^0,w,c
  1980   00291A  1014               	iorwf	(gpio_pin_write_logic@_pin_config+1)^0,w,c
  1981   00291C  B4D8               	btfsc	status,2,c
  1982   00291E  EF93  F014         	goto	u8511
  1983   002922  EF95  F014         	goto	u8510
  1984   002926                     u8511:
  1985   002926  EFA6  F014         	goto	l8907
  1986   00292A                     u8510:
  1987   00292A  C013  FFD9         	movff	gpio_pin_write_logic@_pin_config,fsr2l
  1988   00292E  C014  FFDA         	movff	gpio_pin_write_logic@_pin_config+1,fsr2h
  1989   002932  30DF               	rrcf	223,w,c
  1990   002934  32E8               	rrcf	wreg,f,c
  1991   002936  32E8               	rrcf	wreg,f,c
  1992   002938  0B07               	andlw	7
  1993   00293A  6E16               	movwf	??_gpio_pin_write_logic^0,c
  1994   00293C  0E07               	movlw	7
  1995   00293E  6416               	cpfsgt	??_gpio_pin_write_logic^0,c
  1996   002940  EFA4  F014         	goto	u8521
  1997   002944  EFA6  F014         	goto	u8520
  1998   002948                     u8521:
  1999   002948  EF09  F015         	goto	l8915
  2000   00294C                     u8520:
  2001   00294C                     l8907:
  2002                           
  2003                           ;MCAL_Layer/GPIO/hal_gpio.c: 78:         ret = (Std_ReturnType)0x00;
  2004   00294C  0E00               	movlw	0
  2005   00294E  6E1C               	movwf	gpio_pin_write_logic@ret^0,c
  2006                           
  2007                           ;MCAL_Layer/GPIO/hal_gpio.c: 79:     }
  2008   002950  EF1E  F015         	goto	l8917
  2009   002954                     l8909:
  2010                           
  2011                           ;MCAL_Layer/GPIO/hal_gpio.c: 83:                 (*lat_registers[_pin_config->port] &= ~
      +                          ((uint8)1 << _pin_config->pin));
  2012   002954  C013  FFD9         	movff	gpio_pin_write_logic@_pin_config,fsr2l
  2013   002958  C014  FFDA         	movff	gpio_pin_write_logic@_pin_config+1,fsr2h
  2014   00295C  30DF               	rrcf	223,w,c
  2015   00295E  32E8               	rrcf	wreg,f,c
  2016   002960  32E8               	rrcf	wreg,f,c
  2017   002962  0B07               	andlw	7
  2018   002964  6E16               	movwf	??_gpio_pin_write_logic^0,c
  2019   002966  0E01               	movlw	1
  2020   002968  6E17               	movwf	(??_gpio_pin_write_logic+1)^0,c
  2021   00296A  2A16               	incf	??_gpio_pin_write_logic^0,f,c
  2022   00296C  EFBA  F014         	goto	u8534
  2023   002970                     u8535:
  2024   002970  90D8               	bcf	status,0,c
  2025   002972  3617               	rlcf	(??_gpio_pin_write_logic+1)^0,f,c
  2026   002974                     u8534:
  2027   002974  2E16               	decfsz	??_gpio_pin_write_logic^0,f,c
  2028   002976  EFB8  F014         	goto	u8535
  2029   00297A  5017               	movf	(??_gpio_pin_write_logic+1)^0,w,c
  2030   00297C  0AFF               	xorlw	255
  2031   00297E  6E18               	movwf	(??_gpio_pin_write_logic+2)^0,c
  2032   002980  C013  FFD9         	movff	gpio_pin_write_logic@_pin_config,fsr2l
  2033   002984  C014  FFDA         	movff	gpio_pin_write_logic@_pin_config+1,fsr2h
  2034   002988  50DF               	movf	223,w,c
  2035   00298A  0B07               	andlw	7
  2036   00298C  6E19               	movwf	(??_gpio_pin_write_logic+3)^0,c
  2037   00298E  5019               	movf	(??_gpio_pin_write_logic+3)^0,w,c
  2038   002990  0D02               	mullw	2
  2039   002992  0ECB               	movlw	low _lat_registers
  2040   002994  24F3               	addwf	243,w,c
  2041   002996  6ED9               	movwf	fsr2l,c
  2042   002998  0E00               	movlw	high _lat_registers
  2043   00299A  20F4               	addwfc	prodh,w,c
  2044   00299C  6EDA               	movwf	fsr2h,c
  2045   00299E  CFDE F01A          	movff	postinc2,??_gpio_pin_write_logic+4
  2046   0029A2  CFDD F01B          	movff	postdec2,??_gpio_pin_write_logic+5
  2047   0029A6  C01A  FFD9         	movff	??_gpio_pin_write_logic+4,fsr2l
  2048   0029AA  C01B  FFDA         	movff	??_gpio_pin_write_logic+5,fsr2h
  2049   0029AE  5018               	movf	(??_gpio_pin_write_logic+2)^0,w,c
  2050   0029B0  16DF               	andwf	indf2,f,c
  2051                           
  2052                           ;MCAL_Layer/GPIO/hal_gpio.c: 84:                 break;
  2053   0029B2  EF1E  F015         	goto	l8917
  2054   0029B6                     l8911:
  2055                           
  2056                           ;MCAL_Layer/GPIO/hal_gpio.c: 86:                 (*lat_registers[_pin_config->port] |= (
      +                          (uint8)1 << _pin_config->pin));
  2057   0029B6  C013  FFD9         	movff	gpio_pin_write_logic@_pin_config,fsr2l
  2058   0029BA  C014  FFDA         	movff	gpio_pin_write_logic@_pin_config+1,fsr2h
  2059   0029BE  30DF               	rrcf	223,w,c
  2060   0029C0  32E8               	rrcf	wreg,f,c
  2061   0029C2  32E8               	rrcf	wreg,f,c
  2062   0029C4  0B07               	andlw	7
  2063   0029C6  6E16               	movwf	??_gpio_pin_write_logic^0,c
  2064   0029C8  0E01               	movlw	1
  2065   0029CA  6E17               	movwf	(??_gpio_pin_write_logic+1)^0,c
  2066   0029CC  2A16               	incf	??_gpio_pin_write_logic^0,f,c
  2067   0029CE  EFEB  F014         	goto	u8544
  2068   0029D2                     u8545:
  2069   0029D2  90D8               	bcf	status,0,c
  2070   0029D4  3617               	rlcf	(??_gpio_pin_write_logic+1)^0,f,c
  2071   0029D6                     u8544:
  2072   0029D6  2E16               	decfsz	??_gpio_pin_write_logic^0,f,c
  2073   0029D8  EFE9  F014         	goto	u8545
  2074   0029DC  C013  FFD9         	movff	gpio_pin_write_logic@_pin_config,fsr2l
  2075   0029E0  C014  FFDA         	movff	gpio_pin_write_logic@_pin_config+1,fsr2h
  2076   0029E4  50DF               	movf	223,w,c
  2077   0029E6  0B07               	andlw	7
  2078   0029E8  6E18               	movwf	(??_gpio_pin_write_logic+2)^0,c
  2079   0029EA  5018               	movf	(??_gpio_pin_write_logic+2)^0,w,c
  2080   0029EC  0D02               	mullw	2
  2081   0029EE  0ECB               	movlw	low _lat_registers
  2082   0029F0  24F3               	addwf	243,w,c
  2083   0029F2  6ED9               	movwf	fsr2l,c
  2084   0029F4  0E00               	movlw	high _lat_registers
  2085   0029F6  20F4               	addwfc	prodh,w,c
  2086   0029F8  6EDA               	movwf	fsr2h,c
  2087   0029FA  CFDE F019          	movff	postinc2,??_gpio_pin_write_logic+3
  2088   0029FE  CFDD F01A          	movff	postdec2,??_gpio_pin_write_logic+4
  2089   002A02  C019  FFD9         	movff	??_gpio_pin_write_logic+3,fsr2l
  2090   002A06  C01A  FFDA         	movff	??_gpio_pin_write_logic+4,fsr2h
  2091   002A0A  5017               	movf	(??_gpio_pin_write_logic+1)^0,w,c
  2092   002A0C  12DF               	iorwf	indf2,f,c
  2093                           
  2094                           ;MCAL_Layer/GPIO/hal_gpio.c: 87:                 break;
  2095   002A0E  EF1E  F015         	goto	l8917
  2096   002A12                     l8915:
  2097   002A12  5015               	movf	gpio_pin_write_logic@logic^0,w,c
  2098   002A14  6E16               	movwf	??_gpio_pin_write_logic^0,c
  2099   002A16  6A17               	clrf	(??_gpio_pin_write_logic+1)^0,c
  2100                           
  2101                           ; Switch on 2 bytes has been partitioned into a top level switch of size 1, and 1 sub-sw
      +                          itches
  2102                           ; Switch size 1, requested type "simple"
  2103                           ; Number of cases is 1, Range of values is 0 to 0
  2104                           ; switch strategies available:
  2105                           ; Name         Instructions Cycles
  2106                           ; simple_byte            4     3 (average)
  2107                           ;	Chosen strategy is simple_byte
  2108   002A18  5017               	movf	(??_gpio_pin_write_logic+1)^0,w,c
  2109   002A1A  0A00               	xorlw	0	; case 0
  2110   002A1C  B4D8               	btfsc	status,2,c
  2111   002A1E  EF13  F015         	goto	l10817
  2112   002A22  EFA6  F014         	goto	l8907
  2113   002A26                     l10817:
  2114                           
  2115                           ; Switch size 1, requested type "simple"
  2116                           ; Number of cases is 2, Range of values is 0 to 1
  2117                           ; switch strategies available:
  2118                           ; Name         Instructions Cycles
  2119                           ; simple_byte            7     4 (average)
  2120                           ;	Chosen strategy is simple_byte
  2121   002A26  5016               	movf	??_gpio_pin_write_logic^0,w,c
  2122   002A28  0A00               	xorlw	0	; case 0
  2123   002A2A  B4D8               	btfsc	status,2,c
  2124   002A2C  EFAA  F014         	goto	l8909
  2125   002A30  0A01               	xorlw	1	; case 1
  2126   002A32  B4D8               	btfsc	status,2,c
  2127   002A34  EFDB  F014         	goto	l8911
  2128   002A38  EFA6  F014         	goto	l8907
  2129   002A3C                     l8917:
  2130                           
  2131                           ;MCAL_Layer/GPIO/hal_gpio.c: 91:     return ret;
  2132   002A3C  501C               	movf	gpio_pin_write_logic@ret^0,w,c
  2133   002A3E  0012               	return		;funcret
  2134   002A40                     __end_of_gpio_pin_write_logic:
  2135                           	callstack 0
  2136                           
  2137 ;; *************** function _gpio_pin_direction_intialize *****************
  2138 ;; Defined at:
  2139 ;;		line 25 in file "MCAL_Layer/GPIO/hal_gpio.c"
  2140 ;; Parameters:    Size  Location     Type
  2141 ;;  _pin_config     2   18[COMRAM] PTR const struct .
  2142 ;;		 -> buzzer(1), MSSP_SPI_Slave_Mode_GPIO_PIN_Configurations@SPI_SS(1), MSSP_SPI_Slave_Mode_GPIO_PIN_Configurations@SP
      +I_CLK(1), MSSP_SPI_Slave_Mode_GPIO_PIN_Configurations@SPI_SDI(1), 
  2143 ;;		 -> MSSP_SPI_Slave_Mode_GPIO_PIN_Configurations@SPI_SDO(1), MSSP_SPI_Msster_Mode_GPIO_PIN_Configurations@SPI_CLK(1),
      + MSSP_SPI_Msster_Mode_GPIO_PIN_Configurations@SPI_SDI(1), MSSP_SPI_Msster_Mode_GPIO_PIN_Configurations@SPI_SDO(1), 
  2144 ;;		 -> dc_motor_1.dc_motor_pin(2), dc_motor_1(2), 
  2145 ;; Auto vars:     Size  Location     Type
  2146 ;;  ret             1   26[COMRAM] unsigned char 
  2147 ;; Return value:  Size  Location     Type
  2148 ;;                  1    wreg      unsigned char 
  2149 ;; Registers used:
  2150 ;;		wreg, fsr2l, fsr2h, status,2, status,0, prodl, prodh
  2151 ;; Tracked objects:
  2152 ;;		On entry : 0/0
  2153 ;;		On exit  : 0/0
  2154 ;;		Unchanged: 0/0
  2155 ;; Data sizes:     COMRAM   BANK0   BANK1   BANK2   BANK3   BANK4   BANK5   BANK6   BANK7   BANK8   BANK9  BANK10  BANK1
      +1  BANK12  BANK13  BANK14  BANK15
  2156 ;;      Params:         2       0       0       0       0       0       0       0       0       0       0       0       
      +0       0       0       0       0
  2157 ;;      Locals:         1       0       0       0       0       0       0       0       0       0       0       0       
      +0       0       0       0       0
  2158 ;;      Temps:          6       0       0       0       0       0       0       0       0       0       0       0       
      +0       0       0       0       0
  2159 ;;      Totals:         9       0       0       0       0       0       0       0       0       0       0       0       
      +0       0       0       0       0
  2160 ;;Total ram usage:        9 bytes
  2161 ;; Hardware stack levels used: 1
  2162 ;; Hardware stack levels required when called: 5
  2163 ;; This function calls:
  2164 ;;		Nothing
  2165 ;; This function is called by:
  2166 ;;		_gpio_pin_intialize
  2167 ;;		_button_initialize
  2168 ;;		_keypad_initialize
  2169 ;;		_Interrupt_RBx_Init
  2170 ;;		_Interrupt_INTx_Pin_Init
  2171 ;;		_MSSP_SPI_Msster_Mode_GPIO_PIN_Configurations
  2172 ;;		_MSSP_SPI_Slave_Mode_GPIO_PIN_Configurations
  2173 ;; This function uses a non-reentrant model
  2174 ;;
  2175                           
  2176                           	psect	text9
  2177   0027D0                     __ptext9:
  2178                           	callstack 0
  2179   0027D0                     _gpio_pin_direction_intialize:
  2180                           	callstack 23
  2181   0027D0                     
  2182                           ;MCAL_Layer/GPIO/hal_gpio.c: 26:     Std_ReturnType ret = (Std_ReturnType)0x01;
  2183   0027D0  0E01               	movlw	1
  2184   0027D2  6E1B               	movwf	gpio_pin_direction_intialize@ret^0,c
  2185   0027D4                     
  2186                           ;MCAL_Layer/GPIO/hal_gpio.c: 27:     if(((void*)0) == _pin_config || _pin_config->pin > 
      +                          8 -1){
  2187   0027D4  5013               	movf	gpio_pin_direction_intialize@_pin_config^0,w,c
  2188   0027D6  1014               	iorwf	(gpio_pin_direction_intialize@_pin_config+1)^0,w,c
  2189   0027D8  B4D8               	btfsc	status,2,c
  2190   0027DA  EFF1  F013         	goto	u8551
  2191   0027DE  EFF3  F013         	goto	u8550
  2192   0027E2                     u8551:
  2193   0027E2  EF04  F014         	goto	l8931
  2194   0027E6                     u8550:
  2195   0027E6  C013  FFD9         	movff	gpio_pin_direction_intialize@_pin_config,fsr2l
  2196   0027EA  C014  FFDA         	movff	gpio_pin_direction_intialize@_pin_config+1,fsr2h
  2197   0027EE  30DF               	rrcf	223,w,c
  2198   0027F0  32E8               	rrcf	wreg,f,c
  2199   0027F2  32E8               	rrcf	wreg,f,c
  2200   0027F4  0B07               	andlw	7
  2201   0027F6  6E15               	movwf	??_gpio_pin_direction_intialize^0,c
  2202   0027F8  0E07               	movlw	7
  2203   0027FA  6415               	cpfsgt	??_gpio_pin_direction_intialize^0,c
  2204   0027FC  EF02  F014         	goto	u8561
  2205   002800  EF04  F014         	goto	u8560
  2206   002804                     u8561:
  2207   002804  EF67  F014         	goto	l8939
  2208   002808                     u8560:
  2209   002808                     l8931:
  2210                           
  2211                           ;MCAL_Layer/GPIO/hal_gpio.c: 28:         ret = (Std_ReturnType)0x00;
  2212   002808  0E00               	movlw	0
  2213   00280A  6E1B               	movwf	gpio_pin_direction_intialize@ret^0,c
  2214                           
  2215                           ;MCAL_Layer/GPIO/hal_gpio.c: 29:     }
  2216   00280C  EF88  F014         	goto	l8941
  2217   002810                     l8933:
  2218                           
  2219                           ;MCAL_Layer/GPIO/hal_gpio.c: 33:                 (*tris_registers[_pin_config->port] &= 
      +                          ~((uint8)1 << _pin_config->pin));
  2220   002810  C013  FFD9         	movff	gpio_pin_direction_intialize@_pin_config,fsr2l
  2221   002814  C014  FFDA         	movff	gpio_pin_direction_intialize@_pin_config+1,fsr2h
  2222   002818  30DF               	rrcf	223,w,c
  2223   00281A  32E8               	rrcf	wreg,f,c
  2224   00281C  32E8               	rrcf	wreg,f,c
  2225   00281E  0B07               	andlw	7
  2226   002820  6E15               	movwf	??_gpio_pin_direction_intialize^0,c
  2227   002822  0E01               	movlw	1
  2228   002824  6E16               	movwf	(??_gpio_pin_direction_intialize+1)^0,c
  2229   002826  2A15               	incf	??_gpio_pin_direction_intialize^0,f,c
  2230   002828  EF18  F014         	goto	u8574
  2231   00282C                     u8575:
  2232   00282C  90D8               	bcf	status,0,c
  2233   00282E  3616               	rlcf	(??_gpio_pin_direction_intialize+1)^0,f,c
  2234   002830                     u8574:
  2235   002830  2E15               	decfsz	??_gpio_pin_direction_intialize^0,f,c
  2236   002832  EF16  F014         	goto	u8575
  2237   002836  5016               	movf	(??_gpio_pin_direction_intialize+1)^0,w,c
  2238   002838  0AFF               	xorlw	255
  2239   00283A  6E17               	movwf	(??_gpio_pin_direction_intialize+2)^0,c
  2240   00283C  C013  FFD9         	movff	gpio_pin_direction_intialize@_pin_config,fsr2l
  2241   002840  C014  FFDA         	movff	gpio_pin_direction_intialize@_pin_config+1,fsr2h
  2242   002844  50DF               	movf	223,w,c
  2243   002846  0B07               	andlw	7
  2244   002848  6E18               	movwf	(??_gpio_pin_direction_intialize+3)^0,c
  2245   00284A  5018               	movf	(??_gpio_pin_direction_intialize+3)^0,w,c
  2246   00284C  0D02               	mullw	2
  2247   00284E  0ED5               	movlw	low _tris_registers
  2248   002850  24F3               	addwf	243,w,c
  2249   002852  6ED9               	movwf	fsr2l,c
  2250   002854  0E00               	movlw	high _tris_registers
  2251   002856  20F4               	addwfc	prodh,w,c
  2252   002858  6EDA               	movwf	fsr2h,c
  2253   00285A  CFDE F019          	movff	postinc2,??_gpio_pin_direction_intialize+4
  2254   00285E  CFDD F01A          	movff	postdec2,??_gpio_pin_direction_intialize+5
  2255   002862  C019  FFD9         	movff	??_gpio_pin_direction_intialize+4,fsr2l
  2256   002866  C01A  FFDA         	movff	??_gpio_pin_direction_intialize+5,fsr2h
  2257   00286A  5017               	movf	(??_gpio_pin_direction_intialize+2)^0,w,c
  2258   00286C  16DF               	andwf	indf2,f,c
  2259                           
  2260                           ;MCAL_Layer/GPIO/hal_gpio.c: 34:                 break;
  2261   00286E  EF88  F014         	goto	l8941
  2262   002872                     l8935:
  2263                           
  2264                           ;MCAL_Layer/GPIO/hal_gpio.c: 36:                 (*tris_registers[_pin_config->port] |= 
      +                          ((uint8)1 << _pin_config->pin));
  2265   002872  C013  FFD9         	movff	gpio_pin_direction_intialize@_pin_config,fsr2l
  2266   002876  C014  FFDA         	movff	gpio_pin_direction_intialize@_pin_config+1,fsr2h
  2267   00287A  30DF               	rrcf	223,w,c
  2268   00287C  32E8               	rrcf	wreg,f,c
  2269   00287E  32E8               	rrcf	wreg,f,c
  2270   002880  0B07               	andlw	7
  2271   002882  6E15               	movwf	??_gpio_pin_direction_intialize^0,c
  2272   002884  0E01               	movlw	1
  2273   002886  6E16               	movwf	(??_gpio_pin_direction_intialize+1)^0,c
  2274   002888  2A15               	incf	??_gpio_pin_direction_intialize^0,f,c
  2275   00288A  EF49  F014         	goto	u8584
  2276   00288E                     u8585:
  2277   00288E  90D8               	bcf	status,0,c
  2278   002890  3616               	rlcf	(??_gpio_pin_direction_intialize+1)^0,f,c
  2279   002892                     u8584:
  2280   002892  2E15               	decfsz	??_gpio_pin_direction_intialize^0,f,c
  2281   002894  EF47  F014         	goto	u8585
  2282   002898  C013  FFD9         	movff	gpio_pin_direction_intialize@_pin_config,fsr2l
  2283   00289C  C014  FFDA         	movff	gpio_pin_direction_intialize@_pin_config+1,fsr2h
  2284   0028A0  50DF               	movf	223,w,c
  2285   0028A2  0B07               	andlw	7
  2286   0028A4  6E17               	movwf	(??_gpio_pin_direction_intialize+2)^0,c
  2287   0028A6  5017               	movf	(??_gpio_pin_direction_intialize+2)^0,w,c
  2288   0028A8  0D02               	mullw	2
  2289   0028AA  0ED5               	movlw	low _tris_registers
  2290   0028AC  24F3               	addwf	243,w,c
  2291   0028AE  6ED9               	movwf	fsr2l,c
  2292   0028B0  0E00               	movlw	high _tris_registers
  2293   0028B2  20F4               	addwfc	prodh,w,c
  2294   0028B4  6EDA               	movwf	fsr2h,c
  2295   0028B6  CFDE F018          	movff	postinc2,??_gpio_pin_direction_intialize+3
  2296   0028BA  CFDD F019          	movff	postdec2,??_gpio_pin_direction_intialize+4
  2297   0028BE  C018  FFD9         	movff	??_gpio_pin_direction_intialize+3,fsr2l
  2298   0028C2  C019  FFDA         	movff	??_gpio_pin_direction_intialize+4,fsr2h
  2299   0028C6  5016               	movf	(??_gpio_pin_direction_intialize+1)^0,w,c
  2300   0028C8  12DF               	iorwf	indf2,f,c
  2301                           
  2302                           ;MCAL_Layer/GPIO/hal_gpio.c: 37:                 break;
  2303   0028CA  EF88  F014         	goto	l8941
  2304   0028CE                     l8939:
  2305   0028CE  C013  FFD9         	movff	gpio_pin_direction_intialize@_pin_config,fsr2l
  2306   0028D2  C014  FFDA         	movff	gpio_pin_direction_intialize@_pin_config+1,fsr2h
  2307   0028D6  BCDF               	btfsc	indf2,6,c
  2308   0028D8  EF70  F014         	goto	u8591
  2309   0028DC  EF73  F014         	goto	u8590
  2310   0028E0                     u8591:
  2311   0028E0  0E01               	movlw	1
  2312   0028E2  EF74  F014         	goto	u8600
  2313   0028E6                     u8590:
  2314   0028E6  0E00               	movlw	0
  2315   0028E8                     u8600:
  2316   0028E8  6E15               	movwf	??_gpio_pin_direction_intialize^0,c
  2317   0028EA  6A16               	clrf	(??_gpio_pin_direction_intialize+1)^0,c
  2318                           
  2319                           ; Switch on 2 bytes has been partitioned into a top level switch of size 1, and 1 sub-sw
      +                          itches
  2320                           ; Switch size 1, requested type "simple"
  2321                           ; Number of cases is 1, Range of values is 0 to 0
  2322                           ; switch strategies available:
  2323                           ; Name         Instructions Cycles
  2324                           ; simple_byte            4     3 (average)
  2325                           ;	Chosen strategy is simple_byte
  2326   0028EC  5016               	movf	(??_gpio_pin_direction_intialize+1)^0,w,c
  2327   0028EE  0A00               	xorlw	0	; case 0
  2328   0028F0  B4D8               	btfsc	status,2,c
  2329   0028F2  EF7D  F014         	goto	l10819
  2330   0028F6  EF04  F014         	goto	l8931
  2331   0028FA                     l10819:
  2332                           
  2333                           ; Switch size 1, requested type "simple"
  2334                           ; Number of cases is 2, Range of values is 0 to 1
  2335                           ; switch strategies available:
  2336                           ; Name         Instructions Cycles
  2337                           ; simple_byte            7     4 (average)
  2338                           ;	Chosen strategy is simple_byte
  2339   0028FA  5015               	movf	??_gpio_pin_direction_intialize^0,w,c
  2340   0028FC  0A00               	xorlw	0	; case 0
  2341   0028FE  B4D8               	btfsc	status,2,c
  2342   002900  EF08  F014         	goto	l8933
  2343   002904  0A01               	xorlw	1	; case 1
  2344   002906  B4D8               	btfsc	status,2,c
  2345   002908  EF39  F014         	goto	l8935
  2346   00290C  EF04  F014         	goto	l8931
  2347   002910                     l8941:
  2348                           
  2349                           ;MCAL_Layer/GPIO/hal_gpio.c: 41:     return ret;
  2350   002910  501B               	movf	gpio_pin_direction_intialize@ret^0,w,c
  2351   002912  0012               	return		;funcret
  2352   002914                     __end_of_gpio_pin_direction_intialize:
  2353                           	callstack 0
  2354                           
  2355 ;; *************** function _Timer0_Init *****************
  2356 ;; Defined at:
  2357 ;;		line 19 in file "MCAL_Layer/Timer0/hal_timr0.c"
  2358 ;; Parameters:    Size  Location     Type
  2359 ;;  _timer          2   21[COMRAM] PTR const struct .
  2360 ;;		 -> timer_obj(7), 
  2361 ;; Auto vars:     Size  Location     Type
  2362 ;;  ret             1   25[COMRAM] unsigned char 
  2363 ;; Return value:  Size  Location     Type
  2364 ;;                  1    wreg      unsigned char 
  2365 ;; Registers used:
  2366 ;;		wreg, fsr2l, fsr2h, status,2, status,0, cstack
  2367 ;; Tracked objects:
  2368 ;;		On entry : 0/0
  2369 ;;		On exit  : 0/0
  2370 ;;		Unchanged: 0/0
  2371 ;; Data sizes:     COMRAM   BANK0   BANK1   BANK2   BANK3   BANK4   BANK5   BANK6   BANK7   BANK8   BANK9  BANK10  BANK1
      +1  BANK12  BANK13  BANK14  BANK15
  2372 ;;      Params:         2       0       0       0       0       0       0       0       0       0       0       0       
      +0       0       0       0       0
  2373 ;;      Locals:         1       0       0       0       0       0       0       0       0       0       0       0       
      +0       0       0       0       0
  2374 ;;      Temps:          2       0       0       0       0       0       0       0       0       0       0       0       
      +0       0       0       0       0
  2375 ;;      Totals:         5       0       0       0       0       0       0       0       0       0       0       0       
      +0       0       0       0       0
  2376 ;;Total ram usage:        5 bytes
  2377 ;; Hardware stack levels used: 1
  2378 ;; Hardware stack levels required when called: 6
  2379 ;; This function calls:
  2380 ;;		_Timer0_Mode_Select
  2381 ;;		_Timer0_Prescaler_Config
  2382 ;;		_Timer0_Register_Size_Config
  2383 ;; This function is called by:
  2384 ;;		_application_initialize
  2385 ;; This function uses a non-reentrant model
  2386 ;;
  2387                           
  2388                           	psect	text10
  2389   002ED0                     __ptext10:
  2390                           	callstack 0
  2391   002ED0                     _Timer0_Init:
  2392                           	callstack 23
  2393   002ED0                     
  2394                           ;MCAL_Layer/Timer0/hal_timr0.c: 21:     if(((void*)0) == _timer){
  2395   002ED0  5016               	movf	Timer0_Init@_timer^0,w,c
  2396   002ED2  1017               	iorwf	(Timer0_Init@_timer+1)^0,w,c
  2397   002ED4  A4D8               	btfss	status,2,c
  2398   002ED6  EF6F  F017         	goto	u9941
  2399   002EDA  EF71  F017         	goto	u9940
  2400   002EDE                     u9941:
  2401   002EDE  EF75  F017         	goto	l1419
  2402   002EE2                     u9940:
  2403   002EE2                     
  2404                           ;MCAL_Layer/Timer0/hal_timr0.c: 22:         ret = (Std_ReturnType)0x00;
  2405   002EE2  0E00               	movlw	0
  2406   002EE4  6E1A               	movwf	Timer0_Init@ret^0,c
  2407                           
  2408                           ;MCAL_Layer/Timer0/hal_timr0.c: 23:     }
  2409   002EE6  EFB8  F017         	goto	l9769
  2410   002EEA                     l1419:
  2411                           
  2412                           ;MCAL_Layer/Timer0/hal_timr0.c: 25:         (T0CONbits.TMR0ON = 0);
  2413   002EEA  9ED5               	bcf	213,7,c	;volatile
  2414   002EEC                     
  2415                           ;MCAL_Layer/Timer0/hal_timr0.c: 26:         Timer0_Prescaler_Config(_timer);
  2416   002EEC  C016  F013         	movff	Timer0_Init@_timer,Timer0_Prescaler_Config@_timer
  2417   002EF0  C017  F014         	movff	Timer0_Init@_timer+1,Timer0_Prescaler_Config@_timer+1
  2418   002EF4  ECC7  F019         	call	_Timer0_Prescaler_Config	;wreg free
  2419                           
  2420                           ;MCAL_Layer/Timer0/hal_timr0.c: 27:         Timer0_Mode_Select(_timer);
  2421   002EF8  C016  F013         	movff	Timer0_Init@_timer,Timer0_Mode_Select@_timer
  2422   002EFC  C017  F014         	movff	Timer0_Init@_timer+1,Timer0_Mode_Select@_timer+1
  2423   002F00  ECE9  F018         	call	_Timer0_Mode_Select	;wreg free
  2424                           
  2425                           ;MCAL_Layer/Timer0/hal_timr0.c: 28:         Timer0_Register_Size_Config(_timer);
  2426   002F04  C016  F013         	movff	Timer0_Init@_timer,Timer0_Register_Size_Config@_timer
  2427   002F08  C017  F014         	movff	Timer0_Init@_timer+1,Timer0_Register_Size_Config@_timer+1
  2428   002F0C  ECF3  F01A         	call	_Timer0_Register_Size_Config	;wreg free
  2429   002F10                     
  2430                           ;MCAL_Layer/Timer0/hal_timr0.c: 29:         TMR0H = (_timer->timer0_preload_value) >> 8;
  2431   002F10  EE20 F004          	lfsr	2,4
  2432   002F14  5016               	movf	Timer0_Init@_timer^0,w,c
  2433   002F16  26D9               	addwf	fsr2l,f,c
  2434   002F18  5017               	movf	(Timer0_Init@_timer+1)^0,w,c
  2435   002F1A  22DA               	addwfc	fsr2h,f,c
  2436   002F1C  CFDE F018          	movff	postinc2,??_Timer0_Init
  2437   002F20  CFDD F019          	movff	postdec2,??_Timer0_Init+1
  2438   002F24  C019  F018         	movff	??_Timer0_Init+1,??_Timer0_Init
  2439   002F28  6A19               	clrf	(??_Timer0_Init+1)^0,c
  2440   002F2A  5018               	movf	??_Timer0_Init^0,w,c
  2441   002F2C  6ED7               	movwf	215,c	;volatile
  2442   002F2E                     
  2443                           ;MCAL_Layer/Timer0/hal_timr0.c: 30:         TMR0L = (uint8)(_timer->timer0_preload_value
      +                          );
  2444   002F2E  EE20 F004          	lfsr	2,4
  2445   002F32  5016               	movf	Timer0_Init@_timer^0,w,c
  2446   002F34  26D9               	addwf	fsr2l,f,c
  2447   002F36  5017               	movf	(Timer0_Init@_timer+1)^0,w,c
  2448   002F38  22DA               	addwfc	fsr2h,f,c
  2449   002F3A  50DF               	movf	indf2,w,c
  2450   002F3C  6ED6               	movwf	214,c	;volatile
  2451   002F3E                     
  2452                           ;MCAL_Layer/Timer0/hal_timr0.c: 31:         timer0_preload = _timer->timer0_preload_valu
      +                          e;
  2453   002F3E  EE20 F004          	lfsr	2,4
  2454   002F42  5016               	movf	Timer0_Init@_timer^0,w,c
  2455   002F44  26D9               	addwf	fsr2l,f,c
  2456   002F46  5017               	movf	(Timer0_Init@_timer+1)^0,w,c
  2457   002F48  22DA               	addwfc	fsr2h,f,c
  2458   002F4A  CFDE F09A          	movff	postinc2,_timer0_preload
  2459   002F4E  CFDD F09B          	movff	postdec2,_timer0_preload+1
  2460   002F52                     
  2461                           ;MCAL_Layer/Timer0/hal_timr0.c: 34:         (INTCONbits.TMR0IE = 1);
  2462   002F52  8AF2               	bsf	242,5,c	;volatile
  2463   002F54                     
  2464                           ;MCAL_Layer/Timer0/hal_timr0.c: 35:         (INTCONbits.TMR0IF = 0);
  2465   002F54  94F2               	bcf	242,2,c	;volatile
  2466   002F56                     
  2467                           ;MCAL_Layer/Timer0/hal_timr0.c: 36:         TMR0_InterruptHandler = _timer->TMR0_Interru
      +                          ptHandler;
  2468   002F56  C016  FFD9         	movff	Timer0_Init@_timer,fsr2l
  2469   002F5A  C017  FFDA         	movff	Timer0_Init@_timer+1,fsr2h
  2470   002F5E  CFDE F09C          	movff	postinc2,_TMR0_InterruptHandler
  2471   002F62  CFDD F09D          	movff	postdec2,_TMR0_InterruptHandler+1
  2472   002F66                     
  2473                           ;MCAL_Layer/Timer0/hal_timr0.c: 53:         (INTCONbits.GIE = 1);
  2474   002F66  8EF2               	bsf	242,7,c	;volatile
  2475   002F68                     
  2476                           ;MCAL_Layer/Timer0/hal_timr0.c: 54:         (INTCONbits.PEIE = 1);
  2477   002F68  8CF2               	bsf	242,6,c	;volatile
  2478   002F6A                     
  2479                           ;MCAL_Layer/Timer0/hal_timr0.c: 58:         (T0CONbits.TMR0ON = 1);
  2480   002F6A  8ED5               	bsf	213,7,c	;volatile
  2481   002F6C                     
  2482                           ;MCAL_Layer/Timer0/hal_timr0.c: 59:         ret = (Std_ReturnType)0x01;
  2483   002F6C  0E01               	movlw	1
  2484   002F6E  6E1A               	movwf	Timer0_Init@ret^0,c
  2485   002F70                     l9769:
  2486                           
  2487                           ;MCAL_Layer/Timer0/hal_timr0.c: 61:     return ret;
  2488   002F70  501A               	movf	Timer0_Init@ret^0,w,c
  2489   002F72  0012               	return		;funcret
  2490   002F74                     __end_of_Timer0_Init:
  2491                           	callstack 0
  2492                           
  2493 ;; *************** function _Timer0_Register_Size_Config *****************
  2494 ;; Defined at:
  2495 ;;		line 144 in file "MCAL_Layer/Timer0/hal_timr0.c"
  2496 ;; Parameters:    Size  Location     Type
  2497 ;;  _timer          2   18[COMRAM] PTR const struct .
  2498 ;;		 -> timer_obj(7), 
  2499 ;; Auto vars:     Size  Location     Type
  2500 ;;		None
  2501 ;; Return value:  Size  Location     Type
  2502 ;;                  1    wreg      void 
  2503 ;; Registers used:
  2504 ;;		wreg, fsr2l, fsr2h, status,2, status,0
  2505 ;; Tracked objects:
  2506 ;;		On entry : 0/0
  2507 ;;		On exit  : 0/0
  2508 ;;		Unchanged: 0/0
  2509 ;; Data sizes:     COMRAM   BANK0   BANK1   BANK2   BANK3   BANK4   BANK5   BANK6   BANK7   BANK8   BANK9  BANK10  BANK1
      +1  BANK12  BANK13  BANK14  BANK15
  2510 ;;      Params:         2       0       0       0       0       0       0       0       0       0       0       0       
      +0       0       0       0       0
  2511 ;;      Locals:         0       0       0       0       0       0       0       0       0       0       0       0       
      +0       0       0       0       0
  2512 ;;      Temps:          0       0       0       0       0       0       0       0       0       0       0       0       
      +0       0       0       0       0
  2513 ;;      Totals:         2       0       0       0       0       0       0       0       0       0       0       0       
      +0       0       0       0       0
  2514 ;;Total ram usage:        2 bytes
  2515 ;; Hardware stack levels used: 1
  2516 ;; Hardware stack levels required when called: 5
  2517 ;; This function calls:
  2518 ;;		Nothing
  2519 ;; This function is called by:
  2520 ;;		_Timer0_Init
  2521 ;; This function uses a non-reentrant model
  2522 ;;
  2523                           
  2524                           	psect	text11
  2525   0035E6                     __ptext11:
  2526                           	callstack 0
  2527   0035E6                     _Timer0_Register_Size_Config:
  2528                           	callstack 23
  2529   0035E6                     
  2530                           ;MCAL_Layer/Timer0/hal_timr0.c: 145:     if(1 == _timer->timer0_register_size){
  2531   0035E6  EE20 F006          	lfsr	2,6
  2532   0035EA  5013               	movf	Timer0_Register_Size_Config@_timer^0,w,c
  2533   0035EC  26D9               	addwf	fsr2l,f,c
  2534   0035EE  5014               	movf	(Timer0_Register_Size_Config@_timer+1)^0,w,c
  2535   0035F0  22DA               	addwfc	fsr2h,f,c
  2536   0035F2  A6DF               	btfss	indf2,3,c
  2537   0035F4  EFFE  F01A         	goto	u9491
  2538   0035F8  EF00  F01B         	goto	u9490
  2539   0035FC                     u9491:
  2540   0035FC  EF03  F01B         	goto	l9451
  2541   003600                     u9490:
  2542   003600                     
  2543                           ;MCAL_Layer/Timer0/hal_timr0.c: 146:         (T0CONbits.T08BIT = 1);
  2544   003600  8CD5               	bsf	213,6,c	;volatile
  2545                           
  2546                           ;MCAL_Layer/Timer0/hal_timr0.c: 147:     }
  2547   003602  EF11  F01B         	goto	l1465
  2548   003606                     l9451:
  2549   003606  EE20 F006          	lfsr	2,6
  2550   00360A  5013               	movf	Timer0_Register_Size_Config@_timer^0,w,c
  2551   00360C  26D9               	addwf	fsr2l,f,c
  2552   00360E  5014               	movf	(Timer0_Register_Size_Config@_timer+1)^0,w,c
  2553   003610  22DA               	addwfc	fsr2h,f,c
  2554   003612  B6DF               	btfsc	indf2,3,c
  2555   003614  EF0E  F01B         	goto	u9501
  2556   003618  EF10  F01B         	goto	u9500
  2557   00361C                     u9501:
  2558   00361C  EF11  F01B         	goto	l1465
  2559   003620                     u9500:
  2560   003620                     
  2561                           ;MCAL_Layer/Timer0/hal_timr0.c: 149:         (T0CONbits.T08BIT = 0);
  2562   003620  9CD5               	bcf	213,6,c	;volatile
  2563   003622                     l1465:
  2564   003622  0012               	return		;funcret
  2565   003624                     __end_of_Timer0_Register_Size_Config:
  2566                           	callstack 0
  2567                           
  2568 ;; *************** function _Timer0_Prescaler_Config *****************
  2569 ;; Defined at:
  2570 ;;		line 116 in file "MCAL_Layer/Timer0/hal_timr0.c"
  2571 ;; Parameters:    Size  Location     Type
  2572 ;;  _timer          2   18[COMRAM] PTR const struct .
  2573 ;;		 -> timer_obj(7), 
  2574 ;; Auto vars:     Size  Location     Type
  2575 ;;		None
  2576 ;; Return value:  Size  Location     Type
  2577 ;;                  1    wreg      void 
  2578 ;; Registers used:
  2579 ;;		wreg, fsr2l, fsr2h, status,2, status,0
  2580 ;; Tracked objects:
  2581 ;;		On entry : 0/0
  2582 ;;		On exit  : 0/0
  2583 ;;		Unchanged: 0/0
  2584 ;; Data sizes:     COMRAM   BANK0   BANK1   BANK2   BANK3   BANK4   BANK5   BANK6   BANK7   BANK8   BANK9  BANK10  BANK1
      +1  BANK12  BANK13  BANK14  BANK15
  2585 ;;      Params:         2       0       0       0       0       0       0       0       0       0       0       0       
      +0       0       0       0       0
  2586 ;;      Locals:         0       0       0       0       0       0       0       0       0       0       0       0       
      +0       0       0       0       0
  2587 ;;      Temps:          1       0       0       0       0       0       0       0       0       0       0       0       
      +0       0       0       0       0
  2588 ;;      Totals:         3       0       0       0       0       0       0       0       0       0       0       0       
      +0       0       0       0       0
  2589 ;;Total ram usage:        3 bytes
  2590 ;; Hardware stack levels used: 1
  2591 ;; Hardware stack levels required when called: 5
  2592 ;; This function calls:
  2593 ;;		Nothing
  2594 ;; This function is called by:
  2595 ;;		_Timer0_Init
  2596 ;; This function uses a non-reentrant model
  2597 ;;
  2598                           
  2599                           	psect	text12
  2600   00338E                     __ptext12:
  2601                           	callstack 0
  2602   00338E                     _Timer0_Prescaler_Config:
  2603                           	callstack 23
  2604   00338E                     
  2605                           ;MCAL_Layer/Timer0/hal_timr0.c: 117:     if(1 == _timer->prescaler_enable){
  2606   00338E  EE20 F006          	lfsr	2,6
  2607   003392  5013               	movf	Timer0_Prescaler_Config@_timer^0,w,c
  2608   003394  26D9               	addwf	fsr2l,f,c
  2609   003396  5014               	movf	(Timer0_Prescaler_Config@_timer+1)^0,w,c
  2610   003398  22DA               	addwfc	fsr2h,f,c
  2611   00339A  A0DF               	btfss	indf2,0,c
  2612   00339C  EFD2  F019         	goto	u9431
  2613   0033A0  EFD4  F019         	goto	u9430
  2614   0033A4                     u9431:
  2615   0033A4  EFE4  F019         	goto	l9427
  2616   0033A8                     u9430:
  2617   0033A8                     
  2618                           ;MCAL_Layer/Timer0/hal_timr0.c: 118:         (T0CONbits.PSA = 0);
  2619   0033A8  96D5               	bcf	213,3,c	;volatile
  2620   0033AA                     
  2621                           ;MCAL_Layer/Timer0/hal_timr0.c: 119:         T0CONbits.T0PS = _timer->prescaler_value;
  2622   0033AA  EE20 F003          	lfsr	2,3
  2623   0033AE  5013               	movf	Timer0_Prescaler_Config@_timer^0,w,c
  2624   0033B0  26D9               	addwf	fsr2l,f,c
  2625   0033B2  5014               	movf	(Timer0_Prescaler_Config@_timer+1)^0,w,c
  2626   0033B4  22DA               	addwfc	fsr2h,f,c
  2627   0033B6  50DF               	movf	indf2,w,c
  2628   0033B8  6E15               	movwf	??_Timer0_Prescaler_Config^0,c
  2629   0033BA  50D5               	movf	213,w,c	;volatile
  2630   0033BC  1815               	xorwf	??_Timer0_Prescaler_Config^0,w,c
  2631   0033BE  0BF8               	andlw	-8
  2632   0033C0  1815               	xorwf	??_Timer0_Prescaler_Config^0,w,c
  2633   0033C2  6ED5               	movwf	213,c	;volatile
  2634                           
  2635                           ;MCAL_Layer/Timer0/hal_timr0.c: 120:     }
  2636   0033C4  EFF2  F019         	goto	l1447
  2637   0033C8                     l9427:
  2638   0033C8  EE20 F006          	lfsr	2,6
  2639   0033CC  5013               	movf	Timer0_Prescaler_Config@_timer^0,w,c
  2640   0033CE  26D9               	addwf	fsr2l,f,c
  2641   0033D0  5014               	movf	(Timer0_Prescaler_Config@_timer+1)^0,w,c
  2642   0033D2  22DA               	addwfc	fsr2h,f,c
  2643   0033D4  B0DF               	btfsc	indf2,0,c
  2644   0033D6  EFEF  F019         	goto	u9441
  2645   0033DA  EFF1  F019         	goto	u9440
  2646   0033DE                     u9441:
  2647   0033DE  EFF2  F019         	goto	l1447
  2648   0033E2                     u9440:
  2649   0033E2                     
  2650                           ;MCAL_Layer/Timer0/hal_timr0.c: 122:         (T0CONbits.PSA = 1);
  2651   0033E2  86D5               	bsf	213,3,c	;volatile
  2652   0033E4                     l1447:
  2653   0033E4  0012               	return		;funcret
  2654   0033E6                     __end_of_Timer0_Prescaler_Config:
  2655                           	callstack 0
  2656                           
  2657 ;; *************** function _Timer0_Mode_Select *****************
  2658 ;; Defined at:
  2659 ;;		line 127 in file "MCAL_Layer/Timer0/hal_timr0.c"
  2660 ;; Parameters:    Size  Location     Type
  2661 ;;  _timer          2   18[COMRAM] PTR const struct .
  2662 ;;		 -> timer_obj(7), 
  2663 ;; Auto vars:     Size  Location     Type
  2664 ;;		None
  2665 ;; Return value:  Size  Location     Type
  2666 ;;                  1    wreg      void 
  2667 ;; Registers used:
  2668 ;;		wreg, fsr2l, fsr2h, status,2, status,0
  2669 ;; Tracked objects:
  2670 ;;		On entry : 0/0
  2671 ;;		On exit  : 0/0
  2672 ;;		Unchanged: 0/0
  2673 ;; Data sizes:     COMRAM   BANK0   BANK1   BANK2   BANK3   BANK4   BANK5   BANK6   BANK7   BANK8   BANK9  BANK10  BANK1
      +1  BANK12  BANK13  BANK14  BANK15
  2674 ;;      Params:         2       0       0       0       0       0       0       0       0       0       0       0       
      +0       0       0       0       0
  2675 ;;      Locals:         0       0       0       0       0       0       0       0       0       0       0       0       
      +0       0       0       0       0
  2676 ;;      Temps:          0       0       0       0       0       0       0       0       0       0       0       0       
      +0       0       0       0       0
  2677 ;;      Totals:         2       0       0       0       0       0       0       0       0       0       0       0       
      +0       0       0       0       0
  2678 ;;Total ram usage:        2 bytes
  2679 ;; Hardware stack levels used: 1
  2680 ;; Hardware stack levels required when called: 5
  2681 ;; This function calls:
  2682 ;;		Nothing
  2683 ;; This function is called by:
  2684 ;;		_Timer0_Init
  2685 ;; This function uses a non-reentrant model
  2686 ;;
  2687                           
  2688                           	psect	text13
  2689   0031D2                     __ptext13:
  2690                           	callstack 0
  2691   0031D2                     _Timer0_Mode_Select:
  2692                           	callstack 23
  2693   0031D2                     
  2694                           ;MCAL_Layer/Timer0/hal_timr0.c: 128:     if(1 == _timer->timer0_mode){
  2695   0031D2  EE20 F006          	lfsr	2,6
  2696   0031D6  5013               	movf	Timer0_Mode_Select@_timer^0,w,c
  2697   0031D8  26D9               	addwf	fsr2l,f,c
  2698   0031DA  5014               	movf	(Timer0_Mode_Select@_timer+1)^0,w,c
  2699   0031DC  22DA               	addwfc	fsr2h,f,c
  2700   0031DE  A4DF               	btfss	indf2,2,c
  2701   0031E0  EFF4  F018         	goto	u9451
  2702   0031E4  EFF6  F018         	goto	u9450
  2703   0031E8                     u9451:
  2704   0031E8  EFF9  F018         	goto	l9435
  2705   0031EC                     u9450:
  2706   0031EC                     
  2707                           ;MCAL_Layer/Timer0/hal_timr0.c: 129:         (T0CONbits.T0CS = 0);
  2708   0031EC  9AD5               	bcf	213,5,c	;volatile
  2709                           
  2710                           ;MCAL_Layer/Timer0/hal_timr0.c: 130:     }
  2711   0031EE  EF27  F019         	goto	l1458
  2712   0031F2                     l9435:
  2713   0031F2  EE20 F006          	lfsr	2,6
  2714   0031F6  5013               	movf	Timer0_Mode_Select@_timer^0,w,c
  2715   0031F8  26D9               	addwf	fsr2l,f,c
  2716   0031FA  5014               	movf	(Timer0_Mode_Select@_timer+1)^0,w,c
  2717   0031FC  22DA               	addwfc	fsr2h,f,c
  2718   0031FE  B4DF               	btfsc	indf2,2,c
  2719   003200  EF04  F019         	goto	u9461
  2720   003204  EF06  F019         	goto	u9460
  2721   003208                     u9461:
  2722   003208  EF27  F019         	goto	l1458
  2723   00320C                     u9460:
  2724   00320C                     
  2725                           ;MCAL_Layer/Timer0/hal_timr0.c: 132:         (T0CONbits.T0CS = 1);
  2726   00320C  8AD5               	bsf	213,5,c	;volatile
  2727   00320E                     
  2728                           ;MCAL_Layer/Timer0/hal_timr0.c: 133:         if(1 == _timer->timer0_counter_edge){
  2729   00320E  EE20 F006          	lfsr	2,6
  2730   003212  5013               	movf	Timer0_Mode_Select@_timer^0,w,c
  2731   003214  26D9               	addwf	fsr2l,f,c
  2732   003216  5014               	movf	(Timer0_Mode_Select@_timer+1)^0,w,c
  2733   003218  22DA               	addwfc	fsr2h,f,c
  2734   00321A  A2DF               	btfss	indf2,1,c
  2735   00321C  EF12  F019         	goto	u9471
  2736   003220  EF14  F019         	goto	u9470
  2737   003224                     u9471:
  2738   003224  EF17  F019         	goto	l9443
  2739   003228                     u9470:
  2740   003228                     
  2741                           ;MCAL_Layer/Timer0/hal_timr0.c: 134:             (T0CONbits.T0SE = 0);
  2742   003228  98D5               	bcf	213,4,c	;volatile
  2743                           
  2744                           ;MCAL_Layer/Timer0/hal_timr0.c: 135:         }
  2745   00322A  EF27  F019         	goto	l1458
  2746   00322E                     l9443:
  2747   00322E  EE20 F006          	lfsr	2,6
  2748   003232  5013               	movf	Timer0_Mode_Select@_timer^0,w,c
  2749   003234  26D9               	addwf	fsr2l,f,c
  2750   003236  5014               	movf	(Timer0_Mode_Select@_timer+1)^0,w,c
  2751   003238  22DA               	addwfc	fsr2h,f,c
  2752   00323A  B2DF               	btfsc	indf2,1,c
  2753   00323C  EF22  F019         	goto	u9481
  2754   003240  EF24  F019         	goto	u9480
  2755   003244                     u9481:
  2756   003244  EF27  F019         	goto	l1457
  2757   003248                     u9480:
  2758   003248                     
  2759                           ;MCAL_Layer/Timer0/hal_timr0.c: 137:             (T0CONbits.T0SE = 1);
  2760   003248  88D5               	bsf	213,4,c	;volatile
  2761                           
  2762                           ;MCAL_Layer/Timer0/hal_timr0.c: 138:         }
  2763   00324A  EF27  F019         	goto	l1458
  2764   00324E                     l1457:
  2765   00324E                     l1458:
  2766   00324E  0012               	return		;funcret
  2767   003250                     __end_of_Timer0_Mode_Select:
  2768                           	callstack 0
  2769                           
  2770 ;; *************** function _MSSP_I2C_Init *****************
  2771 ;; Defined at:
  2772 ;;		line 21 in file "MCAL_Layer/I2C/hal_i2c.c"
  2773 ;; Parameters:    Size  Location     Type
  2774 ;;  i2c_obj         2    0[BANK1 ] PTR const struct .
  2775 ;;		 -> i2c_obj(15), 
  2776 ;; Auto vars:     Size  Location     Type
  2777 ;;  ret             1    1[BANK0 ] unsigned char 
  2778 ;; Return value:  Size  Location     Type
  2779 ;;                  1    wreg      unsigned char 
  2780 ;; Registers used:
  2781 ;;		wreg, fsr2l, fsr2h, status,2, status,0, cstack
  2782 ;; Tracked objects:
  2783 ;;		On entry : 0/0
  2784 ;;		On exit  : 0/0
  2785 ;;		Unchanged: 0/0
  2786 ;; Data sizes:     COMRAM   BANK0   BANK1   BANK2   BANK3   BANK4   BANK5   BANK6   BANK7   BANK8   BANK9  BANK10  BANK1
      +1  BANK12  BANK13  BANK14  BANK15
  2787 ;;      Params:         0       0       2       0       0       0       0       0       0       0       0       0       
      +0       0       0       0       0
  2788 ;;      Locals:         0       1       0       0       0       0       0       0       0       0       0       0       
      +0       0       0       0       0
  2789 ;;      Temps:          0       0       0       0       0       0       0       0       0       0       0       0       
      +0       0       0       0       0
  2790 ;;      Totals:         0       1       2       0       0       0       0       0       0       0       0       0       
      +0       0       0       0       0
  2791 ;;Total ram usage:        3 bytes
  2792 ;; Hardware stack levels used: 1
  2793 ;; Hardware stack levels required when called: 7
  2794 ;; This function calls:
  2795 ;;		_I2C_Master_Mode_Clock_Configurations
  2796 ;;		_I2C_Slave_Mode_Configurations
  2797 ;;		_MSSP_I2C_Interrupt_Configurations
  2798 ;;		_MSSP_I2C_Mode_GPIO_CFG
  2799 ;; This function is called by:
  2800 ;;		_application_initialize
  2801 ;; This function uses a non-reentrant model
  2802 ;;
  2803                           
  2804                           	psect	text14
  2805   002530                     __ptext14:
  2806                           	callstack 0
  2807   002530                     _MSSP_I2C_Init:
  2808                           	callstack 22
  2809   002530                     
  2810                           ;MCAL_Layer/I2C/hal_i2c.c: 22:     Std_ReturnType ret = (Std_ReturnType)0x01;
  2811   002530  0E01               	movlw	1
  2812   002532  0100               	movlb	0	; () banked
  2813   002534  6FFF               	movwf	MSSP_I2C_Init@ret& (0+255),b
  2814   002536                     
  2815                           ; BSR set to: 0
  2816                           ;MCAL_Layer/I2C/hal_i2c.c: 23:     if(((void*)0) == i2c_obj){
  2817   002536  0101               	movlb	1	; () banked
  2818   002538  5134               	movf	MSSP_I2C_Init@i2c_obj& (0+255),w,b
  2819   00253A  1135               	iorwf	(MSSP_I2C_Init@i2c_obj+1)& (0+255),w,b
  2820   00253C  A4D8               	btfss	status,2,c
  2821   00253E  EFA3  F012         	goto	u9661
  2822   002542  EFA5  F012         	goto	u9660
  2823   002546                     u9661:
  2824   002546  EFAA  F012         	goto	l822
  2825   00254A                     u9660:
  2826   00254A                     
  2827                           ; BSR set to: 1
  2828                           ;MCAL_Layer/I2C/hal_i2c.c: 24:         ret = (Std_ReturnType)0x00;
  2829   00254A  0E00               	movlw	0
  2830   00254C  0100               	movlb	0	; () banked
  2831   00254E  6FFF               	movwf	MSSP_I2C_Init@ret& (0+255),b
  2832                           
  2833                           ;MCAL_Layer/I2C/hal_i2c.c: 25:     }
  2834   002550  EF42  F013         	goto	l9665
  2835   002554                     l822:
  2836                           
  2837                           ; BSR set to: 1
  2838                           ;MCAL_Layer/I2C/hal_i2c.c: 28:         (SSPCON1bits.SSPEN = 0);
  2839   002554  9AC6               	bcf	198,5,c	;volatile
  2840   002556                     
  2841                           ; BSR set to: 1
  2842                           ;MCAL_Layer/I2C/hal_i2c.c: 30:         if(1 == i2c_obj->i2c_cfg.i2c_mode){
  2843   002556  EE20 F006          	lfsr	2,6
  2844   00255A  5134               	movf	MSSP_I2C_Init@i2c_obj& (0+255),w,b
  2845   00255C  26D9               	addwf	fsr2l,f,c
  2846   00255E  5135               	movf	(MSSP_I2C_Init@i2c_obj+1)& (0+255),w,b
  2847   002560  22DA               	addwfc	fsr2h,f,c
  2848   002562  A0DF               	btfss	indf2,0,c
  2849   002564  EFB6  F012         	goto	u9671
  2850   002568  EFB8  F012         	goto	u9670
  2851   00256C                     u9671:
  2852   00256C  EFC0  F012         	goto	l9629
  2853   002570                     u9670:
  2854   002570                     
  2855                           ; BSR set to: 1
  2856                           ;MCAL_Layer/I2C/hal_i2c.c: 32:             I2C_Master_Mode_Clock_Configurations(i2c_obj)
      +                          ;
  2857   002570  C134  F054         	movff	MSSP_I2C_Init@i2c_obj,I2C_Master_Mode_Clock_Configurations@i2c_obj
  2858   002574  C135  F055         	movff	MSSP_I2C_Init@i2c_obj+1,I2C_Master_Mode_Clock_Configurations@i2c_obj+1
  2859   002578  ECBA  F017         	call	_I2C_Master_Mode_Clock_Configurations	;wreg free
  2860                           
  2861                           ;MCAL_Layer/I2C/hal_i2c.c: 33:         }
  2862   00257C  EFFC  F012         	goto	l9643
  2863   002580                     l9629:
  2864                           
  2865                           ; BSR set to: 1
  2866   002580  EE20 F006          	lfsr	2,6
  2867   002584  5134               	movf	MSSP_I2C_Init@i2c_obj& (0+255),w,b
  2868   002586  26D9               	addwf	fsr2l,f,c
  2869   002588  5135               	movf	(MSSP_I2C_Init@i2c_obj+1)& (0+255),w,b
  2870   00258A  22DA               	addwfc	fsr2h,f,c
  2871   00258C  B0DF               	btfsc	indf2,0,c
  2872   00258E  EFCB  F012         	goto	u9681
  2873   002592  EFCD  F012         	goto	u9680
  2874   002596                     u9681:
  2875   002596  EFFC  F012         	goto	l9643
  2876   00259A                     u9680:
  2877   00259A                     
  2878                           ; BSR set to: 1
  2879                           ;MCAL_Layer/I2C/hal_i2c.c: 36:             if(1 == i2c_obj->i2c_cfg.i2c_general_call){
  2880   00259A  EE20 F006          	lfsr	2,6
  2881   00259E  5134               	movf	MSSP_I2C_Init@i2c_obj& (0+255),w,b
  2882   0025A0  26D9               	addwf	fsr2l,f,c
  2883   0025A2  5135               	movf	(MSSP_I2C_Init@i2c_obj+1)& (0+255),w,b
  2884   0025A4  22DA               	addwfc	fsr2h,f,c
  2885   0025A6  A6DF               	btfss	indf2,3,c
  2886   0025A8  EFD8  F012         	goto	u9691
  2887   0025AC  EFDA  F012         	goto	u9690
  2888   0025B0                     u9691:
  2889   0025B0  EFDD  F012         	goto	l9635
  2890   0025B4                     u9690:
  2891   0025B4                     
  2892                           ; BSR set to: 1
  2893                           ;MCAL_Layer/I2C/hal_i2c.c: 37:                 (SSPCON2bits.GCEN = 1);
  2894   0025B4  8EC5               	bsf	197,7,c	;volatile
  2895                           
  2896                           ;MCAL_Layer/I2C/hal_i2c.c: 38:             }
  2897   0025B6  EFEB  F012         	goto	l828
  2898   0025BA                     l9635:
  2899                           
  2900                           ; BSR set to: 1
  2901   0025BA  EE20 F006          	lfsr	2,6
  2902   0025BE  5134               	movf	MSSP_I2C_Init@i2c_obj& (0+255),w,b
  2903   0025C0  26D9               	addwf	fsr2l,f,c
  2904   0025C2  5135               	movf	(MSSP_I2C_Init@i2c_obj+1)& (0+255),w,b
  2905   0025C4  22DA               	addwfc	fsr2h,f,c
  2906   0025C6  B6DF               	btfsc	indf2,3,c
  2907   0025C8  EFE8  F012         	goto	u9701
  2908   0025CC  EFEA  F012         	goto	u9700
  2909   0025D0                     u9701:
  2910   0025D0  EFEB  F012         	goto	l828
  2911   0025D4                     u9700:
  2912   0025D4                     
  2913                           ; BSR set to: 1
  2914                           ;MCAL_Layer/I2C/hal_i2c.c: 40:                 (SSPCON2bits.GCEN = 0);
  2915   0025D4  9EC5               	bcf	197,7,c	;volatile
  2916   0025D6                     l828:
  2917                           
  2918                           ; BSR set to: 1
  2919                           ;MCAL_Layer/I2C/hal_i2c.c: 44:             SSPCON1bits.WCOL = 0;
  2920   0025D6  9EC6               	bcf	198,7,c	;volatile
  2921                           
  2922                           ;MCAL_Layer/I2C/hal_i2c.c: 46:             SSPCON1bits.SSPOV = 0;
  2923   0025D8  9CC6               	bcf	198,6,c	;volatile
  2924                           
  2925                           ;MCAL_Layer/I2C/hal_i2c.c: 48:             SSPCON1bits.CKP = 1;
  2926   0025DA  88C6               	bsf	198,4,c	;volatile
  2927   0025DC                     
  2928                           ; BSR set to: 1
  2929                           ;MCAL_Layer/I2C/hal_i2c.c: 50:             SSPADD = i2c_obj->i2c_cfg.i2c_slave_address;
  2930   0025DC  EE20 F005          	lfsr	2,5
  2931   0025E0  5134               	movf	MSSP_I2C_Init@i2c_obj& (0+255),w,b
  2932   0025E2  26D9               	addwf	fsr2l,f,c
  2933   0025E4  5135               	movf	(MSSP_I2C_Init@i2c_obj+1)& (0+255),w,b
  2934   0025E6  22DA               	addwfc	fsr2h,f,c
  2935   0025E8  50DF               	movf	indf2,w,c
  2936   0025EA  6EC8               	movwf	200,c	;volatile
  2937   0025EC                     
  2938                           ; BSR set to: 1
  2939                           ;MCAL_Layer/I2C/hal_i2c.c: 52:             I2C_Slave_Mode_Configurations(i2c_obj);
  2940   0025EC  C134  F013         	movff	MSSP_I2C_Init@i2c_obj,I2C_Slave_Mode_Configurations@i2c_obj
  2941   0025F0  C135  F014         	movff	MSSP_I2C_Init@i2c_obj+1,I2C_Slave_Mode_Configurations@i2c_obj+1
  2942   0025F4  EC09  F01C         	call	_I2C_Slave_Mode_Configurations	;wreg free
  2943   0025F8                     l9643:
  2944                           
  2945                           ;MCAL_Layer/I2C/hal_i2c.c: 56:         MSSP_I2C_Mode_GPIO_CFG();
  2946   0025F8  EC82  F01C         	call	_MSSP_I2C_Mode_GPIO_CFG	;wreg free
  2947   0025FC                     
  2948                           ;MCAL_Layer/I2C/hal_i2c.c: 58:         if(1 == i2c_obj->i2c_cfg.i2c_slew_rate){
  2949   0025FC  0101               	movlb	1	; () banked
  2950   0025FE  EE20 F006          	lfsr	2,6
  2951   002602  5134               	movf	MSSP_I2C_Init@i2c_obj& (0+255),w,b
  2952   002604  26D9               	addwf	fsr2l,f,c
  2953   002606  5135               	movf	(MSSP_I2C_Init@i2c_obj+1)& (0+255),w,b
  2954   002608  22DA               	addwfc	fsr2h,f,c
  2955   00260A  A2DF               	btfss	indf2,1,c
  2956   00260C  EF0A  F013         	goto	u9711
  2957   002610  EF0C  F013         	goto	u9710
  2958   002614                     u9711:
  2959   002614  EF0F  F013         	goto	l9649
  2960   002618                     u9710:
  2961   002618                     
  2962                           ; BSR set to: 1
  2963                           ;MCAL_Layer/I2C/hal_i2c.c: 59:             (SSPSTATbits.SMP = 1);
  2964   002618  8EC7               	bsf	199,7,c	;volatile
  2965                           
  2966                           ;MCAL_Layer/I2C/hal_i2c.c: 60:         }
  2967   00261A  EF1D  F013         	goto	l9653
  2968   00261E                     l9649:
  2969                           
  2970                           ; BSR set to: 1
  2971   00261E  EE20 F006          	lfsr	2,6
  2972   002622  5134               	movf	MSSP_I2C_Init@i2c_obj& (0+255),w,b
  2973   002624  26D9               	addwf	fsr2l,f,c
  2974   002626  5135               	movf	(MSSP_I2C_Init@i2c_obj+1)& (0+255),w,b
  2975   002628  22DA               	addwfc	fsr2h,f,c
  2976   00262A  B2DF               	btfsc	indf2,1,c
  2977   00262C  EF1A  F013         	goto	u9721
  2978   002630  EF1C  F013         	goto	u9720
  2979   002634                     u9721:
  2980   002634  EF1D  F013         	goto	l9653
  2981   002638                     u9720:
  2982   002638                     
  2983                           ; BSR set to: 1
  2984                           ;MCAL_Layer/I2C/hal_i2c.c: 62:             (SSPSTATbits.SMP = 0);
  2985   002638  9EC7               	bcf	199,7,c	;volatile
  2986   00263A                     l9653:
  2987                           
  2988                           ; BSR set to: 1
  2989                           ;MCAL_Layer/I2C/hal_i2c.c: 66:         if(1 == i2c_obj->i2c_cfg.i2c_SMBus_control){
  2990   00263A  EE20 F006          	lfsr	2,6
  2991   00263E  5134               	movf	MSSP_I2C_Init@i2c_obj& (0+255),w,b
  2992   002640  26D9               	addwf	fsr2l,f,c
  2993   002642  5135               	movf	(MSSP_I2C_Init@i2c_obj+1)& (0+255),w,b
  2994   002644  22DA               	addwfc	fsr2h,f,c
  2995   002646  A4DF               	btfss	indf2,2,c
  2996   002648  EF28  F013         	goto	u9731
  2997   00264C  EF2A  F013         	goto	u9730
  2998   002650                     u9731:
  2999   002650  EF2D  F013         	goto	l9657
  3000   002654                     u9730:
  3001   002654                     
  3002                           ; BSR set to: 1
  3003                           ;MCAL_Layer/I2C/hal_i2c.c: 67:             (SSPSTATbits.CKE = 1);
  3004   002654  8CC7               	bsf	199,6,c	;volatile
  3005                           
  3006                           ;MCAL_Layer/I2C/hal_i2c.c: 68:         }
  3007   002656  EF3B  F013         	goto	l9661
  3008   00265A                     l9657:
  3009                           
  3010                           ; BSR set to: 1
  3011   00265A  EE20 F006          	lfsr	2,6
  3012   00265E  5134               	movf	MSSP_I2C_Init@i2c_obj& (0+255),w,b
  3013   002660  26D9               	addwf	fsr2l,f,c
  3014   002662  5135               	movf	(MSSP_I2C_Init@i2c_obj+1)& (0+255),w,b
  3015   002664  22DA               	addwfc	fsr2h,f,c
  3016   002666  B4DF               	btfsc	indf2,2,c
  3017   002668  EF38  F013         	goto	u9741
  3018   00266C  EF3A  F013         	goto	u9740
  3019   002670                     u9741:
  3020   002670  EF3B  F013         	goto	l9661
  3021   002674                     u9740:
  3022   002674                     
  3023                           ; BSR set to: 1
  3024                           ;MCAL_Layer/I2C/hal_i2c.c: 70:             (SSPSTATbits.CKE = 0);
  3025   002674  9CC7               	bcf	199,6,c	;volatile
  3026   002676                     l9661:
  3027                           
  3028                           ; BSR set to: 1
  3029                           ;MCAL_Layer/I2C/hal_i2c.c: 75:       MSSP_I2C_Interrupt_Configurations(i2c_obj);
  3030   002676  C134  F013         	movff	MSSP_I2C_Init@i2c_obj,MSSP_I2C_Interrupt_Configurations@i2c_obj
  3031   00267A  C135  F014         	movff	MSSP_I2C_Init@i2c_obj+1,MSSP_I2C_Interrupt_Configurations@i2c_obj+1
  3032   00267E  EC6D  F01A         	call	_MSSP_I2C_Interrupt_Configurations	;wreg free
  3033   002682                     
  3034                           ;MCAL_Layer/I2C/hal_i2c.c: 78:         (SSPCON1bits.SSPEN = 1);
  3035   002682  8AC6               	bsf	198,5,c	;volatile
  3036   002684                     l9665:
  3037                           
  3038                           ;MCAL_Layer/I2C/hal_i2c.c: 81:     return ret;
  3039   002684  0100               	movlb	0	; () banked
  3040   002686  51FF               	movf	MSSP_I2C_Init@ret& (0+255),w,b
  3041   002688                     
  3042                           ; BSR set to: 0
  3043   002688  0012               	return		;funcret
  3044   00268A                     __end_of_MSSP_I2C_Init:
  3045                           	callstack 0
  3046                           
  3047 ;; *************** function _MSSP_I2C_Mode_GPIO_CFG *****************
  3048 ;; Defined at:
  3049 ;;		line 347 in file "MCAL_Layer/I2C/hal_i2c.c"
  3050 ;; Parameters:    Size  Location     Type
  3051 ;;		None
  3052 ;; Auto vars:     Size  Location     Type
  3053 ;;		None
  3054 ;; Return value:  Size  Location     Type
  3055 ;;                  1    wreg      void 
  3056 ;; Registers used:
  3057 ;;		None
  3058 ;; Tracked objects:
  3059 ;;		On entry : 0/0
  3060 ;;		On exit  : 0/0
  3061 ;;		Unchanged: 0/0
  3062 ;; Data sizes:     COMRAM   BANK0   BANK1   BANK2   BANK3   BANK4   BANK5   BANK6   BANK7   BANK8   BANK9  BANK10  BANK1
      +1  BANK12  BANK13  BANK14  BANK15
  3063 ;;      Params:         0       0       0       0       0       0       0       0       0       0       0       0       
      +0       0       0       0       0
  3064 ;;      Locals:         0       0       0       0       0       0       0       0       0       0       0       0       
      +0       0       0       0       0
  3065 ;;      Temps:          0       0       0       0       0       0       0       0       0       0       0       0       
      +0       0       0       0       0
  3066 ;;      Totals:         0       0       0       0       0       0       0       0       0       0       0       0       
      +0       0       0       0       0
  3067 ;;Total ram usage:        0 bytes
  3068 ;; Hardware stack levels used: 1
  3069 ;; Hardware stack levels required when called: 5
  3070 ;; This function calls:
  3071 ;;		Nothing
  3072 ;; This function is called by:
  3073 ;;		_MSSP_I2C_Init
  3074 ;; This function uses a non-reentrant model
  3075 ;;
  3076                           
  3077                           	psect	text15
  3078   003904                     __ptext15:
  3079                           	callstack 0
  3080   003904                     _MSSP_I2C_Mode_GPIO_CFG:
  3081                           	callstack 23
  3082   003904                     
  3083                           ;MCAL_Layer/I2C/hal_i2c.c: 348:     TRISCbits.TRISC3 = 1;
  3084   003904  8694               	bsf	148,3,c	;volatile
  3085                           
  3086                           ;MCAL_Layer/I2C/hal_i2c.c: 349:     TRISCbits.TRISC4 = 1;
  3087   003906  8894               	bsf	148,4,c	;volatile
  3088   003908  0012               	return		;funcret
  3089   00390A                     __end_of_MSSP_I2C_Mode_GPIO_CFG:
  3090                           	callstack 0
  3091                           
  3092 ;; *************** function _MSSP_I2C_Interrupt_Configurations *****************
  3093 ;; Defined at:
  3094 ;;		line 362 in file "MCAL_Layer/I2C/hal_i2c.c"
  3095 ;; Parameters:    Size  Location     Type
  3096 ;;  i2c_obj         2   18[COMRAM] PTR const struct .
  3097 ;;		 -> i2c_obj(15), 
  3098 ;; Auto vars:     Size  Location     Type
  3099 ;;		None
  3100 ;; Return value:  Size  Location     Type
  3101 ;;                  1    wreg      void 
  3102 ;; Registers used:
  3103 ;;		wreg, fsr2l, fsr2h, status,2, status,0
  3104 ;; Tracked objects:
  3105 ;;		On entry : 0/0
  3106 ;;		On exit  : 0/0
  3107 ;;		Unchanged: 0/0
  3108 ;; Data sizes:     COMRAM   BANK0   BANK1   BANK2   BANK3   BANK4   BANK5   BANK6   BANK7   BANK8   BANK9  BANK10  BANK1
      +1  BANK12  BANK13  BANK14  BANK15
  3109 ;;      Params:         2       0       0       0       0       0       0       0       0       0       0       0       
      +0       0       0       0       0
  3110 ;;      Locals:         0       0       0       0       0       0       0       0       0       0       0       0       
      +0       0       0       0       0
  3111 ;;      Temps:          0       0       0       0       0       0       0       0       0       0       0       0       
      +0       0       0       0       0
  3112 ;;      Totals:         2       0       0       0       0       0       0       0       0       0       0       0       
      +0       0       0       0       0
  3113 ;;Total ram usage:        2 bytes
  3114 ;; Hardware stack levels used: 1
  3115 ;; Hardware stack levels required when called: 5
  3116 ;; This function calls:
  3117 ;;		Nothing
  3118 ;; This function is called by:
  3119 ;;		_MSSP_I2C_Init
  3120 ;; This function uses a non-reentrant model
  3121 ;;
  3122                           
  3123                           	psect	text16
  3124   0034DA                     __ptext16:
  3125                           	callstack 0
  3126   0034DA                     _MSSP_I2C_Interrupt_Configurations:
  3127                           	callstack 23
  3128   0034DA                     
  3129                           ;MCAL_Layer/I2C/hal_i2c.c: 364:         (PIE1bits.SSPIE = 1);
  3130   0034DA  869D               	bsf	157,3,c	;volatile
  3131                           
  3132                           ;MCAL_Layer/I2C/hal_i2c.c: 365:         (PIE2bits.BCLIE = 1);
  3133   0034DC  86A0               	bsf	160,3,c	;volatile
  3134                           
  3135                           ;MCAL_Layer/I2C/hal_i2c.c: 366:         (PIR1bits.SSPIF = 0);
  3136   0034DE  969E               	bcf	158,3,c	;volatile
  3137                           
  3138                           ;MCAL_Layer/I2C/hal_i2c.c: 367:         (PIR2bits.BCLIF = 0);
  3139   0034E0  96A1               	bcf	161,3,c	;volatile
  3140   0034E2                     
  3141                           ;MCAL_Layer/I2C/hal_i2c.c: 368:         I2C_Report_Write_Collision_InterruptHandler = i2
      +                          c_obj->I2C_Report_Write_Collision;
  3142   0034E2  EE20 F009          	lfsr	2,9
  3143   0034E6  5013               	movf	MSSP_I2C_Interrupt_Configurations@i2c_obj^0,w,c
  3144   0034E8  26D9               	addwf	fsr2l,f,c
  3145   0034EA  5014               	movf	(MSSP_I2C_Interrupt_Configurations@i2c_obj+1)^0,w,c
  3146   0034EC  22DA               	addwfc	fsr2h,f,c
  3147   0034EE  CFDE F0BA          	movff	postinc2,_I2C_Report_Write_Collision_InterruptHandler
  3148   0034F2  CFDD F0BB          	movff	postdec2,_I2C_Report_Write_Collision_InterruptHandler+1
  3149                           
  3150                           ;MCAL_Layer/I2C/hal_i2c.c: 369:         I2C_DefaultInterruptHandle = i2c_obj->I2C_Defaul
      +                          tInterruptHandler;
  3151   0034F6  EE20 F00B          	lfsr	2,11
  3152   0034FA  5013               	movf	MSSP_I2C_Interrupt_Configurations@i2c_obj^0,w,c
  3153   0034FC  26D9               	addwf	fsr2l,f,c
  3154   0034FE  5014               	movf	(MSSP_I2C_Interrupt_Configurations@i2c_obj+1)^0,w,c
  3155   003500  22DA               	addwfc	fsr2h,f,c
  3156   003502  CFDE F0B8          	movff	postinc2,_I2C_DefaultInterruptHandle
  3157   003506  CFDD F0B9          	movff	postdec2,_I2C_DefaultInterruptHandle+1
  3158                           
  3159                           ;MCAL_Layer/I2C/hal_i2c.c: 370:         I2C_Report_Receive_Overflow_InterruptHandle = i2
      +                          c_obj->I2C_Report_Receive_Overflow;
  3160   00350A  EE20 F00D          	lfsr	2,13
  3161   00350E  5013               	movf	MSSP_I2C_Interrupt_Configurations@i2c_obj^0,w,c
  3162   003510  26D9               	addwf	fsr2l,f,c
  3163   003512  5014               	movf	(MSSP_I2C_Interrupt_Configurations@i2c_obj+1)^0,w,c
  3164   003514  22DA               	addwfc	fsr2h,f,c
  3165   003516  CFDE F0B6          	movff	postinc2,_I2C_Report_Receive_Overflow_InterruptHandle
  3166   00351A  CFDD F0B7          	movff	postdec2,_I2C_Report_Receive_Overflow_InterruptHandle+1
  3167   00351E                     
  3168                           ;MCAL_Layer/I2C/hal_i2c.c: 398:         (INTCONbits.GIE = 1);
  3169   00351E  8EF2               	bsf	242,7,c	;volatile
  3170   003520                     
  3171                           ;MCAL_Layer/I2C/hal_i2c.c: 399:         (INTCONbits.PEIE = 1);
  3172   003520  8CF2               	bsf	242,6,c	;volatile
  3173   003522  0012               	return		;funcret
  3174   003524                     __end_of_MSSP_I2C_Interrupt_Configurations:
  3175                           	callstack 0
  3176                           
  3177 ;; *************** function _I2C_Slave_Mode_Configurations *****************
  3178 ;; Defined at:
  3179 ;;		line 358 in file "MCAL_Layer/I2C/hal_i2c.c"
  3180 ;; Parameters:    Size  Location     Type
  3181 ;;  i2c_obj         2   18[COMRAM] PTR const struct .
  3182 ;;		 -> i2c_obj(15), 
  3183 ;; Auto vars:     Size  Location     Type
  3184 ;;		None
  3185 ;; Return value:  Size  Location     Type
  3186 ;;                  1    wreg      void 
  3187 ;; Registers used:
  3188 ;;		wreg, fsr2l, fsr2h, status,2, status,0
  3189 ;; Tracked objects:
  3190 ;;		On entry : 0/0
  3191 ;;		On exit  : 0/0
  3192 ;;		Unchanged: 0/0
  3193 ;; Data sizes:     COMRAM   BANK0   BANK1   BANK2   BANK3   BANK4   BANK5   BANK6   BANK7   BANK8   BANK9  BANK10  BANK1
      +1  BANK12  BANK13  BANK14  BANK15
  3194 ;;      Params:         2       0       0       0       0       0       0       0       0       0       0       0       
      +0       0       0       0       0
  3195 ;;      Locals:         0       0       0       0       0       0       0       0       0       0       0       0       
      +0       0       0       0       0
  3196 ;;      Temps:          1       0       0       0       0       0       0       0       0       0       0       0       
      +0       0       0       0       0
  3197 ;;      Totals:         3       0       0       0       0       0       0       0       0       0       0       0       
      +0       0       0       0       0
  3198 ;;Total ram usage:        3 bytes
  3199 ;; Hardware stack levels used: 1
  3200 ;; Hardware stack levels required when called: 5
  3201 ;; This function calls:
  3202 ;;		Nothing
  3203 ;; This function is called by:
  3204 ;;		_MSSP_I2C_Init
  3205 ;; This function uses a non-reentrant model
  3206 ;;
  3207                           
  3208                           	psect	text17
  3209   003812                     __ptext17:
  3210                           	callstack 0
  3211   003812                     _I2C_Slave_Mode_Configurations:
  3212                           	callstack 23
  3213   003812                     
  3214                           ;MCAL_Layer/I2C/hal_i2c.c: 359:     SSPCON1bits.SSPM = i2c_obj->i2c_cfg.i2c_mode_cfg;
  3215   003812  EE20 F004          	lfsr	2,4
  3216   003816  5013               	movf	I2C_Slave_Mode_Configurations@i2c_obj^0,w,c
  3217   003818  26D9               	addwf	fsr2l,f,c
  3218   00381A  5014               	movf	(I2C_Slave_Mode_Configurations@i2c_obj+1)^0,w,c
  3219   00381C  22DA               	addwfc	fsr2h,f,c
  3220   00381E  50DF               	movf	indf2,w,c
  3221   003820  6E15               	movwf	??_I2C_Slave_Mode_Configurations^0,c
  3222   003822  50C6               	movf	198,w,c	;volatile
  3223   003824  1815               	xorwf	??_I2C_Slave_Mode_Configurations^0,w,c
  3224   003826  0BF0               	andlw	-16
  3225   003828  1815               	xorwf	??_I2C_Slave_Mode_Configurations^0,w,c
  3226   00382A  6EC6               	movwf	198,c	;volatile
  3227   00382C  0012               	return		;funcret
  3228   00382E                     __end_of_I2C_Slave_Mode_Configurations:
  3229                           	callstack 0
  3230                           
  3231 ;; *************** function _I2C_Master_Mode_Clock_Configurations *****************
  3232 ;; Defined at:
  3233 ;;		line 352 in file "MCAL_Layer/I2C/hal_i2c.c"
  3234 ;; Parameters:    Size  Location     Type
  3235 ;;  i2c_obj         2   83[COMRAM] PTR const struct .
  3236 ;;		 -> i2c_obj(15), 
  3237 ;; Auto vars:     Size  Location     Type
  3238 ;;		None
  3239 ;; Return value:  Size  Location     Type
  3240 ;;                  1    wreg      void 
  3241 ;; Registers used:
  3242 ;;		wreg, fsr2l, fsr2h, status,2, status,0, cstack
  3243 ;; Tracked objects:
  3244 ;;		On entry : 0/0
  3245 ;;		On exit  : 0/0
  3246 ;;		Unchanged: 0/0
  3247 ;; Data sizes:     COMRAM   BANK0   BANK1   BANK2   BANK3   BANK4   BANK5   BANK6   BANK7   BANK8   BANK9  BANK10  BANK1
      +1  BANK12  BANK13  BANK14  BANK15
  3248 ;;      Params:         2       0       0       0       0       0       0       0       0       0       0       0       
      +0       0       0       0       0
  3249 ;;      Locals:         0       0       0       0       0       0       0       0       0       0       0       0       
      +0       0       0       0       0
  3250 ;;      Temps:          0       1       0       0       0       0       0       0       0       0       0       0       
      +0       0       0       0       0
  3251 ;;      Totals:         2       1       0       0       0       0       0       0       0       0       0       0       
      +0       0       0       0       0
  3252 ;;Total ram usage:        3 bytes
  3253 ;; Hardware stack levels used: 1
  3254 ;; Hardware stack levels required when called: 6
  3255 ;; This function calls:
  3256 ;;		___fladd
  3257 ;;		___fldiv
  3258 ;;		___fltol
  3259 ;;		___xxtofl
  3260 ;; This function is called by:
  3261 ;;		_MSSP_I2C_Init
  3262 ;; This function uses a non-reentrant model
  3263 ;;
  3264                           
  3265                           	psect	text18
  3266   002F74                     __ptext18:
  3267                           	callstack 0
  3268   002F74                     _I2C_Master_Mode_Clock_Configurations:
  3269                           	callstack 22
  3270   002F74                     
  3271                           ;MCAL_Layer/I2C/hal_i2c.c: 354:     SSPCON1bits.SSPM = i2c_obj->i2c_cfg.i2c_mode_cfg;
  3272   002F74  EE20 F004          	lfsr	2,4
  3273   002F78  5054               	movf	I2C_Master_Mode_Clock_Configurations@i2c_obj^0,w,c
  3274   002F7A  26D9               	addwf	fsr2l,f,c
  3275   002F7C  5055               	movf	(I2C_Master_Mode_Clock_Configurations@i2c_obj+1)^0,w,c
  3276   002F7E  22DA               	addwfc	fsr2h,f,c
  3277   002F80  50DF               	movf	indf2,w,c
  3278   002F82  0100               	movlb	0	; () banked
  3279   002F84  6FFE               	movwf	??_I2C_Master_Mode_Clock_Configurations& (0+255),b
  3280   002F86  50C6               	movf	198,w,c	;volatile
  3281   002F88  19FE               	xorwf	??_I2C_Master_Mode_Clock_Configurations& (0+255),w,b
  3282   002F8A  0BF0               	andlw	-16
  3283   002F8C  19FE               	xorwf	??_I2C_Master_Mode_Clock_Configurations& (0+255),w,b
  3284   002F8E  6EC6               	movwf	198,c	;volatile
  3285   002F90                     
  3286                           ; BSR set to: 0
  3287                           ;MCAL_Layer/I2C/hal_i2c.c: 355:     SSPADD = (uint8)(((8000000UL / 4.0) / i2c_obj->i2c_c
      +                          lock) - 1);
  3288   002F90  0E00               	movlw	0
  3289   002F92  6E3E               	movwf	___fladd@a^0,c
  3290   002F94  0E00               	movlw	0
  3291   002F96  6E3F               	movwf	(___fladd@a+1)^0,c
  3292   002F98  0E80               	movlw	128
  3293   002F9A  6E40               	movwf	(___fladd@a+2)^0,c
  3294   002F9C  0EBF               	movlw	191
  3295   002F9E  6E41               	movwf	(___fladd@a+3)^0,c
  3296   002FA0  C054  FFD9         	movff	I2C_Master_Mode_Clock_Configurations@i2c_obj,fsr2l
  3297   002FA4  C055  FFDA         	movff	I2C_Master_Mode_Clock_Configurations@i2c_obj+1,fsr2h
  3298   002FA8  CFDE F013          	movff	postinc2,___xxtofl@val
  3299   002FAC  CFDE F014          	movff	postinc2,___xxtofl@val+1
  3300   002FB0  CFDE F015          	movff	postinc2,___xxtofl@val+2
  3301   002FB4  CFDE F016          	movff	postinc2,___xxtofl@val+3
  3302   002FB8  0E00               	movlw	0
  3303   002FBA  ECE5  F010         	call	___xxtofl
  3304   002FBE  C013  F025         	movff	?___xxtofl,___fldiv@a
  3305   002FC2  C014  F026         	movff	?___xxtofl+1,___fldiv@a+1
  3306   002FC6  C015  F027         	movff	?___xxtofl+2,___fldiv@a+2
  3307   002FCA  C016  F028         	movff	?___xxtofl+3,___fldiv@a+3
  3308   002FCE  0E00               	movlw	0
  3309   002FD0  6E21               	movwf	___fldiv@b^0,c
  3310   002FD2  0E24               	movlw	36
  3311   002FD4  6E22               	movwf	(___fldiv@b+1)^0,c
  3312   002FD6  0EF4               	movlw	244
  3313   002FD8  6E23               	movwf	(___fldiv@b+2)^0,c
  3314   002FDA  0E49               	movlw	73
  3315   002FDC  6E24               	movwf	(___fldiv@b+3)^0,c
  3316   002FDE  EC18  F00F         	call	___fldiv	;wreg free
  3317   002FE2  C021  F03A         	movff	?___fldiv,___fladd@b
  3318   002FE6  C022  F03B         	movff	?___fldiv+1,___fladd@b+1
  3319   002FEA  C023  F03C         	movff	?___fldiv+2,___fladd@b+2
  3320   002FEE  C024  F03D         	movff	?___fldiv+3,___fladd@b+3
  3321   002FF2  EC7C  F00A         	call	___fladd	;wreg free
  3322   002FF6  C03A  F04A         	movff	?___fladd,___fltol@f1
  3323   002FFA  C03B  F04B         	movff	?___fladd+1,___fltol@f1+1
  3324   002FFE  C03C  F04C         	movff	?___fladd+2,___fltol@f1+2
  3325   003002  C03D  F04D         	movff	?___fladd+3,___fltol@f1+3
  3326   003006  ECB1  F015         	call	___fltol	;wreg free
  3327   00300A  504A               	movf	?___fltol^0,w,c
  3328   00300C  6EC8               	movwf	200,c	;volatile
  3329   00300E  0012               	return		;funcret
  3330   003010                     __end_of_I2C_Master_Mode_Clock_Configurations:
  3331                           	callstack 0
  3332                           
  3333 ;; *************** function _EUSART_ASYNC_Init *****************
  3334 ;; Defined at:
  3335 ;;		line 21 in file "MCAL_Layer/usart/hal_usart.c"
  3336 ;; Parameters:    Size  Location     Type
  3337 ;;  _eusart         2    8[BANK1 ] PTR const struct .
  3338 ;;		 -> usart_obj(18), 
  3339 ;; Auto vars:     Size  Location     Type
  3340 ;;  ret             1   10[BANK1 ] unsigned char 
  3341 ;; Return value:  Size  Location     Type
  3342 ;;                  1    wreg      unsigned char 
  3343 ;; Registers used:
  3344 ;;		wreg, fsr2l, fsr2h, status,2, status,0, cstack
  3345 ;; Tracked objects:
  3346 ;;		On entry : 0/0
  3347 ;;		On exit  : 0/0
  3348 ;;		Unchanged: 0/0
  3349 ;; Data sizes:     COMRAM   BANK0   BANK1   BANK2   BANK3   BANK4   BANK5   BANK6   BANK7   BANK8   BANK9  BANK10  BANK1
      +1  BANK12  BANK13  BANK14  BANK15
  3350 ;;      Params:         0       0       2       0       0       0       0       0       0       0       0       0       
      +0       0       0       0       0
  3351 ;;      Locals:         0       0       1       0       0       0       0       0       0       0       0       0       
      +0       0       0       0       0
  3352 ;;      Temps:          0       0       0       0       0       0       0       0       0       0       0       0       
      +0       0       0       0       0
  3353 ;;      Totals:         0       0       3       0       0       0       0       0       0       0       0       0       
      +0       0       0       0       0
  3354 ;;Total ram usage:        3 bytes
  3355 ;; Hardware stack levels used: 1
  3356 ;; Hardware stack levels required when called: 7
  3357 ;; This function calls:
  3358 ;;		_EUSART_ASYNC_RX_Init
  3359 ;;		_EUSART_ASYNC_TX_Init
  3360 ;;		_EUSART_Baud_Rate_Calculation
  3361 ;; This function is called by:
  3362 ;;		_application_initialize
  3363 ;; This function uses a non-reentrant model
  3364 ;;
  3365                           
  3366                           	psect	text19
  3367   00343E                     __ptext19:
  3368                           	callstack 0
  3369   00343E                     _EUSART_ASYNC_Init:
  3370                           	callstack 22
  3371   00343E                     
  3372                           ;MCAL_Layer/usart/hal_usart.c: 22:   Std_ReturnType ret = (Std_ReturnType)0x01;
  3373   00343E  0E01               	movlw	1
  3374   003440  0101               	movlb	1	; () banked
  3375   003442  6F3E               	movwf	EUSART_ASYNC_Init@ret& (0+255),b
  3376   003444                     
  3377                           ; BSR set to: 1
  3378                           ;MCAL_Layer/usart/hal_usart.c: 23:   if (((void*)0) == _eusart) {
  3379   003444  513C               	movf	EUSART_ASYNC_Init@_eusart& (0+255),w,b
  3380   003446  113D               	iorwf	(EUSART_ASYNC_Init@_eusart+1)& (0+255),w,b
  3381   003448  A4D8               	btfss	status,2,c
  3382   00344A  EF29  F01A         	goto	u9951
  3383   00344E  EF2B  F01A         	goto	u9950
  3384   003452                     u9951:
  3385   003452  EF2F  F01A         	goto	l1656
  3386   003456                     u9950:
  3387   003456                     
  3388                           ; BSR set to: 1
  3389                           ;MCAL_Layer/usart/hal_usart.c: 24:     ret = (Std_ReturnType)0x00;
  3390   003456  0E00               	movlw	0
  3391   003458  6F3E               	movwf	EUSART_ASYNC_Init@ret& (0+255),b
  3392                           
  3393                           ;MCAL_Layer/usart/hal_usart.c: 25:   } else {
  3394   00345A  EF45  F01A         	goto	l9783
  3395   00345E                     l1656:
  3396                           
  3397                           ; BSR set to: 1
  3398                           ;MCAL_Layer/usart/hal_usart.c: 26:     RCSTAbits.SPEN = 0;
  3399   00345E  9EAB               	bcf	171,7,c	;volatile
  3400                           
  3401                           ;MCAL_Layer/usart/hal_usart.c: 27:     TRISCbits.RC7 = 1;
  3402   003460  8E94               	bsf	148,7,c	;volatile
  3403                           
  3404                           ;MCAL_Layer/usart/hal_usart.c: 28:     TRISCbits.RC6 = 1;
  3405   003462  8C94               	bsf	148,6,c	;volatile
  3406   003464                     
  3407                           ; BSR set to: 1
  3408                           ;MCAL_Layer/usart/hal_usart.c: 29:     EUSART_Baud_Rate_Calculation(_eusart);
  3409   003464  C13C  F054         	movff	EUSART_ASYNC_Init@_eusart,EUSART_Baud_Rate_Calculation@_eusart
  3410   003468  C13D  F055         	movff	EUSART_ASYNC_Init@_eusart+1,EUSART_Baud_Rate_Calculation@_eusart+1
  3411   00346C  EC0B  F008         	call	_EUSART_Baud_Rate_Calculation	;wreg free
  3412                           
  3413                           ;MCAL_Layer/usart/hal_usart.c: 30:     EUSART_ASYNC_TX_Init(_eusart);
  3414   003470  C13C  F013         	movff	EUSART_ASYNC_Init@_eusart,EUSART_ASYNC_TX_Init@_eusart
  3415   003474  C13D  F014         	movff	EUSART_ASYNC_Init@_eusart+1,EUSART_ASYNC_TX_Init@_eusart+1
  3416   003478  EC0E  F017         	call	_EUSART_ASYNC_TX_Init	;wreg free
  3417                           
  3418                           ;MCAL_Layer/usart/hal_usart.c: 31:     EUSART_ASYNC_RX_Init(_eusart);
  3419   00347C  C13C  F013         	movff	EUSART_ASYNC_Init@_eusart,EUSART_ASYNC_RX_Init@_eusart
  3420   003480  C13D  F014         	movff	EUSART_ASYNC_Init@_eusart+1,EUSART_ASYNC_RX_Init@_eusart+1
  3421   003484  EC34  F016         	call	_EUSART_ASYNC_RX_Init	;wreg free
  3422   003488                     
  3423                           ;MCAL_Layer/usart/hal_usart.c: 32:     RCSTAbits.SPEN = 1;
  3424   003488  8EAB               	bsf	171,7,c	;volatile
  3425   00348A                     l9783:
  3426                           
  3427                           ;MCAL_Layer/usart/hal_usart.c: 34:   return ret;
  3428   00348A  0101               	movlb	1	; () banked
  3429   00348C  513E               	movf	EUSART_ASYNC_Init@ret& (0+255),w,b
  3430   00348E                     
  3431                           ; BSR set to: 1
  3432   00348E  0012               	return		;funcret
  3433   003490                     __end_of_EUSART_ASYNC_Init:
  3434                           	callstack 0
  3435                           
  3436 ;; *************** function _EUSART_Baud_Rate_Calculation *****************
  3437 ;; Defined at:
  3438 ;;		line 115 in file "MCAL_Layer/usart/hal_usart.c"
  3439 ;; Parameters:    Size  Location     Type
  3440 ;;  _eusart         2   83[COMRAM] PTR const struct .
  3441 ;;		 -> usart_obj(18), 
  3442 ;; Auto vars:     Size  Location     Type
  3443 ;;  Baud_Rate_Te    4    0[BANK1 ] float 
  3444 ;; Return value:  Size  Location     Type
  3445 ;;                  1    wreg      void 
  3446 ;; Registers used:
  3447 ;;		wreg, fsr2l, fsr2h, status,2, status,0, cstack
  3448 ;; Tracked objects:
  3449 ;;		On entry : 0/0
  3450 ;;		On exit  : 0/0
  3451 ;;		Unchanged: 0/0
  3452 ;; Data sizes:     COMRAM   BANK0   BANK1   BANK2   BANK3   BANK4   BANK5   BANK6   BANK7   BANK8   BANK9  BANK10  BANK1
      +1  BANK12  BANK13  BANK14  BANK15
  3453 ;;      Params:         2       0       0       0       0       0       0       0       0       0       0       0       
      +0       0       0       0       0
  3454 ;;      Locals:         0       0       8       0       0       0       0       0       0       0       0       0       
      +0       0       0       0       0
  3455 ;;      Temps:          0       2       0       0       0       0       0       0       0       0       0       0       
      +0       0       0       0       0
  3456 ;;      Totals:         2       2       8       0       0       0       0       0       0       0       0       0       
      +0       0       0       0       0
  3457 ;;Total ram usage:       12 bytes
  3458 ;; Hardware stack levels used: 1
  3459 ;; Hardware stack levels required when called: 6
  3460 ;; This function calls:
  3461 ;;		___fladd
  3462 ;;		___fldiv
  3463 ;;		___fltol
  3464 ;;		___xxtofl
  3465 ;; This function is called by:
  3466 ;;		_EUSART_ASYNC_Init
  3467 ;; This function uses a non-reentrant model
  3468 ;;
  3469                           
  3470                           	psect	text20
  3471   001016                     __ptext20:
  3472                           	callstack 0
  3473   001016                     _EUSART_Baud_Rate_Calculation:
  3474                           	callstack 22
  3475   001016                     
  3476                           ;MCAL_Layer/usart/hal_usart.c: 116:   float Baud_Rate_Temp = 0;
  3477   001016  0E00               	movlw	0
  3478   001018  0101               	movlb	1	; () banked
  3479   00101A  6F34               	movwf	EUSART_Baud_Rate_Calculation@Baud_Rate_Temp& (0+255),b
  3480   00101C  0E00               	movlw	0
  3481   00101E  6F35               	movwf	(EUSART_Baud_Rate_Calculation@Baud_Rate_Temp+1)& (0+255),b
  3482   001020  0E00               	movlw	0
  3483   001022  6F36               	movwf	(EUSART_Baud_Rate_Calculation@Baud_Rate_Temp+2)& (0+255),b
  3484   001024  0E00               	movlw	0
  3485   001026  6F37               	movwf	(EUSART_Baud_Rate_Calculation@Baud_Rate_Temp+3)& (0+255),b
  3486                           
  3487                           ;MCAL_Layer/usart/hal_usart.c: 117:   switch (_eusart->baudrate_gen_gonfig) {
  3488   001028  EF30  F00A         	goto	l9481
  3489   00102C                     l1704:
  3490                           
  3491                           ; BSR set to: 0
  3492                           ;MCAL_Layer/usart/hal_usart.c: 119:       TXSTAbits.SYNC = 0;
  3493   00102C  98AC               	bcf	172,4,c	;volatile
  3494                           
  3495                           ;MCAL_Layer/usart/hal_usart.c: 120:       TXSTAbits.BRGH = 0;
  3496   00102E  94AC               	bcf	172,2,c	;volatile
  3497                           
  3498                           ;MCAL_Layer/usart/hal_usart.c: 121:       BAUDCONbits.BRG16 = 0;
  3499   001030  96B8               	bcf	184,3,c	;volatile
  3500   001032                     
  3501                           ; BSR set to: 0
  3502                           ;MCAL_Layer/usart/hal_usart.c: 122:       Baud_Rate_Temp = ((8000000UL / (float)_eusart-
      +                          >baudrate) / 64) - 1;
  3503   001032  C054  FFD9         	movff	EUSART_Baud_Rate_Calculation@_eusart,fsr2l
  3504   001036  C055  FFDA         	movff	EUSART_Baud_Rate_Calculation@_eusart+1,fsr2h
  3505   00103A  CFDE F013          	movff	postinc2,___xxtofl@val
  3506   00103E  CFDE F014          	movff	postinc2,___xxtofl@val+1
  3507   001042  CFDE F015          	movff	postinc2,___xxtofl@val+2
  3508   001046  CFDE F016          	movff	postinc2,___xxtofl@val+3
  3509   00104A  0E00               	movlw	0
  3510   00104C  ECE5  F010         	call	___xxtofl
  3511   001050  C013  F025         	movff	?___xxtofl,___fldiv@a
  3512   001054  C014  F026         	movff	?___xxtofl+1,___fldiv@a+1
  3513   001058  C015  F027         	movff	?___xxtofl+2,___fldiv@a+2
  3514   00105C  C016  F028         	movff	?___xxtofl+3,___fldiv@a+3
  3515   001060  0E00               	movlw	0
  3516   001062  6E21               	movwf	___fldiv@b^0,c
  3517   001064  0E24               	movlw	36
  3518   001066  6E22               	movwf	(___fldiv@b+1)^0,c
  3519   001068  0EF4               	movlw	244
  3520   00106A  6E23               	movwf	(___fldiv@b+2)^0,c
  3521   00106C  0E4A               	movlw	74
  3522   00106E  6E24               	movwf	(___fldiv@b+3)^0,c
  3523   001070  EC18  F00F         	call	___fldiv	;wreg free
  3524   001074  C021  F138         	movff	?___fldiv,_EUSART_Baud_Rate_Calculation$5686
  3525   001078  C022  F139         	movff	?___fldiv+1,_EUSART_Baud_Rate_Calculation$5686+1
  3526   00107C  C023  F13A         	movff	?___fldiv+2,_EUSART_Baud_Rate_Calculation$5686+2
  3527   001080  C024  F13B         	movff	?___fldiv+3,_EUSART_Baud_Rate_Calculation$5686+3
  3528   001084                     
  3529                           ;MCAL_Layer/usart/hal_usart.c: 122:       Baud_Rate_Temp = ((8000000UL / (float)_eusart-
      +                          >baudrate) / 64) - 1;
  3530   001084  0E00               	movlw	0
  3531   001086  6E25               	movwf	___fldiv@a^0,c
  3532   001088  0E00               	movlw	0
  3533   00108A  6E26               	movwf	(___fldiv@a+1)^0,c
  3534   00108C  0E80               	movlw	128
  3535   00108E  6E27               	movwf	(___fldiv@a+2)^0,c
  3536   001090  0E42               	movlw	66
  3537   001092  6E28               	movwf	(___fldiv@a+3)^0,c
  3538   001094  C138  F021         	movff	_EUSART_Baud_Rate_Calculation$5686,___fldiv@b
  3539   001098  C139  F022         	movff	_EUSART_Baud_Rate_Calculation$5686+1,___fldiv@b+1
  3540   00109C  C13A  F023         	movff	_EUSART_Baud_Rate_Calculation$5686+2,___fldiv@b+2
  3541   0010A0  C13B  F024         	movff	_EUSART_Baud_Rate_Calculation$5686+3,___fldiv@b+3
  3542   0010A4  EC18  F00F         	call	___fldiv	;wreg free
  3543   0010A8  C021  F03A         	movff	?___fldiv,___fladd@b
  3544   0010AC  C022  F03B         	movff	?___fldiv+1,___fladd@b+1
  3545   0010B0  C023  F03C         	movff	?___fldiv+2,___fladd@b+2
  3546   0010B4  C024  F03D         	movff	?___fldiv+3,___fladd@b+3
  3547   0010B8  0E00               	movlw	0
  3548   0010BA  6E3E               	movwf	___fladd@a^0,c
  3549   0010BC  0E00               	movlw	0
  3550   0010BE  6E3F               	movwf	(___fladd@a+1)^0,c
  3551   0010C0  0E80               	movlw	128
  3552   0010C2  6E40               	movwf	(___fladd@a+2)^0,c
  3553   0010C4  0EBF               	movlw	191
  3554   0010C6  6E41               	movwf	(___fladd@a+3)^0,c
  3555   0010C8  EC7C  F00A         	call	___fladd	;wreg free
  3556   0010CC  C03A  F134         	movff	?___fladd,EUSART_Baud_Rate_Calculation@Baud_Rate_Temp
  3557   0010D0  C03B  F135         	movff	?___fladd+1,EUSART_Baud_Rate_Calculation@Baud_Rate_Temp+1
  3558   0010D4  C03C  F136         	movff	?___fladd+2,EUSART_Baud_Rate_Calculation@Baud_Rate_Temp+2
  3559   0010D8  C03D  F137         	movff	?___fladd+3,EUSART_Baud_Rate_Calculation@Baud_Rate_Temp+3
  3560                           
  3561                           ;MCAL_Layer/usart/hal_usart.c: 123:       break;
  3562   0010DC  EF5C  F00A         	goto	l9483
  3563   0010E0                     l1706:
  3564                           
  3565                           ; BSR set to: 0
  3566                           ;MCAL_Layer/usart/hal_usart.c: 125:       TXSTAbits.SYNC = 0;
  3567   0010E0  98AC               	bcf	172,4,c	;volatile
  3568                           
  3569                           ;MCAL_Layer/usart/hal_usart.c: 126:       TXSTAbits.BRGH = 1;
  3570   0010E2  84AC               	bsf	172,2,c	;volatile
  3571                           
  3572                           ;MCAL_Layer/usart/hal_usart.c: 127:       BAUDCONbits.BRG16 = 0;
  3573   0010E4  96B8               	bcf	184,3,c	;volatile
  3574   0010E6                     
  3575                           ; BSR set to: 0
  3576                           ;MCAL_Layer/usart/hal_usart.c: 128:       Baud_Rate_Temp = ((8000000UL / (float)_eusart-
      +                          >baudrate) / 16) - 1;
  3577   0010E6  C054  FFD9         	movff	EUSART_Baud_Rate_Calculation@_eusart,fsr2l
  3578   0010EA  C055  FFDA         	movff	EUSART_Baud_Rate_Calculation@_eusart+1,fsr2h
  3579   0010EE  CFDE F013          	movff	postinc2,___xxtofl@val
  3580   0010F2  CFDE F014          	movff	postinc2,___xxtofl@val+1
  3581   0010F6  CFDE F015          	movff	postinc2,___xxtofl@val+2
  3582   0010FA  CFDE F016          	movff	postinc2,___xxtofl@val+3
  3583   0010FE  0E00               	movlw	0
  3584   001100  ECE5  F010         	call	___xxtofl
  3585   001104  C013  F025         	movff	?___xxtofl,___fldiv@a
  3586   001108  C014  F026         	movff	?___xxtofl+1,___fldiv@a+1
  3587   00110C  C015  F027         	movff	?___xxtofl+2,___fldiv@a+2
  3588   001110  C016  F028         	movff	?___xxtofl+3,___fldiv@a+3
  3589   001114  0E00               	movlw	0
  3590   001116  6E21               	movwf	___fldiv@b^0,c
  3591   001118  0E24               	movlw	36
  3592   00111A  6E22               	movwf	(___fldiv@b+1)^0,c
  3593   00111C  0EF4               	movlw	244
  3594   00111E  6E23               	movwf	(___fldiv@b+2)^0,c
  3595   001120  0E4A               	movlw	74
  3596   001122  6E24               	movwf	(___fldiv@b+3)^0,c
  3597   001124  EC18  F00F         	call	___fldiv	;wreg free
  3598   001128  C021  F138         	movff	?___fldiv,_EUSART_Baud_Rate_Calculation$5686
  3599   00112C  C022  F139         	movff	?___fldiv+1,_EUSART_Baud_Rate_Calculation$5686+1
  3600   001130  C023  F13A         	movff	?___fldiv+2,_EUSART_Baud_Rate_Calculation$5686+2
  3601   001134  C024  F13B         	movff	?___fldiv+3,_EUSART_Baud_Rate_Calculation$5686+3
  3602   001138                     
  3603                           ;MCAL_Layer/usart/hal_usart.c: 128:       Baud_Rate_Temp = ((8000000UL / (float)_eusart-
      +                          >baudrate) / 16) - 1;
  3604   001138  0E00               	movlw	0
  3605   00113A  6E25               	movwf	___fldiv@a^0,c
  3606   00113C  0E00               	movlw	0
  3607   00113E  6E26               	movwf	(___fldiv@a+1)^0,c
  3608   001140  0E80               	movlw	128
  3609   001142  6E27               	movwf	(___fldiv@a+2)^0,c
  3610   001144  0E41               	movlw	65
  3611   001146  6E28               	movwf	(___fldiv@a+3)^0,c
  3612   001148  C138  F021         	movff	_EUSART_Baud_Rate_Calculation$5686,___fldiv@b
  3613   00114C  C139  F022         	movff	_EUSART_Baud_Rate_Calculation$5686+1,___fldiv@b+1
  3614   001150  C13A  F023         	movff	_EUSART_Baud_Rate_Calculation$5686+2,___fldiv@b+2
  3615   001154  C13B  F024         	movff	_EUSART_Baud_Rate_Calculation$5686+3,___fldiv@b+3
  3616   001158  EC18  F00F         	call	___fldiv	;wreg free
  3617   00115C  C021  F03A         	movff	?___fldiv,___fladd@b
  3618   001160  C022  F03B         	movff	?___fldiv+1,___fladd@b+1
  3619   001164  C023  F03C         	movff	?___fldiv+2,___fladd@b+2
  3620   001168  C024  F03D         	movff	?___fldiv+3,___fladd@b+3
  3621   00116C  0E00               	movlw	0
  3622   00116E  6E3E               	movwf	___fladd@a^0,c
  3623   001170  0E00               	movlw	0
  3624   001172  6E3F               	movwf	(___fladd@a+1)^0,c
  3625   001174  0E80               	movlw	128
  3626   001176  6E40               	movwf	(___fladd@a+2)^0,c
  3627   001178  0EBF               	movlw	191
  3628   00117A  6E41               	movwf	(___fladd@a+3)^0,c
  3629   00117C  EC7C  F00A         	call	___fladd	;wreg free
  3630   001180  C03A  F134         	movff	?___fladd,EUSART_Baud_Rate_Calculation@Baud_Rate_Temp
  3631   001184  C03B  F135         	movff	?___fladd+1,EUSART_Baud_Rate_Calculation@Baud_Rate_Temp+1
  3632   001188  C03C  F136         	movff	?___fladd+2,EUSART_Baud_Rate_Calculation@Baud_Rate_Temp+2
  3633   00118C  C03D  F137         	movff	?___fladd+3,EUSART_Baud_Rate_Calculation@Baud_Rate_Temp+3
  3634                           
  3635                           ;MCAL_Layer/usart/hal_usart.c: 129:       break;
  3636   001190  EF5C  F00A         	goto	l9483
  3637   001194                     l1707:
  3638                           
  3639                           ; BSR set to: 0
  3640                           ;MCAL_Layer/usart/hal_usart.c: 131:       TXSTAbits.SYNC = 0;
  3641   001194  98AC               	bcf	172,4,c	;volatile
  3642                           
  3643                           ;MCAL_Layer/usart/hal_usart.c: 132:       TXSTAbits.BRGH = 0;
  3644   001196  94AC               	bcf	172,2,c	;volatile
  3645                           
  3646                           ;MCAL_Layer/usart/hal_usart.c: 133:       BAUDCONbits.BRG16 = 1;
  3647   001198  86B8               	bsf	184,3,c	;volatile
  3648   00119A                     
  3649                           ; BSR set to: 0
  3650                           ;MCAL_Layer/usart/hal_usart.c: 134:       Baud_Rate_Temp = ((8000000UL / (float)_eusart-
      +                          >baudrate) / 16) - 1;
  3651   00119A  C054  FFD9         	movff	EUSART_Baud_Rate_Calculation@_eusart,fsr2l
  3652   00119E  C055  FFDA         	movff	EUSART_Baud_Rate_Calculation@_eusart+1,fsr2h
  3653   0011A2  CFDE F013          	movff	postinc2,___xxtofl@val
  3654   0011A6  CFDE F014          	movff	postinc2,___xxtofl@val+1
  3655   0011AA  CFDE F015          	movff	postinc2,___xxtofl@val+2
  3656   0011AE  CFDE F016          	movff	postinc2,___xxtofl@val+3
  3657   0011B2  0E00               	movlw	0
  3658   0011B4  ECE5  F010         	call	___xxtofl
  3659   0011B8  C013  F025         	movff	?___xxtofl,___fldiv@a
  3660   0011BC  C014  F026         	movff	?___xxtofl+1,___fldiv@a+1
  3661   0011C0  C015  F027         	movff	?___xxtofl+2,___fldiv@a+2
  3662   0011C4  C016  F028         	movff	?___xxtofl+3,___fldiv@a+3
  3663   0011C8  0E00               	movlw	0
  3664   0011CA  6E21               	movwf	___fldiv@b^0,c
  3665   0011CC  0E24               	movlw	36
  3666   0011CE  6E22               	movwf	(___fldiv@b+1)^0,c
  3667   0011D0  0EF4               	movlw	244
  3668   0011D2  6E23               	movwf	(___fldiv@b+2)^0,c
  3669   0011D4  0E4A               	movlw	74
  3670   0011D6  6E24               	movwf	(___fldiv@b+3)^0,c
  3671   0011D8  EC18  F00F         	call	___fldiv	;wreg free
  3672   0011DC  C021  F138         	movff	?___fldiv,_EUSART_Baud_Rate_Calculation$5686
  3673   0011E0  C022  F139         	movff	?___fldiv+1,_EUSART_Baud_Rate_Calculation$5686+1
  3674   0011E4  C023  F13A         	movff	?___fldiv+2,_EUSART_Baud_Rate_Calculation$5686+2
  3675   0011E8  C024  F13B         	movff	?___fldiv+3,_EUSART_Baud_Rate_Calculation$5686+3
  3676   0011EC                     
  3677                           ;MCAL_Layer/usart/hal_usart.c: 134:       Baud_Rate_Temp = ((8000000UL / (float)_eusart-
      +                          >baudrate) / 16) - 1;
  3678   0011EC  0E00               	movlw	0
  3679   0011EE  6E25               	movwf	___fldiv@a^0,c
  3680   0011F0  0E00               	movlw	0
  3681   0011F2  6E26               	movwf	(___fldiv@a+1)^0,c
  3682   0011F4  0E80               	movlw	128
  3683   0011F6  6E27               	movwf	(___fldiv@a+2)^0,c
  3684   0011F8  0E41               	movlw	65
  3685   0011FA  6E28               	movwf	(___fldiv@a+3)^0,c
  3686   0011FC  C138  F021         	movff	_EUSART_Baud_Rate_Calculation$5686,___fldiv@b
  3687   001200  C139  F022         	movff	_EUSART_Baud_Rate_Calculation$5686+1,___fldiv@b+1
  3688   001204  C13A  F023         	movff	_EUSART_Baud_Rate_Calculation$5686+2,___fldiv@b+2
  3689   001208  C13B  F024         	movff	_EUSART_Baud_Rate_Calculation$5686+3,___fldiv@b+3
  3690   00120C  EC18  F00F         	call	___fldiv	;wreg free
  3691   001210  C021  F03A         	movff	?___fldiv,___fladd@b
  3692   001214  C022  F03B         	movff	?___fldiv+1,___fladd@b+1
  3693   001218  C023  F03C         	movff	?___fldiv+2,___fladd@b+2
  3694   00121C  C024  F03D         	movff	?___fldiv+3,___fladd@b+3
  3695   001220  0E00               	movlw	0
  3696   001222  6E3E               	movwf	___fladd@a^0,c
  3697   001224  0E00               	movlw	0
  3698   001226  6E3F               	movwf	(___fladd@a+1)^0,c
  3699   001228  0E80               	movlw	128
  3700   00122A  6E40               	movwf	(___fladd@a+2)^0,c
  3701   00122C  0EBF               	movlw	191
  3702   00122E  6E41               	movwf	(___fladd@a+3)^0,c
  3703   001230  EC7C  F00A         	call	___fladd	;wreg free
  3704   001234  C03A  F134         	movff	?___fladd,EUSART_Baud_Rate_Calculation@Baud_Rate_Temp
  3705   001238  C03B  F135         	movff	?___fladd+1,EUSART_Baud_Rate_Calculation@Baud_Rate_Temp+1
  3706   00123C  C03C  F136         	movff	?___fladd+2,EUSART_Baud_Rate_Calculation@Baud_Rate_Temp+2
  3707   001240  C03D  F137         	movff	?___fladd+3,EUSART_Baud_Rate_Calculation@Baud_Rate_Temp+3
  3708                           
  3709                           ;MCAL_Layer/usart/hal_usart.c: 135:       break;
  3710   001244  EF5C  F00A         	goto	l9483
  3711   001248                     l1708:
  3712                           
  3713                           ; BSR set to: 0
  3714                           ;MCAL_Layer/usart/hal_usart.c: 137:       TXSTAbits.SYNC = 0;
  3715   001248  98AC               	bcf	172,4,c	;volatile
  3716                           
  3717                           ;MCAL_Layer/usart/hal_usart.c: 138:       TXSTAbits.BRGH = 1;
  3718   00124A  84AC               	bsf	172,2,c	;volatile
  3719                           
  3720                           ;MCAL_Layer/usart/hal_usart.c: 139:       BAUDCONbits.BRG16 = 1;
  3721   00124C  86B8               	bsf	184,3,c	;volatile
  3722   00124E                     
  3723                           ; BSR set to: 0
  3724                           ;MCAL_Layer/usart/hal_usart.c: 140:       Baud_Rate_Temp = ((8000000UL / (float)_eusart-
      +                          >baudrate) / 4) - 1;
  3725   00124E  C054  FFD9         	movff	EUSART_Baud_Rate_Calculation@_eusart,fsr2l
  3726   001252  C055  FFDA         	movff	EUSART_Baud_Rate_Calculation@_eusart+1,fsr2h
  3727   001256  CFDE F013          	movff	postinc2,___xxtofl@val
  3728   00125A  CFDE F014          	movff	postinc2,___xxtofl@val+1
  3729   00125E  CFDE F015          	movff	postinc2,___xxtofl@val+2
  3730   001262  CFDE F016          	movff	postinc2,___xxtofl@val+3
  3731   001266  0E00               	movlw	0
  3732   001268  ECE5  F010         	call	___xxtofl
  3733   00126C  C013  F025         	movff	?___xxtofl,___fldiv@a
  3734   001270  C014  F026         	movff	?___xxtofl+1,___fldiv@a+1
  3735   001274  C015  F027         	movff	?___xxtofl+2,___fldiv@a+2
  3736   001278  C016  F028         	movff	?___xxtofl+3,___fldiv@a+3
  3737   00127C  0E00               	movlw	0
  3738   00127E  6E21               	movwf	___fldiv@b^0,c
  3739   001280  0E24               	movlw	36
  3740   001282  6E22               	movwf	(___fldiv@b+1)^0,c
  3741   001284  0EF4               	movlw	244
  3742   001286  6E23               	movwf	(___fldiv@b+2)^0,c
  3743   001288  0E4A               	movlw	74
  3744   00128A  6E24               	movwf	(___fldiv@b+3)^0,c
  3745   00128C  EC18  F00F         	call	___fldiv	;wreg free
  3746   001290  C021  F138         	movff	?___fldiv,_EUSART_Baud_Rate_Calculation$5686
  3747   001294  C022  F139         	movff	?___fldiv+1,_EUSART_Baud_Rate_Calculation$5686+1
  3748   001298  C023  F13A         	movff	?___fldiv+2,_EUSART_Baud_Rate_Calculation$5686+2
  3749   00129C  C024  F13B         	movff	?___fldiv+3,_EUSART_Baud_Rate_Calculation$5686+3
  3750   0012A0                     
  3751                           ;MCAL_Layer/usart/hal_usart.c: 140:       Baud_Rate_Temp = ((8000000UL / (float)_eusart-
      +                          >baudrate) / 4) - 1;
  3752   0012A0  0E00               	movlw	0
  3753   0012A2  6E25               	movwf	___fldiv@a^0,c
  3754   0012A4  0E00               	movlw	0
  3755   0012A6  6E26               	movwf	(___fldiv@a+1)^0,c
  3756   0012A8  0E80               	movlw	128
  3757   0012AA  6E27               	movwf	(___fldiv@a+2)^0,c
  3758   0012AC  0E40               	movlw	64
  3759   0012AE  6E28               	movwf	(___fldiv@a+3)^0,c
  3760   0012B0  C138  F021         	movff	_EUSART_Baud_Rate_Calculation$5686,___fldiv@b
  3761   0012B4  C139  F022         	movff	_EUSART_Baud_Rate_Calculation$5686+1,___fldiv@b+1
  3762   0012B8  C13A  F023         	movff	_EUSART_Baud_Rate_Calculation$5686+2,___fldiv@b+2
  3763   0012BC  C13B  F024         	movff	_EUSART_Baud_Rate_Calculation$5686+3,___fldiv@b+3
  3764   0012C0  EC18  F00F         	call	___fldiv	;wreg free
  3765   0012C4  C021  F03A         	movff	?___fldiv,___fladd@b
  3766   0012C8  C022  F03B         	movff	?___fldiv+1,___fladd@b+1
  3767   0012CC  C023  F03C         	movff	?___fldiv+2,___fladd@b+2
  3768   0012D0  C024  F03D         	movff	?___fldiv+3,___fladd@b+3
  3769   0012D4  0E00               	movlw	0
  3770   0012D6  6E3E               	movwf	___fladd@a^0,c
  3771   0012D8  0E00               	movlw	0
  3772   0012DA  6E3F               	movwf	(___fladd@a+1)^0,c
  3773   0012DC  0E80               	movlw	128
  3774   0012DE  6E40               	movwf	(___fladd@a+2)^0,c
  3775   0012E0  0EBF               	movlw	191
  3776   0012E2  6E41               	movwf	(___fladd@a+3)^0,c
  3777   0012E4  EC7C  F00A         	call	___fladd	;wreg free
  3778   0012E8  C03A  F134         	movff	?___fladd,EUSART_Baud_Rate_Calculation@Baud_Rate_Temp
  3779   0012EC  C03B  F135         	movff	?___fladd+1,EUSART_Baud_Rate_Calculation@Baud_Rate_Temp+1
  3780   0012F0  C03C  F136         	movff	?___fladd+2,EUSART_Baud_Rate_Calculation@Baud_Rate_Temp+2
  3781   0012F4  C03D  F137         	movff	?___fladd+3,EUSART_Baud_Rate_Calculation@Baud_Rate_Temp+3
  3782                           
  3783                           ;MCAL_Layer/usart/hal_usart.c: 141:       break;
  3784   0012F8  EF5C  F00A         	goto	l9483
  3785   0012FC                     l1709:
  3786                           
  3787                           ; BSR set to: 0
  3788                           ;MCAL_Layer/usart/hal_usart.c: 143:       TXSTAbits.SYNC = 1;
  3789   0012FC  88AC               	bsf	172,4,c	;volatile
  3790                           
  3791                           ;MCAL_Layer/usart/hal_usart.c: 144:       BAUDCONbits.BRG16 = 0;
  3792   0012FE  96B8               	bcf	184,3,c	;volatile
  3793   001300                     
  3794                           ; BSR set to: 0
  3795                           ;MCAL_Layer/usart/hal_usart.c: 145:       Baud_Rate_Temp = ((8000000UL / (float)_eusart-
      +                          >baudrate) / 4) - 1;
  3796   001300  C054  FFD9         	movff	EUSART_Baud_Rate_Calculation@_eusart,fsr2l
  3797   001304  C055  FFDA         	movff	EUSART_Baud_Rate_Calculation@_eusart+1,fsr2h
  3798   001308  CFDE F013          	movff	postinc2,___xxtofl@val
  3799   00130C  CFDE F014          	movff	postinc2,___xxtofl@val+1
  3800   001310  CFDE F015          	movff	postinc2,___xxtofl@val+2
  3801   001314  CFDE F016          	movff	postinc2,___xxtofl@val+3
  3802   001318  0E00               	movlw	0
  3803   00131A  ECE5  F010         	call	___xxtofl
  3804   00131E  C013  F025         	movff	?___xxtofl,___fldiv@a
  3805   001322  C014  F026         	movff	?___xxtofl+1,___fldiv@a+1
  3806   001326  C015  F027         	movff	?___xxtofl+2,___fldiv@a+2
  3807   00132A  C016  F028         	movff	?___xxtofl+3,___fldiv@a+3
  3808   00132E  0E00               	movlw	0
  3809   001330  6E21               	movwf	___fldiv@b^0,c
  3810   001332  0E24               	movlw	36
  3811   001334  6E22               	movwf	(___fldiv@b+1)^0,c
  3812   001336  0EF4               	movlw	244
  3813   001338  6E23               	movwf	(___fldiv@b+2)^0,c
  3814   00133A  0E4A               	movlw	74
  3815   00133C  6E24               	movwf	(___fldiv@b+3)^0,c
  3816   00133E  EC18  F00F         	call	___fldiv	;wreg free
  3817   001342  C021  F138         	movff	?___fldiv,_EUSART_Baud_Rate_Calculation$5686
  3818   001346  C022  F139         	movff	?___fldiv+1,_EUSART_Baud_Rate_Calculation$5686+1
  3819   00134A  C023  F13A         	movff	?___fldiv+2,_EUSART_Baud_Rate_Calculation$5686+2
  3820   00134E  C024  F13B         	movff	?___fldiv+3,_EUSART_Baud_Rate_Calculation$5686+3
  3821   001352                     
  3822                           ;MCAL_Layer/usart/hal_usart.c: 145:       Baud_Rate_Temp = ((8000000UL / (float)_eusart-
      +                          >baudrate) / 4) - 1;
  3823   001352  0E00               	movlw	0
  3824   001354  6E25               	movwf	___fldiv@a^0,c
  3825   001356  0E00               	movlw	0
  3826   001358  6E26               	movwf	(___fldiv@a+1)^0,c
  3827   00135A  0E80               	movlw	128
  3828   00135C  6E27               	movwf	(___fldiv@a+2)^0,c
  3829   00135E  0E40               	movlw	64
  3830   001360  6E28               	movwf	(___fldiv@a+3)^0,c
  3831   001362  C138  F021         	movff	_EUSART_Baud_Rate_Calculation$5686,___fldiv@b
  3832   001366  C139  F022         	movff	_EUSART_Baud_Rate_Calculation$5686+1,___fldiv@b+1
  3833   00136A  C13A  F023         	movff	_EUSART_Baud_Rate_Calculation$5686+2,___fldiv@b+2
  3834   00136E  C13B  F024         	movff	_EUSART_Baud_Rate_Calculation$5686+3,___fldiv@b+3
  3835   001372  EC18  F00F         	call	___fldiv	;wreg free
  3836   001376  C021  F03A         	movff	?___fldiv,___fladd@b
  3837   00137A  C022  F03B         	movff	?___fldiv+1,___fladd@b+1
  3838   00137E  C023  F03C         	movff	?___fldiv+2,___fladd@b+2
  3839   001382  C024  F03D         	movff	?___fldiv+3,___fladd@b+3
  3840   001386  0E00               	movlw	0
  3841   001388  6E3E               	movwf	___fladd@a^0,c
  3842   00138A  0E00               	movlw	0
  3843   00138C  6E3F               	movwf	(___fladd@a+1)^0,c
  3844   00138E  0E80               	movlw	128
  3845   001390  6E40               	movwf	(___fladd@a+2)^0,c
  3846   001392  0EBF               	movlw	191
  3847   001394  6E41               	movwf	(___fladd@a+3)^0,c
  3848   001396  EC7C  F00A         	call	___fladd	;wreg free
  3849   00139A  C03A  F134         	movff	?___fladd,EUSART_Baud_Rate_Calculation@Baud_Rate_Temp
  3850   00139E  C03B  F135         	movff	?___fladd+1,EUSART_Baud_Rate_Calculation@Baud_Rate_Temp+1
  3851   0013A2  C03C  F136         	movff	?___fladd+2,EUSART_Baud_Rate_Calculation@Baud_Rate_Temp+2
  3852   0013A6  C03D  F137         	movff	?___fladd+3,EUSART_Baud_Rate_Calculation@Baud_Rate_Temp+3
  3853                           
  3854                           ;MCAL_Layer/usart/hal_usart.c: 146:       break;
  3855   0013AA  EF5C  F00A         	goto	l9483
  3856   0013AE                     l1710:
  3857                           
  3858                           ; BSR set to: 0
  3859                           ;MCAL_Layer/usart/hal_usart.c: 148:       TXSTAbits.SYNC = 1;
  3860   0013AE  88AC               	bsf	172,4,c	;volatile
  3861                           
  3862                           ;MCAL_Layer/usart/hal_usart.c: 149:       BAUDCONbits.BRG16 = 1;
  3863   0013B0  86B8               	bsf	184,3,c	;volatile
  3864   0013B2                     
  3865                           ; BSR set to: 0
  3866                           ;MCAL_Layer/usart/hal_usart.c: 150:       Baud_Rate_Temp = ((8000000UL / (float)_eusart-
      +                          >baudrate) / 4) - 1;
  3867   0013B2  C054  FFD9         	movff	EUSART_Baud_Rate_Calculation@_eusart,fsr2l
  3868   0013B6  C055  FFDA         	movff	EUSART_Baud_Rate_Calculation@_eusart+1,fsr2h
  3869   0013BA  CFDE F013          	movff	postinc2,___xxtofl@val
  3870   0013BE  CFDE F014          	movff	postinc2,___xxtofl@val+1
  3871   0013C2  CFDE F015          	movff	postinc2,___xxtofl@val+2
  3872   0013C6  CFDE F016          	movff	postinc2,___xxtofl@val+3
  3873   0013CA  0E00               	movlw	0
  3874   0013CC  ECE5  F010         	call	___xxtofl
  3875   0013D0  C013  F025         	movff	?___xxtofl,___fldiv@a
  3876   0013D4  C014  F026         	movff	?___xxtofl+1,___fldiv@a+1
  3877   0013D8  C015  F027         	movff	?___xxtofl+2,___fldiv@a+2
  3878   0013DC  C016  F028         	movff	?___xxtofl+3,___fldiv@a+3
  3879   0013E0  0E00               	movlw	0
  3880   0013E2  6E21               	movwf	___fldiv@b^0,c
  3881   0013E4  0E24               	movlw	36
  3882   0013E6  6E22               	movwf	(___fldiv@b+1)^0,c
  3883   0013E8  0EF4               	movlw	244
  3884   0013EA  6E23               	movwf	(___fldiv@b+2)^0,c
  3885   0013EC  0E4A               	movlw	74
  3886   0013EE  6E24               	movwf	(___fldiv@b+3)^0,c
  3887   0013F0  EC18  F00F         	call	___fldiv	;wreg free
  3888   0013F4  C021  F138         	movff	?___fldiv,_EUSART_Baud_Rate_Calculation$5686
  3889   0013F8  C022  F139         	movff	?___fldiv+1,_EUSART_Baud_Rate_Calculation$5686+1
  3890   0013FC  C023  F13A         	movff	?___fldiv+2,_EUSART_Baud_Rate_Calculation$5686+2
  3891   001400  C024  F13B         	movff	?___fldiv+3,_EUSART_Baud_Rate_Calculation$5686+3
  3892   001404                     
  3893                           ;MCAL_Layer/usart/hal_usart.c: 150:       Baud_Rate_Temp = ((8000000UL / (float)_eusart-
      +                          >baudrate) / 4) - 1;
  3894   001404  0E00               	movlw	0
  3895   001406  6E25               	movwf	___fldiv@a^0,c
  3896   001408  0E00               	movlw	0
  3897   00140A  6E26               	movwf	(___fldiv@a+1)^0,c
  3898   00140C  0E80               	movlw	128
  3899   00140E  6E27               	movwf	(___fldiv@a+2)^0,c
  3900   001410  0E40               	movlw	64
  3901   001412  6E28               	movwf	(___fldiv@a+3)^0,c
  3902   001414  C138  F021         	movff	_EUSART_Baud_Rate_Calculation$5686,___fldiv@b
  3903   001418  C139  F022         	movff	_EUSART_Baud_Rate_Calculation$5686+1,___fldiv@b+1
  3904   00141C  C13A  F023         	movff	_EUSART_Baud_Rate_Calculation$5686+2,___fldiv@b+2
  3905   001420  C13B  F024         	movff	_EUSART_Baud_Rate_Calculation$5686+3,___fldiv@b+3
  3906   001424  EC18  F00F         	call	___fldiv	;wreg free
  3907   001428  C021  F03A         	movff	?___fldiv,___fladd@b
  3908   00142C  C022  F03B         	movff	?___fldiv+1,___fladd@b+1
  3909   001430  C023  F03C         	movff	?___fldiv+2,___fladd@b+2
  3910   001434  C024  F03D         	movff	?___fldiv+3,___fladd@b+3
  3911   001438  0E00               	movlw	0
  3912   00143A  6E3E               	movwf	___fladd@a^0,c
  3913   00143C  0E00               	movlw	0
  3914   00143E  6E3F               	movwf	(___fladd@a+1)^0,c
  3915   001440  0E80               	movlw	128
  3916   001442  6E40               	movwf	(___fladd@a+2)^0,c
  3917   001444  0EBF               	movlw	191
  3918   001446  6E41               	movwf	(___fladd@a+3)^0,c
  3919   001448  EC7C  F00A         	call	___fladd	;wreg free
  3920   00144C  C03A  F134         	movff	?___fladd,EUSART_Baud_Rate_Calculation@Baud_Rate_Temp
  3921   001450  C03B  F135         	movff	?___fladd+1,EUSART_Baud_Rate_Calculation@Baud_Rate_Temp+1
  3922   001454  C03C  F136         	movff	?___fladd+2,EUSART_Baud_Rate_Calculation@Baud_Rate_Temp+2
  3923   001458  C03D  F137         	movff	?___fladd+3,EUSART_Baud_Rate_Calculation@Baud_Rate_Temp+3
  3924                           
  3925                           ;MCAL_Layer/usart/hal_usart.c: 151:       break;
  3926   00145C  EF5C  F00A         	goto	l9483
  3927   001460                     l9481:
  3928                           
  3929                           ; BSR set to: 1
  3930   001460  EE20 F004          	lfsr	2,4
  3931   001464  5054               	movf	EUSART_Baud_Rate_Calculation@_eusart^0,w,c
  3932   001466  26D9               	addwf	fsr2l,f,c
  3933   001468  5055               	movf	(EUSART_Baud_Rate_Calculation@_eusart+1)^0,w,c
  3934   00146A  22DA               	addwfc	fsr2h,f,c
  3935   00146C  50DF               	movf	indf2,w,c
  3936   00146E  0100               	movlb	0	; () banked
  3937   001470  6FFE               	movwf	??_EUSART_Baud_Rate_Calculation& (0+255),b
  3938   001472  6BFF               	clrf	(??_EUSART_Baud_Rate_Calculation+1)& (0+255),b
  3939                           
  3940                           ; Switch on 2 bytes has been partitioned into a top level switch of size 1, and 1 sub-sw
      +                          itches
  3941                           ; Switch size 1, requested type "simple"
  3942                           ; Number of cases is 1, Range of values is 0 to 0
  3943                           ; switch strategies available:
  3944                           ; Name         Instructions Cycles
  3945                           ; simple_byte            4     3 (average)
  3946                           ;	Chosen strategy is simple_byte
  3947   001474  51FF               	movf	(??_EUSART_Baud_Rate_Calculation+1)& (0+255),w,b
  3948   001476  0A00               	xorlw	0	; case 0
  3949   001478  B4D8               	btfsc	status,2,c
  3950   00147A  EF41  F00A         	goto	l10821
  3951   00147E  EF5C  F00A         	goto	l9483
  3952   001482                     l10821:
  3953                           
  3954                           ; BSR set to: 0
  3955                           ; Switch size 1, requested type "simple"
  3956                           ; Number of cases is 6, Range of values is 0 to 5
  3957                           ; switch strategies available:
  3958                           ; Name         Instructions Cycles
  3959                           ; simple_byte           19    10 (average)
  3960                           ;	Chosen strategy is simple_byte
  3961   001482  51FE               	movf	??_EUSART_Baud_Rate_Calculation& (0+255),w,b
  3962   001484  0A00               	xorlw	0	; case 0
  3963   001486  B4D8               	btfsc	status,2,c
  3964   001488  EF16  F008         	goto	l1704
  3965   00148C  0A01               	xorlw	1	; case 1
  3966   00148E  B4D8               	btfsc	status,2,c
  3967   001490  EF70  F008         	goto	l1706
  3968   001494  0A03               	xorlw	3	; case 2
  3969   001496  B4D8               	btfsc	status,2,c
  3970   001498  EFCA  F008         	goto	l1707
  3971   00149C  0A01               	xorlw	1	; case 3
  3972   00149E  B4D8               	btfsc	status,2,c
  3973   0014A0  EF24  F009         	goto	l1708
  3974   0014A4  0A07               	xorlw	7	; case 4
  3975   0014A6  B4D8               	btfsc	status,2,c
  3976   0014A8  EF7E  F009         	goto	l1709
  3977   0014AC  0A01               	xorlw	1	; case 5
  3978   0014AE  B4D8               	btfsc	status,2,c
  3979   0014B0  EFD7  F009         	goto	l1710
  3980   0014B4  EF5C  F00A         	goto	l9483
  3981   0014B8                     l9483:
  3982                           
  3983                           ;MCAL_Layer/usart/hal_usart.c: 154:   SPBRG = (uint8)((uint32)Baud_Rate_Temp);
  3984   0014B8  C134  F04A         	movff	EUSART_Baud_Rate_Calculation@Baud_Rate_Temp,___fltol@f1
  3985   0014BC  C135  F04B         	movff	EUSART_Baud_Rate_Calculation@Baud_Rate_Temp+1,___fltol@f1+1
  3986   0014C0  C136  F04C         	movff	EUSART_Baud_Rate_Calculation@Baud_Rate_Temp+2,___fltol@f1+2
  3987   0014C4  C137  F04D         	movff	EUSART_Baud_Rate_Calculation@Baud_Rate_Temp+3,___fltol@f1+3
  3988   0014C8  ECB1  F015         	call	___fltol	;wreg free
  3989   0014CC  504A               	movf	?___fltol^0,w,c
  3990   0014CE  6EAF               	movwf	175,c	;volatile
  3991                           
  3992                           ;MCAL_Layer/usart/hal_usart.c: 155:   SPBRGH = (uint8)(((uint32)Baud_Rate_Temp) >> 8);
  3993   0014D0  C134  F04A         	movff	EUSART_Baud_Rate_Calculation@Baud_Rate_Temp,___fltol@f1
  3994   0014D4  C135  F04B         	movff	EUSART_Baud_Rate_Calculation@Baud_Rate_Temp+1,___fltol@f1+1
  3995   0014D8  C136  F04C         	movff	EUSART_Baud_Rate_Calculation@Baud_Rate_Temp+2,___fltol@f1+2
  3996   0014DC  C137  F04D         	movff	EUSART_Baud_Rate_Calculation@Baud_Rate_Temp+3,___fltol@f1+3
  3997   0014E0  ECB1  F015         	call	___fltol	;wreg free
  3998   0014E4  C04B  F04A         	movff	?___fltol+1,?___fltol
  3999   0014E8  C04C  F04B         	movff	?___fltol+2,?___fltol+1
  4000   0014EC  C04D  F04C         	movff	?___fltol+3,?___fltol+2
  4001   0014F0  6A4D               	clrf	(?___fltol+3)^0,c
  4002   0014F2  504A               	movf	?___fltol^0,w,c
  4003   0014F4  6EB0               	movwf	176,c	;volatile
  4004   0014F6  0012               	return		;funcret
  4005   0014F8                     __end_of_EUSART_Baud_Rate_Calculation:
  4006                           	callstack 0
  4007                           
  4008 ;; *************** function ___xxtofl *****************
  4009 ;; Defined at:
  4010 ;;		line 10 in file "C:\Program Files\Microchip\xc8\v2.41\pic\sources\c99\common\xxtofl.c"
  4011 ;; Parameters:    Size  Location     Type
  4012 ;;  sign            1    wreg     unsigned char 
  4013 ;;  val             4   18[COMRAM] long 
  4014 ;; Auto vars:     Size  Location     Type
  4015 ;;  sign            1   26[COMRAM] unsigned char 
  4016 ;;  arg             4   28[COMRAM] unsigned long 
  4017 ;;  exp             1   27[COMRAM] unsigned char 
  4018 ;; Return value:  Size  Location     Type
  4019 ;;                  4   18[COMRAM] unsigned char 
  4020 ;; Registers used:
  4021 ;;		wreg, status,2, status,0
  4022 ;; Tracked objects:
  4023 ;;		On entry : 0/0
  4024 ;;		On exit  : 0/0
  4025 ;;		Unchanged: 0/0
  4026 ;; Data sizes:     COMRAM   BANK0   BANK1   BANK2   BANK3   BANK4   BANK5   BANK6   BANK7   BANK8   BANK9  BANK10  BANK1
      +1  BANK12  BANK13  BANK14  BANK15
  4027 ;;      Params:         4       0       0       0       0       0       0       0       0       0       0       0       
      +0       0       0       0       0
  4028 ;;      Locals:         6       0       0       0       0       0       0       0       0       0       0       0       
      +0       0       0       0       0
  4029 ;;      Temps:          4       0       0       0       0       0       0       0       0       0       0       0       
      +0       0       0       0       0
  4030 ;;      Totals:        14       0       0       0       0       0       0       0       0       0       0       0       
      +0       0       0       0       0
  4031 ;;Total ram usage:       14 bytes
  4032 ;; Hardware stack levels used: 1
  4033 ;; Hardware stack levels required when called: 5
  4034 ;; This function calls:
  4035 ;;		Nothing
  4036 ;; This function is called by:
  4037 ;;		_I2C_Master_Mode_Clock_Configurations
  4038 ;;		_EUSART_Baud_Rate_Calculation
  4039 ;;		_Ultrasonic_Calculate_Distance
  4040 ;;		_CCP_PWM_Set_Duty
  4041 ;;		_CCP_PWM_Mode_Config
  4042 ;; This function uses a non-reentrant model
  4043 ;;
  4044                           
  4045                           	psect	text21
  4046   0021CA                     __ptext21:
  4047                           	callstack 0
  4048   0021CA                     ___xxtofl:
  4049                           	callstack 22
  4050                           
  4051                           ;incstack = 0
  4052                           ;___xxtofl@sign stored from wreg
  4053   0021CA  6E1B               	movwf	___xxtofl@sign^0,c
  4054   0021CC  501B               	movf	___xxtofl@sign^0,w,c
  4055   0021CE  B4D8               	btfsc	status,2,c
  4056   0021D0  EFEC  F010         	goto	u9321
  4057   0021D4  EFEE  F010         	goto	u9320
  4058   0021D8                     u9321:
  4059   0021D8  EF10  F011         	goto	l2564
  4060   0021DC                     u9320:
  4061   0021DC  BE16               	btfsc	(___xxtofl@val+3)^0,7,c
  4062   0021DE  EFF5  F010         	goto	u9330
  4063   0021E2  EFF3  F010         	goto	u9331
  4064   0021E6                     u9331:
  4065   0021E6  EF10  F011         	goto	l2564
  4066   0021EA                     u9330:
  4067   0021EA  C013  F017         	movff	___xxtofl@val,??___xxtofl
  4068   0021EE  C014  F018         	movff	___xxtofl@val+1,??___xxtofl+1
  4069   0021F2  C015  F019         	movff	___xxtofl@val+2,??___xxtofl+2
  4070   0021F6  C016  F01A         	movff	___xxtofl@val+3,??___xxtofl+3
  4071   0021FA  1E17               	comf	??___xxtofl^0,f,c
  4072   0021FC  1E18               	comf	(??___xxtofl+1)^0,f,c
  4073   0021FE  1E19               	comf	(??___xxtofl+2)^0,f,c
  4074   002200  1E1A               	comf	(??___xxtofl+3)^0,f,c
  4075   002202  2A17               	incf	??___xxtofl^0,f,c
  4076   002204  0E00               	movlw	0
  4077   002206  2218               	addwfc	(??___xxtofl+1)^0,f,c
  4078   002208  2219               	addwfc	(??___xxtofl+2)^0,f,c
  4079   00220A  221A               	addwfc	(??___xxtofl+3)^0,f,c
  4080   00220C  C017  F01D         	movff	??___xxtofl,___xxtofl@arg
  4081   002210  C018  F01E         	movff	??___xxtofl+1,___xxtofl@arg+1
  4082   002214  C019  F01F         	movff	??___xxtofl+2,___xxtofl@arg+2
  4083   002218  C01A  F020         	movff	??___xxtofl+3,___xxtofl@arg+3
  4084   00221C  EF18  F011         	goto	l9353
  4085   002220                     l2564:
  4086   002220  C013  F01D         	movff	___xxtofl@val,___xxtofl@arg
  4087   002224  C014  F01E         	movff	___xxtofl@val+1,___xxtofl@arg+1
  4088   002228  C015  F01F         	movff	___xxtofl@val+2,___xxtofl@arg+2
  4089   00222C  C016  F020         	movff	___xxtofl@val+3,___xxtofl@arg+3
  4090   002230                     l9353:
  4091   002230  5013               	movf	___xxtofl@val^0,w,c
  4092   002232  1014               	iorwf	(___xxtofl@val+1)^0,w,c
  4093   002234  1015               	iorwf	(___xxtofl@val+2)^0,w,c
  4094   002236  1016               	iorwf	(___xxtofl@val+3)^0,w,c
  4095   002238  A4D8               	btfss	status,2,c
  4096   00223A  EF21  F011         	goto	u9341
  4097   00223E  EF23  F011         	goto	u9340
  4098   002242                     u9341:
  4099   002242  EF2D  F011         	goto	l9359
  4100   002246                     u9340:
  4101   002246  0E00               	movlw	0
  4102   002248  6E13               	movwf	?___xxtofl^0,c
  4103   00224A  0E00               	movlw	0
  4104   00224C  6E14               	movwf	(?___xxtofl+1)^0,c
  4105   00224E  0E00               	movlw	0
  4106   002250  6E15               	movwf	(?___xxtofl+2)^0,c
  4107   002252  0E00               	movlw	0
  4108   002254  6E16               	movwf	(?___xxtofl+3)^0,c
  4109   002256  EFBE  F011         	goto	l2567
  4110   00225A                     l9359:
  4111   00225A  0E96               	movlw	150
  4112   00225C  6E1C               	movwf	___xxtofl@exp^0,c
  4113   00225E  EF37  F011         	goto	l9363
  4114   002262                     l9361:
  4115   002262  2A1C               	incf	___xxtofl@exp^0,f,c
  4116   002264  90D8               	bcf	status,0,c
  4117   002266  3220               	rrcf	(___xxtofl@arg+3)^0,f,c
  4118   002268  321F               	rrcf	(___xxtofl@arg+2)^0,f,c
  4119   00226A  321E               	rrcf	(___xxtofl@arg+1)^0,f,c
  4120   00226C  321D               	rrcf	___xxtofl@arg^0,f,c
  4121   00226E                     l9363:
  4122   00226E  0E00               	movlw	0
  4123   002270  141D               	andwf	___xxtofl@arg^0,w,c
  4124   002272  6E17               	movwf	??___xxtofl^0,c
  4125   002274  0E00               	movlw	0
  4126   002276  141E               	andwf	(___xxtofl@arg+1)^0,w,c
  4127   002278  6E18               	movwf	(??___xxtofl+1)^0,c
  4128   00227A  0E00               	movlw	0
  4129   00227C  141F               	andwf	(___xxtofl@arg+2)^0,w,c
  4130   00227E  6E19               	movwf	(??___xxtofl+2)^0,c
  4131   002280  0EFE               	movlw	254
  4132   002282  1420               	andwf	(___xxtofl@arg+3)^0,w,c
  4133   002284  6E1A               	movwf	(??___xxtofl+3)^0,c
  4134   002286  5017               	movf	??___xxtofl^0,w,c
  4135   002288  1018               	iorwf	(??___xxtofl+1)^0,w,c
  4136   00228A  1019               	iorwf	(??___xxtofl+2)^0,w,c
  4137   00228C  101A               	iorwf	(??___xxtofl+3)^0,w,c
  4138   00228E  A4D8               	btfss	status,2,c
  4139   002290  EF4C  F011         	goto	u9351
  4140   002294  EF4E  F011         	goto	u9350
  4141   002298                     u9351:
  4142   002298  EF31  F011         	goto	l9361
  4143   00229C                     u9350:
  4144   00229C  EF5C  F011         	goto	l2571
  4145   0022A0                     l9365:
  4146   0022A0  2A1C               	incf	___xxtofl@exp^0,f,c
  4147   0022A2  0E01               	movlw	1
  4148   0022A4  261D               	addwf	___xxtofl@arg^0,f,c
  4149   0022A6  0E00               	movlw	0
  4150   0022A8  221E               	addwfc	(___xxtofl@arg+1)^0,f,c
  4151   0022AA  221F               	addwfc	(___xxtofl@arg+2)^0,f,c
  4152   0022AC  2220               	addwfc	(___xxtofl@arg+3)^0,f,c
  4153   0022AE  90D8               	bcf	status,0,c
  4154   0022B0  3220               	rrcf	(___xxtofl@arg+3)^0,f,c
  4155   0022B2  321F               	rrcf	(___xxtofl@arg+2)^0,f,c
  4156   0022B4  321E               	rrcf	(___xxtofl@arg+1)^0,f,c
  4157   0022B6  321D               	rrcf	___xxtofl@arg^0,f,c
  4158   0022B8                     l2571:
  4159   0022B8  0E00               	movlw	0
  4160   0022BA  141D               	andwf	___xxtofl@arg^0,w,c
  4161   0022BC  6E17               	movwf	??___xxtofl^0,c
  4162   0022BE  0E00               	movlw	0
  4163   0022C0  141E               	andwf	(___xxtofl@arg+1)^0,w,c
  4164   0022C2  6E18               	movwf	(??___xxtofl+1)^0,c
  4165   0022C4  0E00               	movlw	0
  4166   0022C6  141F               	andwf	(___xxtofl@arg+2)^0,w,c
  4167   0022C8  6E19               	movwf	(??___xxtofl+2)^0,c
  4168   0022CA  0EFF               	movlw	255
  4169   0022CC  1420               	andwf	(___xxtofl@arg+3)^0,w,c
  4170   0022CE  6E1A               	movwf	(??___xxtofl+3)^0,c
  4171   0022D0  5017               	movf	??___xxtofl^0,w,c
  4172   0022D2  1018               	iorwf	(??___xxtofl+1)^0,w,c
  4173   0022D4  1019               	iorwf	(??___xxtofl+2)^0,w,c
  4174   0022D6  101A               	iorwf	(??___xxtofl+3)^0,w,c
  4175   0022D8  A4D8               	btfss	status,2,c
  4176   0022DA  EF71  F011         	goto	u9361
  4177   0022DE  EF73  F011         	goto	u9360
  4178   0022E2                     u9361:
  4179   0022E2  EF50  F011         	goto	l9365
  4180   0022E6                     u9360:
  4181   0022E6  EF7B  F011         	goto	l9373
  4182   0022EA                     l9371:
  4183   0022EA  061C               	decf	___xxtofl@exp^0,f,c
  4184   0022EC  90D8               	bcf	status,0,c
  4185   0022EE  361D               	rlcf	___xxtofl@arg^0,f,c
  4186   0022F0  361E               	rlcf	(___xxtofl@arg+1)^0,f,c
  4187   0022F2  361F               	rlcf	(___xxtofl@arg+2)^0,f,c
  4188   0022F4  3620               	rlcf	(___xxtofl@arg+3)^0,f,c
  4189   0022F6                     l9373:
  4190   0022F6  BE1F               	btfsc	(___xxtofl@arg+2)^0,7,c
  4191   0022F8  EF80  F011         	goto	u9371
  4192   0022FC  EF82  F011         	goto	u9370
  4193   002300                     u9371:
  4194   002300  EF8A  F011         	goto	l2578
  4195   002304                     u9370:
  4196   002304  0E02               	movlw	2
  4197   002306  601C               	cpfslt	___xxtofl@exp^0,c
  4198   002308  EF88  F011         	goto	u9381
  4199   00230C  EF8A  F011         	goto	u9380
  4200   002310                     u9381:
  4201   002310  EF75  F011         	goto	l9371
  4202   002314                     u9380:
  4203   002314                     l2578:
  4204   002314  B01C               	btfsc	___xxtofl@exp^0,0,c
  4205   002316  EF8F  F011         	goto	u9391
  4206   00231A  EF91  F011         	goto	u9390
  4207   00231E                     u9391:
  4208   00231E  EF92  F011         	goto	l9379
  4209   002322                     u9390:
  4210   002322  9E1F               	bcf	(___xxtofl@arg+2)^0,7,c
  4211   002324                     l9379:
  4212   002324  90D8               	bcf	status,0,c
  4213   002326  321C               	rrcf	___xxtofl@exp^0,f,c
  4214   002328  C01C  F017         	movff	___xxtofl@exp,??___xxtofl
  4215   00232C  6A18               	clrf	(??___xxtofl+1)^0,c
  4216   00232E  6A19               	clrf	(??___xxtofl+2)^0,c
  4217   002330  6A1A               	clrf	(??___xxtofl+3)^0,c
  4218   002332  C017  F01A         	movff	??___xxtofl,??___xxtofl+3
  4219   002336  6A19               	clrf	(??___xxtofl+2)^0,c
  4220   002338  6A18               	clrf	(??___xxtofl+1)^0,c
  4221   00233A  6A17               	clrf	??___xxtofl^0,c
  4222   00233C  5017               	movf	??___xxtofl^0,w,c
  4223   00233E  121D               	iorwf	___xxtofl@arg^0,f,c
  4224   002340  5018               	movf	(??___xxtofl+1)^0,w,c
  4225   002342  121E               	iorwf	(___xxtofl@arg+1)^0,f,c
  4226   002344  5019               	movf	(??___xxtofl+2)^0,w,c
  4227   002346  121F               	iorwf	(___xxtofl@arg+2)^0,f,c
  4228   002348  501A               	movf	(??___xxtofl+3)^0,w,c
  4229   00234A  1220               	iorwf	(___xxtofl@arg+3)^0,f,c
  4230   00234C  501B               	movf	___xxtofl@sign^0,w,c
  4231   00234E  B4D8               	btfsc	status,2,c
  4232   002350  EFAC  F011         	goto	u9401
  4233   002354  EFAE  F011         	goto	u9400
  4234   002358                     u9401:
  4235   002358  EFB6  F011         	goto	l9389
  4236   00235C                     u9400:
  4237   00235C  BE16               	btfsc	(___xxtofl@val+3)^0,7,c
  4238   00235E  EFB5  F011         	goto	u9410
  4239   002362  EFB3  F011         	goto	u9411
  4240   002366                     u9411:
  4241   002366  EFB6  F011         	goto	l9389
  4242   00236A                     u9410:
  4243   00236A  8E20               	bsf	(___xxtofl@arg+3)^0,7,c
  4244   00236C                     l9389:
  4245   00236C  C01D  F013         	movff	___xxtofl@arg,?___xxtofl
  4246   002370  C01E  F014         	movff	___xxtofl@arg+1,?___xxtofl+1
  4247   002374  C01F  F015         	movff	___xxtofl@arg+2,?___xxtofl+2
  4248   002378  C020  F016         	movff	___xxtofl@arg+3,?___xxtofl+3
  4249   00237C                     l2567:
  4250   00237C  0012               	return		;funcret
  4251   00237E                     __end_of___xxtofl:
  4252                           	callstack 0
  4253                           
  4254 ;; *************** function ___fltol *****************
  4255 ;; Defined at:
  4256 ;;		line 43 in file "C:\Program Files\Microchip\xc8\v2.41\pic\sources\c99\common\fltol.c"
  4257 ;; Parameters:    Size  Location     Type
  4258 ;;  f1              4   73[COMRAM] unsigned char 
  4259 ;; Auto vars:     Size  Location     Type
  4260 ;;  exp1            1   82[COMRAM] unsigned char 
  4261 ;;  sign1           1   81[COMRAM] unsigned char 
  4262 ;; Return value:  Size  Location     Type
  4263 ;;                  4   73[COMRAM] long 
  4264 ;; Registers used:
  4265 ;;		wreg, status,2, status,0
  4266 ;; Tracked objects:
  4267 ;;		On entry : 0/0
  4268 ;;		On exit  : 0/0
  4269 ;;		Unchanged: 0/0
  4270 ;; Data sizes:     COMRAM   BANK0   BANK1   BANK2   BANK3   BANK4   BANK5   BANK6   BANK7   BANK8   BANK9  BANK10  BANK1
      +1  BANK12  BANK13  BANK14  BANK15
  4271 ;;      Params:         4       0       0       0       0       0       0       0       0       0       0       0       
      +0       0       0       0       0
  4272 ;;      Locals:         2       0       0       0       0       0       0       0       0       0       0       0       
      +0       0       0       0       0
  4273 ;;      Temps:          4       0       0       0       0       0       0       0       0       0       0       0       
      +0       0       0       0       0
  4274 ;;      Totals:        10       0       0       0       0       0       0       0       0       0       0       0       
      +0       0       0       0       0
  4275 ;;Total ram usage:       10 bytes
  4276 ;; Hardware stack levels used: 1
  4277 ;; Hardware stack levels required when called: 5
  4278 ;; This function calls:
  4279 ;;		Nothing
  4280 ;; This function is called by:
  4281 ;;		_I2C_Master_Mode_Clock_Configurations
  4282 ;;		_EUSART_Baud_Rate_Calculation
  4283 ;;		_Ultrasonic_Calculate_Distance
  4284 ;;		_CCP_PWM_Set_Duty
  4285 ;;		_CCP_PWM_Mode_Config
  4286 ;; This function uses a non-reentrant model
  4287 ;;
  4288                           
  4289                           	psect	text22
  4290   002B62                     __ptext22:
  4291                           	callstack 0
  4292   002B62                     ___fltol:
  4293                           	callstack 22
  4294   002B62  344C               	rlcf	(___fltol@f1+2)^0,w,c
  4295   002B64  344D               	rlcf	(___fltol@f1+3)^0,w,c
  4296   002B66  6E53               	movwf	___fltol@exp1^0,c
  4297   002B68  5053               	movf	___fltol@exp1^0,w,c
  4298   002B6A  A4D8               	btfss	status,2,c
  4299   002B6C  EFBA  F015         	goto	u9251
  4300   002B70  EFBC  F015         	goto	u9250
  4301   002B74                     u9251:
  4302   002B74  EFC6  F015         	goto	l9309
  4303   002B78                     u9250:
  4304   002B78                     l9305:
  4305   002B78  0E00               	movlw	0
  4306   002B7A  6E4A               	movwf	?___fltol^0,c
  4307   002B7C  0E00               	movlw	0
  4308   002B7E  6E4B               	movwf	(?___fltol+1)^0,c
  4309   002B80  0E00               	movlw	0
  4310   002B82  6E4C               	movwf	(?___fltol+2)^0,c
  4311   002B84  0E00               	movlw	0
  4312   002B86  6E4D               	movwf	(?___fltol+3)^0,c
  4313   002B88  EF33  F016         	goto	l2206
  4314   002B8C                     l9309:
  4315   002B8C  C04A  F04E         	movff	___fltol@f1,??___fltol
  4316   002B90  C04B  F04F         	movff	___fltol@f1+1,??___fltol+1
  4317   002B94  C04C  F050         	movff	___fltol@f1+2,??___fltol+2
  4318   002B98  C04D  F051         	movff	___fltol@f1+3,??___fltol+3
  4319   002B9C  0E20               	movlw	32
  4320   002B9E  EFD6  F015         	goto	u9260
  4321   002BA2                     u9265:
  4322   002BA2  90D8               	bcf	status,0,c
  4323   002BA4  3251               	rrcf	(??___fltol+3)^0,f,c
  4324   002BA6  3250               	rrcf	(??___fltol+2)^0,f,c
  4325   002BA8  324F               	rrcf	(??___fltol+1)^0,f,c
  4326   002BAA  324E               	rrcf	??___fltol^0,f,c
  4327   002BAC                     u9260:
  4328   002BAC  2EE8               	decfsz	wreg,f,c
  4329   002BAE  EFD1  F015         	goto	u9265
  4330   002BB2  504E               	movf	??___fltol^0,w,c
  4331   002BB4  6E52               	movwf	___fltol@sign1^0,c
  4332   002BB6  8E4C               	bsf	(___fltol@f1+2)^0,7,c
  4333   002BB8  0EFF               	movlw	255
  4334   002BBA  164A               	andwf	___fltol@f1^0,f,c
  4335   002BBC  0EFF               	movlw	255
  4336   002BBE  164B               	andwf	(___fltol@f1+1)^0,f,c
  4337   002BC0  0EFF               	movlw	255
  4338   002BC2  164C               	andwf	(___fltol@f1+2)^0,f,c
  4339   002BC4  0E00               	movlw	0
  4340   002BC6  164D               	andwf	(___fltol@f1+3)^0,f,c
  4341   002BC8  0E96               	movlw	150
  4342   002BCA  5E53               	subwf	___fltol@exp1^0,f,c
  4343   002BCC  BE53               	btfsc	___fltol@exp1^0,7,c
  4344   002BCE  EFED  F015         	goto	u9270
  4345   002BD2  EFEB  F015         	goto	u9271
  4346   002BD6                     u9271:
  4347   002BD6  EF03  F016         	goto	l9329
  4348   002BDA                     u9270:
  4349   002BDA  5053               	movf	___fltol@exp1^0,w,c
  4350   002BDC  0A80               	xorlw	128
  4351   002BDE  0F97               	addlw	151
  4352   002BE0  B0D8               	btfsc	status,0,c
  4353   002BE2  EFF5  F015         	goto	u9281
  4354   002BE6  EFF7  F015         	goto	u9280
  4355   002BEA                     u9281:
  4356   002BEA  EFF9  F015         	goto	l9325
  4357   002BEE                     u9280:
  4358   002BEE  EFBC  F015         	goto	l9305
  4359   002BF2                     l9325:
  4360   002BF2  90D8               	bcf	status,0,c
  4361   002BF4  324D               	rrcf	(___fltol@f1+3)^0,f,c
  4362   002BF6  324C               	rrcf	(___fltol@f1+2)^0,f,c
  4363   002BF8  324B               	rrcf	(___fltol@f1+1)^0,f,c
  4364   002BFA  324A               	rrcf	___fltol@f1^0,f,c
  4365   002BFC  3E53               	incfsz	___fltol@exp1^0,f,c
  4366   002BFE  EFF9  F015         	goto	l9325
  4367   002C02  EF1B  F016         	goto	l9339
  4368   002C06                     l9329:
  4369   002C06  0E1F               	movlw	31
  4370   002C08  6453               	cpfsgt	___fltol@exp1^0,c
  4371   002C0A  EF09  F016         	goto	u9291
  4372   002C0E  EF0B  F016         	goto	u9290
  4373   002C12                     u9291:
  4374   002C12  EF13  F016         	goto	l9337
  4375   002C16                     u9290:
  4376   002C16  EFBC  F015         	goto	l9305
  4377   002C1A                     l9335:
  4378   002C1A  90D8               	bcf	status,0,c
  4379   002C1C  364A               	rlcf	___fltol@f1^0,f,c
  4380   002C1E  364B               	rlcf	(___fltol@f1+1)^0,f,c
  4381   002C20  364C               	rlcf	(___fltol@f1+2)^0,f,c
  4382   002C22  364D               	rlcf	(___fltol@f1+3)^0,f,c
  4383   002C24  0653               	decf	___fltol@exp1^0,f,c
  4384   002C26                     l9337:
  4385   002C26  5053               	movf	___fltol@exp1^0,w,c
  4386   002C28  A4D8               	btfss	status,2,c
  4387   002C2A  EF19  F016         	goto	u9301
  4388   002C2E  EF1B  F016         	goto	u9300
  4389   002C32                     u9301:
  4390   002C32  EF0D  F016         	goto	l9335
  4391   002C36                     u9300:
  4392   002C36                     l9339:
  4393   002C36  5052               	movf	___fltol@sign1^0,w,c
  4394   002C38  B4D8               	btfsc	status,2,c
  4395   002C3A  EF21  F016         	goto	u9311
  4396   002C3E  EF23  F016         	goto	u9310
  4397   002C42                     u9311:
  4398   002C42  EF2B  F016         	goto	l9343
  4399   002C46                     u9310:
  4400   002C46  1E4D               	comf	(___fltol@f1+3)^0,f,c
  4401   002C48  1E4C               	comf	(___fltol@f1+2)^0,f,c
  4402   002C4A  1E4B               	comf	(___fltol@f1+1)^0,f,c
  4403   002C4C  6C4A               	negf	___fltol@f1^0,c
  4404   002C4E  0E00               	movlw	0
  4405   002C50  224B               	addwfc	(___fltol@f1+1)^0,f,c
  4406   002C52  224C               	addwfc	(___fltol@f1+2)^0,f,c
  4407   002C54  224D               	addwfc	(___fltol@f1+3)^0,f,c
  4408   002C56                     l9343:
  4409   002C56  C04A  F04A         	movff	___fltol@f1,?___fltol
  4410   002C5A  C04B  F04B         	movff	___fltol@f1+1,?___fltol+1
  4411   002C5E  C04C  F04C         	movff	___fltol@f1+2,?___fltol+2
  4412   002C62  C04D  F04D         	movff	___fltol@f1+3,?___fltol+3
  4413   002C66                     l2206:
  4414   002C66  0012               	return		;funcret
  4415   002C68                     __end_of___fltol:
  4416                           	callstack 0
  4417                           
  4418 ;; *************** function ___fldiv *****************
  4419 ;; Defined at:
  4420 ;;		line 11 in file "C:\Program Files\Microchip\xc8\v2.41\pic\sources\c99\common\sprcdiv.c"
  4421 ;; Parameters:    Size  Location     Type
  4422 ;;  b               4   32[COMRAM] long 
  4423 ;;  a               4   36[COMRAM] long 
  4424 ;; Auto vars:     Size  Location     Type
  4425 ;;  grs             4   51[COMRAM] unsigned long 
  4426 ;;  rem             4   44[COMRAM] unsigned long 
  4427 ;;  new_exp         2   49[COMRAM] short 
  4428 ;;  aexp            1   56[COMRAM] unsigned char 
  4429 ;;  bexp            1   55[COMRAM] unsigned char 
  4430 ;;  sign            1   48[COMRAM] unsigned char 
  4431 ;; Return value:  Size  Location     Type
  4432 ;;                  4   32[COMRAM] unsigned char 
  4433 ;; Registers used:
  4434 ;;		wreg, status,2, status,0
  4435 ;; Tracked objects:
  4436 ;;		On entry : 0/0
  4437 ;;		On exit  : 0/0
  4438 ;;		Unchanged: 0/0
  4439 ;; Data sizes:     COMRAM   BANK0   BANK1   BANK2   BANK3   BANK4   BANK5   BANK6   BANK7   BANK8   BANK9  BANK10  BANK1
      +1  BANK12  BANK13  BANK14  BANK15
  4440 ;;      Params:         8       0       0       0       0       0       0       0       0       0       0       0       
      +0       0       0       0       0
  4441 ;;      Locals:        13       0       0       0       0       0       0       0       0       0       0       0       
      +0       0       0       0       0
  4442 ;;      Temps:          4       0       0       0       0       0       0       0       0       0       0       0       
      +0       0       0       0       0
  4443 ;;      Totals:        25       0       0       0       0       0       0       0       0       0       0       0       
      +0       0       0       0       0
  4444 ;;Total ram usage:       25 bytes
  4445 ;; Hardware stack levels used: 1
  4446 ;; Hardware stack levels required when called: 5
  4447 ;; This function calls:
  4448 ;;		Nothing
  4449 ;; This function is called by:
  4450 ;;		_I2C_Master_Mode_Clock_Configurations
  4451 ;;		_EUSART_Baud_Rate_Calculation
  4452 ;;		_Ultrasonic_Calculate_Distance
  4453 ;;		_CCP_PWM_Set_Duty
  4454 ;;		_CCP_PWM_Mode_Config
  4455 ;; This function uses a non-reentrant model
  4456 ;;
  4457                           
  4458                           	psect	text23
  4459   001E30                     __ptext23:
  4460                           	callstack 0
  4461   001E30                     ___fldiv:
  4462                           	callstack 22
  4463   001E30  5024               	movf	(___fldiv@b+3)^0,w,c
  4464   001E32  0B80               	andlw	128
  4465   001E34  6E31               	movwf	___fldiv@sign^0,c
  4466   001E36  5024               	movf	(___fldiv@b+3)^0,w,c
  4467   001E38  2424               	addwf	(___fldiv@b+3)^0,w,c
  4468   001E3A  6E38               	movwf	___fldiv@bexp^0,c
  4469   001E3C  AE23               	btfss	(___fldiv@b+2)^0,7,c
  4470   001E3E  EF23  F00F         	goto	u9021
  4471   001E42  EF25  F00F         	goto	u9020
  4472   001E46                     u9021:
  4473   001E46  EF26  F00F         	goto	l9171
  4474   001E4A                     u9020:
  4475   001E4A  8038               	bsf	___fldiv@bexp^0,0,c
  4476   001E4C                     l9171:
  4477   001E4C  5038               	movf	___fldiv@bexp^0,w,c
  4478   001E4E  B4D8               	btfsc	status,2,c
  4479   001E50  EF2C  F00F         	goto	u9031
  4480   001E54  EF2E  F00F         	goto	u9030
  4481   001E58                     u9031:
  4482   001E58  EF43  F00F         	goto	l9181
  4483   001E5C                     u9030:
  4484   001E5C  2838               	incf	___fldiv@bexp^0,w,c
  4485   001E5E  A4D8               	btfss	status,2,c
  4486   001E60  EF34  F00F         	goto	u9041
  4487   001E64  EF36  F00F         	goto	u9040
  4488   001E68                     u9041:
  4489   001E68  EF3E  F00F         	goto	l9177
  4490   001E6C                     u9040:
  4491   001E6C  0E00               	movlw	0
  4492   001E6E  6E21               	movwf	___fldiv@b^0,c
  4493   001E70  0E00               	movlw	0
  4494   001E72  6E22               	movwf	(___fldiv@b+1)^0,c
  4495   001E74  0E00               	movlw	0
  4496   001E76  6E23               	movwf	(___fldiv@b+2)^0,c
  4497   001E78  0E00               	movlw	0
  4498   001E7A  6E24               	movwf	(___fldiv@b+3)^0,c
  4499   001E7C                     l9177:
  4500   001E7C  8E23               	bsf	(___fldiv@b+2)^0,7,c
  4501   001E7E  0E00               	movlw	0
  4502   001E80  6E24               	movwf	(___fldiv@b+3)^0,c
  4503   001E82  EF4B  F00F         	goto	l9183
  4504   001E86                     l9181:
  4505   001E86  0E00               	movlw	0
  4506   001E88  6E21               	movwf	___fldiv@b^0,c
  4507   001E8A  0E00               	movlw	0
  4508   001E8C  6E22               	movwf	(___fldiv@b+1)^0,c
  4509   001E8E  0E00               	movlw	0
  4510   001E90  6E23               	movwf	(___fldiv@b+2)^0,c
  4511   001E92  0E00               	movlw	0
  4512   001E94  6E24               	movwf	(___fldiv@b+3)^0,c
  4513   001E96                     l9183:
  4514   001E96  5028               	movf	(___fldiv@a+3)^0,w,c
  4515   001E98  0B80               	andlw	128
  4516   001E9A  1A31               	xorwf	___fldiv@sign^0,f,c
  4517   001E9C  5028               	movf	(___fldiv@a+3)^0,w,c
  4518   001E9E  2428               	addwf	(___fldiv@a+3)^0,w,c
  4519   001EA0  6E39               	movwf	___fldiv@aexp^0,c
  4520   001EA2  AE27               	btfss	(___fldiv@a+2)^0,7,c
  4521   001EA4  EF56  F00F         	goto	u9051
  4522   001EA8  EF58  F00F         	goto	u9050
  4523   001EAC                     u9051:
  4524   001EAC  EF59  F00F         	goto	l9191
  4525   001EB0                     u9050:
  4526   001EB0  8039               	bsf	___fldiv@aexp^0,0,c
  4527   001EB2                     l9191:
  4528   001EB2  5039               	movf	___fldiv@aexp^0,w,c
  4529   001EB4  B4D8               	btfsc	status,2,c
  4530   001EB6  EF5F  F00F         	goto	u9061
  4531   001EBA  EF61  F00F         	goto	u9060
  4532   001EBE                     u9061:
  4533   001EBE  EF76  F00F         	goto	l9201
  4534   001EC2                     u9060:
  4535   001EC2  2839               	incf	___fldiv@aexp^0,w,c
  4536   001EC4  A4D8               	btfss	status,2,c
  4537   001EC6  EF67  F00F         	goto	u9071
  4538   001ECA  EF69  F00F         	goto	u9070
  4539   001ECE                     u9071:
  4540   001ECE  EF71  F00F         	goto	l9197
  4541   001ED2                     u9070:
  4542   001ED2  0E00               	movlw	0
  4543   001ED4  6E25               	movwf	___fldiv@a^0,c
  4544   001ED6  0E00               	movlw	0
  4545   001ED8  6E26               	movwf	(___fldiv@a+1)^0,c
  4546   001EDA  0E00               	movlw	0
  4547   001EDC  6E27               	movwf	(___fldiv@a+2)^0,c
  4548   001EDE  0E00               	movlw	0
  4549   001EE0  6E28               	movwf	(___fldiv@a+3)^0,c
  4550   001EE2                     l9197:
  4551   001EE2  8E27               	bsf	(___fldiv@a+2)^0,7,c
  4552   001EE4  0E00               	movlw	0
  4553   001EE6  6E28               	movwf	(___fldiv@a+3)^0,c
  4554   001EE8  EF7E  F00F         	goto	l9203
  4555   001EEC                     l9201:
  4556   001EEC  0E00               	movlw	0
  4557   001EEE  6E25               	movwf	___fldiv@a^0,c
  4558   001EF0  0E00               	movlw	0
  4559   001EF2  6E26               	movwf	(___fldiv@a+1)^0,c
  4560   001EF4  0E00               	movlw	0
  4561   001EF6  6E27               	movwf	(___fldiv@a+2)^0,c
  4562   001EF8  0E00               	movlw	0
  4563   001EFA  6E28               	movwf	(___fldiv@a+3)^0,c
  4564   001EFC                     l9203:
  4565   001EFC  5025               	movf	___fldiv@a^0,w,c
  4566   001EFE  1026               	iorwf	(___fldiv@a+1)^0,w,c
  4567   001F00  1027               	iorwf	(___fldiv@a+2)^0,w,c
  4568   001F02  1028               	iorwf	(___fldiv@a+3)^0,w,c
  4569   001F04  A4D8               	btfss	status,2,c
  4570   001F06  EF87  F00F         	goto	u9081
  4571   001F0A  EF89  F00F         	goto	u9080
  4572   001F0E                     u9081:
  4573   001F0E  EFA1  F00F         	goto	l9215
  4574   001F12                     u9080:
  4575   001F12  0E00               	movlw	0
  4576   001F14  6E21               	movwf	___fldiv@b^0,c
  4577   001F16  0E00               	movlw	0
  4578   001F18  6E22               	movwf	(___fldiv@b+1)^0,c
  4579   001F1A  0E00               	movlw	0
  4580   001F1C  6E23               	movwf	(___fldiv@b+2)^0,c
  4581   001F1E  0E00               	movlw	0
  4582   001F20  6E24               	movwf	(___fldiv@b+3)^0,c
  4583   001F22  0E80               	movlw	128
  4584   001F24  1223               	iorwf	(___fldiv@b+2)^0,f,c
  4585   001F26  0E7F               	movlw	127
  4586   001F28  1224               	iorwf	(___fldiv@b+3)^0,f,c
  4587   001F2A                     l9209:
  4588   001F2A  5031               	movf	___fldiv@sign^0,w,c
  4589   001F2C  1224               	iorwf	(___fldiv@b+3)^0,f,c
  4590   001F2E  C021  F021         	movff	___fldiv@b,?___fldiv
  4591   001F32  C022  F022         	movff	___fldiv@b+1,?___fldiv+1
  4592   001F36  C023  F023         	movff	___fldiv@b+2,?___fldiv+2
  4593   001F3A  C024  F024         	movff	___fldiv@b+3,?___fldiv+3
  4594   001F3E  EFE4  F010         	goto	l2491
  4595   001F42                     l9215:
  4596   001F42  5038               	movf	___fldiv@bexp^0,w,c
  4597   001F44  A4D8               	btfss	status,2,c
  4598   001F46  EFA7  F00F         	goto	u9091
  4599   001F4A  EFA9  F00F         	goto	u9090
  4600   001F4E                     u9091:
  4601   001F4E  EFB3  F00F         	goto	l9223
  4602   001F52                     u9090:
  4603   001F52  0E00               	movlw	0
  4604   001F54  6E21               	movwf	?___fldiv^0,c
  4605   001F56  0E00               	movlw	0
  4606   001F58  6E22               	movwf	(?___fldiv+1)^0,c
  4607   001F5A  0E00               	movlw	0
  4608   001F5C  6E23               	movwf	(?___fldiv+2)^0,c
  4609   001F5E  0E00               	movlw	0
  4610   001F60  6E24               	movwf	(?___fldiv+3)^0,c
  4611   001F62  EFE4  F010         	goto	l2491
  4612   001F66                     l9223:
  4613   001F66  5039               	movf	___fldiv@aexp^0,w,c
  4614   001F68  C038  F029         	movff	___fldiv@bexp,??___fldiv
  4615   001F6C  6A2A               	clrf	(??___fldiv+1)^0,c
  4616   001F6E  5E29               	subwf	??___fldiv^0,f,c
  4617   001F70  0E00               	movlw	0
  4618   001F72  5A2A               	subwfb	(??___fldiv+1)^0,f,c
  4619   001F74  0E7F               	movlw	127
  4620   001F76  2429               	addwf	??___fldiv^0,w,c
  4621   001F78  6E32               	movwf	___fldiv@new_exp^0,c
  4622   001F7A  0E00               	movlw	0
  4623   001F7C  202A               	addwfc	(??___fldiv+1)^0,w,c
  4624   001F7E  6E33               	movwf	(___fldiv@new_exp+1)^0,c
  4625   001F80  C021  F02D         	movff	___fldiv@b,___fldiv@rem
  4626   001F84  C022  F02E         	movff	___fldiv@b+1,___fldiv@rem+1
  4627   001F88  C023  F02F         	movff	___fldiv@b+2,___fldiv@rem+2
  4628   001F8C  C024  F030         	movff	___fldiv@b+3,___fldiv@rem+3
  4629   001F90  0E00               	movlw	0
  4630   001F92  6E21               	movwf	___fldiv@b^0,c
  4631   001F94  0E00               	movlw	0
  4632   001F96  6E22               	movwf	(___fldiv@b+1)^0,c
  4633   001F98  0E00               	movlw	0
  4634   001F9A  6E23               	movwf	(___fldiv@b+2)^0,c
  4635   001F9C  0E00               	movlw	0
  4636   001F9E  6E24               	movwf	(___fldiv@b+3)^0,c
  4637   001FA0  0E00               	movlw	0
  4638   001FA2  6E34               	movwf	___fldiv@grs^0,c
  4639   001FA4  0E00               	movlw	0
  4640   001FA6  6E35               	movwf	(___fldiv@grs+1)^0,c
  4641   001FA8  0E00               	movlw	0
  4642   001FAA  6E36               	movwf	(___fldiv@grs+2)^0,c
  4643   001FAC  0E00               	movlw	0
  4644   001FAE  6E37               	movwf	(___fldiv@grs+3)^0,c
  4645   001FB0  0E00               	movlw	0
  4646   001FB2  6E39               	movwf	___fldiv@aexp^0,c
  4647   001FB4  EF14  F010         	goto	l2493
  4648   001FB8                     l9233:
  4649   001FB8  5039               	movf	___fldiv@aexp^0,w,c
  4650   001FBA  B4D8               	btfsc	status,2,c
  4651   001FBC  EFE2  F00F         	goto	u9101
  4652   001FC0  EFE4  F00F         	goto	u9100
  4653   001FC4                     u9101:
  4654   001FC4  EFFB  F00F         	goto	l9241
  4655   001FC8                     u9100:
  4656   001FC8  90D8               	bcf	status,0,c
  4657   001FCA  362D               	rlcf	___fldiv@rem^0,f,c
  4658   001FCC  362E               	rlcf	(___fldiv@rem+1)^0,f,c
  4659   001FCE  362F               	rlcf	(___fldiv@rem+2)^0,f,c
  4660   001FD0  3630               	rlcf	(___fldiv@rem+3)^0,f,c
  4661   001FD2  90D8               	bcf	status,0,c
  4662   001FD4  3621               	rlcf	___fldiv@b^0,f,c
  4663   001FD6  3622               	rlcf	(___fldiv@b+1)^0,f,c
  4664   001FD8  3623               	rlcf	(___fldiv@b+2)^0,f,c
  4665   001FDA  3624               	rlcf	(___fldiv@b+3)^0,f,c
  4666   001FDC  AE37               	btfss	(___fldiv@grs+3)^0,7,c
  4667   001FDE  EFF3  F00F         	goto	u9111
  4668   001FE2  EFF5  F00F         	goto	u9110
  4669   001FE6                     u9111:
  4670   001FE6  EFF6  F00F         	goto	l2496
  4671   001FEA                     u9110:
  4672   001FEA  8021               	bsf	___fldiv@b^0,0,c
  4673   001FEC                     l2496:
  4674   001FEC  90D8               	bcf	status,0,c
  4675   001FEE  3634               	rlcf	___fldiv@grs^0,f,c
  4676   001FF0  3635               	rlcf	(___fldiv@grs+1)^0,f,c
  4677   001FF2  3636               	rlcf	(___fldiv@grs+2)^0,f,c
  4678   001FF4  3637               	rlcf	(___fldiv@grs+3)^0,f,c
  4679   001FF6                     l9241:
  4680   001FF6  5025               	movf	___fldiv@a^0,w,c
  4681   001FF8  5C2D               	subwf	___fldiv@rem^0,w,c
  4682   001FFA  5026               	movf	(___fldiv@a+1)^0,w,c
  4683   001FFC  582E               	subwfb	(___fldiv@rem+1)^0,w,c
  4684   001FFE  5027               	movf	(___fldiv@a+2)^0,w,c
  4685   002000  582F               	subwfb	(___fldiv@rem+2)^0,w,c
  4686   002002  5028               	movf	(___fldiv@a+3)^0,w,c
  4687   002004  5830               	subwfb	(___fldiv@rem+3)^0,w,c
  4688   002006  A0D8               	btfss	status,0,c
  4689   002008  EF08  F010         	goto	u9121
  4690   00200C  EF0A  F010         	goto	u9120
  4691   002010                     u9121:
  4692   002010  EF13  F010         	goto	l9247
  4693   002014                     u9120:
  4694   002014  8C37               	bsf	(___fldiv@grs+3)^0,6,c
  4695   002016  5025               	movf	___fldiv@a^0,w,c
  4696   002018  5E2D               	subwf	___fldiv@rem^0,f,c
  4697   00201A  5026               	movf	(___fldiv@a+1)^0,w,c
  4698   00201C  5A2E               	subwfb	(___fldiv@rem+1)^0,f,c
  4699   00201E  5027               	movf	(___fldiv@a+2)^0,w,c
  4700   002020  5A2F               	subwfb	(___fldiv@rem+2)^0,f,c
  4701   002022  5028               	movf	(___fldiv@a+3)^0,w,c
  4702   002024  5A30               	subwfb	(___fldiv@rem+3)^0,f,c
  4703   002026                     l9247:
  4704   002026  2A39               	incf	___fldiv@aexp^0,f,c
  4705   002028                     l2493:
  4706   002028  0E19               	movlw	25
  4707   00202A  6439               	cpfsgt	___fldiv@aexp^0,c
  4708   00202C  EF1A  F010         	goto	u9131
  4709   002030  EF1C  F010         	goto	u9130
  4710   002034                     u9131:
  4711   002034  EFDC  F00F         	goto	l9233
  4712   002038                     u9130:
  4713   002038  502D               	movf	___fldiv@rem^0,w,c
  4714   00203A  102E               	iorwf	(___fldiv@rem+1)^0,w,c
  4715   00203C  102F               	iorwf	(___fldiv@rem+2)^0,w,c
  4716   00203E  1030               	iorwf	(___fldiv@rem+3)^0,w,c
  4717   002040  B4D8               	btfsc	status,2,c
  4718   002042  EF25  F010         	goto	u9141
  4719   002046  EF27  F010         	goto	u9140
  4720   00204A                     u9141:
  4721   00204A  EF3F  F010         	goto	l9259
  4722   00204E                     u9140:
  4723   00204E  8034               	bsf	___fldiv@grs^0,0,c
  4724   002050  EF3F  F010         	goto	l9259
  4725   002054                     l9253:
  4726   002054  90D8               	bcf	status,0,c
  4727   002056  3621               	rlcf	___fldiv@b^0,f,c
  4728   002058  3622               	rlcf	(___fldiv@b+1)^0,f,c
  4729   00205A  3623               	rlcf	(___fldiv@b+2)^0,f,c
  4730   00205C  3624               	rlcf	(___fldiv@b+3)^0,f,c
  4731   00205E  AE37               	btfss	(___fldiv@grs+3)^0,7,c
  4732   002060  EF34  F010         	goto	u9151
  4733   002064  EF36  F010         	goto	u9150
  4734   002068                     u9151:
  4735   002068  EF37  F010         	goto	l2502
  4736   00206C                     u9150:
  4737   00206C  8021               	bsf	___fldiv@b^0,0,c
  4738   00206E                     l2502:
  4739   00206E  90D8               	bcf	status,0,c
  4740   002070  3634               	rlcf	___fldiv@grs^0,f,c
  4741   002072  3635               	rlcf	(___fldiv@grs+1)^0,f,c
  4742   002074  3636               	rlcf	(___fldiv@grs+2)^0,f,c
  4743   002076  3637               	rlcf	(___fldiv@grs+3)^0,f,c
  4744   002078  0632               	decf	___fldiv@new_exp^0,f,c
  4745   00207A  A0D8               	btfss	status,0,c
  4746   00207C  0633               	decf	(___fldiv@new_exp+1)^0,f,c
  4747   00207E                     l9259:
  4748   00207E  AE23               	btfss	(___fldiv@b+2)^0,7,c
  4749   002080  EF44  F010         	goto	u9161
  4750   002084  EF46  F010         	goto	u9160
  4751   002088                     u9161:
  4752   002088  EF2A  F010         	goto	l9253
  4753   00208C                     u9160:
  4754   00208C  0E00               	movlw	0
  4755   00208E  6E39               	movwf	___fldiv@aexp^0,c
  4756   002090  AE37               	btfss	(___fldiv@grs+3)^0,7,c
  4757   002092  EF4D  F010         	goto	u9171
  4758   002096  EF4F  F010         	goto	u9170
  4759   00209A                     u9171:
  4760   00209A  EF73  F010         	goto	l2504
  4761   00209E                     u9170:
  4762   00209E  0EFF               	movlw	255
  4763   0020A0  1434               	andwf	___fldiv@grs^0,w,c
  4764   0020A2  6E29               	movwf	??___fldiv^0,c
  4765   0020A4  0EFF               	movlw	255
  4766   0020A6  1435               	andwf	(___fldiv@grs+1)^0,w,c
  4767   0020A8  6E2A               	movwf	(??___fldiv+1)^0,c
  4768   0020AA  0EFF               	movlw	255
  4769   0020AC  1436               	andwf	(___fldiv@grs+2)^0,w,c
  4770   0020AE  6E2B               	movwf	(??___fldiv+2)^0,c
  4771   0020B0  0E7F               	movlw	127
  4772   0020B2  1437               	andwf	(___fldiv@grs+3)^0,w,c
  4773   0020B4  6E2C               	movwf	(??___fldiv+3)^0,c
  4774   0020B6  5029               	movf	??___fldiv^0,w,c
  4775   0020B8  102A               	iorwf	(??___fldiv+1)^0,w,c
  4776   0020BA  102B               	iorwf	(??___fldiv+2)^0,w,c
  4777   0020BC  102C               	iorwf	(??___fldiv+3)^0,w,c
  4778   0020BE  B4D8               	btfsc	status,2,c
  4779   0020C0  EF64  F010         	goto	u9181
  4780   0020C4  EF66  F010         	goto	u9180
  4781   0020C8                     u9181:
  4782   0020C8  EF6A  F010         	goto	l2505
  4783   0020CC                     u9180:
  4784   0020CC                     l9267:
  4785   0020CC  0E01               	movlw	1
  4786   0020CE  6E39               	movwf	___fldiv@aexp^0,c
  4787   0020D0  EF73  F010         	goto	l2504
  4788   0020D4                     l2505:
  4789   0020D4  A021               	btfss	___fldiv@b^0,0,c
  4790   0020D6  EF6F  F010         	goto	u9191
  4791   0020DA  EF71  F010         	goto	u9190
  4792   0020DE                     u9191:
  4793   0020DE  EF73  F010         	goto	l2504
  4794   0020E2                     u9190:
  4795   0020E2  EF66  F010         	goto	l9267
  4796   0020E6                     l2504:
  4797   0020E6  5039               	movf	___fldiv@aexp^0,w,c
  4798   0020E8  B4D8               	btfsc	status,2,c
  4799   0020EA  EF79  F010         	goto	u9201
  4800   0020EE  EF7B  F010         	goto	u9200
  4801   0020F2                     u9201:
  4802   0020F2  EF9F  F010         	goto	l9279
  4803   0020F6                     u9200:
  4804   0020F6  0E01               	movlw	1
  4805   0020F8  2621               	addwf	___fldiv@b^0,f,c
  4806   0020FA  0E00               	movlw	0
  4807   0020FC  2222               	addwfc	(___fldiv@b+1)^0,f,c
  4808   0020FE  2223               	addwfc	(___fldiv@b+2)^0,f,c
  4809   002100  2224               	addwfc	(___fldiv@b+3)^0,f,c
  4810   002102  A024               	btfss	(___fldiv@b+3)^0,0,c
  4811   002104  EF86  F010         	goto	u9211
  4812   002108  EF88  F010         	goto	u9210
  4813   00210C                     u9211:
  4814   00210C  EF9F  F010         	goto	l9279
  4815   002110                     u9210:
  4816   002110  C021  F029         	movff	___fldiv@b,??___fldiv
  4817   002114  C022  F02A         	movff	___fldiv@b+1,??___fldiv+1
  4818   002118  C023  F02B         	movff	___fldiv@b+2,??___fldiv+2
  4819   00211C  C024  F02C         	movff	___fldiv@b+3,??___fldiv+3
  4820   002120  342C               	rlcf	(??___fldiv+3)^0,w,c
  4821   002122  322C               	rrcf	(??___fldiv+3)^0,f,c
  4822   002124  322B               	rrcf	(??___fldiv+2)^0,f,c
  4823   002126  322A               	rrcf	(??___fldiv+1)^0,f,c
  4824   002128  3229               	rrcf	??___fldiv^0,f,c
  4825   00212A  C029  F021         	movff	??___fldiv,___fldiv@b
  4826   00212E  C02A  F022         	movff	??___fldiv+1,___fldiv@b+1
  4827   002132  C02B  F023         	movff	??___fldiv+2,___fldiv@b+2
  4828   002136  C02C  F024         	movff	??___fldiv+3,___fldiv@b+3
  4829   00213A  4A32               	infsnz	___fldiv@new_exp^0,f,c
  4830   00213C  2A33               	incf	(___fldiv@new_exp+1)^0,f,c
  4831   00213E                     l9279:
  4832   00213E  BE33               	btfsc	(___fldiv@new_exp+1)^0,7,c
  4833   002140  EFAA  F010         	goto	u9221
  4834   002144  5033               	movf	(___fldiv@new_exp+1)^0,w,c
  4835   002146  E108               	bnz	u9220
  4836   002148  2832               	incf	___fldiv@new_exp^0,w,c
  4837   00214A  A0D8               	btfss	status,0,c
  4838   00214C  EFAA  F010         	goto	u9221
  4839   002150  EFAC  F010         	goto	u9220
  4840   002154                     u9221:
  4841   002154  EFB7  F010         	goto	l9283
  4842   002158                     u9220:
  4843   002158  0E00               	movlw	0
  4844   00215A  6E33               	movwf	(___fldiv@new_exp+1)^0,c
  4845   00215C  6832               	setf	___fldiv@new_exp^0,c
  4846   00215E  0E00               	movlw	0
  4847   002160  6E21               	movwf	___fldiv@b^0,c
  4848   002162  0E00               	movlw	0
  4849   002164  6E22               	movwf	(___fldiv@b+1)^0,c
  4850   002166  0E00               	movlw	0
  4851   002168  6E23               	movwf	(___fldiv@b+2)^0,c
  4852   00216A  0E00               	movlw	0
  4853   00216C  6E24               	movwf	(___fldiv@b+3)^0,c
  4854   00216E                     l9283:
  4855   00216E  BE33               	btfsc	(___fldiv@new_exp+1)^0,7,c
  4856   002170  EFC4  F010         	goto	u9230
  4857   002174  5033               	movf	(___fldiv@new_exp+1)^0,w,c
  4858   002176  E106               	bnz	u9231
  4859   002178  0432               	decf	___fldiv@new_exp^0,w,c
  4860   00217A  B0D8               	btfsc	status,0,c
  4861   00217C  EFC2  F010         	goto	u9231
  4862   002180  EFC4  F010         	goto	u9230
  4863   002184                     u9231:
  4864   002184  EFD2  F010         	goto	l9287
  4865   002188                     u9230:
  4866   002188  0E00               	movlw	0
  4867   00218A  6E33               	movwf	(___fldiv@new_exp+1)^0,c
  4868   00218C  0E00               	movlw	0
  4869   00218E  6E32               	movwf	___fldiv@new_exp^0,c
  4870   002190  0E00               	movlw	0
  4871   002192  6E21               	movwf	___fldiv@b^0,c
  4872   002194  0E00               	movlw	0
  4873   002196  6E22               	movwf	(___fldiv@b+1)^0,c
  4874   002198  0E00               	movlw	0
  4875   00219A  6E23               	movwf	(___fldiv@b+2)^0,c
  4876   00219C  0E00               	movlw	0
  4877   00219E  6E24               	movwf	(___fldiv@b+3)^0,c
  4878   0021A0  0E00               	movlw	0
  4879   0021A2  6E31               	movwf	___fldiv@sign^0,c
  4880   0021A4                     l9287:
  4881   0021A4  C032  F038         	movff	___fldiv@new_exp,___fldiv@bexp
  4882   0021A8  A038               	btfss	___fldiv@bexp^0,0,c
  4883   0021AA  EFD9  F010         	goto	u9241
  4884   0021AE  EFDB  F010         	goto	u9240
  4885   0021B2                     u9241:
  4886   0021B2  EFDE  F010         	goto	l9293
  4887   0021B6                     u9240:
  4888   0021B6  8E23               	bsf	(___fldiv@b+2)^0,7,c
  4889   0021B8  EFDF  F010         	goto	l9295
  4890   0021BC                     l9293:
  4891   0021BC  9E23               	bcf	(___fldiv@b+2)^0,7,c
  4892   0021BE                     l9295:
  4893   0021BE  90D8               	bcf	status,0,c
  4894   0021C0  3038               	rrcf	___fldiv@bexp^0,w,c
  4895   0021C2  6E24               	movwf	(___fldiv@b+3)^0,c
  4896   0021C4  EF95  F00F         	goto	l9209
  4897   0021C8                     l2491:
  4898   0021C8  0012               	return		;funcret
  4899   0021CA                     __end_of___fldiv:
  4900                           	callstack 0
  4901                           
  4902 ;; *************** function ___fladd *****************
  4903 ;; Defined at:
  4904 ;;		line 10 in file "C:\Program Files\Microchip\xc8\v2.41\pic\sources\c99\common\sprcadd.c"
  4905 ;; Parameters:    Size  Location     Type
  4906 ;;  b               4   57[COMRAM] unsigned char 
  4907 ;;  a               4   61[COMRAM] unsigned char 
  4908 ;; Auto vars:     Size  Location     Type
  4909 ;;  grs             1   72[COMRAM] unsigned char 
  4910 ;;  bexp            1   71[COMRAM] unsigned char 
  4911 ;;  aexp            1   70[COMRAM] unsigned char 
  4912 ;;  signs           1   69[COMRAM] unsigned char 
  4913 ;; Return value:  Size  Location     Type
  4914 ;;                  4   57[COMRAM] unsigned char 
  4915 ;; Registers used:
  4916 ;;		wreg, status,2, status,0
  4917 ;; Tracked objects:
  4918 ;;		On entry : 0/0
  4919 ;;		On exit  : 0/0
  4920 ;;		Unchanged: 0/0
  4921 ;; Data sizes:     COMRAM   BANK0   BANK1   BANK2   BANK3   BANK4   BANK5   BANK6   BANK7   BANK8   BANK9  BANK10  BANK1
      +1  BANK12  BANK13  BANK14  BANK15
  4922 ;;      Params:         8       0       0       0       0       0       0       0       0       0       0       0       
      +0       0       0       0       0
  4923 ;;      Locals:         4       0       0       0       0       0       0       0       0       0       0       0       
      +0       0       0       0       0
  4924 ;;      Temps:          4       0       0       0       0       0       0       0       0       0       0       0       
      +0       0       0       0       0
  4925 ;;      Totals:        16       0       0       0       0       0       0       0       0       0       0       0       
      +0       0       0       0       0
  4926 ;;Total ram usage:       16 bytes
  4927 ;; Hardware stack levels used: 1
  4928 ;; Hardware stack levels required when called: 5
  4929 ;; This function calls:
  4930 ;;		Nothing
  4931 ;; This function is called by:
  4932 ;;		_I2C_Master_Mode_Clock_Configurations
  4933 ;;		_EUSART_Baud_Rate_Calculation
  4934 ;;		_CCP_PWM_Set_Duty
  4935 ;;		_CCP_PWM_Mode_Config
  4936 ;; This function uses a non-reentrant model
  4937 ;;
  4938                           
  4939                           	psect	text24
  4940   0014F8                     __ptext24:
  4941                           	callstack 0
  4942   0014F8                     ___fladd:
  4943                           	callstack 22
  4944   0014F8  503D               	movf	(___fladd@b+3)^0,w,c
  4945   0014FA  0B80               	andlw	128
  4946   0014FC  6E46               	movwf	___fladd@signs^0,c
  4947   0014FE  503D               	movf	(___fladd@b+3)^0,w,c
  4948   001500  243D               	addwf	(___fladd@b+3)^0,w,c
  4949   001502  6E48               	movwf	___fladd@bexp^0,c
  4950   001504  AE3C               	btfss	(___fladd@b+2)^0,7,c
  4951   001506  EF87  F00A         	goto	u8631
  4952   00150A  EF89  F00A         	goto	u8630
  4953   00150E                     u8631:
  4954   00150E  EF8A  F00A         	goto	l8969
  4955   001512                     u8630:
  4956   001512  8048               	bsf	___fladd@bexp^0,0,c
  4957   001514                     l8969:
  4958   001514  5048               	movf	___fladd@bexp^0,w,c
  4959   001516  B4D8               	btfsc	status,2,c
  4960   001518  EF90  F00A         	goto	u8641
  4961   00151C  EF92  F00A         	goto	u8640
  4962   001520                     u8641:
  4963   001520  EFA7  F00A         	goto	l8979
  4964   001524                     u8640:
  4965   001524  2848               	incf	___fladd@bexp^0,w,c
  4966   001526  A4D8               	btfss	status,2,c
  4967   001528  EF98  F00A         	goto	u8651
  4968   00152C  EF9A  F00A         	goto	u8650
  4969   001530                     u8651:
  4970   001530  EFA2  F00A         	goto	l8975
  4971   001534                     u8650:
  4972   001534  0E00               	movlw	0
  4973   001536  6E3A               	movwf	___fladd@b^0,c
  4974   001538  0E00               	movlw	0
  4975   00153A  6E3B               	movwf	(___fladd@b+1)^0,c
  4976   00153C  0E00               	movlw	0
  4977   00153E  6E3C               	movwf	(___fladd@b+2)^0,c
  4978   001540  0E00               	movlw	0
  4979   001542  6E3D               	movwf	(___fladd@b+3)^0,c
  4980   001544                     l8975:
  4981   001544  8E3C               	bsf	(___fladd@b+2)^0,7,c
  4982   001546  0E00               	movlw	0
  4983   001548  6E3D               	movwf	(___fladd@b+3)^0,c
  4984   00154A  EFAF  F00A         	goto	l8981
  4985   00154E                     l8979:
  4986   00154E  0E00               	movlw	0
  4987   001550  6E3A               	movwf	___fladd@b^0,c
  4988   001552  0E00               	movlw	0
  4989   001554  6E3B               	movwf	(___fladd@b+1)^0,c
  4990   001556  0E00               	movlw	0
  4991   001558  6E3C               	movwf	(___fladd@b+2)^0,c
  4992   00155A  0E00               	movlw	0
  4993   00155C  6E3D               	movwf	(___fladd@b+3)^0,c
  4994   00155E                     l8981:
  4995   00155E  5041               	movf	(___fladd@a+3)^0,w,c
  4996   001560  0B80               	andlw	128
  4997   001562  6E47               	movwf	___fladd@aexp^0,c
  4998   001564  5046               	movf	___fladd@signs^0,w,c
  4999   001566  1847               	xorwf	___fladd@aexp^0,w,c
  5000   001568  B4D8               	btfsc	status,2,c
  5001   00156A  EFB9  F00A         	goto	u8661
  5002   00156E  EFBB  F00A         	goto	u8660
  5003   001572                     u8661:
  5004   001572  EFBC  F00A         	goto	l8987
  5005   001576                     u8660:
  5006   001576  8C46               	bsf	___fladd@signs^0,6,c
  5007   001578                     l8987:
  5008   001578  5041               	movf	(___fladd@a+3)^0,w,c
  5009   00157A  2441               	addwf	(___fladd@a+3)^0,w,c
  5010   00157C  6E47               	movwf	___fladd@aexp^0,c
  5011   00157E  AE40               	btfss	(___fladd@a+2)^0,7,c
  5012   001580  EFC4  F00A         	goto	u8671
  5013   001584  EFC6  F00A         	goto	u8670
  5014   001588                     u8671:
  5015   001588  EFC7  F00A         	goto	l8993
  5016   00158C                     u8670:
  5017   00158C  8047               	bsf	___fladd@aexp^0,0,c
  5018   00158E                     l8993:
  5019   00158E  5047               	movf	___fladd@aexp^0,w,c
  5020   001590  B4D8               	btfsc	status,2,c
  5021   001592  EFCD  F00A         	goto	u8681
  5022   001596  EFCF  F00A         	goto	u8680
  5023   00159A                     u8681:
  5024   00159A  EFE4  F00A         	goto	l9003
  5025   00159E                     u8680:
  5026   00159E  2847               	incf	___fladd@aexp^0,w,c
  5027   0015A0  A4D8               	btfss	status,2,c
  5028   0015A2  EFD5  F00A         	goto	u8691
  5029   0015A6  EFD7  F00A         	goto	u8690
  5030   0015AA                     u8691:
  5031   0015AA  EFDF  F00A         	goto	l8999
  5032   0015AE                     u8690:
  5033   0015AE  0E00               	movlw	0
  5034   0015B0  6E3E               	movwf	___fladd@a^0,c
  5035   0015B2  0E00               	movlw	0
  5036   0015B4  6E3F               	movwf	(___fladd@a+1)^0,c
  5037   0015B6  0E00               	movlw	0
  5038   0015B8  6E40               	movwf	(___fladd@a+2)^0,c
  5039   0015BA  0E00               	movlw	0
  5040   0015BC  6E41               	movwf	(___fladd@a+3)^0,c
  5041   0015BE                     l8999:
  5042   0015BE  8E40               	bsf	(___fladd@a+2)^0,7,c
  5043   0015C0  0E00               	movlw	0
  5044   0015C2  6E41               	movwf	(___fladd@a+3)^0,c
  5045   0015C4  EFEC  F00A         	goto	l9005
  5046   0015C8                     l9003:
  5047   0015C8  0E00               	movlw	0
  5048   0015CA  6E3E               	movwf	___fladd@a^0,c
  5049   0015CC  0E00               	movlw	0
  5050   0015CE  6E3F               	movwf	(___fladd@a+1)^0,c
  5051   0015D0  0E00               	movlw	0
  5052   0015D2  6E40               	movwf	(___fladd@a+2)^0,c
  5053   0015D4  0E00               	movlw	0
  5054   0015D6  6E41               	movwf	(___fladd@a+3)^0,c
  5055   0015D8                     l9005:
  5056   0015D8  5048               	movf	___fladd@bexp^0,w,c
  5057   0015DA  5C47               	subwf	___fladd@aexp^0,w,c
  5058   0015DC  B0D8               	btfsc	status,0,c
  5059   0015DE  EFF3  F00A         	goto	u8701
  5060   0015E2  EFF5  F00A         	goto	u8700
  5061   0015E6                     u8701:
  5062   0015E6  EF1C  F00B         	goto	l9041
  5063   0015EA                     u8700:
  5064   0015EA  AC46               	btfss	___fladd@signs^0,6,c
  5065   0015EC  EFFA  F00A         	goto	u8711
  5066   0015F0  EFFC  F00A         	goto	u8710
  5067   0015F4                     u8711:
  5068   0015F4  EFFE  F00A         	goto	l9011
  5069   0015F8                     u8710:
  5070   0015F8  0E80               	movlw	128
  5071   0015FA  1A46               	xorwf	___fladd@signs^0,f,c
  5072   0015FC                     l9011:
  5073   0015FC  C048  F049         	movff	___fladd@bexp,___fladd@grs
  5074   001600  C047  F048         	movff	___fladd@aexp,___fladd@bexp
  5075   001604  C049  F047         	movff	___fladd@grs,___fladd@aexp
  5076   001608  C03A  F049         	movff	___fladd@b,___fladd@grs
  5077   00160C  C03E  F03A         	movff	___fladd@a,___fladd@b
  5078   001610  C049  F03E         	movff	___fladd@grs,___fladd@a
  5079   001614  C03B  F049         	movff	___fladd@b+1,___fladd@grs
  5080   001618  C03F  F03B         	movff	___fladd@a+1,___fladd@b+1
  5081   00161C  C049  F03F         	movff	___fladd@grs,___fladd@a+1
  5082   001620  C03C  F049         	movff	___fladd@b+2,___fladd@grs
  5083   001624  C040  F03C         	movff	___fladd@a+2,___fladd@b+2
  5084   001628  C049  F040         	movff	___fladd@grs,___fladd@a+2
  5085   00162C  C03D  F049         	movff	___fladd@b+3,___fladd@grs
  5086   001630  C041  F03D         	movff	___fladd@a+3,___fladd@b+3
  5087   001634  C049  F041         	movff	___fladd@grs,___fladd@a+3
  5088   001638                     l9041:
  5089   001638  0E00               	movlw	0
  5090   00163A  6E49               	movwf	___fladd@grs^0,c
  5091   00163C  5048               	movf	___fladd@bexp^0,w,c
  5092   00163E  C047  F042         	movff	___fladd@aexp,??___fladd
  5093   001642  6A43               	clrf	(??___fladd+1)^0,c
  5094   001644  5E42               	subwf	??___fladd^0,f,c
  5095   001646  0E00               	movlw	0
  5096   001648  5A43               	subwfb	(??___fladd+1)^0,f,c
  5097   00164A  BE43               	btfsc	(??___fladd+1)^0,7,c
  5098   00164C  EF31  F00B         	goto	u8721
  5099   001650  5043               	movf	(??___fladd+1)^0,w,c
  5100   001652  E109               	bnz	u8720
  5101   001654  0E1A               	movlw	26
  5102   001656  5C42               	subwf	??___fladd^0,w,c
  5103   001658  A0D8               	btfss	status,0,c
  5104   00165A  EF31  F00B         	goto	u8721
  5105   00165E  EF33  F00B         	goto	u8720
  5106   001662                     u8721:
  5107   001662  EF6A  F00B         	goto	l2438
  5108   001666                     u8720:
  5109   001666  503A               	movf	___fladd@b^0,w,c
  5110   001668  103B               	iorwf	(___fladd@b+1)^0,w,c
  5111   00166A  103C               	iorwf	(___fladd@b+2)^0,w,c
  5112   00166C  103D               	iorwf	(___fladd@b+3)^0,w,c
  5113   00166E  A4D8               	btfss	status,2,c
  5114   001670  EF3C  F00B         	goto	u8731
  5115   001674  EF3F  F00B         	goto	u8730
  5116   001678                     u8731:
  5117   001678  0E01               	movlw	1
  5118   00167A  EF40  F00B         	goto	u8740
  5119   00167E                     u8730:
  5120   00167E  0E00               	movlw	0
  5121   001680                     u8740:
  5122   001680  6E49               	movwf	___fladd@grs^0,c
  5123   001682  0E00               	movlw	0
  5124   001684  6E3A               	movwf	___fladd@b^0,c
  5125   001686  0E00               	movlw	0
  5126   001688  6E3B               	movwf	(___fladd@b+1)^0,c
  5127   00168A  0E00               	movlw	0
  5128   00168C  6E3C               	movwf	(___fladd@b+2)^0,c
  5129   00168E  0E00               	movlw	0
  5130   001690  6E3D               	movwf	(___fladd@b+3)^0,c
  5131   001692  C047  F048         	movff	___fladd@aexp,___fladd@bexp
  5132   001696  EF73  F00B         	goto	l2437
  5133   00169A                     l2439:
  5134   00169A  A049               	btfss	___fladd@grs^0,0,c
  5135   00169C  EF52  F00B         	goto	u8751
  5136   0016A0  EF54  F00B         	goto	u8750
  5137   0016A4                     u8751:
  5138   0016A4  EF5A  F00B         	goto	l9053
  5139   0016A8                     u8750:
  5140   0016A8  90D8               	bcf	status,0,c
  5141   0016AA  3049               	rrcf	___fladd@grs^0,w,c
  5142   0016AC  0901               	iorlw	1
  5143   0016AE  6E49               	movwf	___fladd@grs^0,c
  5144   0016B0  EF5C  F00B         	goto	l9055
  5145   0016B4                     l9053:
  5146   0016B4  90D8               	bcf	status,0,c
  5147   0016B6  3249               	rrcf	___fladd@grs^0,f,c
  5148   0016B8                     l9055:
  5149   0016B8  A03A               	btfss	___fladd@b^0,0,c
  5150   0016BA  EF61  F00B         	goto	u8761
  5151   0016BE  EF63  F00B         	goto	u8760
  5152   0016C2                     u8761:
  5153   0016C2  EF64  F00B         	goto	l9059
  5154   0016C6                     u8760:
  5155   0016C6  8E49               	bsf	___fladd@grs^0,7,c
  5156   0016C8                     l9059:
  5157   0016C8  343D               	rlcf	(___fladd@b+3)^0,w,c
  5158   0016CA  323D               	rrcf	(___fladd@b+3)^0,f,c
  5159   0016CC  323C               	rrcf	(___fladd@b+2)^0,f,c
  5160   0016CE  323B               	rrcf	(___fladd@b+1)^0,f,c
  5161   0016D0  323A               	rrcf	___fladd@b^0,f,c
  5162   0016D2  2A48               	incf	___fladd@bexp^0,f,c
  5163   0016D4                     l2438:
  5164   0016D4  5047               	movf	___fladd@aexp^0,w,c
  5165   0016D6  5C48               	subwf	___fladd@bexp^0,w,c
  5166   0016D8  A0D8               	btfss	status,0,c
  5167   0016DA  EF71  F00B         	goto	u8771
  5168   0016DE  EF73  F00B         	goto	u8770
  5169   0016E2                     u8771:
  5170   0016E2  EF4D  F00B         	goto	l2439
  5171   0016E6                     u8770:
  5172   0016E6                     l2437:
  5173   0016E6  BC46               	btfsc	___fladd@signs^0,6,c
  5174   0016E8  EF78  F00B         	goto	u8781
  5175   0016EC  EF7A  F00B         	goto	u8780
  5176   0016F0                     u8781:
  5177   0016F0  EFBA  F00B         	goto	l9087
  5178   0016F4                     u8780:
  5179   0016F4  5048               	movf	___fladd@bexp^0,w,c
  5180   0016F6  A4D8               	btfss	status,2,c
  5181   0016F8  EF80  F00B         	goto	u8791
  5182   0016FC  EF82  F00B         	goto	u8790
  5183   001700                     u8791:
  5184   001700  EF8C  F00B         	goto	l9069
  5185   001704                     u8790:
  5186   001704  0E00               	movlw	0
  5187   001706  6E3A               	movwf	?___fladd^0,c
  5188   001708  0E00               	movlw	0
  5189   00170A  6E3B               	movwf	(?___fladd+1)^0,c
  5190   00170C  0E00               	movlw	0
  5191   00170E  6E3C               	movwf	(?___fladd+2)^0,c
  5192   001710  0E00               	movlw	0
  5193   001712  6E3D               	movwf	(?___fladd+3)^0,c
  5194   001714  EFDB  F00C         	goto	l2446
  5195   001718                     l9069:
  5196   001718  503E               	movf	___fladd@a^0,w,c
  5197   00171A  263A               	addwf	___fladd@b^0,f,c
  5198   00171C  503F               	movf	(___fladd@a+1)^0,w,c
  5199   00171E  223B               	addwfc	(___fladd@b+1)^0,f,c
  5200   001720  5040               	movf	(___fladd@a+2)^0,w,c
  5201   001722  223C               	addwfc	(___fladd@b+2)^0,f,c
  5202   001724  5041               	movf	(___fladd@a+3)^0,w,c
  5203   001726  223D               	addwfc	(___fladd@b+3)^0,f,c
  5204   001728  A03D               	btfss	(___fladd@b+3)^0,0,c
  5205   00172A  EF99  F00B         	goto	u8801
  5206   00172E  EF9B  F00B         	goto	u8800
  5207   001732                     u8801:
  5208   001732  EF47  F00C         	goto	l9123
  5209   001736                     u8800:
  5210   001736  A049               	btfss	___fladd@grs^0,0,c
  5211   001738  EFA0  F00B         	goto	u8811
  5212   00173C  EFA2  F00B         	goto	u8810
  5213   001740                     u8811:
  5214   001740  EFA8  F00B         	goto	l9077
  5215   001744                     u8810:
  5216   001744  90D8               	bcf	status,0,c
  5217   001746  3049               	rrcf	___fladd@grs^0,w,c
  5218   001748  0901               	iorlw	1
  5219   00174A  6E49               	movwf	___fladd@grs^0,c
  5220   00174C  EFAA  F00B         	goto	l9079
  5221   001750                     l9077:
  5222   001750  90D8               	bcf	status,0,c
  5223   001752  3249               	rrcf	___fladd@grs^0,f,c
  5224   001754                     l9079:
  5225   001754  A03A               	btfss	___fladd@b^0,0,c
  5226   001756  EFAF  F00B         	goto	u8821
  5227   00175A  EFB1  F00B         	goto	u8820
  5228   00175E                     u8821:
  5229   00175E  EFB2  F00B         	goto	l9083
  5230   001762                     u8820:
  5231   001762  8E49               	bsf	___fladd@grs^0,7,c
  5232   001764                     l9083:
  5233   001764  343D               	rlcf	(___fladd@b+3)^0,w,c
  5234   001766  323D               	rrcf	(___fladd@b+3)^0,f,c
  5235   001768  323C               	rrcf	(___fladd@b+2)^0,f,c
  5236   00176A  323B               	rrcf	(___fladd@b+1)^0,f,c
  5237   00176C  323A               	rrcf	___fladd@b^0,f,c
  5238   00176E  2A48               	incf	___fladd@bexp^0,f,c
  5239   001770  EF47  F00C         	goto	l9123
  5240   001774                     l9087:
  5241   001774  503E               	movf	___fladd@a^0,w,c
  5242   001776  5C3A               	subwf	___fladd@b^0,w,c
  5243   001778  503F               	movf	(___fladd@a+1)^0,w,c
  5244   00177A  583B               	subwfb	(___fladd@b+1)^0,w,c
  5245   00177C  5040               	movf	(___fladd@a+2)^0,w,c
  5246   00177E  583C               	subwfb	(___fladd@b+2)^0,w,c
  5247   001780  503D               	movf	(___fladd@b+3)^0,w,c
  5248   001782  0A80               	xorlw	128
  5249   001784  6E42               	movwf	??___fladd^0,c
  5250   001786  5041               	movf	(___fladd@a+3)^0,w,c
  5251   001788  0A80               	xorlw	128
  5252   00178A  5842               	subwfb	??___fladd^0,w,c
  5253   00178C  B0D8               	btfsc	status,0,c
  5254   00178E  EFCB  F00B         	goto	u8831
  5255   001792  EFCD  F00B         	goto	u8830
  5256   001796                     u8831:
  5257   001796  EFF8  F00B         	goto	l9097
  5258   00179A                     u8830:
  5259   00179A  503A               	movf	___fladd@b^0,w,c
  5260   00179C  5C3E               	subwf	___fladd@a^0,w,c
  5261   00179E  6E42               	movwf	??___fladd^0,c
  5262   0017A0  503B               	movf	(___fladd@b+1)^0,w,c
  5263   0017A2  583F               	subwfb	(___fladd@a+1)^0,w,c
  5264   0017A4  6E43               	movwf	(??___fladd+1)^0,c
  5265   0017A6  503C               	movf	(___fladd@b+2)^0,w,c
  5266   0017A8  5840               	subwfb	(___fladd@a+2)^0,w,c
  5267   0017AA  6E44               	movwf	(??___fladd+2)^0,c
  5268   0017AC  503D               	movf	(___fladd@b+3)^0,w,c
  5269   0017AE  5841               	subwfb	(___fladd@a+3)^0,w,c
  5270   0017B0  6E45               	movwf	(??___fladd+3)^0,c
  5271   0017B2  0EFF               	movlw	255
  5272   0017B4  2442               	addwf	??___fladd^0,w,c
  5273   0017B6  6E3A               	movwf	___fladd@b^0,c
  5274   0017B8  0EFF               	movlw	255
  5275   0017BA  2043               	addwfc	(??___fladd+1)^0,w,c
  5276   0017BC  6E3B               	movwf	(___fladd@b+1)^0,c
  5277   0017BE  0EFF               	movlw	255
  5278   0017C0  2044               	addwfc	(??___fladd+2)^0,w,c
  5279   0017C2  6E3C               	movwf	(___fladd@b+2)^0,c
  5280   0017C4  0EFF               	movlw	255
  5281   0017C6  2045               	addwfc	(??___fladd+3)^0,w,c
  5282   0017C8  6E3D               	movwf	(___fladd@b+3)^0,c
  5283   0017CA  0E80               	movlw	128
  5284   0017CC  1A46               	xorwf	___fladd@signs^0,f,c
  5285   0017CE  6C49               	negf	___fladd@grs^0,c
  5286   0017D0  5049               	movf	___fladd@grs^0,w,c
  5287   0017D2  A4D8               	btfss	status,2,c
  5288   0017D4  EFEE  F00B         	goto	u8841
  5289   0017D8  EFF0  F00B         	goto	u8840
  5290   0017DC                     u8841:
  5291   0017DC  EF00  F00C         	goto	l2454
  5292   0017E0                     u8840:
  5293   0017E0  0E01               	movlw	1
  5294   0017E2  263A               	addwf	___fladd@b^0,f,c
  5295   0017E4  0E00               	movlw	0
  5296   0017E6  223B               	addwfc	(___fladd@b+1)^0,f,c
  5297   0017E8  223C               	addwfc	(___fladd@b+2)^0,f,c
  5298   0017EA  223D               	addwfc	(___fladd@b+3)^0,f,c
  5299   0017EC  EF00  F00C         	goto	l2454
  5300   0017F0                     l9097:
  5301   0017F0  503E               	movf	___fladd@a^0,w,c
  5302   0017F2  5E3A               	subwf	___fladd@b^0,f,c
  5303   0017F4  503F               	movf	(___fladd@a+1)^0,w,c
  5304   0017F6  5A3B               	subwfb	(___fladd@b+1)^0,f,c
  5305   0017F8  5040               	movf	(___fladd@a+2)^0,w,c
  5306   0017FA  5A3C               	subwfb	(___fladd@b+2)^0,f,c
  5307   0017FC  5041               	movf	(___fladd@a+3)^0,w,c
  5308   0017FE  5A3D               	subwfb	(___fladd@b+3)^0,f,c
  5309   001800                     l2454:
  5310   001800  503A               	movf	___fladd@b^0,w,c
  5311   001802  103B               	iorwf	(___fladd@b+1)^0,w,c
  5312   001804  103C               	iorwf	(___fladd@b+2)^0,w,c
  5313   001806  103D               	iorwf	(___fladd@b+3)^0,w,c
  5314   001808  A4D8               	btfss	status,2,c
  5315   00180A  EF09  F00C         	goto	u8851
  5316   00180E  EF0B  F00C         	goto	u8850
  5317   001812                     u8851:
  5318   001812  EF40  F00C         	goto	l9121
  5319   001816                     u8850:
  5320   001816  5049               	movf	___fladd@grs^0,w,c
  5321   001818  A4D8               	btfss	status,2,c
  5322   00181A  EF11  F00C         	goto	u8861
  5323   00181E  EF13  F00C         	goto	u8860
  5324   001822                     u8861:
  5325   001822  EF40  F00C         	goto	l9121
  5326   001826                     u8860:
  5327   001826  0E00               	movlw	0
  5328   001828  6E3A               	movwf	?___fladd^0,c
  5329   00182A  0E00               	movlw	0
  5330   00182C  6E3B               	movwf	(?___fladd+1)^0,c
  5331   00182E  0E00               	movlw	0
  5332   001830  6E3C               	movwf	(?___fladd+2)^0,c
  5333   001832  0E00               	movlw	0
  5334   001834  6E3D               	movwf	(?___fladd+3)^0,c
  5335   001836  EFDB  F00C         	goto	l2446
  5336   00183A                     l9105:
  5337   00183A  90D8               	bcf	status,0,c
  5338   00183C  363A               	rlcf	___fladd@b^0,f,c
  5339   00183E  363B               	rlcf	(___fladd@b+1)^0,f,c
  5340   001840  363C               	rlcf	(___fladd@b+2)^0,f,c
  5341   001842  363D               	rlcf	(___fladd@b+3)^0,f,c
  5342   001844  AE49               	btfss	___fladd@grs^0,7,c
  5343   001846  EF27  F00C         	goto	u8871
  5344   00184A  EF29  F00C         	goto	u8870
  5345   00184E                     u8871:
  5346   00184E  EF2A  F00C         	goto	l9111
  5347   001852                     u8870:
  5348   001852  803A               	bsf	___fladd@b^0,0,c
  5349   001854                     l9111:
  5350   001854  A049               	btfss	___fladd@grs^0,0,c
  5351   001856  EF2F  F00C         	goto	u8881
  5352   00185A  EF31  F00C         	goto	u8880
  5353   00185E                     u8881:
  5354   00185E  EF35  F00C         	goto	l9115
  5355   001862                     u8880:
  5356   001862  80D8               	bsf	status,0,c
  5357   001864  3649               	rlcf	___fladd@grs^0,f,c
  5358   001866  EF37  F00C         	goto	l9117
  5359   00186A                     l9115:
  5360   00186A  90D8               	bcf	status,0,c
  5361   00186C  3649               	rlcf	___fladd@grs^0,f,c
  5362   00186E                     l9117:
  5363   00186E  5048               	movf	___fladd@bexp^0,w,c
  5364   001870  B4D8               	btfsc	status,2,c
  5365   001872  EF3D  F00C         	goto	u8891
  5366   001876  EF3F  F00C         	goto	u8890
  5367   00187A                     u8891:
  5368   00187A  EF40  F00C         	goto	l9121
  5369   00187E                     u8890:
  5370   00187E  0648               	decf	___fladd@bexp^0,f,c
  5371   001880                     l9121:
  5372   001880  AE3C               	btfss	(___fladd@b+2)^0,7,c
  5373   001882  EF45  F00C         	goto	u8901
  5374   001886  EF47  F00C         	goto	u8900
  5375   00188A                     u8901:
  5376   00188A  EF1D  F00C         	goto	l9105
  5377   00188E                     u8900:
  5378   00188E                     l9123:
  5379   00188E  0E00               	movlw	0
  5380   001890  6E47               	movwf	___fladd@aexp^0,c
  5381   001892  AE49               	btfss	___fladd@grs^0,7,c
  5382   001894  EF4E  F00C         	goto	u8911
  5383   001898  EF50  F00C         	goto	u8910
  5384   00189C                     u8911:
  5385   00189C  EF68  F00C         	goto	l2463
  5386   0018A0                     u8910:
  5387   0018A0  C049  F042         	movff	___fladd@grs,??___fladd
  5388   0018A4  0E7F               	movlw	127
  5389   0018A6  1642               	andwf	??___fladd^0,f,c
  5390   0018A8  B4D8               	btfsc	status,2,c
  5391   0018AA  EF59  F00C         	goto	u8921
  5392   0018AE  EF5B  F00C         	goto	u8920
  5393   0018B2                     u8921:
  5394   0018B2  EF5F  F00C         	goto	l2464
  5395   0018B6                     u8920:
  5396   0018B6                     l9129:
  5397   0018B6  0E01               	movlw	1
  5398   0018B8  6E47               	movwf	___fladd@aexp^0,c
  5399   0018BA  EF68  F00C         	goto	l2463
  5400   0018BE                     l2464:
  5401   0018BE  A03A               	btfss	___fladd@b^0,0,c
  5402   0018C0  EF64  F00C         	goto	u8931
  5403   0018C4  EF66  F00C         	goto	u8930
  5404   0018C8                     u8931:
  5405   0018C8  EF68  F00C         	goto	l2463
  5406   0018CC                     u8930:
  5407   0018CC  EF5B  F00C         	goto	l9129
  5408   0018D0                     l2463:
  5409   0018D0  5047               	movf	___fladd@aexp^0,w,c
  5410   0018D2  B4D8               	btfsc	status,2,c
  5411   0018D4  EF6E  F00C         	goto	u8941
  5412   0018D8  EF70  F00C         	goto	u8940
  5413   0018DC                     u8941:
  5414   0018DC  EF9B  F00C         	goto	l9141
  5415   0018E0                     u8940:
  5416   0018E0  0E01               	movlw	1
  5417   0018E2  263A               	addwf	___fladd@b^0,f,c
  5418   0018E4  0E00               	movlw	0
  5419   0018E6  223B               	addwfc	(___fladd@b+1)^0,f,c
  5420   0018E8  223C               	addwfc	(___fladd@b+2)^0,f,c
  5421   0018EA  223D               	addwfc	(___fladd@b+3)^0,f,c
  5422   0018EC  A03D               	btfss	(___fladd@b+3)^0,0,c
  5423   0018EE  EF7B  F00C         	goto	u8951
  5424   0018F2  EF7D  F00C         	goto	u8950
  5425   0018F6                     u8951:
  5426   0018F6  EF9B  F00C         	goto	l9141
  5427   0018FA                     u8950:
  5428   0018FA  C03A  F042         	movff	___fladd@b,??___fladd
  5429   0018FE  C03B  F043         	movff	___fladd@b+1,??___fladd+1
  5430   001902  C03C  F044         	movff	___fladd@b+2,??___fladd+2
  5431   001906  C03D  F045         	movff	___fladd@b+3,??___fladd+3
  5432   00190A  3445               	rlcf	(??___fladd+3)^0,w,c
  5433   00190C  3245               	rrcf	(??___fladd+3)^0,f,c
  5434   00190E  3244               	rrcf	(??___fladd+2)^0,f,c
  5435   001910  3243               	rrcf	(??___fladd+1)^0,f,c
  5436   001912  3242               	rrcf	??___fladd^0,f,c
  5437   001914  C042  F03A         	movff	??___fladd,___fladd@b
  5438   001918  C043  F03B         	movff	??___fladd+1,___fladd@b+1
  5439   00191C  C044  F03C         	movff	??___fladd+2,___fladd@b+2
  5440   001920  C045  F03D         	movff	??___fladd+3,___fladd@b+3
  5441   001924  2848               	incf	___fladd@bexp^0,w,c
  5442   001926  B4D8               	btfsc	status,2,c
  5443   001928  EF98  F00C         	goto	u8961
  5444   00192C  EF9A  F00C         	goto	u8960
  5445   001930                     u8961:
  5446   001930  EF9B  F00C         	goto	l9141
  5447   001934                     u8960:
  5448   001934  2A48               	incf	___fladd@bexp^0,f,c
  5449   001936                     l9141:
  5450   001936  2848               	incf	___fladd@bexp^0,w,c
  5451   001938  B4D8               	btfsc	status,2,c
  5452   00193A  EFA1  F00C         	goto	u8971
  5453   00193E  EFA3  F00C         	goto	u8970
  5454   001942                     u8971:
  5455   001942  EFAB  F00C         	goto	l9145
  5456   001946                     u8970:
  5457   001946  5048               	movf	___fladd@bexp^0,w,c
  5458   001948  A4D8               	btfss	status,2,c
  5459   00194A  EFA9  F00C         	goto	u8981
  5460   00194E  EFAB  F00C         	goto	u8980
  5461   001952                     u8981:
  5462   001952  EFBD  F00C         	goto	l9149
  5463   001956                     u8980:
  5464   001956                     l9145:
  5465   001956  0E00               	movlw	0
  5466   001958  6E3A               	movwf	___fladd@b^0,c
  5467   00195A  0E00               	movlw	0
  5468   00195C  6E3B               	movwf	(___fladd@b+1)^0,c
  5469   00195E  0E00               	movlw	0
  5470   001960  6E3C               	movwf	(___fladd@b+2)^0,c
  5471   001962  0E00               	movlw	0
  5472   001964  6E3D               	movwf	(___fladd@b+3)^0,c
  5473   001966  5048               	movf	___fladd@bexp^0,w,c
  5474   001968  A4D8               	btfss	status,2,c
  5475   00196A  EFB9  F00C         	goto	u8991
  5476   00196E  EFBB  F00C         	goto	u8990
  5477   001972                     u8991:
  5478   001972  EFBD  F00C         	goto	l9149
  5479   001976                     u8990:
  5480   001976  0E00               	movlw	0
  5481   001978  6E46               	movwf	___fladd@signs^0,c
  5482   00197A                     l9149:
  5483   00197A  A048               	btfss	___fladd@bexp^0,0,c
  5484   00197C  EFC2  F00C         	goto	u9001
  5485   001980  EFC4  F00C         	goto	u9000
  5486   001984                     u9001:
  5487   001984  EFC7  F00C         	goto	l9153
  5488   001988                     u9000:
  5489   001988  8E3C               	bsf	(___fladd@b+2)^0,7,c
  5490   00198A  EFC8  F00C         	goto	l9155
  5491   00198E                     l9153:
  5492   00198E  9E3C               	bcf	(___fladd@b+2)^0,7,c
  5493   001990                     l9155:
  5494   001990  90D8               	bcf	status,0,c
  5495   001992  3048               	rrcf	___fladd@bexp^0,w,c
  5496   001994  6E3D               	movwf	(___fladd@b+3)^0,c
  5497   001996  AE46               	btfss	___fladd@signs^0,7,c
  5498   001998  EFD0  F00C         	goto	u9011
  5499   00199C  EFD2  F00C         	goto	u9010
  5500   0019A0                     u9011:
  5501   0019A0  EFD3  F00C         	goto	l9161
  5502   0019A4                     u9010:
  5503   0019A4  8E3D               	bsf	(___fladd@b+3)^0,7,c
  5504   0019A6                     l9161:
  5505   0019A6  C03A  F03A         	movff	___fladd@b,?___fladd
  5506   0019AA  C03B  F03B         	movff	___fladd@b+1,?___fladd+1
  5507   0019AE  C03C  F03C         	movff	___fladd@b+2,?___fladd+2
  5508   0019B2  C03D  F03D         	movff	___fladd@b+3,?___fladd+3
  5509   0019B6                     l2446:
  5510   0019B6  0012               	return		;funcret
  5511   0019B8                     __end_of___fladd:
  5512                           	callstack 0
  5513                           
  5514 ;; *************** function _EUSART_ASYNC_TX_Init *****************
  5515 ;; Defined at:
  5516 ;;		line 158 in file "MCAL_Layer/usart/hal_usart.c"
  5517 ;; Parameters:    Size  Location     Type
  5518 ;;  _eusart         2   18[COMRAM] PTR const struct .
  5519 ;;		 -> usart_obj(18), 
  5520 ;; Auto vars:     Size  Location     Type
  5521 ;;		None
  5522 ;; Return value:  Size  Location     Type
  5523 ;;                  1    wreg      void 
  5524 ;; Registers used:
  5525 ;;		wreg, fsr2l, fsr2h, status,2, status,0
  5526 ;; Tracked objects:
  5527 ;;		On entry : 0/0
  5528 ;;		On exit  : 0/0
  5529 ;;		Unchanged: 0/0
  5530 ;; Data sizes:     COMRAM   BANK0   BANK1   BANK2   BANK3   BANK4   BANK5   BANK6   BANK7   BANK8   BANK9  BANK10  BANK1
      +1  BANK12  BANK13  BANK14  BANK15
  5531 ;;      Params:         2       0       0       0       0       0       0       0       0       0       0       0       
      +0       0       0       0       0
  5532 ;;      Locals:         0       0       0       0       0       0       0       0       0       0       0       0       
      +0       0       0       0       0
  5533 ;;      Temps:          0       0       0       0       0       0       0       0       0       0       0       0       
      +0       0       0       0       0
  5534 ;;      Totals:         2       0       0       0       0       0       0       0       0       0       0       0       
      +0       0       0       0       0
  5535 ;;Total ram usage:        2 bytes
  5536 ;; Hardware stack levels used: 1
  5537 ;; Hardware stack levels required when called: 5
  5538 ;; This function calls:
  5539 ;;		Nothing
  5540 ;; This function is called by:
  5541 ;;		_EUSART_ASYNC_Init
  5542 ;; This function uses a non-reentrant model
  5543 ;;
  5544                           
  5545                           	psect	text25
  5546   002E1C                     __ptext25:
  5547                           	callstack 0
  5548   002E1C                     _EUSART_ASYNC_TX_Init:
  5549                           	callstack 23
  5550   002E1C                     
  5551                           ;MCAL_Layer/usart/hal_usart.c: 159:   if (1 == _eusart->usart_tx_cfg.usart_tx_enable) {
  5552   002E1C  EE20 F006          	lfsr	2,6
  5553   002E20  5013               	movf	EUSART_ASYNC_TX_Init@_eusart^0,w,c
  5554   002E22  26D9               	addwf	fsr2l,f,c
  5555   002E24  5014               	movf	(EUSART_ASYNC_TX_Init@_eusart+1)^0,w,c
  5556   002E26  22DA               	addwfc	fsr2h,f,c
  5557   002E28  A0DF               	btfss	indf2,0,c
  5558   002E2A  EF19  F017         	goto	u9511
  5559   002E2E  EF1B  F017         	goto	u9510
  5560   002E32                     u9511:
  5561   002E32  EF67  F017         	goto	l1725
  5562   002E36                     u9510:
  5563   002E36                     
  5564                           ;MCAL_Layer/usart/hal_usart.c: 160:     TXSTAbits.TXEN = 1;
  5565   002E36  8AAC               	bsf	172,5,c	;volatile
  5566   002E38                     
  5567                           ;MCAL_Layer/usart/hal_usart.c: 161:     EUSART_TxInterruptHandler = _eusart->EUSART_TxDe
      +                          faultInterruptHandler;
  5568   002E38  EE20 F00A          	lfsr	2,10
  5569   002E3C  5013               	movf	EUSART_ASYNC_TX_Init@_eusart^0,w,c
  5570   002E3E  26D9               	addwf	fsr2l,f,c
  5571   002E40  5014               	movf	(EUSART_ASYNC_TX_Init@_eusart+1)^0,w,c
  5572   002E42  22DA               	addwfc	fsr2h,f,c
  5573   002E44  CFDE F090          	movff	postinc2,_EUSART_TxInterruptHandler
  5574   002E48  CFDD F091          	movff	postdec2,_EUSART_TxInterruptHandler+1
  5575                           
  5576                           ;MCAL_Layer/usart/hal_usart.c: 163:     if (1 ==
  5577   002E4C  EE20 F006          	lfsr	2,6
  5578   002E50  5013               	movf	EUSART_ASYNC_TX_Init@_eusart^0,w,c
  5579   002E52  26D9               	addwf	fsr2l,f,c
  5580   002E54  5014               	movf	(EUSART_ASYNC_TX_Init@_eusart+1)^0,w,c
  5581   002E56  22DA               	addwfc	fsr2h,f,c
  5582   002E58  A2DF               	btfss	indf2,1,c
  5583   002E5A  EF31  F017         	goto	u9521
  5584   002E5E  EF33  F017         	goto	u9520
  5585   002E62                     u9521:
  5586   002E62  EF39  F017         	goto	l9499
  5587   002E66                     u9520:
  5588   002E66                     
  5589                           ;MCAL_Layer/usart/hal_usart.c: 164:         _eusart->usart_tx_cfg.usart_tx_interrupt_ena
      +                          ble) {;MCAL_Layer/usart/hal_usart.c: 165:       PIE1bits.TXIE = 1;
  5590   002E66  889D               	bsf	157,4,c	;volatile
  5591                           
  5592                           ;MCAL_Layer/usart/hal_usart.c: 168:       (PIE1bits.TXIE = 1);
  5593   002E68  889D               	bsf	157,4,c	;volatile
  5594                           
  5595                           ;MCAL_Layer/usart/hal_usart.c: 185:       (INTCONbits.GIE = 1);
  5596   002E6A  8EF2               	bsf	242,7,c	;volatile
  5597                           
  5598                           ;MCAL_Layer/usart/hal_usart.c: 186:       (INTCONbits.PEIE = 1);
  5599   002E6C  8CF2               	bsf	242,6,c	;volatile
  5600                           
  5601                           ;MCAL_Layer/usart/hal_usart.c: 189:     } else if (0 ==
  5602   002E6E  EF47  F017         	goto	l9503
  5603   002E72                     l9499:
  5604   002E72  EE20 F006          	lfsr	2,6
  5605   002E76  5013               	movf	EUSART_ASYNC_TX_Init@_eusart^0,w,c
  5606   002E78  26D9               	addwf	fsr2l,f,c
  5607   002E7A  5014               	movf	(EUSART_ASYNC_TX_Init@_eusart+1)^0,w,c
  5608   002E7C  22DA               	addwfc	fsr2h,f,c
  5609   002E7E  B2DF               	btfsc	indf2,1,c
  5610   002E80  EF44  F017         	goto	u9531
  5611   002E84  EF46  F017         	goto	u9530
  5612   002E88                     u9531:
  5613   002E88  EF47  F017         	goto	l9503
  5614   002E8C                     u9530:
  5615   002E8C                     
  5616                           ;MCAL_Layer/usart/hal_usart.c: 190:                _eusart->usart_tx_cfg.usart_tx_interr
      +                          upt_enable) {;MCAL_Layer/usart/hal_usart.c: 191:       PIE1bits.TXIE = 0;
  5617   002E8C  989D               	bcf	157,4,c	;volatile
  5618   002E8E                     l9503:
  5619                           
  5620                           ;MCAL_Layer/usart/hal_usart.c: 196:     if (1 ==
  5621   002E8E  EE20 F006          	lfsr	2,6
  5622   002E92  5013               	movf	EUSART_ASYNC_TX_Init@_eusart^0,w,c
  5623   002E94  26D9               	addwf	fsr2l,f,c
  5624   002E96  5014               	movf	(EUSART_ASYNC_TX_Init@_eusart+1)^0,w,c
  5625   002E98  22DA               	addwfc	fsr2h,f,c
  5626   002E9A  A4DF               	btfss	indf2,2,c
  5627   002E9C  EF52  F017         	goto	u9541
  5628   002EA0  EF54  F017         	goto	u9540
  5629   002EA4                     u9541:
  5630   002EA4  EF57  F017         	goto	l9507
  5631   002EA8                     u9540:
  5632   002EA8                     
  5633                           ;MCAL_Layer/usart/hal_usart.c: 197:         _eusart->usart_tx_cfg.usart_tx_9bit_enable) 
      +                          {;MCAL_Layer/usart/hal_usart.c: 198:       TXSTAbits.TX9 = 1;
  5634   002EA8  8CAC               	bsf	172,6,c	;volatile
  5635                           
  5636                           ;MCAL_Layer/usart/hal_usart.c: 199:     } else if (0 ==
  5637   002EAA  EF67  F017         	goto	l1725
  5638   002EAE                     l9507:
  5639   002EAE  EE20 F006          	lfsr	2,6
  5640   002EB2  5013               	movf	EUSART_ASYNC_TX_Init@_eusart^0,w,c
  5641   002EB4  26D9               	addwf	fsr2l,f,c
  5642   002EB6  5014               	movf	(EUSART_ASYNC_TX_Init@_eusart+1)^0,w,c
  5643   002EB8  22DA               	addwfc	fsr2h,f,c
  5644   002EBA  B4DF               	btfsc	indf2,2,c
  5645   002EBC  EF62  F017         	goto	u9551
  5646   002EC0  EF64  F017         	goto	u9550
  5647   002EC4                     u9551:
  5648   002EC4  EF67  F017         	goto	l1721
  5649   002EC8                     u9550:
  5650   002EC8                     
  5651                           ;MCAL_Layer/usart/hal_usart.c: 200:                _eusart->usart_tx_cfg.usart_tx_9bit_e
      +                          nable) {;MCAL_Layer/usart/hal_usart.c: 201:       TXSTAbits.TX9 = 0;
  5652   002EC8  9CAC               	bcf	172,6,c	;volatile
  5653                           
  5654                           ;MCAL_Layer/usart/hal_usart.c: 202:     } else {
  5655   002ECA  EF67  F017         	goto	l1725
  5656   002ECE                     l1721:
  5657   002ECE                     l1725:
  5658   002ECE  0012               	return		;funcret
  5659   002ED0                     __end_of_EUSART_ASYNC_TX_Init:
  5660                           	callstack 0
  5661                           
  5662 ;; *************** function _EUSART_ASYNC_RX_Init *****************
  5663 ;; Defined at:
  5664 ;;		line 208 in file "MCAL_Layer/usart/hal_usart.c"
  5665 ;; Parameters:    Size  Location     Type
  5666 ;;  _eusart         2   18[COMRAM] PTR const struct .
  5667 ;;		 -> usart_obj(18), 
  5668 ;; Auto vars:     Size  Location     Type
  5669 ;;		None
  5670 ;; Return value:  Size  Location     Type
  5671 ;;                  1    wreg      void 
  5672 ;; Registers used:
  5673 ;;		wreg, fsr2l, fsr2h, status,2, status,0
  5674 ;; Tracked objects:
  5675 ;;		On entry : 0/0
  5676 ;;		On exit  : 0/0
  5677 ;;		Unchanged: 0/0
  5678 ;; Data sizes:     COMRAM   BANK0   BANK1   BANK2   BANK3   BANK4   BANK5   BANK6   BANK7   BANK8   BANK9  BANK10  BANK1
      +1  BANK12  BANK13  BANK14  BANK15
  5679 ;;      Params:         2       0       0       0       0       0       0       0       0       0       0       0       
      +0       0       0       0       0
  5680 ;;      Locals:         0       0       0       0       0       0       0       0       0       0       0       0       
      +0       0       0       0       0
  5681 ;;      Temps:          0       0       0       0       0       0       0       0       0       0       0       0       
      +0       0       0       0       0
  5682 ;;      Totals:         2       0       0       0       0       0       0       0       0       0       0       0       
      +0       0       0       0       0
  5683 ;;Total ram usage:        2 bytes
  5684 ;; Hardware stack levels used: 1
  5685 ;; Hardware stack levels required when called: 5
  5686 ;; This function calls:
  5687 ;;		Nothing
  5688 ;; This function is called by:
  5689 ;;		_EUSART_ASYNC_Init
  5690 ;; This function uses a non-reentrant model
  5691 ;;
  5692                           
  5693                           	psect	text26
  5694   002C68                     __ptext26:
  5695                           	callstack 0
  5696   002C68                     _EUSART_ASYNC_RX_Init:
  5697                           	callstack 23
  5698   002C68                     
  5699                           ;MCAL_Layer/usart/hal_usart.c: 209:   if (1 == _eusart->usart_rx_cfg.usart_rx_enable) {
  5700   002C68  EE20 F008          	lfsr	2,8
  5701   002C6C  5013               	movf	EUSART_ASYNC_RX_Init@_eusart^0,w,c
  5702   002C6E  26D9               	addwf	fsr2l,f,c
  5703   002C70  5014               	movf	(EUSART_ASYNC_RX_Init@_eusart+1)^0,w,c
  5704   002C72  22DA               	addwfc	fsr2h,f,c
  5705   002C74  A0DF               	btfss	indf2,0,c
  5706   002C76  EF3F  F016         	goto	u9561
  5707   002C7A  EF41  F016         	goto	u9560
  5708   002C7E                     u9561:
  5709   002C7E  EFA1  F016         	goto	l1738
  5710   002C82                     u9560:
  5711   002C82                     
  5712                           ;MCAL_Layer/usart/hal_usart.c: 210:     RCSTAbits.CREN = 1;
  5713   002C82  88AB               	bsf	171,4,c	;volatile
  5714   002C84                     
  5715                           ;MCAL_Layer/usart/hal_usart.c: 211:     EUSART_RxInterruptHandler = _eusart->EUSART_RxDe
      +                          faultInterruptHandler;
  5716   002C84  EE20 F00C          	lfsr	2,12
  5717   002C88  5013               	movf	EUSART_ASYNC_RX_Init@_eusart^0,w,c
  5718   002C8A  26D9               	addwf	fsr2l,f,c
  5719   002C8C  5014               	movf	(EUSART_ASYNC_RX_Init@_eusart+1)^0,w,c
  5720   002C8E  22DA               	addwfc	fsr2h,f,c
  5721   002C90  CFDE F08E          	movff	postinc2,_EUSART_RxInterruptHandler
  5722   002C94  CFDD F08F          	movff	postdec2,_EUSART_RxInterruptHandler+1
  5723                           
  5724                           ;MCAL_Layer/usart/hal_usart.c: 212:     EUSART_FramingErrorHandler = _eusart->EUSART_Fra
      +                          mingErrorHandler;
  5725   002C98  EE20 F00E          	lfsr	2,14
  5726   002C9C  5013               	movf	EUSART_ASYNC_RX_Init@_eusart^0,w,c
  5727   002C9E  26D9               	addwf	fsr2l,f,c
  5728   002CA0  5014               	movf	(EUSART_ASYNC_RX_Init@_eusart+1)^0,w,c
  5729   002CA2  22DA               	addwfc	fsr2h,f,c
  5730   002CA4  CFDE F08C          	movff	postinc2,_EUSART_FramingErrorHandler
  5731   002CA8  CFDD F08D          	movff	postdec2,_EUSART_FramingErrorHandler+1
  5732                           
  5733                           ;MCAL_Layer/usart/hal_usart.c: 213:     EUSART_OverrunErrorHandler = _eusart->EUSART_Ove
      +                          rrunErrorHandler;
  5734   002CAC  EE20 F010          	lfsr	2,16
  5735   002CB0  5013               	movf	EUSART_ASYNC_RX_Init@_eusart^0,w,c
  5736   002CB2  26D9               	addwf	fsr2l,f,c
  5737   002CB4  5014               	movf	(EUSART_ASYNC_RX_Init@_eusart+1)^0,w,c
  5738   002CB6  22DA               	addwfc	fsr2h,f,c
  5739   002CB8  CFDE F08A          	movff	postinc2,_EUSART_OverrunErrorHandler
  5740   002CBC  CFDD F08B          	movff	postdec2,_EUSART_OverrunErrorHandler+1
  5741                           
  5742                           ;MCAL_Layer/usart/hal_usart.c: 215:     if (1 ==
  5743   002CC0  EE20 F008          	lfsr	2,8
  5744   002CC4  5013               	movf	EUSART_ASYNC_RX_Init@_eusart^0,w,c
  5745   002CC6  26D9               	addwf	fsr2l,f,c
  5746   002CC8  5014               	movf	(EUSART_ASYNC_RX_Init@_eusart+1)^0,w,c
  5747   002CCA  22DA               	addwfc	fsr2h,f,c
  5748   002CCC  A2DF               	btfss	indf2,1,c
  5749   002CCE  EF6B  F016         	goto	u9571
  5750   002CD2  EF6D  F016         	goto	u9570
  5751   002CD6                     u9571:
  5752   002CD6  EF73  F016         	goto	l9519
  5753   002CDA                     u9570:
  5754   002CDA                     
  5755                           ;MCAL_Layer/usart/hal_usart.c: 216:         _eusart->usart_rx_cfg.usart_rx_interrupt_ena
      +                          ble) {;MCAL_Layer/usart/hal_usart.c: 217:       PIE1bits.RCIE = 1;
  5756   002CDA  8A9D               	bsf	157,5,c	;volatile
  5757                           
  5758                           ;MCAL_Layer/usart/hal_usart.c: 220:       (PIE1bits.RCIE = 1);
  5759   002CDC  8A9D               	bsf	157,5,c	;volatile
  5760                           
  5761                           ;MCAL_Layer/usart/hal_usart.c: 237:       (INTCONbits.GIE = 1);
  5762   002CDE  8EF2               	bsf	242,7,c	;volatile
  5763                           
  5764                           ;MCAL_Layer/usart/hal_usart.c: 238:       (INTCONbits.PEIE = 1);
  5765   002CE0  8CF2               	bsf	242,6,c	;volatile
  5766                           
  5767                           ;MCAL_Layer/usart/hal_usart.c: 241:     } else if (0 ==
  5768   002CE2  EF81  F016         	goto	l9523
  5769   002CE6                     l9519:
  5770   002CE6  EE20 F008          	lfsr	2,8
  5771   002CEA  5013               	movf	EUSART_ASYNC_RX_Init@_eusart^0,w,c
  5772   002CEC  26D9               	addwf	fsr2l,f,c
  5773   002CEE  5014               	movf	(EUSART_ASYNC_RX_Init@_eusart+1)^0,w,c
  5774   002CF0  22DA               	addwfc	fsr2h,f,c
  5775   002CF2  B2DF               	btfsc	indf2,1,c
  5776   002CF4  EF7E  F016         	goto	u9581
  5777   002CF8  EF80  F016         	goto	u9580
  5778   002CFC                     u9581:
  5779   002CFC  EF81  F016         	goto	l9523
  5780   002D00                     u9580:
  5781   002D00                     
  5782                           ;MCAL_Layer/usart/hal_usart.c: 242:                _eusart->usart_rx_cfg.usart_rx_interr
      +                          upt_enable) {;MCAL_Layer/usart/hal_usart.c: 243:       PIE1bits.RCIE = 0;
  5783   002D00  9A9D               	bcf	157,5,c	;volatile
  5784   002D02                     l9523:
  5785                           
  5786                           ;MCAL_Layer/usart/hal_usart.c: 248:     if (1 ==
  5787   002D02  EE20 F008          	lfsr	2,8
  5788   002D06  5013               	movf	EUSART_ASYNC_RX_Init@_eusart^0,w,c
  5789   002D08  26D9               	addwf	fsr2l,f,c
  5790   002D0A  5014               	movf	(EUSART_ASYNC_RX_Init@_eusart+1)^0,w,c
  5791   002D0C  22DA               	addwfc	fsr2h,f,c
  5792   002D0E  A4DF               	btfss	indf2,2,c
  5793   002D10  EF8C  F016         	goto	u9591
  5794   002D14  EF8E  F016         	goto	u9590
  5795   002D18                     u9591:
  5796   002D18  EF91  F016         	goto	l9527
  5797   002D1C                     u9590:
  5798   002D1C                     
  5799                           ;MCAL_Layer/usart/hal_usart.c: 249:         _eusart->usart_rx_cfg.usart_rx_9bit_enable) 
      +                          {;MCAL_Layer/usart/hal_usart.c: 250:       RCSTAbits.RX9 = 1;
  5800   002D1C  8CAB               	bsf	171,6,c	;volatile
  5801                           
  5802                           ;MCAL_Layer/usart/hal_usart.c: 251:     } else if (0 ==
  5803   002D1E  EFA1  F016         	goto	l1738
  5804   002D22                     l9527:
  5805   002D22  EE20 F008          	lfsr	2,8
  5806   002D26  5013               	movf	EUSART_ASYNC_RX_Init@_eusart^0,w,c
  5807   002D28  26D9               	addwf	fsr2l,f,c
  5808   002D2A  5014               	movf	(EUSART_ASYNC_RX_Init@_eusart+1)^0,w,c
  5809   002D2C  22DA               	addwfc	fsr2h,f,c
  5810   002D2E  B4DF               	btfsc	indf2,2,c
  5811   002D30  EF9C  F016         	goto	u9601
  5812   002D34  EF9E  F016         	goto	u9600
  5813   002D38                     u9601:
  5814   002D38  EFA1  F016         	goto	l1734
  5815   002D3C                     u9600:
  5816   002D3C                     
  5817                           ;MCAL_Layer/usart/hal_usart.c: 252:                _eusart->usart_rx_cfg.usart_rx_9bit_e
      +                          nable) {;MCAL_Layer/usart/hal_usart.c: 253:       RCSTAbits.RX9 = 0;
  5818   002D3C  9CAB               	bcf	171,6,c	;volatile
  5819                           
  5820                           ;MCAL_Layer/usart/hal_usart.c: 254:     } else {
  5821   002D3E  EFA1  F016         	goto	l1738
  5822   002D42                     l1734:
  5823   002D42                     l1738:
  5824   002D42  0012               	return		;funcret
  5825   002D44                     __end_of_EUSART_ASYNC_RX_Init:
  5826                           	callstack 0
  5827                           
  5828 ;; *************** function _MSSP_I2C_EXT_Device_Write_1_Byte *****************
  5829 ;; Defined at:
  5830 ;;		line 289 in file "MCAL_Layer/I2C/hal_i2c.c"
  5831 ;; Parameters:    Size  Location     Type
  5832 ;;  i2c_obj         2   24[COMRAM] PTR const struct .
  5833 ;;		 -> i2c_obj(15), 
  5834 ;;  slave_add       1   26[COMRAM] unsigned char 
  5835 ;;  byte_address    1   27[COMRAM] unsigned char 
  5836 ;;  _data           1   28[COMRAM] unsigned char 
  5837 ;;  slave_ack       2   29[COMRAM] PTR unsigned char 
  5838 ;;		 -> slave_ack(1), 
  5839 ;; Auto vars:     Size  Location     Type
  5840 ;;  ret             1    0        unsigned char 
  5841 ;; Return value:  Size  Location     Type
  5842 ;;                  1    wreg      unsigned char 
  5843 ;; Registers used:
  5844 ;;		wreg, fsr2l, fsr2h, status,2, status,0, cstack
  5845 ;; Tracked objects:
  5846 ;;		On entry : 0/0
  5847 ;;		On exit  : 0/0
  5848 ;;		Unchanged: 0/0
  5849 ;; Data sizes:     COMRAM   BANK0   BANK1   BANK2   BANK3   BANK4   BANK5   BANK6   BANK7   BANK8   BANK9  BANK10  BANK1
      +1  BANK12  BANK13  BANK14  BANK15
  5850 ;;      Params:         7       0       0       0       0       0       0       0       0       0       0       0       
      +0       0       0       0       0
  5851 ;;      Locals:         0       0       0       0       0       0       0       0       0       0       0       0       
      +0       0       0       0       0
  5852 ;;      Temps:          1       0       0       0       0       0       0       0       0       0       0       0       
      +0       0       0       0       0
  5853 ;;      Totals:         8       0       0       0       0       0       0       0       0       0       0       0       
      +0       0       0       0       0
  5854 ;;Total ram usage:        8 bytes
  5855 ;; Hardware stack levels used: 1
  5856 ;; Hardware stack levels required when called: 6
  5857 ;; This function calls:
  5858 ;;		_MSSP_I2C_Master_Send_Start
  5859 ;;		_MSSP_I2C_Master_Send_Stop
  5860 ;;		_MSSP_I2C_Master_Write_Blocking
  5861 ;; This function is called by:
  5862 ;;		_main
  5863 ;; This function uses a non-reentrant model
  5864 ;;
  5865                           
  5866                           	psect	text27
  5867   0030AC                     __ptext27:
  5868                           	callstack 0
  5869   0030AC                     _MSSP_I2C_EXT_Device_Write_1_Byte:
  5870                           	callstack 24
  5871   0030AC                     
  5872                           ;MCAL_Layer/I2C/hal_i2c.c: 291:     if((((void*)0) == i2c_obj) || (((void*)0) == slave_a
      +                          ck)){
  5873   0030AC  5019               	movf	MSSP_I2C_EXT_Device_Write_1_Byte@i2c_obj^0,w,c
  5874   0030AE  101A               	iorwf	(MSSP_I2C_EXT_Device_Write_1_Byte@i2c_obj+1)^0,w,c
  5875   0030B0  B4D8               	btfsc	status,2,c
  5876   0030B2  EF5D  F018         	goto	u10041
  5877   0030B6  EF5F  F018         	goto	u10040
  5878   0030BA                     u10041:
  5879   0030BA  EF68  F018         	goto	l9871
  5880   0030BE                     u10040:
  5881   0030BE  501E               	movf	MSSP_I2C_EXT_Device_Write_1_Byte@slave_ack^0,w,c
  5882   0030C0  101F               	iorwf	(MSSP_I2C_EXT_Device_Write_1_Byte@slave_ack+1)^0,w,c
  5883   0030C2  A4D8               	btfss	status,2,c
  5884   0030C4  EF66  F018         	goto	u10051
  5885   0030C8  EF68  F018         	goto	u10050
  5886   0030CC                     u10051:
  5887   0030CC  EF6A  F018         	goto	l9873
  5888   0030D0                     u10050:
  5889   0030D0                     l9871:
  5890                           
  5891                           ;MCAL_Layer/I2C/hal_i2c.c: 293:     }
  5892   0030D0  EFA1  F018         	goto	l942
  5893   0030D4                     l9873:
  5894   0030D4  0E19               	movlw	low MSSP_I2C_EXT_Device_Write_1_Byte@i2c_obj
  5895   0030D6  6E13               	movwf	MSSP_I2C_Master_Send_Start@i2c_obj^0,c
  5896   0030D8  0E00               	movlw	high MSSP_I2C_EXT_Device_Write_1_Byte@i2c_obj
  5897   0030DA  6E14               	movwf	(MSSP_I2C_Master_Send_Start@i2c_obj+1)^0,c
  5898   0030DC  ECB3  F01A         	call	_MSSP_I2C_Master_Send_Start	;wreg free
  5899   0030E0  0E19               	movlw	low MSSP_I2C_EXT_Device_Write_1_Byte@i2c_obj
  5900   0030E2  6E13               	movwf	MSSP_I2C_Master_Write_Blocking@i2c_obj^0,c
  5901   0030E4  0E00               	movlw	high MSSP_I2C_EXT_Device_Write_1_Byte@i2c_obj
  5902   0030E6  6E14               	movwf	(MSSP_I2C_Master_Write_Blocking@i2c_obj+1)^0,c
  5903   0030E8  C01B  F015         	movff	MSSP_I2C_EXT_Device_Write_1_Byte@slave_add,MSSP_I2C_Master_Write_Blocking@i2c_dat
      +                          a
  5904   0030EC  0E1E               	movlw	low MSSP_I2C_EXT_Device_Write_1_Byte@slave_ack
  5905   0030EE  6E16               	movwf	MSSP_I2C_Master_Write_Blocking@_ack^0,c
  5906   0030F0  0E00               	movlw	high MSSP_I2C_EXT_Device_Write_1_Byte@slave_ack
  5907   0030F2  6E17               	movwf	(MSSP_I2C_Master_Write_Blocking@_ack+1)^0,c
  5908   0030F4  EC28  F019         	call	_MSSP_I2C_Master_Write_Blocking	;wreg free
  5909   0030F8  0E19               	movlw	low MSSP_I2C_EXT_Device_Write_1_Byte@i2c_obj
  5910   0030FA  6E13               	movwf	MSSP_I2C_Master_Write_Blocking@i2c_obj^0,c
  5911   0030FC  0E00               	movlw	high MSSP_I2C_EXT_Device_Write_1_Byte@i2c_obj
  5912   0030FE  6E14               	movwf	(MSSP_I2C_Master_Write_Blocking@i2c_obj+1)^0,c
  5913   003100  C01C  F015         	movff	MSSP_I2C_EXT_Device_Write_1_Byte@byte_address,MSSP_I2C_Master_Write_Blocking@i2c_
      +                          data
  5914   003104  0E1E               	movlw	low MSSP_I2C_EXT_Device_Write_1_Byte@slave_ack
  5915   003106  6E16               	movwf	MSSP_I2C_Master_Write_Blocking@_ack^0,c
  5916   003108  0E00               	movlw	high MSSP_I2C_EXT_Device_Write_1_Byte@slave_ack
  5917   00310A  6E17               	movwf	(MSSP_I2C_Master_Write_Blocking@_ack+1)^0,c
  5918   00310C  EC28  F019         	call	_MSSP_I2C_Master_Write_Blocking	;wreg free
  5919   003110  0E19               	movlw	low MSSP_I2C_EXT_Device_Write_1_Byte@i2c_obj
  5920   003112  6E13               	movwf	MSSP_I2C_Master_Write_Blocking@i2c_obj^0,c
  5921   003114  0E00               	movlw	high MSSP_I2C_EXT_Device_Write_1_Byte@i2c_obj
  5922   003116  6E14               	movwf	(MSSP_I2C_Master_Write_Blocking@i2c_obj+1)^0,c
  5923   003118  C01D  F015         	movff	MSSP_I2C_EXT_Device_Write_1_Byte@_data,MSSP_I2C_Master_Write_Blocking@i2c_data
  5924   00311C  0E1E               	movlw	low MSSP_I2C_EXT_Device_Write_1_Byte@slave_ack
  5925   00311E  6E16               	movwf	MSSP_I2C_Master_Write_Blocking@_ack^0,c
  5926   003120  0E00               	movlw	high MSSP_I2C_EXT_Device_Write_1_Byte@slave_ack
  5927   003122  6E17               	movwf	(MSSP_I2C_Master_Write_Blocking@_ack+1)^0,c
  5928   003124  EC28  F019         	call	_MSSP_I2C_Master_Write_Blocking	;wreg free
  5929   003128  0E19               	movlw	low MSSP_I2C_EXT_Device_Write_1_Byte@i2c_obj
  5930   00312A  6E13               	movwf	MSSP_I2C_Master_Send_Stop@i2c_obj^0,c
  5931   00312C  0E00               	movlw	high MSSP_I2C_EXT_Device_Write_1_Byte@i2c_obj
  5932   00312E  6E14               	movwf	(MSSP_I2C_Master_Send_Stop@i2c_obj+1)^0,c
  5933   003130  EC92  F01A         	call	_MSSP_I2C_Master_Send_Stop	;wreg free
  5934   003134                     
  5935                           ;MCAL_Layer/I2C/hal_i2c.c: 300:         _delay((unsigned long)((1)*(8000000UL/4000.0)));
  5936   003134  0E03               	movlw	3
  5937   003136  6E20               	movwf	??_MSSP_I2C_EXT_Device_Write_1_Byte^0,c
  5938   003138  0E98               	movlw	152
  5939   00313A                     u10807:
  5940   00313A  2EE8               	decfsz	wreg,f,c
  5941   00313C  D7FE               	bra	u10807
  5942   00313E  2E20               	decfsz	??_MSSP_I2C_EXT_Device_Write_1_Byte^0,f,c
  5943   003140  D7FC               	bra	u10807
  5944   003142                     l942:
  5945   003142  0012               	return		;funcret
  5946   003144                     __end_of_MSSP_I2C_EXT_Device_Write_1_Byte:
  5947                           	callstack 0
  5948                           
  5949 ;; *************** function _MSSP_I2C_EXT_Device_Read_1_Byte *****************
  5950 ;; Defined at:
  5951 ;;		line 312 in file "MCAL_Layer/I2C/hal_i2c.c"
  5952 ;; Parameters:    Size  Location     Type
  5953 ;;  i2c_obj         2   24[COMRAM] PTR const struct .
  5954 ;;		 -> i2c_obj(15), 
  5955 ;;  slave_add       1   26[COMRAM] unsigned char 
  5956 ;;  byte_address    1   27[COMRAM] unsigned char 
  5957 ;;  _data           2   28[COMRAM] PTR unsigned char 
  5958 ;;		 -> ret_password(6), 
  5959 ;;  slave_ack       2   30[COMRAM] PTR unsigned char 
  5960 ;;		 -> slave_ack(1), 
  5961 ;; Auto vars:     Size  Location     Type
  5962 ;;  ret             1   33[COMRAM] unsigned char 
  5963 ;; Return value:  Size  Location     Type
  5964 ;;                  1    wreg      unsigned char 
  5965 ;; Registers used:
  5966 ;;		wreg, fsr2l, fsr2h, status,2, status,0, cstack
  5967 ;; Tracked objects:
  5968 ;;		On entry : 0/0
  5969 ;;		On exit  : 0/0
  5970 ;;		Unchanged: 0/0
  5971 ;; Data sizes:     COMRAM   BANK0   BANK1   BANK2   BANK3   BANK4   BANK5   BANK6   BANK7   BANK8   BANK9  BANK10  BANK1
      +1  BANK12  BANK13  BANK14  BANK15
  5972 ;;      Params:         8       0       0       0       0       0       0       0       0       0       0       0       
      +0       0       0       0       0
  5973 ;;      Locals:         1       0       0       0       0       0       0       0       0       0       0       0       
      +0       0       0       0       0
  5974 ;;      Temps:          1       0       0       0       0       0       0       0       0       0       0       0       
      +0       0       0       0       0
  5975 ;;      Totals:        10       0       0       0       0       0       0       0       0       0       0       0       
      +0       0       0       0       0
  5976 ;;Total ram usage:       10 bytes
  5977 ;; Hardware stack levels used: 1
  5978 ;; Hardware stack levels required when called: 6
  5979 ;; This function calls:
  5980 ;;		_MSSP_I2C_Master_Read_Blocking
  5981 ;;		_MSSP_I2C_Master_Send_Repeated_Start
  5982 ;;		_MSSP_I2C_Master_Send_Start
  5983 ;;		_MSSP_I2C_Master_Send_Stop
  5984 ;;		_MSSP_I2C_Master_Write_Blocking
  5985 ;; This function is called by:
  5986 ;;		_main
  5987 ;; This function uses a non-reentrant model
  5988 ;;
  5989                           
  5990                           	psect	text28
  5991   002D44                     __ptext28:
  5992                           	callstack 0
  5993   002D44                     _MSSP_I2C_EXT_Device_Read_1_Byte:
  5994                           	callstack 24
  5995   002D44                     
  5996                           ;MCAL_Layer/I2C/hal_i2c.c: 314:     if((((void*)0) == i2c_obj) || (((void*)0) == _data) 
      +                          || (((void*)0) == slave_ack)){
  5997   002D44  5019               	movf	MSSP_I2C_EXT_Device_Read_1_Byte@i2c_obj^0,w,c
  5998   002D46  101A               	iorwf	(MSSP_I2C_EXT_Device_Read_1_Byte@i2c_obj+1)^0,w,c
  5999   002D48  B4D8               	btfsc	status,2,c
  6000   002D4A  EFA9  F016         	goto	u10061
  6001   002D4E  EFAB  F016         	goto	u10060
  6002   002D52                     u10061:
  6003   002D52  EFBD  F016         	goto	l9893
  6004   002D56                     u10060:
  6005   002D56  501D               	movf	MSSP_I2C_EXT_Device_Read_1_Byte@_data^0,w,c
  6006   002D58  101E               	iorwf	(MSSP_I2C_EXT_Device_Read_1_Byte@_data+1)^0,w,c
  6007   002D5A  B4D8               	btfsc	status,2,c
  6008   002D5C  EFB2  F016         	goto	u10071
  6009   002D60  EFB4  F016         	goto	u10070
  6010   002D64                     u10071:
  6011   002D64  EFBD  F016         	goto	l9893
  6012   002D68                     u10070:
  6013   002D68  501F               	movf	MSSP_I2C_EXT_Device_Read_1_Byte@slave_ack^0,w,c
  6014   002D6A  1020               	iorwf	(MSSP_I2C_EXT_Device_Read_1_Byte@slave_ack+1)^0,w,c
  6015   002D6C  A4D8               	btfss	status,2,c
  6016   002D6E  EFBB  F016         	goto	u10081
  6017   002D72  EFBD  F016         	goto	u10080
  6018   002D76                     u10081:
  6019   002D76  EFBF  F016         	goto	l9895
  6020   002D7A                     u10080:
  6021   002D7A                     l9893:
  6022                           
  6023                           ;MCAL_Layer/I2C/hal_i2c.c: 316:     }
  6024   002D7A  EF0D  F017         	goto	l949
  6025   002D7E                     l9895:
  6026   002D7E  0E19               	movlw	low MSSP_I2C_EXT_Device_Read_1_Byte@i2c_obj
  6027   002D80  6E13               	movwf	MSSP_I2C_Master_Send_Start@i2c_obj^0,c
  6028   002D82  0E00               	movlw	high MSSP_I2C_EXT_Device_Read_1_Byte@i2c_obj
  6029   002D84  6E14               	movwf	(MSSP_I2C_Master_Send_Start@i2c_obj+1)^0,c
  6030   002D86  ECB3  F01A         	call	_MSSP_I2C_Master_Send_Start	;wreg free
  6031   002D8A  0E19               	movlw	low MSSP_I2C_EXT_Device_Read_1_Byte@i2c_obj
  6032   002D8C  6E13               	movwf	MSSP_I2C_Master_Write_Blocking@i2c_obj^0,c
  6033   002D8E  0E00               	movlw	high MSSP_I2C_EXT_Device_Read_1_Byte@i2c_obj
  6034   002D90  6E14               	movwf	(MSSP_I2C_Master_Write_Blocking@i2c_obj+1)^0,c
  6035   002D92  C01B  F015         	movff	MSSP_I2C_EXT_Device_Read_1_Byte@slave_add,MSSP_I2C_Master_Write_Blocking@i2c_data
  6036   002D96  0E1F               	movlw	low MSSP_I2C_EXT_Device_Read_1_Byte@slave_ack
  6037   002D98  6E16               	movwf	MSSP_I2C_Master_Write_Blocking@_ack^0,c
  6038   002D9A  0E00               	movlw	high MSSP_I2C_EXT_Device_Read_1_Byte@slave_ack
  6039   002D9C  6E17               	movwf	(MSSP_I2C_Master_Write_Blocking@_ack+1)^0,c
  6040   002D9E  EC28  F019         	call	_MSSP_I2C_Master_Write_Blocking	;wreg free
  6041   002DA2                     
  6042                           ;MCAL_Layer/I2C/hal_i2c.c: 320:         ret = MSSP_I2C_Master_Write_Blocking(&i2c_obj, b
      +                          yte_address, &slave_ack);
  6043   002DA2  0E19               	movlw	low MSSP_I2C_EXT_Device_Read_1_Byte@i2c_obj
  6044   002DA4  6E13               	movwf	MSSP_I2C_Master_Write_Blocking@i2c_obj^0,c
  6045   002DA6  0E00               	movlw	high MSSP_I2C_EXT_Device_Read_1_Byte@i2c_obj
  6046   002DA8  6E14               	movwf	(MSSP_I2C_Master_Write_Blocking@i2c_obj+1)^0,c
  6047   002DAA  C01C  F015         	movff	MSSP_I2C_EXT_Device_Read_1_Byte@byte_address,MSSP_I2C_Master_Write_Blocking@i2c_d
      +                          ata
  6048   002DAE  0E1F               	movlw	low MSSP_I2C_EXT_Device_Read_1_Byte@slave_ack
  6049   002DB0  6E16               	movwf	MSSP_I2C_Master_Write_Blocking@_ack^0,c
  6050   002DB2  0E00               	movlw	high MSSP_I2C_EXT_Device_Read_1_Byte@slave_ack
  6051   002DB4  6E17               	movwf	(MSSP_I2C_Master_Write_Blocking@_ack+1)^0,c
  6052   002DB6  EC28  F019         	call	_MSSP_I2C_Master_Write_Blocking	;wreg free
  6053   002DBA  6E22               	movwf	MSSP_I2C_EXT_Device_Read_1_Byte@ret^0,c
  6054                           
  6055                           ;MCAL_Layer/I2C/hal_i2c.c: 321:         ret = MSSP_I2C_Master_Send_Repeated_Start(&i2c_o
      +                          bj);
  6056   002DBC  0E19               	movlw	low MSSP_I2C_EXT_Device_Read_1_Byte@i2c_obj
  6057   002DBE  6E13               	movwf	MSSP_I2C_Master_Send_Repeated_Start@i2c_obj^0,c
  6058   002DC0  0E00               	movlw	high MSSP_I2C_EXT_Device_Read_1_Byte@i2c_obj
  6059   002DC2  6E14               	movwf	(MSSP_I2C_Master_Send_Repeated_Start@i2c_obj+1)^0,c
  6060   002DC4  ECC0  F01B         	call	_MSSP_I2C_Master_Send_Repeated_Start	;wreg free
  6061   002DC8  6E22               	movwf	MSSP_I2C_EXT_Device_Read_1_Byte@ret^0,c
  6062   002DCA  0E19               	movlw	low MSSP_I2C_EXT_Device_Read_1_Byte@i2c_obj
  6063   002DCC  6E13               	movwf	MSSP_I2C_Master_Write_Blocking@i2c_obj^0,c
  6064   002DCE  0E00               	movlw	high MSSP_I2C_EXT_Device_Read_1_Byte@i2c_obj
  6065   002DD0  6E14               	movwf	(MSSP_I2C_Master_Write_Blocking@i2c_obj+1)^0,c
  6066   002DD2  501B               	movf	MSSP_I2C_EXT_Device_Read_1_Byte@slave_add^0,w,c
  6067   002DD4  0901               	iorlw	1
  6068   002DD6  6E15               	movwf	MSSP_I2C_Master_Write_Blocking@i2c_data^0,c
  6069   002DD8  0E1F               	movlw	low MSSP_I2C_EXT_Device_Read_1_Byte@slave_ack
  6070   002DDA  6E16               	movwf	MSSP_I2C_Master_Write_Blocking@_ack^0,c
  6071   002DDC  0E00               	movlw	high MSSP_I2C_EXT_Device_Read_1_Byte@slave_ack
  6072   002DDE  6E17               	movwf	(MSSP_I2C_Master_Write_Blocking@_ack+1)^0,c
  6073   002DE0  EC28  F019         	call	_MSSP_I2C_Master_Write_Blocking	;wreg free
  6074   002DE4                     
  6075                           ;MCAL_Layer/I2C/hal_i2c.c: 323:         ret = MSSP_I2C_Master_Read_Blocking(&i2c_obj, 1,
      +                           _data);
  6076   002DE4  0E19               	movlw	low MSSP_I2C_EXT_Device_Read_1_Byte@i2c_obj
  6077   002DE6  6E13               	movwf	MSSP_I2C_Master_Read_Blocking@i2c_obj^0,c
  6078   002DE8  0E00               	movlw	high MSSP_I2C_EXT_Device_Read_1_Byte@i2c_obj
  6079   002DEA  6E14               	movwf	(MSSP_I2C_Master_Read_Blocking@i2c_obj+1)^0,c
  6080   002DEC  0E01               	movlw	1
  6081   002DEE  6E15               	movwf	MSSP_I2C_Master_Read_Blocking@ack^0,c
  6082   002DF0  C01D  F016         	movff	MSSP_I2C_EXT_Device_Read_1_Byte@_data,MSSP_I2C_Master_Read_Blocking@i2c_data
  6083   002DF4  C01E  F017         	movff	MSSP_I2C_EXT_Device_Read_1_Byte@_data+1,MSSP_I2C_Master_Read_Blocking@i2c_data+1
  6084   002DF8  EC08  F018         	call	_MSSP_I2C_Master_Read_Blocking	;wreg free
  6085   002DFC  6E22               	movwf	MSSP_I2C_EXT_Device_Read_1_Byte@ret^0,c
  6086                           
  6087                           ;MCAL_Layer/I2C/hal_i2c.c: 324:         ret = MSSP_I2C_Master_Send_Stop(&i2c_obj);
  6088   002DFE  0E19               	movlw	low MSSP_I2C_EXT_Device_Read_1_Byte@i2c_obj
  6089   002E00  6E13               	movwf	MSSP_I2C_Master_Send_Stop@i2c_obj^0,c
  6090   002E02  0E00               	movlw	high MSSP_I2C_EXT_Device_Read_1_Byte@i2c_obj
  6091   002E04  6E14               	movwf	(MSSP_I2C_Master_Send_Stop@i2c_obj+1)^0,c
  6092   002E06  EC92  F01A         	call	_MSSP_I2C_Master_Send_Stop	;wreg free
  6093   002E0A  6E22               	movwf	MSSP_I2C_EXT_Device_Read_1_Byte@ret^0,c
  6094   002E0C                     
  6095                           ;MCAL_Layer/I2C/hal_i2c.c: 325:         _delay((unsigned long)((1)*(8000000UL/4000.0)));
  6096   002E0C  0E03               	movlw	3
  6097   002E0E  6E21               	movwf	??_MSSP_I2C_EXT_Device_Read_1_Byte^0,c
  6098   002E10  0E98               	movlw	152
  6099   002E12                     u10817:
  6100   002E12  2EE8               	decfsz	wreg,f,c
  6101   002E14  D7FE               	bra	u10817
  6102   002E16  2E21               	decfsz	??_MSSP_I2C_EXT_Device_Read_1_Byte^0,f,c
  6103   002E18  D7FC               	bra	u10817
  6104   002E1A                     l949:
  6105   002E1A  0012               	return		;funcret
  6106   002E1C                     __end_of_MSSP_I2C_EXT_Device_Read_1_Byte:
  6107                           	callstack 0
  6108                           
  6109 ;; *************** function _MSSP_I2C_Master_Write_Blocking *****************
  6110 ;; Defined at:
  6111 ;;		line 165 in file "MCAL_Layer/I2C/hal_i2c.c"
  6112 ;; Parameters:    Size  Location     Type
  6113 ;;  i2c_obj         2   18[COMRAM] PTR const struct .
  6114 ;;		 -> MSSP_I2C_EXT_Device_Read_1_Byte@i2c_obj(2), MSSP_I2C_EXT_Device_Write_1_Byte@i2c_obj(2), 
  6115 ;;  i2c_data        1   20[COMRAM] unsigned char 
  6116 ;;  _ack            2   21[COMRAM] PTR unsigned char 
  6117 ;;		 -> MSSP_I2C_EXT_Device_Read_1_Byte@slave_ack(2), MSSP_I2C_EXT_Device_Write_1_Byte@slave_ack(2), 
  6118 ;; Auto vars:     Size  Location     Type
  6119 ;;  ret             1   23[COMRAM] unsigned char 
  6120 ;; Return value:  Size  Location     Type
  6121 ;;                  1    wreg      unsigned char 
  6122 ;; Registers used:
  6123 ;;		wreg, fsr2l, fsr2h, status,2, status,0
  6124 ;; Tracked objects:
  6125 ;;		On entry : 0/0
  6126 ;;		On exit  : 0/0
  6127 ;;		Unchanged: 0/0
  6128 ;; Data sizes:     COMRAM   BANK0   BANK1   BANK2   BANK3   BANK4   BANK5   BANK6   BANK7   BANK8   BANK9  BANK10  BANK1
      +1  BANK12  BANK13  BANK14  BANK15
  6129 ;;      Params:         5       0       0       0       0       0       0       0       0       0       0       0       
      +0       0       0       0       0
  6130 ;;      Locals:         1       0       0       0       0       0       0       0       0       0       0       0       
      +0       0       0       0       0
  6131 ;;      Temps:          0       0       0       0       0       0       0       0       0       0       0       0       
      +0       0       0       0       0
  6132 ;;      Totals:         6       0       0       0       0       0       0       0       0       0       0       0       
      +0       0       0       0       0
  6133 ;;Total ram usage:        6 bytes
  6134 ;; Hardware stack levels used: 1
  6135 ;; Hardware stack levels required when called: 5
  6136 ;; This function calls:
  6137 ;;		Nothing
  6138 ;; This function is called by:
  6139 ;;		_MSSP_I2C_EXT_Device_Write_1_Byte
  6140 ;;		_MSSP_I2C_EXT_Device_Read_1_Byte
  6141 ;; This function uses a non-reentrant model
  6142 ;;
  6143                           
  6144                           	psect	text29
  6145   003250                     __ptext29:
  6146                           	callstack 0
  6147   003250                     _MSSP_I2C_Master_Write_Blocking:
  6148                           	callstack 24
  6149   003250                     
  6150                           ;MCAL_Layer/I2C/hal_i2c.c: 166:     Std_ReturnType ret = (Std_ReturnType)0x01;
  6151   003250  0E01               	movlw	1
  6152   003252  6E18               	movwf	MSSP_I2C_Master_Write_Blocking@ret^0,c
  6153   003254                     
  6154                           ;MCAL_Layer/I2C/hal_i2c.c: 167:     if((((void*)0) == i2c_obj) || (((void*)0) == _ack)){
  6155   003254  5013               	movf	MSSP_I2C_Master_Write_Blocking@i2c_obj^0,w,c
  6156   003256  1014               	iorwf	(MSSP_I2C_Master_Write_Blocking@i2c_obj+1)^0,w,c
  6157   003258  B4D8               	btfsc	status,2,c
  6158   00325A  EF31  F019         	goto	u9831
  6159   00325E  EF33  F019         	goto	u9830
  6160   003262                     u9831:
  6161   003262  EF3C  F019         	goto	l9709
  6162   003266                     u9830:
  6163   003266  5016               	movf	MSSP_I2C_Master_Write_Blocking@_ack^0,w,c
  6164   003268  1017               	iorwf	(MSSP_I2C_Master_Write_Blocking@_ack+1)^0,w,c
  6165   00326A  A4D8               	btfss	status,2,c
  6166   00326C  EF3A  F019         	goto	u9841
  6167   003270  EF3C  F019         	goto	u9840
  6168   003274                     u9841:
  6169   003274  EF40  F019         	goto	l876
  6170   003278                     u9840:
  6171   003278                     l9709:
  6172                           
  6173                           ;MCAL_Layer/I2C/hal_i2c.c: 168:         ret = (Std_ReturnType)0x00;
  6174   003278  0E00               	movlw	0
  6175   00327A  6E18               	movwf	MSSP_I2C_Master_Write_Blocking@ret^0,c
  6176                           
  6177                           ;MCAL_Layer/I2C/hal_i2c.c: 169:     }
  6178   00327C  EF5E  F019         	goto	l9715
  6179   003280                     l876:
  6180                           
  6181                           ;MCAL_Layer/I2C/hal_i2c.c: 172:         SSPBUF = i2c_data;
  6182   003280  C015  FFC9         	movff	MSSP_I2C_Master_Write_Blocking@i2c_data,4041	;volatile
  6183   003284                     l880:
  6184   003284  B0C7               	btfsc	199,0,c	;volatile
  6185   003286  EF47  F019         	goto	u9851
  6186   00328A  EF49  F019         	goto	u9850
  6187   00328E                     u9851:
  6188   00328E  EF42  F019         	goto	l880
  6189   003292                     u9850:
  6190   003292                     
  6191                           ;MCAL_Layer/I2C/hal_i2c.c: 177:         PIR1bits.SSPIF = 0;
  6192   003292  969E               	bcf	158,3,c	;volatile
  6193                           
  6194                           ;MCAL_Layer/I2C/hal_i2c.c: 179:         if(0 == SSPCON2bits.ACKSTAT){
  6195   003294  BCC5               	btfsc	197,6,c	;volatile
  6196   003296  EF4F  F019         	goto	u9861
  6197   00329A  EF51  F019         	goto	u9860
  6198   00329E                     u9861:
  6199   00329E  EF58  F019         	goto	l9713
  6200   0032A2                     u9860:
  6201   0032A2                     
  6202                           ;MCAL_Layer/I2C/hal_i2c.c: 180:             *_ack = 0;
  6203   0032A2  C016  FFD9         	movff	MSSP_I2C_Master_Write_Blocking@_ack,fsr2l
  6204   0032A6  C017  FFDA         	movff	MSSP_I2C_Master_Write_Blocking@_ack+1,fsr2h
  6205   0032AA  6ADF               	clrf	indf2,c
  6206                           
  6207                           ;MCAL_Layer/I2C/hal_i2c.c: 181:         }
  6208   0032AC  EF5E  F019         	goto	l9715
  6209   0032B0                     l9713:
  6210                           
  6211                           ;MCAL_Layer/I2C/hal_i2c.c: 183:             *_ack = 1;
  6212   0032B0  C016  FFD9         	movff	MSSP_I2C_Master_Write_Blocking@_ack,fsr2l
  6213   0032B4  C017  FFDA         	movff	MSSP_I2C_Master_Write_Blocking@_ack+1,fsr2h
  6214   0032B8  0E01               	movlw	1
  6215   0032BA  6EDF               	movwf	indf2,c
  6216   0032BC                     l9715:
  6217                           
  6218                           ;MCAL_Layer/I2C/hal_i2c.c: 187:     return ret;
  6219   0032BC  5018               	movf	MSSP_I2C_Master_Write_Blocking@ret^0,w,c
  6220   0032BE  0012               	return		;funcret
  6221   0032C0                     __end_of_MSSP_I2C_Master_Write_Blocking:
  6222                           	callstack 0
  6223                           
  6224 ;; *************** function _MSSP_I2C_Master_Send_Stop *****************
  6225 ;; Defined at:
  6226 ;;		line 142 in file "MCAL_Layer/I2C/hal_i2c.c"
  6227 ;; Parameters:    Size  Location     Type
  6228 ;;  i2c_obj         2   18[COMRAM] PTR const struct .
  6229 ;;		 -> MSSP_I2C_EXT_Device_Read_1_Byte@i2c_obj(2), MSSP_I2C_EXT_Device_Write_1_Byte@i2c_obj(2), 
  6230 ;; Auto vars:     Size  Location     Type
  6231 ;;  ret             1   20[COMRAM] unsigned char 
  6232 ;; Return value:  Size  Location     Type
  6233 ;;                  1    wreg      unsigned char 
  6234 ;; Registers used:
  6235 ;;		wreg, status,2, status,0
  6236 ;; Tracked objects:
  6237 ;;		On entry : 0/0
  6238 ;;		On exit  : 0/0
  6239 ;;		Unchanged: 0/0
  6240 ;; Data sizes:     COMRAM   BANK0   BANK1   BANK2   BANK3   BANK4   BANK5   BANK6   BANK7   BANK8   BANK9  BANK10  BANK1
      +1  BANK12  BANK13  BANK14  BANK15
  6241 ;;      Params:         2       0       0       0       0       0       0       0       0       0       0       0       
      +0       0       0       0       0
  6242 ;;      Locals:         1       0       0       0       0       0       0       0       0       0       0       0       
      +0       0       0       0       0
  6243 ;;      Temps:          0       0       0       0       0       0       0       0       0       0       0       0       
      +0       0       0       0       0
  6244 ;;      Totals:         3       0       0       0       0       0       0       0       0       0       0       0       
      +0       0       0       0       0
  6245 ;;Total ram usage:        3 bytes
  6246 ;; Hardware stack levels used: 1
  6247 ;; Hardware stack levels required when called: 5
  6248 ;; This function calls:
  6249 ;;		Nothing
  6250 ;; This function is called by:
  6251 ;;		_MSSP_I2C_EXT_Device_Write_1_Byte
  6252 ;;		_MSSP_I2C_EXT_Device_Read_1_Byte
  6253 ;; This function uses a non-reentrant model
  6254 ;;
  6255                           
  6256                           	psect	text30
  6257   003524                     __ptext30:
  6258                           	callstack 0
  6259   003524                     _MSSP_I2C_Master_Send_Stop:
  6260                           	callstack 24
  6261   003524                     
  6262                           ;MCAL_Layer/I2C/hal_i2c.c: 143:     Std_ReturnType ret = (Std_ReturnType)0x01;
  6263   003524  0E01               	movlw	1
  6264   003526  6E15               	movwf	MSSP_I2C_Master_Send_Stop@ret^0,c
  6265   003528                     
  6266                           ;MCAL_Layer/I2C/hal_i2c.c: 144:     if(((void*)0) == i2c_obj){
  6267   003528  5013               	movf	MSSP_I2C_Master_Send_Stop@i2c_obj^0,w,c
  6268   00352A  1014               	iorwf	(MSSP_I2C_Master_Send_Stop@i2c_obj+1)^0,w,c
  6269   00352C  A4D8               	btfss	status,2,c
  6270   00352E  EF9B  F01A         	goto	u9801
  6271   003532  EF9D  F01A         	goto	u9800
  6272   003536                     u9801:
  6273   003536  EFA1  F01A         	goto	l866
  6274   00353A                     u9800:
  6275   00353A                     l9695:
  6276                           
  6277                           ;MCAL_Layer/I2C/hal_i2c.c: 145:         ret = (Std_ReturnType)0x00;
  6278   00353A  0E00               	movlw	0
  6279   00353C  6E15               	movwf	MSSP_I2C_Master_Send_Stop@ret^0,c
  6280                           
  6281                           ;MCAL_Layer/I2C/hal_i2c.c: 146:     }
  6282   00353E  EFB1  F01A         	goto	l867
  6283   003542                     l866:
  6284                           
  6285                           ;MCAL_Layer/I2C/hal_i2c.c: 149:         SSPCON2bits.PEN = 1;
  6286   003542  84C5               	bsf	197,2,c	;volatile
  6287   003544                     l868:
  6288   003544  B4C5               	btfsc	197,2,c	;volatile
  6289   003546  EFA7  F01A         	goto	u9811
  6290   00354A  EFA9  F01A         	goto	u9810
  6291   00354E                     u9811:
  6292   00354E  EFA2  F01A         	goto	l868
  6293   003552                     u9810:
  6294   003552                     
  6295                           ;MCAL_Layer/I2C/hal_i2c.c: 153:         PIR1bits.SSPIF = 0;
  6296   003552  969E               	bcf	158,3,c	;volatile
  6297                           
  6298                           ;MCAL_Layer/I2C/hal_i2c.c: 155:         if(1 == SSPSTATbits.P){
  6299   003554  A8C7               	btfss	199,4,c	;volatile
  6300   003556  EFAF  F01A         	goto	u9821
  6301   00355A  EFB1  F01A         	goto	u9820
  6302   00355E                     u9821:
  6303   00355E  EF9D  F01A         	goto	l9695
  6304   003562                     u9820:
  6305   003562                     l867:
  6306                           
  6307                           ;MCAL_Layer/I2C/hal_i2c.c: 162:     return ret;
  6308   003562  5015               	movf	MSSP_I2C_Master_Send_Stop@ret^0,w,c
  6309   003564  0012               	return		;funcret
  6310   003566                     __end_of_MSSP_I2C_Master_Send_Stop:
  6311                           	callstack 0
  6312                           
  6313 ;; *************** function _MSSP_I2C_Master_Send_Start *****************
  6314 ;; Defined at:
  6315 ;;		line 102 in file "MCAL_Layer/I2C/hal_i2c.c"
  6316 ;; Parameters:    Size  Location     Type
  6317 ;;  i2c_obj         2   18[COMRAM] PTR const struct .
  6318 ;;		 -> MSSP_I2C_EXT_Device_Read_1_Byte@i2c_obj(2), MSSP_I2C_EXT_Device_Write_1_Byte@i2c_obj(2), 
  6319 ;; Auto vars:     Size  Location     Type
  6320 ;;  ret             1   20[COMRAM] unsigned char 
  6321 ;; Return value:  Size  Location     Type
  6322 ;;                  1    wreg      unsigned char 
  6323 ;; Registers used:
  6324 ;;		wreg, status,2, status,0
  6325 ;; Tracked objects:
  6326 ;;		On entry : 0/0
  6327 ;;		On exit  : 0/0
  6328 ;;		Unchanged: 0/0
  6329 ;; Data sizes:     COMRAM   BANK0   BANK1   BANK2   BANK3   BANK4   BANK5   BANK6   BANK7   BANK8   BANK9  BANK10  BANK1
      +1  BANK12  BANK13  BANK14  BANK15
  6330 ;;      Params:         2       0       0       0       0       0       0       0       0       0       0       0       
      +0       0       0       0       0
  6331 ;;      Locals:         1       0       0       0       0       0       0       0       0       0       0       0       
      +0       0       0       0       0
  6332 ;;      Temps:          0       0       0       0       0       0       0       0       0       0       0       0       
      +0       0       0       0       0
  6333 ;;      Totals:         3       0       0       0       0       0       0       0       0       0       0       0       
      +0       0       0       0       0
  6334 ;;Total ram usage:        3 bytes
  6335 ;; Hardware stack levels used: 1
  6336 ;; Hardware stack levels required when called: 5
  6337 ;; This function calls:
  6338 ;;		Nothing
  6339 ;; This function is called by:
  6340 ;;		_MSSP_I2C_EXT_Device_Write_1_Byte
  6341 ;;		_MSSP_I2C_EXT_Device_Read_1_Byte
  6342 ;; This function uses a non-reentrant model
  6343 ;;
  6344                           
  6345                           	psect	text31
  6346   003566                     __ptext31:
  6347                           	callstack 0
  6348   003566                     _MSSP_I2C_Master_Send_Start:
  6349                           	callstack 24
  6350   003566                     
  6351                           ;MCAL_Layer/I2C/hal_i2c.c: 103:     Std_ReturnType ret = (Std_ReturnType)0x01;
  6352   003566  0E01               	movlw	1
  6353   003568  6E15               	movwf	MSSP_I2C_Master_Send_Start@ret^0,c
  6354   00356A                     
  6355                           ;MCAL_Layer/I2C/hal_i2c.c: 104:     if(((void*)0) == i2c_obj){
  6356   00356A  5013               	movf	MSSP_I2C_Master_Send_Start@i2c_obj^0,w,c
  6357   00356C  1014               	iorwf	(MSSP_I2C_Master_Send_Start@i2c_obj+1)^0,w,c
  6358   00356E  A4D8               	btfss	status,2,c
  6359   003570  EFBC  F01A         	goto	u9751
  6360   003574  EFBE  F01A         	goto	u9750
  6361   003578                     u9751:
  6362   003578  EFC2  F01A         	goto	l848
  6363   00357C                     u9750:
  6364   00357C                     l9673:
  6365                           
  6366                           ;MCAL_Layer/I2C/hal_i2c.c: 105:         ret = (Std_ReturnType)0x00;
  6367   00357C  0E00               	movlw	0
  6368   00357E  6E15               	movwf	MSSP_I2C_Master_Send_Start@ret^0,c
  6369                           
  6370                           ;MCAL_Layer/I2C/hal_i2c.c: 106:     }
  6371   003580  EFD2  F01A         	goto	l849
  6372   003584                     l848:
  6373                           
  6374                           ;MCAL_Layer/I2C/hal_i2c.c: 109:         SSPCON2bits.SEN = 1;
  6375   003584  80C5               	bsf	197,0,c	;volatile
  6376   003586                     l850:
  6377   003586  B0C5               	btfsc	197,0,c	;volatile
  6378   003588  EFC8  F01A         	goto	u9761
  6379   00358C  EFCA  F01A         	goto	u9760
  6380   003590                     u9761:
  6381   003590  EFC3  F01A         	goto	l850
  6382   003594                     u9760:
  6383   003594                     
  6384                           ;MCAL_Layer/I2C/hal_i2c.c: 113:         PIR1bits.SSPIF = 0;
  6385   003594  969E               	bcf	158,3,c	;volatile
  6386                           
  6387                           ;MCAL_Layer/I2C/hal_i2c.c: 115:         if(1 == SSPSTATbits.S){
  6388   003596  A6C7               	btfss	199,3,c	;volatile
  6389   003598  EFD0  F01A         	goto	u9771
  6390   00359C  EFD2  F01A         	goto	u9770
  6391   0035A0                     u9771:
  6392   0035A0  EFBE  F01A         	goto	l9673
  6393   0035A4                     u9770:
  6394   0035A4                     l849:
  6395                           
  6396                           ;MCAL_Layer/I2C/hal_i2c.c: 122:     return ret;
  6397   0035A4  5015               	movf	MSSP_I2C_Master_Send_Start@ret^0,w,c
  6398   0035A6  0012               	return		;funcret
  6399   0035A8                     __end_of_MSSP_I2C_Master_Send_Start:
  6400                           	callstack 0
  6401                           
  6402 ;; *************** function _MSSP_I2C_Master_Send_Repeated_Start *****************
  6403 ;; Defined at:
  6404 ;;		line 125 in file "MCAL_Layer/I2C/hal_i2c.c"
  6405 ;; Parameters:    Size  Location     Type
  6406 ;;  i2c_obj         2   18[COMRAM] PTR const struct .
  6407 ;;		 -> MSSP_I2C_EXT_Device_Read_1_Byte@i2c_obj(2), 
  6408 ;; Auto vars:     Size  Location     Type
  6409 ;;  ret             1   20[COMRAM] unsigned char 
  6410 ;; Return value:  Size  Location     Type
  6411 ;;                  1    wreg      unsigned char 
  6412 ;; Registers used:
  6413 ;;		wreg, status,2, status,0
  6414 ;; Tracked objects:
  6415 ;;		On entry : 0/0
  6416 ;;		On exit  : 0/0
  6417 ;;		Unchanged: 0/0
  6418 ;; Data sizes:     COMRAM   BANK0   BANK1   BANK2   BANK3   BANK4   BANK5   BANK6   BANK7   BANK8   BANK9  BANK10  BANK1
      +1  BANK12  BANK13  BANK14  BANK15
  6419 ;;      Params:         2       0       0       0       0       0       0       0       0       0       0       0       
      +0       0       0       0       0
  6420 ;;      Locals:         1       0       0       0       0       0       0       0       0       0       0       0       
      +0       0       0       0       0
  6421 ;;      Temps:          0       0       0       0       0       0       0       0       0       0       0       0       
      +0       0       0       0       0
  6422 ;;      Totals:         3       0       0       0       0       0       0       0       0       0       0       0       
      +0       0       0       0       0
  6423 ;;Total ram usage:        3 bytes
  6424 ;; Hardware stack levels used: 1
  6425 ;; Hardware stack levels required when called: 5
  6426 ;; This function calls:
  6427 ;;		Nothing
  6428 ;; This function is called by:
  6429 ;;		_MSSP_I2C_EXT_Device_Read_1_Byte
  6430 ;; This function uses a non-reentrant model
  6431 ;;
  6432                           
  6433                           	psect	text32
  6434   003780                     __ptext32:
  6435                           	callstack 0
  6436   003780                     _MSSP_I2C_Master_Send_Repeated_Start:
  6437                           	callstack 24
  6438   003780                     
  6439                           ;MCAL_Layer/I2C/hal_i2c.c: 126:     Std_ReturnType ret = (Std_ReturnType)0x01;
  6440   003780  0E01               	movlw	1
  6441   003782  6E15               	movwf	MSSP_I2C_Master_Send_Repeated_Start@ret^0,c
  6442   003784                     
  6443                           ;MCAL_Layer/I2C/hal_i2c.c: 127:     if(((void*)0) == i2c_obj){
  6444   003784  5013               	movf	MSSP_I2C_Master_Send_Repeated_Start@i2c_obj^0,w,c
  6445   003786  1014               	iorwf	(MSSP_I2C_Master_Send_Repeated_Start@i2c_obj+1)^0,w,c
  6446   003788  A4D8               	btfss	status,2,c
  6447   00378A  EFC9  F01B         	goto	u9781
  6448   00378E  EFCB  F01B         	goto	u9780
  6449   003792                     u9781:
  6450   003792  EFCF  F01B         	goto	l858
  6451   003796                     u9780:
  6452   003796                     
  6453                           ;MCAL_Layer/I2C/hal_i2c.c: 128:         ret = (Std_ReturnType)0x00;
  6454   003796  0E00               	movlw	0
  6455   003798  6E15               	movwf	MSSP_I2C_Master_Send_Repeated_Start@ret^0,c
  6456                           
  6457                           ;MCAL_Layer/I2C/hal_i2c.c: 129:     }
  6458   00379A  EFD8  F01B         	goto	l9687
  6459   00379E                     l858:
  6460                           
  6461                           ;MCAL_Layer/I2C/hal_i2c.c: 132:         SSPCON2bits.RSEN = 1;
  6462   00379E  82C5               	bsf	197,1,c	;volatile
  6463   0037A0                     l860:
  6464   0037A0  B2C5               	btfsc	197,1,c	;volatile
  6465   0037A2  EFD5  F01B         	goto	u9791
  6466   0037A6  EFD7  F01B         	goto	u9790
  6467   0037AA                     u9791:
  6468   0037AA  EFD0  F01B         	goto	l860
  6469   0037AE                     u9790:
  6470   0037AE                     
  6471                           ;MCAL_Layer/I2C/hal_i2c.c: 136:         PIR1bits.SSPIF = 0;
  6472   0037AE  969E               	bcf	158,3,c	;volatile
  6473   0037B0                     l9687:
  6474                           
  6475                           ;MCAL_Layer/I2C/hal_i2c.c: 139:     return ret;
  6476   0037B0  5015               	movf	MSSP_I2C_Master_Send_Repeated_Start@ret^0,w,c
  6477   0037B2  0012               	return		;funcret
  6478   0037B4                     __end_of_MSSP_I2C_Master_Send_Repeated_Start:
  6479                           	callstack 0
  6480                           
  6481 ;; *************** function _MSSP_I2C_Master_Read_Blocking *****************
  6482 ;; Defined at:
  6483 ;;		line 215 in file "MCAL_Layer/I2C/hal_i2c.c"
  6484 ;; Parameters:    Size  Location     Type
  6485 ;;  i2c_obj         2   18[COMRAM] PTR const struct .
  6486 ;;		 -> MSSP_I2C_EXT_Device_Read_1_Byte@i2c_obj(2), 
  6487 ;;  ack             1   20[COMRAM] unsigned char 
  6488 ;;  i2c_data        2   21[COMRAM] PTR unsigned char 
  6489 ;;		 -> ret_password(6), 
  6490 ;; Auto vars:     Size  Location     Type
  6491 ;;  ret             1   23[COMRAM] unsigned char 
  6492 ;; Return value:  Size  Location     Type
  6493 ;;                  1    wreg      unsigned char 
  6494 ;; Registers used:
  6495 ;;		wreg, fsr2l, fsr2h, status,2, status,0
  6496 ;; Tracked objects:
  6497 ;;		On entry : 0/0
  6498 ;;		On exit  : 0/0
  6499 ;;		Unchanged: 0/0
  6500 ;; Data sizes:     COMRAM   BANK0   BANK1   BANK2   BANK3   BANK4   BANK5   BANK6   BANK7   BANK8   BANK9  BANK10  BANK1
      +1  BANK12  BANK13  BANK14  BANK15
  6501 ;;      Params:         5       0       0       0       0       0       0       0       0       0       0       0       
      +0       0       0       0       0
  6502 ;;      Locals:         1       0       0       0       0       0       0       0       0       0       0       0       
      +0       0       0       0       0
  6503 ;;      Temps:          0       0       0       0       0       0       0       0       0       0       0       0       
      +0       0       0       0       0
  6504 ;;      Totals:         6       0       0       0       0       0       0       0       0       0       0       0       
      +0       0       0       0       0
  6505 ;;Total ram usage:        6 bytes
  6506 ;; Hardware stack levels used: 1
  6507 ;; Hardware stack levels required when called: 5
  6508 ;; This function calls:
  6509 ;;		Nothing
  6510 ;; This function is called by:
  6511 ;;		_MSSP_I2C_EXT_Device_Read_1_Byte
  6512 ;; This function uses a non-reentrant model
  6513 ;;
  6514                           
  6515                           	psect	text33
  6516   003010                     __ptext33:
  6517                           	callstack 0
  6518   003010                     _MSSP_I2C_Master_Read_Blocking:
  6519                           	callstack 24
  6520   003010                     
  6521                           ;MCAL_Layer/I2C/hal_i2c.c: 216:     Std_ReturnType ret = (Std_ReturnType)0x01;
  6522   003010  0E01               	movlw	1
  6523   003012  6E18               	movwf	MSSP_I2C_Master_Read_Blocking@ret^0,c
  6524   003014                     
  6525                           ;MCAL_Layer/I2C/hal_i2c.c: 217:     if((((void*)0) == i2c_obj) || (((void*)0) == i2c_dat
      +                          a)){
  6526   003014  5013               	movf	MSSP_I2C_Master_Read_Blocking@i2c_obj^0,w,c
  6527   003016  1014               	iorwf	(MSSP_I2C_Master_Read_Blocking@i2c_obj+1)^0,w,c
  6528   003018  B4D8               	btfsc	status,2,c
  6529   00301A  EF11  F018         	goto	u9871
  6530   00301E  EF13  F018         	goto	u9870
  6531   003022                     u9871:
  6532   003022  EF1C  F018         	goto	l9725
  6533   003026                     u9870:
  6534   003026  5016               	movf	MSSP_I2C_Master_Read_Blocking@i2c_data^0,w,c
  6535   003028  1017               	iorwf	(MSSP_I2C_Master_Read_Blocking@i2c_data+1)^0,w,c
  6536   00302A  A4D8               	btfss	status,2,c
  6537   00302C  EF1A  F018         	goto	u9881
  6538   003030  EF1C  F018         	goto	u9880
  6539   003034                     u9881:
  6540   003034  EF20  F018         	goto	l899
  6541   003038                     u9880:
  6542   003038                     l9725:
  6543                           
  6544                           ;MCAL_Layer/I2C/hal_i2c.c: 218:         ret = (Std_ReturnType)0x00;
  6545   003038  0E00               	movlw	0
  6546   00303A  6E18               	movwf	MSSP_I2C_Master_Read_Blocking@ret^0,c
  6547                           
  6548                           ;MCAL_Layer/I2C/hal_i2c.c: 219:     }
  6549   00303C  EF54  F018         	goto	l9737
  6550   003040                     l899:
  6551                           
  6552                           ;MCAL_Layer/I2C/hal_i2c.c: 222:         (SSPCON2bits.RCEN = 1);
  6553   003040  86C5               	bsf	197,3,c	;volatile
  6554   003042                     l903:
  6555   003042  A0C7               	btfss	199,0,c	;volatile
  6556   003044  EF26  F018         	goto	u9891
  6557   003048  EF28  F018         	goto	u9890
  6558   00304C                     u9891:
  6559   00304C  EF21  F018         	goto	l903
  6560   003050                     u9890:
  6561   003050                     
  6562                           ;MCAL_Layer/I2C/hal_i2c.c: 226:         *i2c_data = SSPBUF;
  6563   003050  C016  FFD9         	movff	MSSP_I2C_Master_Read_Blocking@i2c_data,fsr2l
  6564   003054  C017  FFDA         	movff	MSSP_I2C_Master_Read_Blocking@i2c_data+1,fsr2h
  6565   003058  CFC9 FFDF          	movff	4041,indf2	;volatile
  6566   00305C                     
  6567                           ;MCAL_Layer/I2C/hal_i2c.c: 228:         if(0 == ack){
  6568   00305C  5015               	movf	MSSP_I2C_Master_Read_Blocking@ack^0,w,c
  6569   00305E  A4D8               	btfss	status,2,c
  6570   003060  EF34  F018         	goto	u9901
  6571   003064  EF36  F018         	goto	u9900
  6572   003068                     u9901:
  6573   003068  EF41  F018         	goto	l9733
  6574   00306C                     u9900:
  6575   00306C                     
  6576                           ;MCAL_Layer/I2C/hal_i2c.c: 229:             SSPCON2bits.ACKDT = 0;
  6577   00306C  9AC5               	bcf	197,5,c	;volatile
  6578                           
  6579                           ;MCAL_Layer/I2C/hal_i2c.c: 231:             SSPCON2bits.ACKEN = 1;
  6580   00306E  88C5               	bsf	197,4,c	;volatile
  6581   003070                     l907:
  6582   003070  B8C5               	btfsc	197,4,c	;volatile
  6583   003072  EF3D  F018         	goto	u9911
  6584   003076  EF3F  F018         	goto	u9910
  6585   00307A                     u9911:
  6586   00307A  EF38  F018         	goto	l907
  6587   00307E                     u9910:
  6588   00307E  EF54  F018         	goto	l9737
  6589   003082                     l9733:
  6590   003082  0415               	decf	MSSP_I2C_Master_Read_Blocking@ack^0,w,c
  6591   003084  A4D8               	btfss	status,2,c
  6592   003086  EF47  F018         	goto	u9921
  6593   00308A  EF49  F018         	goto	u9920
  6594   00308E                     u9921:
  6595   00308E  EF54  F018         	goto	l910
  6596   003092                     u9920:
  6597   003092                     
  6598                           ;MCAL_Layer/I2C/hal_i2c.c: 235:             SSPCON2bits.ACKDT = 1;
  6599   003092  8AC5               	bsf	197,5,c	;volatile
  6600                           
  6601                           ;MCAL_Layer/I2C/hal_i2c.c: 237:             SSPCON2bits.ACKEN = 1;
  6602   003094  88C5               	bsf	197,4,c	;volatile
  6603   003096                     l912:
  6604   003096  B8C5               	btfsc	197,4,c	;volatile
  6605   003098  EF50  F018         	goto	u9931
  6606   00309C  EF52  F018         	goto	u9930
  6607   0030A0                     u9931:
  6608   0030A0  EF4B  F018         	goto	l912
  6609   0030A4                     u9930:
  6610   0030A4  EF54  F018         	goto	l9737
  6611   0030A8                     l910:
  6612   0030A8                     l9737:
  6613                           
  6614                           ;MCAL_Layer/I2C/hal_i2c.c: 243:     return ret;
  6615   0030A8  5018               	movf	MSSP_I2C_Master_Read_Blocking@ret^0,w,c
  6616   0030AA  0012               	return		;funcret
  6617   0030AC                     __end_of_MSSP_I2C_Master_Read_Blocking:
  6618                           	callstack 0
  6619                           
  6620 ;; *************** function _EUSART_ASYNC_WriteByteNonBlocking *****************
  6621 ;; Defined at:
  6622 ;;		line 93 in file "MCAL_Layer/usart/hal_usart.c"
  6623 ;; Parameters:    Size  Location     Type
  6624 ;;  _data           1    wreg     unsigned char 
  6625 ;; Auto vars:     Size  Location     Type
  6626 ;;  _data           1   18[COMRAM] unsigned char 
  6627 ;;  ret             1    0        unsigned char 
  6628 ;; Return value:  Size  Location     Type
  6629 ;;                  1    wreg      unsigned char 
  6630 ;; Registers used:
  6631 ;;		wreg, status,2
  6632 ;; Tracked objects:
  6633 ;;		On entry : 0/0
  6634 ;;		On exit  : 0/0
  6635 ;;		Unchanged: 0/0
  6636 ;; Data sizes:     COMRAM   BANK0   BANK1   BANK2   BANK3   BANK4   BANK5   BANK6   BANK7   BANK8   BANK9  BANK10  BANK1
      +1  BANK12  BANK13  BANK14  BANK15
  6637 ;;      Params:         0       0       0       0       0       0       0       0       0       0       0       0       
      +0       0       0       0       0
  6638 ;;      Locals:         1       0       0       0       0       0       0       0       0       0       0       0       
      +0       0       0       0       0
  6639 ;;      Temps:          0       0       0       0       0       0       0       0       0       0       0       0       
      +0       0       0       0       0
  6640 ;;      Totals:         1       0       0       0       0       0       0       0       0       0       0       0       
      +0       0       0       0       0
  6641 ;;Total ram usage:        1 bytes
  6642 ;; Hardware stack levels used: 1
  6643 ;; Hardware stack levels required when called: 5
  6644 ;; This function calls:
  6645 ;;		Nothing
  6646 ;; This function is called by:
  6647 ;;		_main
  6648 ;;		_EUSART_ASYNC_WriteStringNonBlocking
  6649 ;; This function uses a non-reentrant model
  6650 ;;
  6651                           
  6652                           	psect	text34
  6653   00382E                     __ptext34:
  6654                           	callstack 0
  6655   00382E                     _EUSART_ASYNC_WriteByteNonBlocking:
  6656                           	callstack 25
  6657                           
  6658                           ;incstack = 0
  6659                           ;EUSART_ASYNC_WriteByteNonBlocking@_data stored from wreg
  6660   00382E  6E13               	movwf	EUSART_ASYNC_WriteByteNonBlocking@_data^0,c
  6661   003830                     
  6662                           ;MCAL_Layer/usart/hal_usart.c: 96:   (PIE1bits.TXIE = 1);
  6663   003830  889D               	bsf	157,4,c	;volatile
  6664   003832                     
  6665                           ;MCAL_Layer/usart/hal_usart.c: 98:   if (TXSTAbits.TRMT) {
  6666   003832  A2AC               	btfss	172,1,c	;volatile
  6667   003834  EF1E  F01C         	goto	u10091
  6668   003838  EF20  F01C         	goto	u10090
  6669   00383C                     u10091:
  6670   00383C  EF22  F01C         	goto	l1693
  6671   003840                     u10090:
  6672   003840                     
  6673                           ;MCAL_Layer/usart/hal_usart.c: 99:     TXREG = _data;
  6674   003840  C013  FFAD         	movff	EUSART_ASYNC_WriteByteNonBlocking@_data,4013	;volatile
  6675   003844                     l1693:
  6676                           
  6677                           ;MCAL_Layer/usart/hal_usart.c: 102:   return ret;
  6678   003844  0E01               	movlw	1
  6679   003846  0012               	return		;funcret
  6680   003848                     __end_of_EUSART_ASYNC_WriteByteNonBlocking:
  6681                           	callstack 0
  6682                           
  6683 ;; *************** function _InterruptManager *****************
  6684 ;; Defined at:
  6685 ;;		line 32 in file "MCAL_Layer/Interrupt/mcal_interrupt_manager.c"
  6686 ;; Parameters:    Size  Location     Type
  6687 ;;		None
  6688 ;; Auto vars:     Size  Location     Type
  6689 ;;		None
  6690 ;; Return value:  Size  Location     Type
  6691 ;;                  1    wreg      void 
  6692 ;; Registers used:
  6693 ;;		wreg, fsr2l, fsr2h, status,2, status,0, pcl, pclath, pclatu, tosl, prodl, prodh, cstack
  6694 ;; Tracked objects:
  6695 ;;		On entry : 0/0
  6696 ;;		On exit  : 0/0
  6697 ;;		Unchanged: 0/0
  6698 ;; Data sizes:     COMRAM   BANK0   BANK1   BANK2   BANK3   BANK4   BANK5   BANK6   BANK7   BANK8   BANK9  BANK10  BANK1
      +1  BANK12  BANK13  BANK14  BANK15
  6699 ;;      Params:         0       0       0       0       0       0       0       0       0       0       0       0       
      +0       0       0       0       0
  6700 ;;      Locals:         0       0       0       0       0       0       0       0       0       0       0       0       
      +0       0       0       0       0
  6701 ;;      Temps:          7       0       0       0       0       0       0       0       0       0       0       0       
      +0       0       0       0       0
  6702 ;;      Totals:         7       0       0       0       0       0       0       0       0       0       0       0       
      +0       0       0       0       0
  6703 ;;Total ram usage:        7 bytes
  6704 ;; Hardware stack levels used: 1
  6705 ;; Hardware stack levels required when called: 4
  6706 ;; This function calls:
  6707 ;;		_ADC_ISR
  6708 ;;		_CCP1_ISR
  6709 ;;		_CCP2_ISR
  6710 ;;		_EUSART_RX_ISR
  6711 ;;		_EUSART_TX_ISR
  6712 ;;		_INT0_ISR
  6713 ;;		_INT1_ISR
  6714 ;;		_INT2_ISR
  6715 ;;		_MSSP_I2C_BC_ISR
  6716 ;;		_MSSP_I2C_ISR
  6717 ;;		_MSSP_SPI_ISR
  6718 ;;		_RB4_ISR
  6719 ;;		_RB5_ISR
  6720 ;;		_RB6_ISR
  6721 ;;		_RB7_ISR
  6722 ;;		_TMR0_ISR
  6723 ;;		_TMR1_ISR
  6724 ;;		_TMR2_ISR
  6725 ;;		_TMR3_ISR
  6726 ;; This function is called by:
  6727 ;;		Interrupt level 2
  6728 ;; This function uses a non-reentrant model
  6729 ;;
  6730                           
  6731                           	psect	intcode
  6732   000008                     __pintcode:
  6733                           	callstack 0
  6734   000008                     _InterruptManager:
  6735                           	callstack 21
  6736                           
  6737                           ;incstack = 0
  6738   000008  826D               	bsf	int$flags,1,c	;set compiler interrupt flag (level 2)
  6739   00000A  EDDC  F00C         	call	int_func,f	;refresh shadow registers
  6740                           
  6741                           	psect	intcode_body
  6742   0019B8                     __pintcode_body:
  6743                           	callstack 21
  6744   0019B8                     int_func:
  6745                           	callstack 21
  6746   0019B8  0006               	pop		; remove dummy address from shadow register refresh
  6747   0019BA  CFFA F00D          	movff	pclath,??_InterruptManager+1
  6748   0019BE  CFFB F00E          	movff	pclatu,??_InterruptManager+2
  6749   0019C2  CFD9 F00F          	movff	fsr2l,??_InterruptManager+3
  6750   0019C6  CFDA F010          	movff	fsr2h,??_InterruptManager+4
  6751   0019CA  CFF3 F011          	movff	prodl,??_InterruptManager+5
  6752   0019CE  CFF4 F012          	movff	prodh,??_InterruptManager+6
  6753   0019D2                     
  6754                           ;MCAL_Layer/Interrupt/mcal_interrupt_manager.c: 34:     if((1 == INTCONbits.INT0IE) && (
      +                          1 == INTCONbits.INT0IF)){
  6755   0019D2  A8F2               	btfss	242,4,c	;volatile
  6756   0019D4  EFEE  F00C         	goto	i2u759_41
  6757   0019D8  EFF0  F00C         	goto	i2u759_40
  6758   0019DC                     i2u759_41:
  6759   0019DC  EFF9  F00C         	goto	i2l1252
  6760   0019E0                     i2u759_40:
  6761   0019E0  A2F2               	btfss	242,1,c	;volatile
  6762   0019E2  EFF5  F00C         	goto	i2u760_41
  6763   0019E6  EFF7  F00C         	goto	i2u760_40
  6764   0019EA                     i2u760_41:
  6765   0019EA  EFF9  F00C         	goto	i2l1252
  6766   0019EE                     i2u760_40:
  6767   0019EE                     
  6768                           ;MCAL_Layer/Interrupt/mcal_interrupt_manager.c: 35:         INT0_ISR();
  6769   0019EE  EC90  F01C         	call	_INT0_ISR	;wreg free
  6770   0019F2                     i2l1252:
  6771                           
  6772                           ;MCAL_Layer/Interrupt/mcal_interrupt_manager.c: 38:     if((1 == INTCON3bits.INT1E) && (
      +                          1 == INTCON3bits.INT1F)){
  6773   0019F2  A6F0               	btfss	240,3,c	;volatile
  6774   0019F4  EFFE  F00C         	goto	i2u761_41
  6775   0019F8  EF00  F00D         	goto	i2u761_40
  6776   0019FC                     i2u761_41:
  6777   0019FC  EF09  F00D         	goto	i2l1254
  6778   001A00                     i2u761_40:
  6779   001A00  A0F0               	btfss	240,0,c	;volatile
  6780   001A02  EF05  F00D         	goto	i2u762_41
  6781   001A06  EF07  F00D         	goto	i2u762_40
  6782   001A0A                     i2u762_41:
  6783   001A0A  EF09  F00D         	goto	i2l1254
  6784   001A0E                     i2u762_40:
  6785   001A0E                     
  6786                           ;MCAL_Layer/Interrupt/mcal_interrupt_manager.c: 39:         INT1_ISR();
  6787   001A0E  EC8E  F01C         	call	_INT1_ISR	;wreg free
  6788   001A12                     i2l1254:
  6789                           
  6790                           ;MCAL_Layer/Interrupt/mcal_interrupt_manager.c: 42:     if((1 == INTCON3bits.INT2IE) && 
      +                          (1 == INTCON3bits.INT2IF)){
  6791   001A12  A8F0               	btfss	240,4,c	;volatile
  6792   001A14  EF0E  F00D         	goto	i2u763_41
  6793   001A18  EF10  F00D         	goto	i2u763_40
  6794   001A1C                     i2u763_41:
  6795   001A1C  EF19  F00D         	goto	i2l1256
  6796   001A20                     i2u763_40:
  6797   001A20  A2F0               	btfss	240,1,c	;volatile
  6798   001A22  EF15  F00D         	goto	i2u764_41
  6799   001A26  EF17  F00D         	goto	i2u764_40
  6800   001A2A                     i2u764_41:
  6801   001A2A  EF19  F00D         	goto	i2l1256
  6802   001A2E                     i2u764_40:
  6803   001A2E                     
  6804                           ;MCAL_Layer/Interrupt/mcal_interrupt_manager.c: 43:         INT2_ISR();
  6805   001A2E  EC8C  F01C         	call	_INT2_ISR	;wreg free
  6806   001A32                     i2l1256:
  6807                           
  6808                           ;MCAL_Layer/Interrupt/mcal_interrupt_manager.c: 49:     if((1 == INTCONbits.RBIE) && (1 
      +                          == INTCONbits.RBIF) &&
  6809   001A32  A6F2               	btfss	242,3,c	;volatile
  6810   001A34  EF1E  F00D         	goto	i2u765_41
  6811   001A38  EF20  F00D         	goto	i2u765_40
  6812   001A3C                     i2u765_41:
  6813   001A3C  EF3B  F00D         	goto	i2l1258
  6814   001A40                     i2u765_40:
  6815   001A40  A0F2               	btfss	242,0,c	;volatile
  6816   001A42  EF25  F00D         	goto	i2u766_41
  6817   001A46  EF27  F00D         	goto	i2u766_40
  6818   001A4A                     i2u766_41:
  6819   001A4A  EF3B  F00D         	goto	i2l1258
  6820   001A4E                     i2u766_40:
  6821   001A4E  A881               	btfss	129,4,c	;volatile
  6822   001A50  EF2C  F00D         	goto	i2u767_41
  6823   001A54  EF2E  F00D         	goto	i2u767_40
  6824   001A58                     i2u767_41:
  6825   001A58  EF3B  F00D         	goto	i2l1258
  6826   001A5C                     i2u767_40:
  6827   001A5C  0460               	decf	_RB4_Flag^0,w,c	;volatile
  6828   001A5E  A4D8               	btfss	status,2,c
  6829   001A60  EF34  F00D         	goto	i2u768_41
  6830   001A64  EF36  F00D         	goto	i2u768_40
  6831   001A68                     i2u768_41:
  6832   001A68  EF3B  F00D         	goto	i2l1258
  6833   001A6C                     i2u768_40:
  6834   001A6C                     
  6835                           ;MCAL_Layer/Interrupt/mcal_interrupt_manager.c: 50:        (PORTBbits.RB4 == GPIO_HIGH) 
      +                          && (RB4_Flag == 1)){;MCAL_Layer/Interrupt/mcal_interrupt_manager.c: 51:         RB4_Flag
      +                           = 0;
  6836   001A6C  0E00               	movlw	0
  6837   001A6E  6E60               	movwf	_RB4_Flag^0,c	;volatile
  6838   001A70                     
  6839                           ;MCAL_Layer/Interrupt/mcal_interrupt_manager.c: 52:         RB4_ISR(0);
  6840   001A70  0E00               	movlw	0
  6841   001A72  EC4B  F01C         	call	_RB4_ISR
  6842   001A76                     i2l1258:
  6843                           
  6844                           ;MCAL_Layer/Interrupt/mcal_interrupt_manager.c: 55:     if((1 == INTCONbits.RBIE) && (1 
      +                          == INTCONbits.RBIF) &&
  6845   001A76  A6F2               	btfss	242,3,c	;volatile
  6846   001A78  EF40  F00D         	goto	i2u769_41
  6847   001A7C  EF42  F00D         	goto	i2u769_40
  6848   001A80                     i2u769_41:
  6849   001A80  EF5D  F00D         	goto	i2l1260
  6850   001A84                     i2u769_40:
  6851   001A84  A0F2               	btfss	242,0,c	;volatile
  6852   001A86  EF47  F00D         	goto	i2u770_41
  6853   001A8A  EF49  F00D         	goto	i2u770_40
  6854   001A8E                     i2u770_41:
  6855   001A8E  EF5D  F00D         	goto	i2l1260
  6856   001A92                     i2u770_40:
  6857   001A92  B881               	btfsc	129,4,c	;volatile
  6858   001A94  EF4E  F00D         	goto	i2u771_41
  6859   001A98  EF50  F00D         	goto	i2u771_40
  6860   001A9C                     i2u771_41:
  6861   001A9C  EF5D  F00D         	goto	i2l1260
  6862   001AA0                     i2u771_40:
  6863   001AA0  5060               	movf	_RB4_Flag^0,w,c	;volatile
  6864   001AA2  A4D8               	btfss	status,2,c
  6865   001AA4  EF56  F00D         	goto	i2u772_41
  6866   001AA8  EF58  F00D         	goto	i2u772_40
  6867   001AAC                     i2u772_41:
  6868   001AAC  EF5D  F00D         	goto	i2l1260
  6869   001AB0                     i2u772_40:
  6870   001AB0                     
  6871                           ;MCAL_Layer/Interrupt/mcal_interrupt_manager.c: 56:        (PORTBbits.RB4 == GPIO_LOW) &
      +                          & (RB4_Flag == 0)){;MCAL_Layer/Interrupt/mcal_interrupt_manager.c: 57:         RB4_Flag 
      +                          = 1;
  6872   001AB0  0E01               	movlw	1
  6873   001AB2  6E60               	movwf	_RB4_Flag^0,c	;volatile
  6874   001AB4                     
  6875                           ;MCAL_Layer/Interrupt/mcal_interrupt_manager.c: 58:         RB4_ISR(1);
  6876   001AB4  0E01               	movlw	1
  6877   001AB6  EC4B  F01C         	call	_RB4_ISR
  6878   001ABA                     i2l1260:
  6879                           
  6880                           ;MCAL_Layer/Interrupt/mcal_interrupt_manager.c: 61:     if((1 == INTCONbits.RBIE) && (1 
      +                          == INTCONbits.RBIF) &&
  6881   001ABA  A6F2               	btfss	242,3,c	;volatile
  6882   001ABC  EF62  F00D         	goto	i2u773_41
  6883   001AC0  EF64  F00D         	goto	i2u773_40
  6884   001AC4                     i2u773_41:
  6885   001AC4  EF7F  F00D         	goto	i2l1262
  6886   001AC8                     i2u773_40:
  6887   001AC8  A0F2               	btfss	242,0,c	;volatile
  6888   001ACA  EF69  F00D         	goto	i2u774_41
  6889   001ACE  EF6B  F00D         	goto	i2u774_40
  6890   001AD2                     i2u774_41:
  6891   001AD2  EF7F  F00D         	goto	i2l1262
  6892   001AD6                     i2u774_40:
  6893   001AD6  AA81               	btfss	129,5,c	;volatile
  6894   001AD8  EF70  F00D         	goto	i2u775_41
  6895   001ADC  EF72  F00D         	goto	i2u775_40
  6896   001AE0                     i2u775_41:
  6897   001AE0  EF7F  F00D         	goto	i2l1262
  6898   001AE4                     i2u775_40:
  6899   001AE4  045F               	decf	_RB5_Flag^0,w,c	;volatile
  6900   001AE6  A4D8               	btfss	status,2,c
  6901   001AE8  EF78  F00D         	goto	i2u776_41
  6902   001AEC  EF7A  F00D         	goto	i2u776_40
  6903   001AF0                     i2u776_41:
  6904   001AF0  EF7F  F00D         	goto	i2l1262
  6905   001AF4                     i2u776_40:
  6906   001AF4                     
  6907                           ;MCAL_Layer/Interrupt/mcal_interrupt_manager.c: 62:        (PORTBbits.RB5 == GPIO_HIGH) 
      +                          && (RB5_Flag == 1)){;MCAL_Layer/Interrupt/mcal_interrupt_manager.c: 63:         RB5_Flag
      +                           = 0;
  6908   001AF4  0E00               	movlw	0
  6909   001AF6  6E5F               	movwf	_RB5_Flag^0,c	;volatile
  6910   001AF8                     
  6911                           ;MCAL_Layer/Interrupt/mcal_interrupt_manager.c: 64:         RB5_ISR(0);
  6912   001AF8  0E00               	movlw	0
  6913   001AFA  EC3E  F01C         	call	_RB5_ISR
  6914   001AFE                     i2l1262:
  6915                           
  6916                           ;MCAL_Layer/Interrupt/mcal_interrupt_manager.c: 67:     if((1 == INTCONbits.RBIE) && (1 
      +                          == INTCONbits.RBIF) &&
  6917   001AFE  A6F2               	btfss	242,3,c	;volatile
  6918   001B00  EF84  F00D         	goto	i2u777_41
  6919   001B04  EF86  F00D         	goto	i2u777_40
  6920   001B08                     i2u777_41:
  6921   001B08  EFA1  F00D         	goto	i2l1264
  6922   001B0C                     i2u777_40:
  6923   001B0C  A0F2               	btfss	242,0,c	;volatile
  6924   001B0E  EF8B  F00D         	goto	i2u778_41
  6925   001B12  EF8D  F00D         	goto	i2u778_40
  6926   001B16                     i2u778_41:
  6927   001B16  EFA1  F00D         	goto	i2l1264
  6928   001B1A                     i2u778_40:
  6929   001B1A  BA81               	btfsc	129,5,c	;volatile
  6930   001B1C  EF92  F00D         	goto	i2u779_41
  6931   001B20  EF94  F00D         	goto	i2u779_40
  6932   001B24                     i2u779_41:
  6933   001B24  EFA1  F00D         	goto	i2l1264
  6934   001B28                     i2u779_40:
  6935   001B28  505F               	movf	_RB5_Flag^0,w,c	;volatile
  6936   001B2A  A4D8               	btfss	status,2,c
  6937   001B2C  EF9A  F00D         	goto	i2u780_41
  6938   001B30  EF9C  F00D         	goto	i2u780_40
  6939   001B34                     i2u780_41:
  6940   001B34  EFA1  F00D         	goto	i2l1264
  6941   001B38                     i2u780_40:
  6942   001B38                     
  6943                           ;MCAL_Layer/Interrupt/mcal_interrupt_manager.c: 68:        (PORTBbits.RB5 == GPIO_LOW) &
      +                          & (RB5_Flag == 0)){;MCAL_Layer/Interrupt/mcal_interrupt_manager.c: 69:         RB5_Flag 
      +                          = 1;
  6944   001B38  0E01               	movlw	1
  6945   001B3A  6E5F               	movwf	_RB5_Flag^0,c	;volatile
  6946   001B3C                     
  6947                           ;MCAL_Layer/Interrupt/mcal_interrupt_manager.c: 70:         RB5_ISR(1);
  6948   001B3C  0E01               	movlw	1
  6949   001B3E  EC3E  F01C         	call	_RB5_ISR
  6950   001B42                     i2l1264:
  6951                           
  6952                           ;MCAL_Layer/Interrupt/mcal_interrupt_manager.c: 73:     if((1 == INTCONbits.RBIE) && (1 
      +                          == INTCONbits.RBIF) &&
  6953   001B42  A6F2               	btfss	242,3,c	;volatile
  6954   001B44  EFA6  F00D         	goto	i2u781_41
  6955   001B48  EFA8  F00D         	goto	i2u781_40
  6956   001B4C                     i2u781_41:
  6957   001B4C  EFC3  F00D         	goto	i2l1266
  6958   001B50                     i2u781_40:
  6959   001B50  A0F2               	btfss	242,0,c	;volatile
  6960   001B52  EFAD  F00D         	goto	i2u782_41
  6961   001B56  EFAF  F00D         	goto	i2u782_40
  6962   001B5A                     i2u782_41:
  6963   001B5A  EFC3  F00D         	goto	i2l1266
  6964   001B5E                     i2u782_40:
  6965   001B5E  AC81               	btfss	129,6,c	;volatile
  6966   001B60  EFB4  F00D         	goto	i2u783_41
  6967   001B64  EFB6  F00D         	goto	i2u783_40
  6968   001B68                     i2u783_41:
  6969   001B68  EFC3  F00D         	goto	i2l1266
  6970   001B6C                     i2u783_40:
  6971   001B6C  045E               	decf	_RB6_Flag^0,w,c	;volatile
  6972   001B6E  A4D8               	btfss	status,2,c
  6973   001B70  EFBC  F00D         	goto	i2u784_41
  6974   001B74  EFBE  F00D         	goto	i2u784_40
  6975   001B78                     i2u784_41:
  6976   001B78  EFC3  F00D         	goto	i2l1266
  6977   001B7C                     i2u784_40:
  6978   001B7C                     
  6979                           ;MCAL_Layer/Interrupt/mcal_interrupt_manager.c: 74:        (PORTBbits.RB6 == GPIO_HIGH) 
      +                          && (RB6_Flag == 1)){;MCAL_Layer/Interrupt/mcal_interrupt_manager.c: 75:         RB6_Flag
      +                           = 0;
  6980   001B7C  0E00               	movlw	0
  6981   001B7E  6E5E               	movwf	_RB6_Flag^0,c	;volatile
  6982   001B80                     
  6983                           ;MCAL_Layer/Interrupt/mcal_interrupt_manager.c: 76:         RB6_ISR(0);
  6984   001B80  0E00               	movlw	0
  6985   001B82  EC31  F01C         	call	_RB6_ISR
  6986   001B86                     i2l1266:
  6987                           
  6988                           ;MCAL_Layer/Interrupt/mcal_interrupt_manager.c: 79:     if((1 == INTCONbits.RBIE) && (1 
      +                          == INTCONbits.RBIF) &&
  6989   001B86  A6F2               	btfss	242,3,c	;volatile
  6990   001B88  EFC8  F00D         	goto	i2u785_41
  6991   001B8C  EFCA  F00D         	goto	i2u785_40
  6992   001B90                     i2u785_41:
  6993   001B90  EFE5  F00D         	goto	i2l1268
  6994   001B94                     i2u785_40:
  6995   001B94  A0F2               	btfss	242,0,c	;volatile
  6996   001B96  EFCF  F00D         	goto	i2u786_41
  6997   001B9A  EFD1  F00D         	goto	i2u786_40
  6998   001B9E                     i2u786_41:
  6999   001B9E  EFE5  F00D         	goto	i2l1268
  7000   001BA2                     i2u786_40:
  7001   001BA2  BC81               	btfsc	129,6,c	;volatile
  7002   001BA4  EFD6  F00D         	goto	i2u787_41
  7003   001BA8  EFD8  F00D         	goto	i2u787_40
  7004   001BAC                     i2u787_41:
  7005   001BAC  EFE5  F00D         	goto	i2l1268
  7006   001BB0                     i2u787_40:
  7007   001BB0  505E               	movf	_RB6_Flag^0,w,c	;volatile
  7008   001BB2  A4D8               	btfss	status,2,c
  7009   001BB4  EFDE  F00D         	goto	i2u788_41
  7010   001BB8  EFE0  F00D         	goto	i2u788_40
  7011   001BBC                     i2u788_41:
  7012   001BBC  EFE5  F00D         	goto	i2l1268
  7013   001BC0                     i2u788_40:
  7014   001BC0                     
  7015                           ;MCAL_Layer/Interrupt/mcal_interrupt_manager.c: 80:        (PORTBbits.RB6 == GPIO_LOW) &
      +                          & (RB6_Flag == 0)){;MCAL_Layer/Interrupt/mcal_interrupt_manager.c: 81:         RB6_Flag 
      +                          = 1;
  7016   001BC0  0E01               	movlw	1
  7017   001BC2  6E5E               	movwf	_RB6_Flag^0,c	;volatile
  7018   001BC4                     
  7019                           ;MCAL_Layer/Interrupt/mcal_interrupt_manager.c: 82:         RB6_ISR(1);
  7020   001BC4  0E01               	movlw	1
  7021   001BC6  EC31  F01C         	call	_RB6_ISR
  7022   001BCA                     i2l1268:
  7023                           
  7024                           ;MCAL_Layer/Interrupt/mcal_interrupt_manager.c: 85:     if((1 == INTCONbits.RBIE) && (1 
      +                          == INTCONbits.RBIF) &&
  7025   001BCA  A6F2               	btfss	242,3,c	;volatile
  7026   001BCC  EFEA  F00D         	goto	i2u789_41
  7027   001BD0  EFEC  F00D         	goto	i2u789_40
  7028   001BD4                     i2u789_41:
  7029   001BD4  EF07  F00E         	goto	i2l1270
  7030   001BD8                     i2u789_40:
  7031   001BD8  A0F2               	btfss	242,0,c	;volatile
  7032   001BDA  EFF1  F00D         	goto	i2u790_41
  7033   001BDE  EFF3  F00D         	goto	i2u790_40
  7034   001BE2                     i2u790_41:
  7035   001BE2  EF07  F00E         	goto	i2l1270
  7036   001BE6                     i2u790_40:
  7037   001BE6  AE81               	btfss	129,7,c	;volatile
  7038   001BE8  EFF8  F00D         	goto	i2u791_41
  7039   001BEC  EFFA  F00D         	goto	i2u791_40
  7040   001BF0                     i2u791_41:
  7041   001BF0  EF07  F00E         	goto	i2l1270
  7042   001BF4                     i2u791_40:
  7043   001BF4  045D               	decf	_RB7_Flag^0,w,c	;volatile
  7044   001BF6  A4D8               	btfss	status,2,c
  7045   001BF8  EF00  F00E         	goto	i2u792_41
  7046   001BFC  EF02  F00E         	goto	i2u792_40
  7047   001C00                     i2u792_41:
  7048   001C00  EF07  F00E         	goto	i2l1270
  7049   001C04                     i2u792_40:
  7050   001C04                     
  7051                           ;MCAL_Layer/Interrupt/mcal_interrupt_manager.c: 86:        (PORTBbits.RB7 == GPIO_HIGH) 
      +                          && (RB7_Flag == 1)){;MCAL_Layer/Interrupt/mcal_interrupt_manager.c: 87:         RB7_Flag
      +                           = 0;
  7052   001C04  0E00               	movlw	0
  7053   001C06  6E5D               	movwf	_RB7_Flag^0,c	;volatile
  7054   001C08                     
  7055                           ;MCAL_Layer/Interrupt/mcal_interrupt_manager.c: 88:         RB7_ISR(0);
  7056   001C08  0E00               	movlw	0
  7057   001C0A  EC24  F01C         	call	_RB7_ISR
  7058   001C0E                     i2l1270:
  7059                           
  7060                           ;MCAL_Layer/Interrupt/mcal_interrupt_manager.c: 91:     if((1 == INTCONbits.RBIE) && (1 
      +                          == INTCONbits.RBIF) &&
  7061   001C0E  A6F2               	btfss	242,3,c	;volatile
  7062   001C10  EF0C  F00E         	goto	i2u793_41
  7063   001C14  EF0E  F00E         	goto	i2u793_40
  7064   001C18                     i2u793_41:
  7065   001C18  EF29  F00E         	goto	i2l1272
  7066   001C1C                     i2u793_40:
  7067   001C1C  A0F2               	btfss	242,0,c	;volatile
  7068   001C1E  EF13  F00E         	goto	i2u794_41
  7069   001C22  EF15  F00E         	goto	i2u794_40
  7070   001C26                     i2u794_41:
  7071   001C26  EF29  F00E         	goto	i2l1272
  7072   001C2A                     i2u794_40:
  7073   001C2A  BE81               	btfsc	129,7,c	;volatile
  7074   001C2C  EF1A  F00E         	goto	i2u795_41
  7075   001C30  EF1C  F00E         	goto	i2u795_40
  7076   001C34                     i2u795_41:
  7077   001C34  EF29  F00E         	goto	i2l1272
  7078   001C38                     i2u795_40:
  7079   001C38  505D               	movf	_RB7_Flag^0,w,c	;volatile
  7080   001C3A  A4D8               	btfss	status,2,c
  7081   001C3C  EF22  F00E         	goto	i2u796_41
  7082   001C40  EF24  F00E         	goto	i2u796_40
  7083   001C44                     i2u796_41:
  7084   001C44  EF29  F00E         	goto	i2l1272
  7085   001C48                     i2u796_40:
  7086   001C48                     
  7087                           ;MCAL_Layer/Interrupt/mcal_interrupt_manager.c: 92:        (PORTBbits.RB7 == GPIO_LOW) &
      +                          & (RB7_Flag == 0)){;MCAL_Layer/Interrupt/mcal_interrupt_manager.c: 93:         RB7_Flag 
      +                          = 1;
  7088   001C48  0E01               	movlw	1
  7089   001C4A  6E5D               	movwf	_RB7_Flag^0,c	;volatile
  7090   001C4C                     
  7091                           ;MCAL_Layer/Interrupt/mcal_interrupt_manager.c: 94:         RB7_ISR(1);
  7092   001C4C  0E01               	movlw	1
  7093   001C4E  EC24  F01C         	call	_RB7_ISR
  7094   001C52                     i2l1272:
  7095                           
  7096                           ;MCAL_Layer/Interrupt/mcal_interrupt_manager.c: 99:     if((1 == PIE1bits.ADIE) && (1 ==
      +                           PIR1bits.ADIF)){
  7097   001C52  AC9D               	btfss	157,6,c	;volatile
  7098   001C54  EF2E  F00E         	goto	i2u797_41
  7099   001C58  EF30  F00E         	goto	i2u797_40
  7100   001C5C                     i2u797_41:
  7101   001C5C  EF39  F00E         	goto	i2l1274
  7102   001C60                     i2u797_40:
  7103   001C60  AC9E               	btfss	158,6,c	;volatile
  7104   001C62  EF35  F00E         	goto	i2u798_41
  7105   001C66  EF37  F00E         	goto	i2u798_40
  7106   001C6A                     i2u798_41:
  7107   001C6A  EF39  F00E         	goto	i2l1274
  7108   001C6E                     i2u798_40:
  7109   001C6E                     
  7110                           ;MCAL_Layer/Interrupt/mcal_interrupt_manager.c: 100:         ADC_ISR();
  7111   001C6E  EC98  F01C         	call	_ADC_ISR	;wreg free
  7112   001C72                     i2l1274:
  7113                           
  7114                           ;MCAL_Layer/Interrupt/mcal_interrupt_manager.c: 104:     if((1 == INTCONbits.TMR0IE) && 
      +                          (1 == INTCONbits.TMR0IF)){
  7115   001C72  AAF2               	btfss	242,5,c	;volatile
  7116   001C74  EF3E  F00E         	goto	i2u799_41
  7117   001C78  EF40  F00E         	goto	i2u799_40
  7118   001C7C                     i2u799_41:
  7119   001C7C  EF49  F00E         	goto	i2l1276
  7120   001C80                     i2u799_40:
  7121   001C80  A4F2               	btfss	242,2,c	;volatile
  7122   001C82  EF45  F00E         	goto	i2u800_41
  7123   001C86  EF47  F00E         	goto	i2u800_40
  7124   001C8A                     i2u800_41:
  7125   001C8A  EF49  F00E         	goto	i2l1276
  7126   001C8E                     i2u800_40:
  7127   001C8E                     
  7128                           ;MCAL_Layer/Interrupt/mcal_interrupt_manager.c: 105:         TMR0_ISR();
  7129   001C8E  EC8A  F01B         	call	_TMR0_ISR	;wreg free
  7130   001C92                     i2l1276:
  7131                           
  7132                           ;MCAL_Layer/Interrupt/mcal_interrupt_manager.c: 108:     if((1 == PIE1bits.TMR1IE) && (1
      +                           == PIR1bits.TMR1IF)){
  7133   001C92  A09D               	btfss	157,0,c	;volatile
  7134   001C94  EF4E  F00E         	goto	i2u801_41
  7135   001C98  EF50  F00E         	goto	i2u801_40
  7136   001C9C                     i2u801_41:
  7137   001C9C  EF59  F00E         	goto	i2l1278
  7138   001CA0                     i2u801_40:
  7139   001CA0  A09E               	btfss	158,0,c	;volatile
  7140   001CA2  EF55  F00E         	goto	i2u802_41
  7141   001CA6  EF57  F00E         	goto	i2u802_40
  7142   001CAA                     i2u802_41:
  7143   001CAA  EF59  F00E         	goto	i2l1278
  7144   001CAE                     i2u802_40:
  7145   001CAE                     
  7146                           ;MCAL_Layer/Interrupt/mcal_interrupt_manager.c: 109:         TMR1_ISR();
  7147   001CAE  EC78  F01C         	call	_TMR1_ISR	;wreg free
  7148   001CB2                     i2l1278:
  7149                           
  7150                           ;MCAL_Layer/Interrupt/mcal_interrupt_manager.c: 112:     if((1 == PIE1bits.TMR2IE) && (1
      +                           == PIR1bits.TMR2IF)){
  7151   001CB2  A29D               	btfss	157,1,c	;volatile
  7152   001CB4  EF5E  F00E         	goto	i2u803_41
  7153   001CB8  EF60  F00E         	goto	i2u803_40
  7154   001CBC                     i2u803_41:
  7155   001CBC  EF69  F00E         	goto	i2l1280
  7156   001CC0                     i2u803_40:
  7157   001CC0  A29E               	btfss	158,1,c	;volatile
  7158   001CC2  EF65  F00E         	goto	i2u804_41
  7159   001CC6  EF67  F00E         	goto	i2u804_40
  7160   001CCA                     i2u804_41:
  7161   001CCA  EF69  F00E         	goto	i2l1280
  7162   001CCE                     i2u804_40:
  7163   001CCE                     
  7164                           ;MCAL_Layer/Interrupt/mcal_interrupt_manager.c: 113:         TMR2_ISR();
  7165   001CCE  EC7E  F01C         	call	_TMR2_ISR	;wreg free
  7166   001CD2                     i2l1280:
  7167                           
  7168                           ;MCAL_Layer/Interrupt/mcal_interrupt_manager.c: 116:     if((1 == PIE2bits.TMR3IE) && (1
      +                           == PIR2bits.TMR3IF)){
  7169   001CD2  A2A0               	btfss	160,1,c	;volatile
  7170   001CD4  EF6E  F00E         	goto	i2u805_41
  7171   001CD8  EF70  F00E         	goto	i2u805_40
  7172   001CDC                     i2u805_41:
  7173   001CDC  EF79  F00E         	goto	i2l1282
  7174   001CE0                     i2u805_40:
  7175   001CE0  A2A1               	btfss	161,1,c	;volatile
  7176   001CE2  EF75  F00E         	goto	i2u806_41
  7177   001CE6  EF77  F00E         	goto	i2u806_40
  7178   001CEA                     i2u806_41:
  7179   001CEA  EF79  F00E         	goto	i2l1282
  7180   001CEE                     i2u806_40:
  7181   001CEE                     
  7182                           ;MCAL_Layer/Interrupt/mcal_interrupt_manager.c: 117:         TMR3_ISR();
  7183   001CEE  EC6B  F01C         	call	_TMR3_ISR	;wreg free
  7184   001CF2                     i2l1282:
  7185                           
  7186                           ;MCAL_Layer/Interrupt/mcal_interrupt_manager.c: 121:     if((1 == PIE1bits.TXIE) && (1 =
      +                          = PIR1bits.TXIF)){
  7187   001CF2  A89D               	btfss	157,4,c	;volatile
  7188   001CF4  EF7E  F00E         	goto	i2u807_41
  7189   001CF8  EF80  F00E         	goto	i2u807_40
  7190   001CFC                     i2u807_41:
  7191   001CFC  EF89  F00E         	goto	i2l1284
  7192   001D00                     i2u807_40:
  7193   001D00  A89E               	btfss	158,4,c	;volatile
  7194   001D02  EF85  F00E         	goto	i2u808_41
  7195   001D06  EF87  F00E         	goto	i2u808_40
  7196   001D0A                     i2u808_41:
  7197   001D0A  EF89  F00E         	goto	i2l1284
  7198   001D0E                     i2u808_40:
  7199   001D0E                     
  7200                           ;MCAL_Layer/Interrupt/mcal_interrupt_manager.c: 122:         EUSART_TX_ISR();
  7201   001D0E  EC92  F01C         	call	_EUSART_TX_ISR	;wreg free
  7202   001D12                     i2l1284:
  7203                           
  7204                           ;MCAL_Layer/Interrupt/mcal_interrupt_manager.c: 125:     if((1 == PIE1bits.RCIE) && (1 =
      +                          = PIR1bits.RCIF)){
  7205   001D12  AA9D               	btfss	157,5,c	;volatile
  7206   001D14  EF8E  F00E         	goto	i2u809_41
  7207   001D18  EF90  F00E         	goto	i2u809_40
  7208   001D1C                     i2u809_41:
  7209   001D1C  EF99  F00E         	goto	i2l1286
  7210   001D20                     i2u809_40:
  7211   001D20  AA9E               	btfss	158,5,c	;volatile
  7212   001D22  EF95  F00E         	goto	i2u810_41
  7213   001D26  EF97  F00E         	goto	i2u810_40
  7214   001D2A                     i2u810_41:
  7215   001D2A  EF99  F00E         	goto	i2l1286
  7216   001D2E                     i2u810_40:
  7217   001D2E                     
  7218                           ;MCAL_Layer/Interrupt/mcal_interrupt_manager.c: 126:         EUSART_RX_ISR();
  7219   001D2E  ECF3  F019         	call	_EUSART_RX_ISR	;wreg free
  7220   001D32                     i2l1286:
  7221                           
  7222                           ;MCAL_Layer/Interrupt/mcal_interrupt_manager.c: 131:     if((1 == PIE1bits.SSPIE) && (1 
      +                          == PIR1bits.SSPIF && (SSPCON1bits.SSPM > 5))){
  7223   001D32  A69D               	btfss	157,3,c	;volatile
  7224   001D34  EF9E  F00E         	goto	i2u811_41
  7225   001D38  EFA0  F00E         	goto	i2u811_40
  7226   001D3C                     i2u811_41:
  7227   001D3C  EFB4  F00E         	goto	i2l1288
  7228   001D40                     i2u811_40:
  7229   001D40  A69E               	btfss	158,3,c	;volatile
  7230   001D42  EFA5  F00E         	goto	i2u812_41
  7231   001D46  EFA7  F00E         	goto	i2u812_40
  7232   001D4A                     i2u812_41:
  7233   001D4A  EFB4  F00E         	goto	i2l1288
  7234   001D4E                     i2u812_40:
  7235   001D4E  50C6               	movf	198,w,c	;volatile
  7236   001D50  0B0F               	andlw	15
  7237   001D52  6E0C               	movwf	??_InterruptManager^0,c
  7238   001D54  0E05               	movlw	5
  7239   001D56  640C               	cpfsgt	??_InterruptManager^0,c
  7240   001D58  EFB0  F00E         	goto	i2u813_41
  7241   001D5C  EFB2  F00E         	goto	i2u813_40
  7242   001D60                     i2u813_41:
  7243   001D60  EFB4  F00E         	goto	i2l1288
  7244   001D64                     i2u813_40:
  7245   001D64                     
  7246                           ;MCAL_Layer/Interrupt/mcal_interrupt_manager.c: 132:         MSSP_I2C_ISR();
  7247   001D64  EC88  F01C         	call	_MSSP_I2C_ISR	;wreg free
  7248   001D68                     i2l1288:
  7249                           
  7250                           ;MCAL_Layer/Interrupt/mcal_interrupt_manager.c: 135:     if((1 == PIE2bits.BCLIE) && (1 
      +                          == PIR2bits.BCLIF) && (SSPCON1bits.SSPM > 5)){
  7251   001D68  A6A0               	btfss	160,3,c	;volatile
  7252   001D6A  EFB9  F00E         	goto	i2u814_41
  7253   001D6E  EFBB  F00E         	goto	i2u814_40
  7254   001D72                     i2u814_41:
  7255   001D72  EFCF  F00E         	goto	i2l1290
  7256   001D76                     i2u814_40:
  7257   001D76  A6A1               	btfss	161,3,c	;volatile
  7258   001D78  EFC0  F00E         	goto	i2u815_41
  7259   001D7C  EFC2  F00E         	goto	i2u815_40
  7260   001D80                     i2u815_41:
  7261   001D80  EFCF  F00E         	goto	i2l1290
  7262   001D84                     i2u815_40:
  7263   001D84  50C6               	movf	198,w,c	;volatile
  7264   001D86  0B0F               	andlw	15
  7265   001D88  6E0C               	movwf	??_InterruptManager^0,c
  7266   001D8A  0E05               	movlw	5
  7267   001D8C  640C               	cpfsgt	??_InterruptManager^0,c
  7268   001D8E  EFCB  F00E         	goto	i2u816_41
  7269   001D92  EFCD  F00E         	goto	i2u816_40
  7270   001D96                     i2u816_41:
  7271   001D96  EFCF  F00E         	goto	i2l1290
  7272   001D9A                     i2u816_40:
  7273   001D9A                     
  7274                           ;MCAL_Layer/Interrupt/mcal_interrupt_manager.c: 136:         MSSP_I2C_BC_ISR();
  7275   001D9A  EC8A  F01C         	call	_MSSP_I2C_BC_ISR	;wreg free
  7276   001D9E                     i2l1290:
  7277                           
  7278                           ;MCAL_Layer/Interrupt/mcal_interrupt_manager.c: 139:     if((1 == PIE1bits.SSPIE) && (1 
      +                          == PIR1bits.SSPIF) && (SSPCON1bits.SSPM <= 5) ){
  7279   001D9E  A69D               	btfss	157,3,c	;volatile
  7280   001DA0  EFD4  F00E         	goto	i2u817_41
  7281   001DA4  EFD6  F00E         	goto	i2u817_40
  7282   001DA8                     i2u817_41:
  7283   001DA8  EFEA  F00E         	goto	i2l1292
  7284   001DAC                     i2u817_40:
  7285   001DAC  A69E               	btfss	158,3,c	;volatile
  7286   001DAE  EFDB  F00E         	goto	i2u818_41
  7287   001DB2  EFDD  F00E         	goto	i2u818_40
  7288   001DB6                     i2u818_41:
  7289   001DB6  EFEA  F00E         	goto	i2l1292
  7290   001DBA                     i2u818_40:
  7291   001DBA  50C6               	movf	198,w,c	;volatile
  7292   001DBC  0B0F               	andlw	15
  7293   001DBE  6E0C               	movwf	??_InterruptManager^0,c
  7294   001DC0  0E06               	movlw	6
  7295   001DC2  600C               	cpfslt	??_InterruptManager^0,c
  7296   001DC4  EFE6  F00E         	goto	i2u819_41
  7297   001DC8  EFE8  F00E         	goto	i2u819_40
  7298   001DCC                     i2u819_41:
  7299   001DCC  EFEA  F00E         	goto	i2l1292
  7300   001DD0                     i2u819_40:
  7301   001DD0                     
  7302                           ;MCAL_Layer/Interrupt/mcal_interrupt_manager.c: 140:         MSSP_SPI_ISR();
  7303   001DD0  EC85  F01C         	call	_MSSP_SPI_ISR	;wreg free
  7304   001DD4                     i2l1292:
  7305                           
  7306                           ;MCAL_Layer/Interrupt/mcal_interrupt_manager.c: 145:     if((1 == PIE1bits.CCP1IE) && (1
      +                           == PIR1bits.CCP1IF)){
  7307   001DD4  A49D               	btfss	157,2,c	;volatile
  7308   001DD6  EFEF  F00E         	goto	i2u820_41
  7309   001DDA  EFF1  F00E         	goto	i2u820_40
  7310   001DDE                     i2u820_41:
  7311   001DDE  EFFA  F00E         	goto	i2l1294
  7312   001DE2                     i2u820_40:
  7313   001DE2  A49E               	btfss	158,2,c	;volatile
  7314   001DE4  EFF6  F00E         	goto	i2u821_41
  7315   001DE8  EFF8  F00E         	goto	i2u821_40
  7316   001DEC                     i2u821_41:
  7317   001DEC  EFFA  F00E         	goto	i2l1294
  7318   001DF0                     i2u821_40:
  7319   001DF0                     
  7320                           ;MCAL_Layer/Interrupt/mcal_interrupt_manager.c: 146:         CCP1_ISR();
  7321   001DF0  EC96  F01C         	call	_CCP1_ISR	;wreg free
  7322   001DF4                     i2l1294:
  7323                           
  7324                           ;MCAL_Layer/Interrupt/mcal_interrupt_manager.c: 149:     if((1 == PIE2bits.CCP2IE) && (1
      +                           == PIR2bits.CCP2IF)){
  7325   001DF4  A0A0               	btfss	160,0,c	;volatile
  7326   001DF6  EFFF  F00E         	goto	i2u822_41
  7327   001DFA  EF01  F00F         	goto	i2u822_40
  7328   001DFE                     i2u822_41:
  7329   001DFE  EF0A  F00F         	goto	i2l1297
  7330   001E02                     i2u822_40:
  7331   001E02  A0A1               	btfss	161,0,c	;volatile
  7332   001E04  EF06  F00F         	goto	i2u823_41
  7333   001E08  EF08  F00F         	goto	i2u823_40
  7334   001E0C                     i2u823_41:
  7335   001E0C  EF0A  F00F         	goto	i2l1297
  7336   001E10                     i2u823_40:
  7337   001E10                     
  7338                           ;MCAL_Layer/Interrupt/mcal_interrupt_manager.c: 150:         CCP2_ISR();
  7339   001E10  EC94  F01C         	call	_CCP2_ISR	;wreg free
  7340   001E14                     i2l1297:
  7341   001E14  C012  FFF4         	movff	??_InterruptManager+6,prodh
  7342   001E18  C011  FFF3         	movff	??_InterruptManager+5,prodl
  7343   001E1C  C010  FFDA         	movff	??_InterruptManager+4,fsr2h
  7344   001E20  C00F  FFD9         	movff	??_InterruptManager+3,fsr2l
  7345   001E24  C00E  FFFB         	movff	??_InterruptManager+2,pclatu
  7346   001E28  C00D  FFFA         	movff	??_InterruptManager+1,pclath
  7347   001E2C  926D               	bcf	int$flags,1,c	;clear compiler interrupt flag (level 2)
  7348   001E2E  0011               	retfie		f
  7349   001E30                     __end_of_InterruptManager:
  7350                           	callstack 0
  7351                           
  7352 ;; *************** function _TMR3_ISR *****************
  7353 ;; Defined at:
  7354 ;;		line 102 in file "MCAL_Layer/Timer3/hal_timr3.c"
  7355 ;; Parameters:    Size  Location     Type
  7356 ;;		None
  7357 ;; Auto vars:     Size  Location     Type
  7358 ;;		None
  7359 ;; Return value:  Size  Location     Type
  7360 ;;                  1    wreg      void 
  7361 ;; Registers used:
  7362 ;;		wreg, status,2
  7363 ;; Tracked objects:
  7364 ;;		On entry : 0/0
  7365 ;;		On exit  : 0/0
  7366 ;;		Unchanged: 0/0
  7367 ;; Data sizes:     COMRAM   BANK0   BANK1   BANK2   BANK3   BANK4   BANK5   BANK6   BANK7   BANK8   BANK9  BANK10  BANK1
      +1  BANK12  BANK13  BANK14  BANK15
  7368 ;;      Params:         0       0       0       0       0       0       0       0       0       0       0       0       
      +0       0       0       0       0
  7369 ;;      Locals:         0       0       0       0       0       0       0       0       0       0       0       0       
      +0       0       0       0       0
  7370 ;;      Temps:          0       0       0       0       0       0       0       0       0       0       0       0       
      +0       0       0       0       0
  7371 ;;      Totals:         0       0       0       0       0       0       0       0       0       0       0       0       
      +0       0       0       0       0
  7372 ;;Total ram usage:        0 bytes
  7373 ;; Hardware stack levels used: 1
  7374 ;; This function calls:
  7375 ;;		Nothing
  7376 ;; This function is called by:
  7377 ;;		_InterruptManager
  7378 ;; This function uses a non-reentrant model
  7379 ;;
  7380                           
  7381                           	psect	text36
  7382   0038D6                     __ptext36:
  7383                           	callstack 0
  7384   0038D6                     _TMR3_ISR:
  7385                           	callstack 24
  7386   0038D6                     
  7387                           ;MCAL_Layer/Timer3/hal_timr3.c: 103:     (PIR2bits.TMR3IF = 0);
  7388   0038D6  92A1               	bcf	161,1,c	;volatile
  7389   0038D8                     
  7390                           ;MCAL_Layer/Timer3/hal_timr3.c: 104:     TMR3H = (timer3_preload) >> 8;
  7391   0038D8  0100               	movlb	0	; () banked
  7392   0038DA  5193               	movf	(_timer3_preload+1)& (0+255),w,b
  7393   0038DC  6EB3               	movwf	179,c	;volatile
  7394   0038DE                     
  7395                           ; BSR set to: 0
  7396                           ;MCAL_Layer/Timer3/hal_timr3.c: 105:     TMR3L = (uint8)(timer3_preload);
  7397   0038DE  C092  FFB2         	movff	_timer3_preload,4018	;volatile
  7398   0038E2                     
  7399                           ; BSR set to: 0
  7400   0038E2  0012               	return		;funcret
  7401   0038E4                     __end_of_TMR3_ISR:
  7402                           	callstack 0
  7403                           
  7404 ;; *************** function _TMR2_ISR *****************
  7405 ;; Defined at:
  7406 ;;		line 95 in file "MCAL_Layer/Timer2/hal_timr2.c"
  7407 ;; Parameters:    Size  Location     Type
  7408 ;;		None
  7409 ;; Auto vars:     Size  Location     Type
  7410 ;;		None
  7411 ;; Return value:  Size  Location     Type
  7412 ;;                  1    wreg      void 
  7413 ;; Registers used:
  7414 ;;		None
  7415 ;; Tracked objects:
  7416 ;;		On entry : 0/0
  7417 ;;		On exit  : 0/0
  7418 ;;		Unchanged: 0/0
  7419 ;; Data sizes:     COMRAM   BANK0   BANK1   BANK2   BANK3   BANK4   BANK5   BANK6   BANK7   BANK8   BANK9  BANK10  BANK1
      +1  BANK12  BANK13  BANK14  BANK15
  7420 ;;      Params:         0       0       0       0       0       0       0       0       0       0       0       0       
      +0       0       0       0       0
  7421 ;;      Locals:         0       0       0       0       0       0       0       0       0       0       0       0       
      +0       0       0       0       0
  7422 ;;      Temps:          0       0       0       0       0       0       0       0       0       0       0       0       
      +0       0       0       0       0
  7423 ;;      Totals:         0       0       0       0       0       0       0       0       0       0       0       0       
      +0       0       0       0       0
  7424 ;;Total ram usage:        0 bytes
  7425 ;; Hardware stack levels used: 1
  7426 ;; This function calls:
  7427 ;;		Nothing
  7428 ;; This function is called by:
  7429 ;;		_InterruptManager
  7430 ;; This function uses a non-reentrant model
  7431 ;;
  7432                           
  7433                           	psect	text37
  7434   0038FC                     __ptext37:
  7435                           	callstack 0
  7436   0038FC                     _TMR2_ISR:
  7437                           	callstack 24
  7438   0038FC                     
  7439                           ;MCAL_Layer/Timer2/hal_timr2.c: 96:     (PIR1bits.TMR2IF = 0);
  7440   0038FC  929E               	bcf	158,1,c	;volatile
  7441                           
  7442                           ;MCAL_Layer/Timer2/hal_timr2.c: 97:     TMR2 = timer2_preload;
  7443   0038FE  C06A  FFCC         	movff	_timer2_preload,4044	;volatile
  7444   003902  0012               	return		;funcret
  7445   003904                     __end_of_TMR2_ISR:
  7446                           	callstack 0
  7447                           
  7448 ;; *************** function _TMR1_ISR *****************
  7449 ;; Defined at:
  7450 ;;		line 102 in file "MCAL_Layer/Timer1/hal_timr1.c"
  7451 ;; Parameters:    Size  Location     Type
  7452 ;;		None
  7453 ;; Auto vars:     Size  Location     Type
  7454 ;;		None
  7455 ;; Return value:  Size  Location     Type
  7456 ;;                  1    wreg      void 
  7457 ;; Registers used:
  7458 ;;		wreg, status,2
  7459 ;; Tracked objects:
  7460 ;;		On entry : 0/0
  7461 ;;		On exit  : 0/0
  7462 ;;		Unchanged: 0/0
  7463 ;; Data sizes:     COMRAM   BANK0   BANK1   BANK2   BANK3   BANK4   BANK5   BANK6   BANK7   BANK8   BANK9  BANK10  BANK1
      +1  BANK12  BANK13  BANK14  BANK15
  7464 ;;      Params:         0       0       0       0       0       0       0       0       0       0       0       0       
      +0       0       0       0       0
  7465 ;;      Locals:         0       0       0       0       0       0       0       0       0       0       0       0       
      +0       0       0       0       0
  7466 ;;      Temps:          0       0       0       0       0       0       0       0       0       0       0       0       
      +0       0       0       0       0
  7467 ;;      Totals:         0       0       0       0       0       0       0       0       0       0       0       0       
      +0       0       0       0       0
  7468 ;;Total ram usage:        0 bytes
  7469 ;; Hardware stack levels used: 1
  7470 ;; This function calls:
  7471 ;;		Nothing
  7472 ;; This function is called by:
  7473 ;;		_InterruptManager
  7474 ;; This function uses a non-reentrant model
  7475 ;;
  7476                           
  7477                           	psect	text38
  7478   0038F0                     __ptext38:
  7479                           	callstack 0
  7480   0038F0                     _TMR1_ISR:
  7481                           	callstack 24
  7482   0038F0                     
  7483                           ;MCAL_Layer/Timer1/hal_timr1.c: 103:     (PIR1bits.TMR1IF = 0);
  7484   0038F0  909E               	bcf	158,0,c	;volatile
  7485   0038F2                     
  7486                           ;MCAL_Layer/Timer1/hal_timr1.c: 104:     TMR1H = (timer1_preload) >> 8;
  7487   0038F2  5063               	movf	(_timer1_preload+1)^0,w,c	;volatile
  7488   0038F4  6ECF               	movwf	207,c	;volatile
  7489   0038F6                     
  7490                           ;MCAL_Layer/Timer1/hal_timr1.c: 105:     TMR1L = (uint8)(timer1_preload);
  7491   0038F6  C062  FFCE         	movff	_timer1_preload,4046	;volatile
  7492   0038FA  0012               	return		;funcret
  7493   0038FC                     __end_of_TMR1_ISR:
  7494                           	callstack 0
  7495                           
  7496 ;; *************** function _TMR0_ISR *****************
  7497 ;; Defined at:
  7498 ;;		line 107 in file "MCAL_Layer/Timer0/hal_timr0.c"
  7499 ;; Parameters:    Size  Location     Type
  7500 ;;		None
  7501 ;; Auto vars:     Size  Location     Type
  7502 ;;		None
  7503 ;; Return value:  Size  Location     Type
  7504 ;;                  1    wreg      void 
  7505 ;; Registers used:
  7506 ;;		wreg, fsr2l, fsr2h, status,2, status,0, pcl, pclath, pclatu, tosl, prodl, prodh, cstack
  7507 ;; Tracked objects:
  7508 ;;		On entry : 0/0
  7509 ;;		On exit  : 0/0
  7510 ;;		Unchanged: 0/0
  7511 ;; Data sizes:     COMRAM   BANK0   BANK1   BANK2   BANK3   BANK4   BANK5   BANK6   BANK7   BANK8   BANK9  BANK10  BANK1
      +1  BANK12  BANK13  BANK14  BANK15
  7512 ;;      Params:         0       0       0       0       0       0       0       0       0       0       0       0       
      +0       0       0       0       0
  7513 ;;      Locals:         0       0       0       0       0       0       0       0       0       0       0       0       
      +0       0       0       0       0
  7514 ;;      Temps:          0       0       0       0       0       0       0       0       0       0       0       0       
      +0       0       0       0       0
  7515 ;;      Totals:         0       0       0       0       0       0       0       0       0       0       0       0       
      +0       0       0       0       0
  7516 ;;Total ram usage:        0 bytes
  7517 ;; Hardware stack levels used: 1
  7518 ;; Hardware stack levels required when called: 3
  7519 ;; This function calls:
  7520 ;;		NULL
  7521 ;;		_Timer0_DefaultInterruptHandler
  7522 ;; This function is called by:
  7523 ;;		_InterruptManager
  7524 ;; This function uses a non-reentrant model
  7525 ;;
  7526                           
  7527                           	psect	text39
  7528   003714                     __ptext39:
  7529                           	callstack 0
  7530   003714                     _TMR0_ISR:
  7531                           	callstack 21
  7532   003714                     
  7533                           ;MCAL_Layer/Timer0/hal_timr0.c: 108:     (INTCONbits.TMR0IF = 0);
  7534   003714  94F2               	bcf	242,2,c	;volatile
  7535   003716                     
  7536                           ;MCAL_Layer/Timer0/hal_timr0.c: 109:     TMR0H = (timer0_preload) >> 8;
  7537   003716  0100               	movlb	0	; () banked
  7538   003718  519B               	movf	(_timer0_preload+1)& (0+255),w,b
  7539   00371A  6ED7               	movwf	215,c	;volatile
  7540   00371C                     
  7541                           ; BSR set to: 0
  7542                           ;MCAL_Layer/Timer0/hal_timr0.c: 110:     TMR0L = (uint8)(timer0_preload);
  7543   00371C  C09A  FFD6         	movff	_timer0_preload,4054	;volatile
  7544   003720                     
  7545                           ; BSR set to: 0
  7546                           ;MCAL_Layer/Timer0/hal_timr0.c: 111:     if(TMR0_InterruptHandler){
  7547   003720  519C               	movf	_TMR0_InterruptHandler& (0+255),w,b
  7548   003722  119D               	iorwf	(_TMR0_InterruptHandler+1)& (0+255),w,b
  7549   003724  B4D8               	btfsc	status,2,c
  7550   003726  EF97  F01B         	goto	i2u653_41
  7551   00372A  EF99  F01B         	goto	i2u653_40
  7552   00372E                     i2u653_41:
  7553   00372E  EFA5  F01B         	goto	i2l1440
  7554   003732                     i2u653_40:
  7555   003732                     
  7556                           ; BSR set to: 0
  7557                           ;MCAL_Layer/Timer0/hal_timr0.c: 112:         TMR0_InterruptHandler();
  7558   003732  D802               	call	i2u654_48
  7559   003734  EFA5  F01B         	goto	i2u654_49
  7560   003738                     i2u654_48:
  7561   003738  0005               	push	
  7562   00373A  6EFA               	movwf	pclath,c
  7563   00373C  519C               	movf	_TMR0_InterruptHandler& (0+255),w,b
  7564   00373E  6EFD               	movwf	tosl,c
  7565   003740  519D               	movf	(_TMR0_InterruptHandler+1)& (0+255),w,b
  7566   003742  6EFE               	movwf	tosh,c
  7567   003744  6AFF               	clrf	tosu,c
  7568   003746  50FA               	movf	pclath,w,c
  7569   003748  0012               	return		;indir
  7570   00374A                     i2u654_49:
  7571   00374A                     i2l1440:
  7572   00374A  0012               	return		;funcret
  7573   00374C                     __end_of_TMR0_ISR:
  7574                           	callstack 0
  7575                           
  7576 ;; *************** function _Timer0_DefaultInterruptHandler *****************
  7577 ;; Defined at:
  7578 ;;		line 216 in file "application.c"
  7579 ;; Parameters:    Size  Location     Type
  7580 ;;		None
  7581 ;; Auto vars:     Size  Location     Type
  7582 ;;		None
  7583 ;; Return value:  Size  Location     Type
  7584 ;;                  1    wreg      void 
  7585 ;; Registers used:
  7586 ;;		wreg, fsr2l, fsr2h, status,2, status,0, prodl, prodh, cstack
  7587 ;; Tracked objects:
  7588 ;;		On entry : 0/0
  7589 ;;		On exit  : 0/0
  7590 ;;		Unchanged: 0/0
  7591 ;; Data sizes:     COMRAM   BANK0   BANK1   BANK2   BANK3   BANK4   BANK5   BANK6   BANK7   BANK8   BANK9  BANK10  BANK1
      +1  BANK12  BANK13  BANK14  BANK15
  7592 ;;      Params:         0       0       0       0       0       0       0       0       0       0       0       0       
      +0       0       0       0       0
  7593 ;;      Locals:         0       0       0       0       0       0       0       0       0       0       0       0       
      +0       0       0       0       0
  7594 ;;      Temps:          0       0       0       0       0       0       0       0       0       0       0       0       
      +0       0       0       0       0
  7595 ;;      Totals:         0       0       0       0       0       0       0       0       0       0       0       0       
      +0       0       0       0       0
  7596 ;;Total ram usage:        0 bytes
  7597 ;; Hardware stack levels used: 1
  7598 ;; Hardware stack levels required when called: 2
  7599 ;; This function calls:
  7600 ;;		_dc_motor_move_left
  7601 ;;		_dc_motor_stop
  7602 ;; This function is called by:
  7603 ;;		_TMR0_ISR
  7604 ;; This function uses a non-reentrant model
  7605 ;;
  7606                           
  7607                           	psect	text40
  7608   00332C                     __ptext40:
  7609                           	callstack 0
  7610   00332C                     _Timer0_DefaultInterruptHandler:
  7611                           	callstack 21
  7612   00332C                     
  7613                           ;application.c: 217:     timer0_falg++;
  7614   00332C  2A67               	incf	_timer0_falg^0,f,c
  7615   00332E                     
  7616                           ;application.c: 218:     if(10 == timer0_falg){
  7617   00332E  0E0A               	movlw	10
  7618   003330  1867               	xorwf	_timer0_falg^0,w,c
  7619   003332  A4D8               	btfss	status,2,c
  7620   003334  EF9E  F019         	goto	i2u629_41
  7621   003338  EFA0  F019         	goto	i2u629_40
  7622   00333C                     i2u629_41:
  7623   00333C  EFAC  F019         	goto	i2l7033
  7624   003340                     i2u629_40:
  7625   003340                     
  7626                           ;application.c: 219:         dc_motor_move_left(&dc_motor_1);
  7627   003340  0EFC               	movlw	low _dc_motor_1
  7628   003342  6E0A               	movwf	dc_motor_move_left@_dc_motor^0,c
  7629   003344  0E00               	movlw	high _dc_motor_1
  7630   003346  6E0B               	movwf	(dc_motor_move_left@_dc_motor+1)^0,c
  7631   003348  EC6C  F01B         	call	_dc_motor_move_left	;wreg free
  7632   00334C                     
  7633                           ;application.c: 220:         timer0_falg=0;
  7634   00334C  0E00               	movlw	0
  7635   00334E  6E67               	movwf	_timer0_falg^0,c
  7636   003350                     
  7637                           ;application.c: 221:         timer0_falg_deinit = 1;
  7638   003350  0E01               	movlw	1
  7639   003352  6E66               	movwf	_timer0_falg_deinit^0,c
  7640                           
  7641                           ;application.c: 222:     }
  7642   003354  EFC6  F019         	goto	i2l1906
  7643   003358                     i2l7033:
  7644   003358  0E03               	movlw	3
  7645   00335A  1867               	xorwf	_timer0_falg^0,w,c
  7646   00335C  A4D8               	btfss	status,2,c
  7647   00335E  EFB3  F019         	goto	i2u630_41
  7648   003362  EFB5  F019         	goto	i2u630_40
  7649   003366                     i2u630_41:
  7650   003366  EFC6  F019         	goto	i2l1906
  7651   00336A                     i2u630_40:
  7652   00336A                     
  7653                           ;application.c: 224:         dc_motor_stop(&dc_motor_1);
  7654   00336A  0EFC               	movlw	low _dc_motor_1
  7655   00336C  6E0A               	movwf	dc_motor_stop@_dc_motor^0,c
  7656   00336E  0E00               	movlw	high _dc_motor_1
  7657   003370  6E0B               	movwf	(dc_motor_stop@_dc_motor+1)^0,c
  7658   003372  EC4E  F01B         	call	_dc_motor_stop	;wreg free
  7659   003376                     
  7660                           ;application.c: 225:         if(1 == timer0_falg_deinit){
  7661   003376  0466               	decf	_timer0_falg_deinit^0,w,c
  7662   003378  A4D8               	btfss	status,2,c
  7663   00337A  EFC1  F019         	goto	i2u631_41
  7664   00337E  EFC3  F019         	goto	i2u631_40
  7665   003382                     i2u631_41:
  7666   003382  EFC6  F019         	goto	i2l1905
  7667   003386                     i2u631_40:
  7668   003386                     
  7669                           ;application.c: 226:             (T0CONbits.TMR0ON = 0);
  7670   003386  9ED5               	bcf	213,7,c	;volatile
  7671                           
  7672                           ;application.c: 227:         }else{ }
  7673   003388  EFC6  F019         	goto	i2l1906
  7674   00338C                     i2l1905:
  7675   00338C                     i2l1906:
  7676   00338C  0012               	return		;funcret
  7677   00338E                     __end_of_Timer0_DefaultInterruptHandler:
  7678                           	callstack 0
  7679                           
  7680 ;; *************** function _dc_motor_stop *****************
  7681 ;; Defined at:
  7682 ;;		line 74 in file "ECU_Layer/DC_Motor/ecu_dc_motor.c"
  7683 ;; Parameters:    Size  Location     Type
  7684 ;;  _dc_motor       2    9[COMRAM] PTR const struct .
  7685 ;;		 -> dc_motor_1(2), 
  7686 ;; Auto vars:     Size  Location     Type
  7687 ;;  ret             1    0        unsigned char 
  7688 ;; Return value:  Size  Location     Type
  7689 ;;                  1    wreg      unsigned char 
  7690 ;; Registers used:
  7691 ;;		wreg, fsr2l, fsr2h, status,2, status,0, prodl, prodh, cstack
  7692 ;; Tracked objects:
  7693 ;;		On entry : 0/0
  7694 ;;		On exit  : 0/0
  7695 ;;		Unchanged: 0/0
  7696 ;; Data sizes:     COMRAM   BANK0   BANK1   BANK2   BANK3   BANK4   BANK5   BANK6   BANK7   BANK8   BANK9  BANK10  BANK1
      +1  BANK12  BANK13  BANK14  BANK15
  7697 ;;      Params:         2       0       0       0       0       0       0       0       0       0       0       0       
      +0       0       0       0       0
  7698 ;;      Locals:         0       0       0       0       0       0       0       0       0       0       0       0       
      +0       0       0       0       0
  7699 ;;      Temps:          0       0       0       0       0       0       0       0       0       0       0       0       
      +0       0       0       0       0
  7700 ;;      Totals:         2       0       0       0       0       0       0       0       0       0       0       0       
      +0       0       0       0       0
  7701 ;;Total ram usage:        2 bytes
  7702 ;; Hardware stack levels used: 1
  7703 ;; Hardware stack levels required when called: 1
  7704 ;; This function calls:
  7705 ;;		i2_gpio_pin_write_logic
  7706 ;; This function is called by:
  7707 ;;		_Timer0_DefaultInterruptHandler
  7708 ;; This function uses a non-reentrant model
  7709 ;;
  7710                           
  7711                           	psect	text41
  7712   00369C                     __ptext41:
  7713                           	callstack 0
  7714   00369C                     _dc_motor_stop:
  7715                           	callstack 21
  7716   00369C                     
  7717                           ;ECU_Layer/DC_Motor/ecu_dc_motor.c: 76:     if(((void*)0) == _dc_motor){
  7718   00369C  500A               	movf	dc_motor_stop@_dc_motor^0,w,c
  7719   00369E  100B               	iorwf	(dc_motor_stop@_dc_motor+1)^0,w,c
  7720   0036A0  A4D8               	btfss	status,2,c
  7721   0036A2  EF55  F01B         	goto	i2u562_41
  7722   0036A6  EF57  F01B         	goto	i2u562_40
  7723   0036AA                     i2u562_41:
  7724   0036AA  EF59  F01B         	goto	i2l6571
  7725   0036AE                     i2u562_40:
  7726   0036AE                     
  7727                           ;ECU_Layer/DC_Motor/ecu_dc_motor.c: 78:     }
  7728   0036AE  EF6B  F01B         	goto	i2l232
  7729   0036B2                     i2l6571:
  7730                           
  7731                           ;ECU_Layer/DC_Motor/ecu_dc_motor.c: 80:         gpio_pin_write_logic(&(_dc_motor->dc_mot
      +                          or_pin[0x00U]), GPIO_LOW);
  7732   0036B2  C00A  F001         	movff	dc_motor_stop@_dc_motor,i2gpio_pin_write_logic@_pin_config
  7733   0036B6  C00B  F002         	movff	dc_motor_stop@_dc_motor+1,i2gpio_pin_write_logic@_pin_config+1
  7734   0036BA  0E00               	movlw	0
  7735   0036BC  6E03               	movwf	i2gpio_pin_write_logic@logic^0,c
  7736   0036BE  EC20  F015         	call	i2_gpio_pin_write_logic	;wreg free
  7737                           
  7738                           ;ECU_Layer/DC_Motor/ecu_dc_motor.c: 81:         gpio_pin_write_logic(&(_dc_motor->dc_mot
      +                          or_pin[0x01U]), GPIO_LOW);
  7739   0036C2  0E01               	movlw	1
  7740   0036C4  240A               	addwf	dc_motor_stop@_dc_motor^0,w,c
  7741   0036C6  6E01               	movwf	i2gpio_pin_write_logic@_pin_config^0,c
  7742   0036C8  0E00               	movlw	0
  7743   0036CA  200B               	addwfc	(dc_motor_stop@_dc_motor+1)^0,w,c
  7744   0036CC  6E02               	movwf	(i2gpio_pin_write_logic@_pin_config+1)^0,c
  7745   0036CE  0E00               	movlw	0
  7746   0036D0  6E03               	movwf	i2gpio_pin_write_logic@logic^0,c
  7747   0036D2  EC20  F015         	call	i2_gpio_pin_write_logic	;wreg free
  7748   0036D6                     i2l232:
  7749   0036D6  0012               	return		;funcret
  7750   0036D8                     __end_of_dc_motor_stop:
  7751                           	callstack 0
  7752                           
  7753 ;; *************** function _dc_motor_move_left *****************
  7754 ;; Defined at:
  7755 ;;		line 55 in file "ECU_Layer/DC_Motor/ecu_dc_motor.c"
  7756 ;; Parameters:    Size  Location     Type
  7757 ;;  _dc_motor       2    9[COMRAM] PTR const struct .
  7758 ;;		 -> dc_motor_1(2), 
  7759 ;; Auto vars:     Size  Location     Type
  7760 ;;  ret             1    0        unsigned char 
  7761 ;; Return value:  Size  Location     Type
  7762 ;;                  1    wreg      unsigned char 
  7763 ;; Registers used:
  7764 ;;		wreg, fsr2l, fsr2h, status,2, status,0, prodl, prodh, cstack
  7765 ;; Tracked objects:
  7766 ;;		On entry : 0/0
  7767 ;;		On exit  : 0/0
  7768 ;;		Unchanged: 0/0
  7769 ;; Data sizes:     COMRAM   BANK0   BANK1   BANK2   BANK3   BANK4   BANK5   BANK6   BANK7   BANK8   BANK9  BANK10  BANK1
      +1  BANK12  BANK13  BANK14  BANK15
  7770 ;;      Params:         2       0       0       0       0       0       0       0       0       0       0       0       
      +0       0       0       0       0
  7771 ;;      Locals:         0       0       0       0       0       0       0       0       0       0       0       0       
      +0       0       0       0       0
  7772 ;;      Temps:          0       0       0       0       0       0       0       0       0       0       0       0       
      +0       0       0       0       0
  7773 ;;      Totals:         2       0       0       0       0       0       0       0       0       0       0       0       
      +0       0       0       0       0
  7774 ;;Total ram usage:        2 bytes
  7775 ;; Hardware stack levels used: 1
  7776 ;; Hardware stack levels required when called: 1
  7777 ;; This function calls:
  7778 ;;		i2_gpio_pin_write_logic
  7779 ;; This function is called by:
  7780 ;;		_Timer0_DefaultInterruptHandler
  7781 ;; This function uses a non-reentrant model
  7782 ;;
  7783                           
  7784                           	psect	text42
  7785   0036D8                     __ptext42:
  7786                           	callstack 0
  7787   0036D8                     _dc_motor_move_left:
  7788                           	callstack 21
  7789   0036D8                     
  7790                           ;ECU_Layer/DC_Motor/ecu_dc_motor.c: 57:     if(((void*)0) == _dc_motor){
  7791   0036D8  500A               	movf	dc_motor_move_left@_dc_motor^0,w,c
  7792   0036DA  100B               	iorwf	(dc_motor_move_left@_dc_motor+1)^0,w,c
  7793   0036DC  A4D8               	btfss	status,2,c
  7794   0036DE  EF73  F01B         	goto	i2u561_41
  7795   0036E2  EF75  F01B         	goto	i2u561_40
  7796   0036E6                     i2u561_41:
  7797   0036E6  EF77  F01B         	goto	i2l6561
  7798   0036EA                     i2u561_40:
  7799   0036EA                     
  7800                           ;ECU_Layer/DC_Motor/ecu_dc_motor.c: 59:     }
  7801   0036EA  EF89  F01B         	goto	i2l227
  7802   0036EE                     i2l6561:
  7803                           
  7804                           ;ECU_Layer/DC_Motor/ecu_dc_motor.c: 61:         gpio_pin_write_logic(&(_dc_motor->dc_mot
      +                          or_pin[0x00U]), GPIO_LOW);
  7805   0036EE  C00A  F001         	movff	dc_motor_move_left@_dc_motor,i2gpio_pin_write_logic@_pin_config
  7806   0036F2  C00B  F002         	movff	dc_motor_move_left@_dc_motor+1,i2gpio_pin_write_logic@_pin_config+1
  7807   0036F6  0E00               	movlw	0
  7808   0036F8  6E03               	movwf	i2gpio_pin_write_logic@logic^0,c
  7809   0036FA  EC20  F015         	call	i2_gpio_pin_write_logic	;wreg free
  7810                           
  7811                           ;ECU_Layer/DC_Motor/ecu_dc_motor.c: 62:         gpio_pin_write_logic(&(_dc_motor->dc_mot
      +                          or_pin[0x01U]), GPIO_HIGH);
  7812   0036FE  0E01               	movlw	1
  7813   003700  240A               	addwf	dc_motor_move_left@_dc_motor^0,w,c
  7814   003702  6E01               	movwf	i2gpio_pin_write_logic@_pin_config^0,c
  7815   003704  0E00               	movlw	0
  7816   003706  200B               	addwfc	(dc_motor_move_left@_dc_motor+1)^0,w,c
  7817   003708  6E02               	movwf	(i2gpio_pin_write_logic@_pin_config+1)^0,c
  7818   00370A  0E01               	movlw	1
  7819   00370C  6E03               	movwf	i2gpio_pin_write_logic@logic^0,c
  7820   00370E  EC20  F015         	call	i2_gpio_pin_write_logic	;wreg free
  7821   003712                     i2l227:
  7822   003712  0012               	return		;funcret
  7823   003714                     __end_of_dc_motor_move_left:
  7824                           	callstack 0
  7825                           
  7826 ;; *************** function i2_gpio_pin_write_logic *****************
  7827 ;; Defined at:
  7828 ;;		line 75 in file "MCAL_Layer/GPIO/hal_gpio.c"
  7829 ;; Parameters:    Size  Location     Type
  7830 ;;  _pin_config     2    0[COMRAM] PTR const struct .
  7831 ;;		 -> buzzer(1), dc_motor_1.dc_motor_pin(2), dc_motor_1(2), 
  7832 ;;  logic           1    2[COMRAM] enum E3462
  7833 ;; Auto vars:     Size  Location     Type
  7834 ;;  ret             1    0        unsigned char 
  7835 ;; Return value:  Size  Location     Type
  7836 ;;                  1    wreg      unsigned char 
  7837 ;; Registers used:
  7838 ;;		wreg, fsr2l, fsr2h, status,2, status,0, prodl, prodh
  7839 ;; Tracked objects:
  7840 ;;		On entry : 0/0
  7841 ;;		On exit  : 0/0
  7842 ;;		Unchanged: 0/0
  7843 ;; Data sizes:     COMRAM   BANK0   BANK1   BANK2   BANK3   BANK4   BANK5   BANK6   BANK7   BANK8   BANK9  BANK10  BANK1
      +1  BANK12  BANK13  BANK14  BANK15
  7844 ;;      Params:         3       0       0       0       0       0       0       0       0       0       0       0       
      +0       0       0       0       0
  7845 ;;      Locals:         0       0       0       0       0       0       0       0       0       0       0       0       
      +0       0       0       0       0
  7846 ;;      Temps:          6       0       0       0       0       0       0       0       0       0       0       0       
      +0       0       0       0       0
  7847 ;;      Totals:         9       0       0       0       0       0       0       0       0       0       0       0       
      +0       0       0       0       0
  7848 ;;Total ram usage:        9 bytes
  7849 ;; Hardware stack levels used: 1
  7850 ;; This function calls:
  7851 ;;		Nothing
  7852 ;; This function is called by:
  7853 ;;		_dc_motor_move_left
  7854 ;;		_dc_motor_stop
  7855 ;; This function uses a non-reentrant model
  7856 ;;
  7857                           
  7858                           	psect	text43
  7859   002A40                     __ptext43:
  7860                           	callstack 0
  7861   002A40                     i2_gpio_pin_write_logic:
  7862                           	callstack 21
  7863   002A40                     
  7864                           ;MCAL_Layer/GPIO/hal_gpio.c: 77:     if(((void*)0) == _pin_config || _pin_config->pin > 
      +                          8 -1){
  7865   002A40  5001               	movf	i2gpio_pin_write_logic@_pin_config^0,w,c
  7866   002A42  1002               	iorwf	(i2gpio_pin_write_logic@_pin_config+1)^0,w,c
  7867   002A44  B4D8               	btfsc	status,2,c
  7868   002A46  EF27  F015         	goto	i2u556_41
  7869   002A4A  EF29  F015         	goto	i2u556_40
  7870   002A4E                     i2u556_41:
  7871   002A4E  EF3A  F015         	goto	i2l6529
  7872   002A52                     i2u556_40:
  7873   002A52  C001  FFD9         	movff	i2gpio_pin_write_logic@_pin_config,fsr2l
  7874   002A56  C002  FFDA         	movff	i2gpio_pin_write_logic@_pin_config+1,fsr2h
  7875   002A5A  30DF               	rrcf	223,w,c
  7876   002A5C  32E8               	rrcf	wreg,f,c
  7877   002A5E  32E8               	rrcf	wreg,f,c
  7878   002A60  0B07               	andlw	7
  7879   002A62  6E04               	movwf	??i2_gpio_pin_write_logic^0,c
  7880   002A64  0E07               	movlw	7
  7881   002A66  6404               	cpfsgt	??i2_gpio_pin_write_logic^0,c
  7882   002A68  EF38  F015         	goto	i2u557_41
  7883   002A6C  EF3A  F015         	goto	i2u557_40
  7884   002A70                     i2u557_41:
  7885   002A70  EF9B  F015         	goto	i2l6537
  7886   002A74                     i2u557_40:
  7887   002A74                     i2l6529:
  7888                           
  7889                           ;MCAL_Layer/GPIO/hal_gpio.c: 79:     }
  7890   002A74  EFB0  F015         	goto	i2l735
  7891   002A78                     i2l6531:
  7892                           
  7893                           ;MCAL_Layer/GPIO/hal_gpio.c: 83:                 (*lat_registers[_pin_config->port] &= ~
      +                          ((uint8)1 << _pin_config->pin));
  7894   002A78  C001  FFD9         	movff	i2gpio_pin_write_logic@_pin_config,fsr2l
  7895   002A7C  C002  FFDA         	movff	i2gpio_pin_write_logic@_pin_config+1,fsr2h
  7896   002A80  30DF               	rrcf	223,w,c
  7897   002A82  32E8               	rrcf	wreg,f,c
  7898   002A84  32E8               	rrcf	wreg,f,c
  7899   002A86  0B07               	andlw	7
  7900   002A88  6E04               	movwf	??i2_gpio_pin_write_logic^0,c
  7901   002A8A  0E01               	movlw	1
  7902   002A8C  6E05               	movwf	(??i2_gpio_pin_write_logic+1)^0,c
  7903   002A8E  2A04               	incf	??i2_gpio_pin_write_logic^0,f,c
  7904   002A90  EF4C  F015         	goto	i2u558_44
  7905   002A94                     i2u558_45:
  7906   002A94  90D8               	bcf	status,0,c
  7907   002A96  3605               	rlcf	(??i2_gpio_pin_write_logic+1)^0,f,c
  7908   002A98                     i2u558_44:
  7909   002A98  2E04               	decfsz	??i2_gpio_pin_write_logic^0,f,c
  7910   002A9A  EF4A  F015         	goto	i2u558_45
  7911   002A9E  5005               	movf	(??i2_gpio_pin_write_logic+1)^0,w,c
  7912   002AA0  0AFF               	xorlw	255
  7913   002AA2  6E06               	movwf	(??i2_gpio_pin_write_logic+2)^0,c
  7914   002AA4  C001  FFD9         	movff	i2gpio_pin_write_logic@_pin_config,fsr2l
  7915   002AA8  C002  FFDA         	movff	i2gpio_pin_write_logic@_pin_config+1,fsr2h
  7916   002AAC  50DF               	movf	223,w,c
  7917   002AAE  0B07               	andlw	7
  7918   002AB0  6E07               	movwf	(??i2_gpio_pin_write_logic+3)^0,c
  7919   002AB2  5007               	movf	(??i2_gpio_pin_write_logic+3)^0,w,c
  7920   002AB4  0D02               	mullw	2
  7921   002AB6  0ECB               	movlw	low _lat_registers
  7922   002AB8  24F3               	addwf	243,w,c
  7923   002ABA  6ED9               	movwf	fsr2l,c
  7924   002ABC  0E00               	movlw	high _lat_registers
  7925   002ABE  20F4               	addwfc	prodh,w,c
  7926   002AC0  6EDA               	movwf	fsr2h,c
  7927   002AC2  CFDE F008          	movff	postinc2,??i2_gpio_pin_write_logic+4
  7928   002AC6  CFDD F009          	movff	postdec2,??i2_gpio_pin_write_logic+5
  7929   002ACA  C008  FFD9         	movff	??i2_gpio_pin_write_logic+4,fsr2l
  7930   002ACE  C009  FFDA         	movff	??i2_gpio_pin_write_logic+5,fsr2h
  7931   002AD2  5006               	movf	(??i2_gpio_pin_write_logic+2)^0,w,c
  7932   002AD4  16DF               	andwf	indf2,f,c
  7933                           
  7934                           ;MCAL_Layer/GPIO/hal_gpio.c: 84:                 break;
  7935   002AD6  EFB0  F015         	goto	i2l735
  7936   002ADA                     i2l6533:
  7937                           
  7938                           ;MCAL_Layer/GPIO/hal_gpio.c: 86:                 (*lat_registers[_pin_config->port] |= (
      +                          (uint8)1 << _pin_config->pin));
  7939   002ADA  C001  FFD9         	movff	i2gpio_pin_write_logic@_pin_config,fsr2l
  7940   002ADE  C002  FFDA         	movff	i2gpio_pin_write_logic@_pin_config+1,fsr2h
  7941   002AE2  30DF               	rrcf	223,w,c
  7942   002AE4  32E8               	rrcf	wreg,f,c
  7943   002AE6  32E8               	rrcf	wreg,f,c
  7944   002AE8  0B07               	andlw	7
  7945   002AEA  6E04               	movwf	??i2_gpio_pin_write_logic^0,c
  7946   002AEC  0E01               	movlw	1
  7947   002AEE  6E05               	movwf	(??i2_gpio_pin_write_logic+1)^0,c
  7948   002AF0  2A04               	incf	??i2_gpio_pin_write_logic^0,f,c
  7949   002AF2  EF7D  F015         	goto	i2u559_44
  7950   002AF6                     i2u559_45:
  7951   002AF6  90D8               	bcf	status,0,c
  7952   002AF8  3605               	rlcf	(??i2_gpio_pin_write_logic+1)^0,f,c
  7953   002AFA                     i2u559_44:
  7954   002AFA  2E04               	decfsz	??i2_gpio_pin_write_logic^0,f,c
  7955   002AFC  EF7B  F015         	goto	i2u559_45
  7956   002B00  C001  FFD9         	movff	i2gpio_pin_write_logic@_pin_config,fsr2l
  7957   002B04  C002  FFDA         	movff	i2gpio_pin_write_logic@_pin_config+1,fsr2h
  7958   002B08  50DF               	movf	223,w,c
  7959   002B0A  0B07               	andlw	7
  7960   002B0C  6E06               	movwf	(??i2_gpio_pin_write_logic+2)^0,c
  7961   002B0E  5006               	movf	(??i2_gpio_pin_write_logic+2)^0,w,c
  7962   002B10  0D02               	mullw	2
  7963   002B12  0ECB               	movlw	low _lat_registers
  7964   002B14  24F3               	addwf	243,w,c
  7965   002B16  6ED9               	movwf	fsr2l,c
  7966   002B18  0E00               	movlw	high _lat_registers
  7967   002B1A  20F4               	addwfc	prodh,w,c
  7968   002B1C  6EDA               	movwf	fsr2h,c
  7969   002B1E  CFDE F007          	movff	postinc2,??i2_gpio_pin_write_logic+3
  7970   002B22  CFDD F008          	movff	postdec2,??i2_gpio_pin_write_logic+4
  7971   002B26  C007  FFD9         	movff	??i2_gpio_pin_write_logic+3,fsr2l
  7972   002B2A  C008  FFDA         	movff	??i2_gpio_pin_write_logic+4,fsr2h
  7973   002B2E  5005               	movf	(??i2_gpio_pin_write_logic+1)^0,w,c
  7974   002B30  12DF               	iorwf	indf2,f,c
  7975                           
  7976                           ;MCAL_Layer/GPIO/hal_gpio.c: 87:                 break;
  7977   002B32  EFB0  F015         	goto	i2l735
  7978   002B36                     i2l6537:
  7979   002B36  5003               	movf	i2gpio_pin_write_logic@logic^0,w,c
  7980   002B38  6E04               	movwf	??i2_gpio_pin_write_logic^0,c
  7981   002B3A  6A05               	clrf	(??i2_gpio_pin_write_logic+1)^0,c
  7982                           
  7983                           ; Switch on 2 bytes has been partitioned into a top level switch of size 1, and 1 sub-sw
      +                          itches
  7984                           ; Switch size 1, requested type "simple"
  7985                           ; Number of cases is 1, Range of values is 0 to 0
  7986                           ; switch strategies available:
  7987                           ; Name         Instructions Cycles
  7988                           ; simple_byte            4     3 (average)
  7989                           ;	Chosen strategy is simple_byte
  7990   002B3C  5005               	movf	(??i2_gpio_pin_write_logic+1)^0,w,c
  7991   002B3E  0A00               	xorlw	0	; case 0
  7992   002B40  B4D8               	btfsc	status,2,c
  7993   002B42  EFA5  F015         	goto	i2l10823
  7994   002B46  EF3A  F015         	goto	i2l6529
  7995   002B4A                     i2l10823:
  7996                           
  7997                           ; Switch size 1, requested type "simple"
  7998                           ; Number of cases is 2, Range of values is 0 to 1
  7999                           ; switch strategies available:
  8000                           ; Name         Instructions Cycles
  8001                           ; simple_byte            7     4 (average)
  8002                           ;	Chosen strategy is simple_byte
  8003   002B4A  5004               	movf	??i2_gpio_pin_write_logic^0,w,c
  8004   002B4C  0A00               	xorlw	0	; case 0
  8005   002B4E  B4D8               	btfsc	status,2,c
  8006   002B50  EF3C  F015         	goto	i2l6531
  8007   002B54  0A01               	xorlw	1	; case 1
  8008   002B56  B4D8               	btfsc	status,2,c
  8009   002B58  EF6D  F015         	goto	i2l6533
  8010   002B5C  EF3A  F015         	goto	i2l6529
  8011   002B60                     i2l735:
  8012   002B60  0012               	return		;funcret
  8013   002B62                     __end_ofi2_gpio_pin_write_logic:
  8014                           	callstack 0
  8015                           
  8016 ;; *************** function _RB7_ISR *****************
  8017 ;; Defined at:
  8018 ;;		line 164 in file "MCAL_Layer/Interrupt/mcal_external_interrupt.c"
  8019 ;; Parameters:    Size  Location     Type
  8020 ;;  RB7_Source      1    wreg     unsigned char 
  8021 ;; Auto vars:     Size  Location     Type
  8022 ;;  RB7_Source      1    0[COMRAM] unsigned char 
  8023 ;; Return value:  Size  Location     Type
  8024 ;;                  1    wreg      void 
  8025 ;; Registers used:
  8026 ;;		wreg, status,2, status,0
  8027 ;; Tracked objects:
  8028 ;;		On entry : 0/0
  8029 ;;		On exit  : 0/0
  8030 ;;		Unchanged: 0/0
  8031 ;; Data sizes:     COMRAM   BANK0   BANK1   BANK2   BANK3   BANK4   BANK5   BANK6   BANK7   BANK8   BANK9  BANK10  BANK1
      +1  BANK12  BANK13  BANK14  BANK15
  8032 ;;      Params:         0       0       0       0       0       0       0       0       0       0       0       0       
      +0       0       0       0       0
  8033 ;;      Locals:         1       0       0       0       0       0       0       0       0       0       0       0       
      +0       0       0       0       0
  8034 ;;      Temps:          0       0       0       0       0       0       0       0       0       0       0       0       
      +0       0       0       0       0
  8035 ;;      Totals:         1       0       0       0       0       0       0       0       0       0       0       0       
      +0       0       0       0       0
  8036 ;;Total ram usage:        1 bytes
  8037 ;; Hardware stack levels used: 1
  8038 ;; This function calls:
  8039 ;;		Nothing
  8040 ;; This function is called by:
  8041 ;;		_InterruptManager
  8042 ;; This function uses a non-reentrant model
  8043 ;;
  8044                           
  8045                           	psect	text44
  8046   003848                     __ptext44:
  8047                           	callstack 0
  8048   003848                     _RB7_ISR:
  8049                           	callstack 24
  8050                           
  8051                           ;incstack = 0
  8052                           ;RB7_ISR@RB7_Source stored from wreg
  8053   003848  6E01               	movwf	RB7_ISR@RB7_Source^0,c
  8054   00384A                     
  8055                           ;MCAL_Layer/Interrupt/mcal_external_interrupt.c: 166:     (INTCONbits.RBIF = 0);
  8056   00384A  90F2               	bcf	242,0,c	;volatile
  8057   00384C                     
  8058                           ;MCAL_Layer/Interrupt/mcal_external_interrupt.c: 169:     if(0 == RB7_Source){
  8059   00384C  5001               	movf	RB7_ISR@RB7_Source^0,w,c
  8060   00384E  A4D8               	btfss	status,2,c
  8061   003850  EF2C  F01C         	goto	i2u649_41
  8062   003854  EF2E  F01C         	goto	i2u649_40
  8063   003858                     i2u649_41:
  8064   003858  EF30  F01C         	goto	i2l7269
  8065   00385C                     i2u649_40:
  8066   00385C  EF30  F01C         	goto	i2l1075
  8067   003860                     i2l7269:
  8068   003860                     i2l1075:
  8069   003860  0012               	return		;funcret
  8070   003862                     __end_of_RB7_ISR:
  8071                           	callstack 0
  8072                           
  8073 ;; *************** function _RB6_ISR *****************
  8074 ;; Defined at:
  8075 ;;		line 145 in file "MCAL_Layer/Interrupt/mcal_external_interrupt.c"
  8076 ;; Parameters:    Size  Location     Type
  8077 ;;  RB6_Source      1    wreg     unsigned char 
  8078 ;; Auto vars:     Size  Location     Type
  8079 ;;  RB6_Source      1    0[COMRAM] unsigned char 
  8080 ;; Return value:  Size  Location     Type
  8081 ;;                  1    wreg      void 
  8082 ;; Registers used:
  8083 ;;		wreg, status,2, status,0
  8084 ;; Tracked objects:
  8085 ;;		On entry : 0/0
  8086 ;;		On exit  : 0/0
  8087 ;;		Unchanged: 0/0
  8088 ;; Data sizes:     COMRAM   BANK0   BANK1   BANK2   BANK3   BANK4   BANK5   BANK6   BANK7   BANK8   BANK9  BANK10  BANK1
      +1  BANK12  BANK13  BANK14  BANK15
  8089 ;;      Params:         0       0       0       0       0       0       0       0       0       0       0       0       
      +0       0       0       0       0
  8090 ;;      Locals:         1       0       0       0       0       0       0       0       0       0       0       0       
      +0       0       0       0       0
  8091 ;;      Temps:          0       0       0       0       0       0       0       0       0       0       0       0       
      +0       0       0       0       0
  8092 ;;      Totals:         1       0       0       0       0       0       0       0       0       0       0       0       
      +0       0       0       0       0
  8093 ;;Total ram usage:        1 bytes
  8094 ;; Hardware stack levels used: 1
  8095 ;; This function calls:
  8096 ;;		Nothing
  8097 ;; This function is called by:
  8098 ;;		_InterruptManager
  8099 ;; This function uses a non-reentrant model
  8100 ;;
  8101                           
  8102                           	psect	text45
  8103   003862                     __ptext45:
  8104                           	callstack 0
  8105   003862                     _RB6_ISR:
  8106                           	callstack 24
  8107                           
  8108                           ;incstack = 0
  8109                           ;RB6_ISR@RB6_Source stored from wreg
  8110   003862  6E01               	movwf	RB6_ISR@RB6_Source^0,c
  8111   003864                     
  8112                           ;MCAL_Layer/Interrupt/mcal_external_interrupt.c: 147:     (INTCONbits.RBIF = 0);
  8113   003864  90F2               	bcf	242,0,c	;volatile
  8114   003866                     
  8115                           ;MCAL_Layer/Interrupt/mcal_external_interrupt.c: 150:     if(0 == RB6_Source){
  8116   003866  5001               	movf	RB6_ISR@RB6_Source^0,w,c
  8117   003868  A4D8               	btfss	status,2,c
  8118   00386A  EF39  F01C         	goto	i2u648_41
  8119   00386E  EF3B  F01C         	goto	i2u648_40
  8120   003872                     i2u648_41:
  8121   003872  EF3D  F01C         	goto	i2l7255
  8122   003876                     i2u648_40:
  8123   003876  EF3D  F01C         	goto	i2l1064
  8124   00387A                     i2l7255:
  8125   00387A                     i2l1064:
  8126   00387A  0012               	return		;funcret
  8127   00387C                     __end_of_RB6_ISR:
  8128                           	callstack 0
  8129                           
  8130 ;; *************** function _RB5_ISR *****************
  8131 ;; Defined at:
  8132 ;;		line 126 in file "MCAL_Layer/Interrupt/mcal_external_interrupt.c"
  8133 ;; Parameters:    Size  Location     Type
  8134 ;;  RB5_Source      1    wreg     unsigned char 
  8135 ;; Auto vars:     Size  Location     Type
  8136 ;;  RB5_Source      1    0[COMRAM] unsigned char 
  8137 ;; Return value:  Size  Location     Type
  8138 ;;                  1    wreg      void 
  8139 ;; Registers used:
  8140 ;;		wreg, status,2, status,0
  8141 ;; Tracked objects:
  8142 ;;		On entry : 0/0
  8143 ;;		On exit  : 0/0
  8144 ;;		Unchanged: 0/0
  8145 ;; Data sizes:     COMRAM   BANK0   BANK1   BANK2   BANK3   BANK4   BANK5   BANK6   BANK7   BANK8   BANK9  BANK10  BANK1
      +1  BANK12  BANK13  BANK14  BANK15
  8146 ;;      Params:         0       0       0       0       0       0       0       0       0       0       0       0       
      +0       0       0       0       0
  8147 ;;      Locals:         1       0       0       0       0       0       0       0       0       0       0       0       
      +0       0       0       0       0
  8148 ;;      Temps:          0       0       0       0       0       0       0       0       0       0       0       0       
      +0       0       0       0       0
  8149 ;;      Totals:         1       0       0       0       0       0       0       0       0       0       0       0       
      +0       0       0       0       0
  8150 ;;Total ram usage:        1 bytes
  8151 ;; Hardware stack levels used: 1
  8152 ;; This function calls:
  8153 ;;		Nothing
  8154 ;; This function is called by:
  8155 ;;		_InterruptManager
  8156 ;; This function uses a non-reentrant model
  8157 ;;
  8158                           
  8159                           	psect	text46
  8160   00387C                     __ptext46:
  8161                           	callstack 0
  8162   00387C                     _RB5_ISR:
  8163                           	callstack 24
  8164                           
  8165                           ;incstack = 0
  8166                           ;RB5_ISR@RB5_Source stored from wreg
  8167   00387C  6E01               	movwf	RB5_ISR@RB5_Source^0,c
  8168   00387E                     
  8169                           ;MCAL_Layer/Interrupt/mcal_external_interrupt.c: 128:     (INTCONbits.RBIF = 0);
  8170   00387E  90F2               	bcf	242,0,c	;volatile
  8171   003880                     
  8172                           ;MCAL_Layer/Interrupt/mcal_external_interrupt.c: 131:     if(0 == RB5_Source){
  8173   003880  5001               	movf	RB5_ISR@RB5_Source^0,w,c
  8174   003882  A4D8               	btfss	status,2,c
  8175   003884  EF46  F01C         	goto	i2u647_41
  8176   003888  EF48  F01C         	goto	i2u647_40
  8177   00388C                     i2u647_41:
  8178   00388C  EF4A  F01C         	goto	i2l7241
  8179   003890                     i2u647_40:
  8180   003890  EF4A  F01C         	goto	i2l1053
  8181   003894                     i2l7241:
  8182   003894                     i2l1053:
  8183   003894  0012               	return		;funcret
  8184   003896                     __end_of_RB5_ISR:
  8185                           	callstack 0
  8186                           
  8187 ;; *************** function _RB4_ISR *****************
  8188 ;; Defined at:
  8189 ;;		line 107 in file "MCAL_Layer/Interrupt/mcal_external_interrupt.c"
  8190 ;; Parameters:    Size  Location     Type
  8191 ;;  RB4_Source      1    wreg     unsigned char 
  8192 ;; Auto vars:     Size  Location     Type
  8193 ;;  RB4_Source      1    0[COMRAM] unsigned char 
  8194 ;; Return value:  Size  Location     Type
  8195 ;;                  1    wreg      void 
  8196 ;; Registers used:
  8197 ;;		wreg, status,2, status,0
  8198 ;; Tracked objects:
  8199 ;;		On entry : 0/0
  8200 ;;		On exit  : 0/0
  8201 ;;		Unchanged: 0/0
  8202 ;; Data sizes:     COMRAM   BANK0   BANK1   BANK2   BANK3   BANK4   BANK5   BANK6   BANK7   BANK8   BANK9  BANK10  BANK1
      +1  BANK12  BANK13  BANK14  BANK15
  8203 ;;      Params:         0       0       0       0       0       0       0       0       0       0       0       0       
      +0       0       0       0       0
  8204 ;;      Locals:         1       0       0       0       0       0       0       0       0       0       0       0       
      +0       0       0       0       0
  8205 ;;      Temps:          0       0       0       0       0       0       0       0       0       0       0       0       
      +0       0       0       0       0
  8206 ;;      Totals:         1       0       0       0       0       0       0       0       0       0       0       0       
      +0       0       0       0       0
  8207 ;;Total ram usage:        1 bytes
  8208 ;; Hardware stack levels used: 1
  8209 ;; This function calls:
  8210 ;;		Nothing
  8211 ;; This function is called by:
  8212 ;;		_InterruptManager
  8213 ;; This function uses a non-reentrant model
  8214 ;;
  8215                           
  8216                           	psect	text47
  8217   003896                     __ptext47:
  8218                           	callstack 0
  8219   003896                     _RB4_ISR:
  8220                           	callstack 24
  8221                           
  8222                           ;incstack = 0
  8223                           ;RB4_ISR@RB4_Source stored from wreg
  8224   003896  6E01               	movwf	RB4_ISR@RB4_Source^0,c
  8225   003898                     
  8226                           ;MCAL_Layer/Interrupt/mcal_external_interrupt.c: 109:     (INTCONbits.RBIF = 0);
  8227   003898  90F2               	bcf	242,0,c	;volatile
  8228   00389A                     
  8229                           ;MCAL_Layer/Interrupt/mcal_external_interrupt.c: 112:     if(0 == RB4_Source){
  8230   00389A  5001               	movf	RB4_ISR@RB4_Source^0,w,c
  8231   00389C  A4D8               	btfss	status,2,c
  8232   00389E  EF53  F01C         	goto	i2u646_41
  8233   0038A2  EF55  F01C         	goto	i2u646_40
  8234   0038A6                     i2u646_41:
  8235   0038A6  EF57  F01C         	goto	i2l7227
  8236   0038AA                     i2u646_40:
  8237   0038AA  EF57  F01C         	goto	i2l1042
  8238   0038AE                     i2l7227:
  8239   0038AE                     i2l1042:
  8240   0038AE  0012               	return		;funcret
  8241   0038B0                     __end_of_RB4_ISR:
  8242                           	callstack 0
  8243                           
  8244 ;; *************** function _MSSP_SPI_ISR *****************
  8245 ;; Defined at:
  8246 ;;		line 130 in file "MCAL_Layer/SPI/hal_spi.c"
  8247 ;; Parameters:    Size  Location     Type
  8248 ;;		None
  8249 ;; Auto vars:     Size  Location     Type
  8250 ;;		None
  8251 ;; Return value:  Size  Location     Type
  8252 ;;                  1    wreg      void 
  8253 ;; Registers used:
  8254 ;;		None
  8255 ;; Tracked objects:
  8256 ;;		On entry : 0/0
  8257 ;;		On exit  : 0/0
  8258 ;;		Unchanged: 0/0
  8259 ;; Data sizes:     COMRAM   BANK0   BANK1   BANK2   BANK3   BANK4   BANK5   BANK6   BANK7   BANK8   BANK9  BANK10  BANK1
      +1  BANK12  BANK13  BANK14  BANK15
  8260 ;;      Params:         0       0       0       0       0       0       0       0       0       0       0       0       
      +0       0       0       0       0
  8261 ;;      Locals:         0       0       0       0       0       0       0       0       0       0       0       0       
      +0       0       0       0       0
  8262 ;;      Temps:          0       0       0       0       0       0       0       0       0       0       0       0       
      +0       0       0       0       0
  8263 ;;      Totals:         0       0       0       0       0       0       0       0       0       0       0       0       
      +0       0       0       0       0
  8264 ;;Total ram usage:        0 bytes
  8265 ;; Hardware stack levels used: 1
  8266 ;; This function calls:
  8267 ;;		Nothing
  8268 ;; This function is called by:
  8269 ;;		_InterruptManager
  8270 ;; This function uses a non-reentrant model
  8271 ;;
  8272                           
  8273                           	psect	text48
  8274   00390A                     __ptext48:
  8275                           	callstack 0
  8276   00390A                     _MSSP_SPI_ISR:
  8277                           	callstack 24
  8278   00390A                     
  8279                           ;MCAL_Layer/SPI/hal_spi.c: 132:     (PIR1bits.SSPIF = 0);
  8280   00390A  969E               	bcf	158,3,c	;volatile
  8281                           
  8282                           ;MCAL_Layer/SPI/hal_spi.c: 133:     (PIR1bits.SSPIF = 0);
  8283   00390C  969E               	bcf	158,3,c	;volatile
  8284   00390E  0012               	return		;funcret
  8285   003910                     __end_of_MSSP_SPI_ISR:
  8286                           	callstack 0
  8287                           
  8288 ;; *************** function _MSSP_I2C_ISR *****************
  8289 ;; Defined at:
  8290 ;;		line 329 in file "MCAL_Layer/I2C/hal_i2c.c"
  8291 ;; Parameters:    Size  Location     Type
  8292 ;;		None
  8293 ;; Auto vars:     Size  Location     Type
  8294 ;;		None
  8295 ;; Return value:  Size  Location     Type
  8296 ;;                  1    wreg      void 
  8297 ;; Registers used:
  8298 ;;		None
  8299 ;; Tracked objects:
  8300 ;;		On entry : 0/0
  8301 ;;		On exit  : 0/0
  8302 ;;		Unchanged: 0/0
  8303 ;; Data sizes:     COMRAM   BANK0   BANK1   BANK2   BANK3   BANK4   BANK5   BANK6   BANK7   BANK8   BANK9  BANK10  BANK1
      +1  BANK12  BANK13  BANK14  BANK15
  8304 ;;      Params:         0       0       0       0       0       0       0       0       0       0       0       0       
      +0       0       0       0       0
  8305 ;;      Locals:         0       0       0       0       0       0       0       0       0       0       0       0       
      +0       0       0       0       0
  8306 ;;      Temps:          0       0       0       0       0       0       0       0       0       0       0       0       
      +0       0       0       0       0
  8307 ;;      Totals:         0       0       0       0       0       0       0       0       0       0       0       0       
      +0       0       0       0       0
  8308 ;;Total ram usage:        0 bytes
  8309 ;; Hardware stack levels used: 1
  8310 ;; This function calls:
  8311 ;;		Nothing
  8312 ;; This function is called by:
  8313 ;;		_InterruptManager
  8314 ;; This function uses a non-reentrant model
  8315 ;;
  8316                           
  8317                           	psect	text49
  8318   003910                     __ptext49:
  8319                           	callstack 0
  8320   003910                     _MSSP_I2C_ISR:
  8321                           	callstack 24
  8322   003910                     
  8323                           ;MCAL_Layer/I2C/hal_i2c.c: 331:     (PIR1bits.SSPIF = 0);
  8324   003910  969E               	bcf	158,3,c	;volatile
  8325   003912  0012               	return		;funcret
  8326   003914                     __end_of_MSSP_I2C_ISR:
  8327                           	callstack 0
  8328                           
  8329 ;; *************** function _MSSP_I2C_BC_ISR *****************
  8330 ;; Defined at:
  8331 ;;		line 338 in file "MCAL_Layer/I2C/hal_i2c.c"
  8332 ;; Parameters:    Size  Location     Type
  8333 ;;		None
  8334 ;; Auto vars:     Size  Location     Type
  8335 ;;		None
  8336 ;; Return value:  Size  Location     Type
  8337 ;;                  1    wreg      void 
  8338 ;; Registers used:
  8339 ;;		None
  8340 ;; Tracked objects:
  8341 ;;		On entry : 0/0
  8342 ;;		On exit  : 0/0
  8343 ;;		Unchanged: 0/0
  8344 ;; Data sizes:     COMRAM   BANK0   BANK1   BANK2   BANK3   BANK4   BANK5   BANK6   BANK7   BANK8   BANK9  BANK10  BANK1
      +1  BANK12  BANK13  BANK14  BANK15
  8345 ;;      Params:         0       0       0       0       0       0       0       0       0       0       0       0       
      +0       0       0       0       0
  8346 ;;      Locals:         0       0       0       0       0       0       0       0       0       0       0       0       
      +0       0       0       0       0
  8347 ;;      Temps:          0       0       0       0       0       0       0       0       0       0       0       0       
      +0       0       0       0       0
  8348 ;;      Totals:         0       0       0       0       0       0       0       0       0       0       0       0       
      +0       0       0       0       0
  8349 ;;Total ram usage:        0 bytes
  8350 ;; Hardware stack levels used: 1
  8351 ;; This function calls:
  8352 ;;		Nothing
  8353 ;; This function is called by:
  8354 ;;		_InterruptManager
  8355 ;; This function uses a non-reentrant model
  8356 ;;
  8357                           
  8358                           	psect	text50
  8359   003914                     __ptext50:
  8360                           	callstack 0
  8361   003914                     _MSSP_I2C_BC_ISR:
  8362                           	callstack 24
  8363   003914                     
  8364                           ;MCAL_Layer/I2C/hal_i2c.c: 340:     (PIR2bits.BCLIF = 0);
  8365   003914  96A1               	bcf	161,3,c	;volatile
  8366   003916  0012               	return		;funcret
  8367   003918                     __end_of_MSSP_I2C_BC_ISR:
  8368                           	callstack 0
  8369                           
  8370 ;; *************** function _INT2_ISR *****************
  8371 ;; Defined at:
  8372 ;;		line 95 in file "MCAL_Layer/Interrupt/mcal_external_interrupt.c"
  8373 ;; Parameters:    Size  Location     Type
  8374 ;;		None
  8375 ;; Auto vars:     Size  Location     Type
  8376 ;;		None
  8377 ;; Return value:  Size  Location     Type
  8378 ;;                  1    wreg      void 
  8379 ;; Registers used:
  8380 ;;		None
  8381 ;; Tracked objects:
  8382 ;;		On entry : 0/0
  8383 ;;		On exit  : 0/0
  8384 ;;		Unchanged: 0/0
  8385 ;; Data sizes:     COMRAM   BANK0   BANK1   BANK2   BANK3   BANK4   BANK5   BANK6   BANK7   BANK8   BANK9  BANK10  BANK1
      +1  BANK12  BANK13  BANK14  BANK15
  8386 ;;      Params:         0       0       0       0       0       0       0       0       0       0       0       0       
      +0       0       0       0       0
  8387 ;;      Locals:         0       0       0       0       0       0       0       0       0       0       0       0       
      +0       0       0       0       0
  8388 ;;      Temps:          0       0       0       0       0       0       0       0       0       0       0       0       
      +0       0       0       0       0
  8389 ;;      Totals:         0       0       0       0       0       0       0       0       0       0       0       0       
      +0       0       0       0       0
  8390 ;;Total ram usage:        0 bytes
  8391 ;; Hardware stack levels used: 1
  8392 ;; This function calls:
  8393 ;;		Nothing
  8394 ;; This function is called by:
  8395 ;;		_InterruptManager
  8396 ;; This function uses a non-reentrant model
  8397 ;;
  8398                           
  8399                           	psect	text51
  8400   003918                     __ptext51:
  8401                           	callstack 0
  8402   003918                     _INT2_ISR:
  8403                           	callstack 24
  8404   003918                     
  8405                           ;MCAL_Layer/Interrupt/mcal_external_interrupt.c: 97:     (INTCON3bits.INT2IF = 0);
  8406   003918  92F0               	bcf	240,1,c	;volatile
  8407   00391A  0012               	return		;funcret
  8408   00391C                     __end_of_INT2_ISR:
  8409                           	callstack 0
  8410                           
  8411 ;; *************** function _INT1_ISR *****************
  8412 ;; Defined at:
  8413 ;;		line 86 in file "MCAL_Layer/Interrupt/mcal_external_interrupt.c"
  8414 ;; Parameters:    Size  Location     Type
  8415 ;;		None
  8416 ;; Auto vars:     Size  Location     Type
  8417 ;;		None
  8418 ;; Return value:  Size  Location     Type
  8419 ;;                  1    wreg      void 
  8420 ;; Registers used:
  8421 ;;		None
  8422 ;; Tracked objects:
  8423 ;;		On entry : 0/0
  8424 ;;		On exit  : 0/0
  8425 ;;		Unchanged: 0/0
  8426 ;; Data sizes:     COMRAM   BANK0   BANK1   BANK2   BANK3   BANK4   BANK5   BANK6   BANK7   BANK8   BANK9  BANK10  BANK1
      +1  BANK12  BANK13  BANK14  BANK15
  8427 ;;      Params:         0       0       0       0       0       0       0       0       0       0       0       0       
      +0       0       0       0       0
  8428 ;;      Locals:         0       0       0       0       0       0       0       0       0       0       0       0       
      +0       0       0       0       0
  8429 ;;      Temps:          0       0       0       0       0       0       0       0       0       0       0       0       
      +0       0       0       0       0
  8430 ;;      Totals:         0       0       0       0       0       0       0       0       0       0       0       0       
      +0       0       0       0       0
  8431 ;;Total ram usage:        0 bytes
  8432 ;; Hardware stack levels used: 1
  8433 ;; This function calls:
  8434 ;;		Nothing
  8435 ;; This function is called by:
  8436 ;;		_InterruptManager
  8437 ;; This function uses a non-reentrant model
  8438 ;;
  8439                           
  8440                           	psect	text52
  8441   00391C                     __ptext52:
  8442                           	callstack 0
  8443   00391C                     _INT1_ISR:
  8444                           	callstack 24
  8445   00391C                     
  8446                           ;MCAL_Layer/Interrupt/mcal_external_interrupt.c: 88:     (INTCON3bits.INT1IF = 0);
  8447   00391C  90F0               	bcf	240,0,c	;volatile
  8448   00391E  0012               	return		;funcret
  8449   003920                     __end_of_INT1_ISR:
  8450                           	callstack 0
  8451                           
  8452 ;; *************** function _INT0_ISR *****************
  8453 ;; Defined at:
  8454 ;;		line 74 in file "MCAL_Layer/Interrupt/mcal_external_interrupt.c"
  8455 ;; Parameters:    Size  Location     Type
  8456 ;;		None
  8457 ;; Auto vars:     Size  Location     Type
  8458 ;;		None
  8459 ;; Return value:  Size  Location     Type
  8460 ;;                  1    wreg      void 
  8461 ;; Registers used:
  8462 ;;		None
  8463 ;; Tracked objects:
  8464 ;;		On entry : 0/0
  8465 ;;		On exit  : 0/0
  8466 ;;		Unchanged: 0/0
  8467 ;; Data sizes:     COMRAM   BANK0   BANK1   BANK2   BANK3   BANK4   BANK5   BANK6   BANK7   BANK8   BANK9  BANK10  BANK1
      +1  BANK12  BANK13  BANK14  BANK15
  8468 ;;      Params:         0       0       0       0       0       0       0       0       0       0       0       0       
      +0       0       0       0       0
  8469 ;;      Locals:         0       0       0       0       0       0       0       0       0       0       0       0       
      +0       0       0       0       0
  8470 ;;      Temps:          0       0       0       0       0       0       0       0       0       0       0       0       
      +0       0       0       0       0
  8471 ;;      Totals:         0       0       0       0       0       0       0       0       0       0       0       0       
      +0       0       0       0       0
  8472 ;;Total ram usage:        0 bytes
  8473 ;; Hardware stack levels used: 1
  8474 ;; This function calls:
  8475 ;;		Nothing
  8476 ;; This function is called by:
  8477 ;;		_InterruptManager
  8478 ;; This function uses a non-reentrant model
  8479 ;;
  8480                           
  8481                           	psect	text53
  8482   003920                     __ptext53:
  8483                           	callstack 0
  8484   003920                     _INT0_ISR:
  8485                           	callstack 24
  8486   003920                     
  8487                           ;MCAL_Layer/Interrupt/mcal_external_interrupt.c: 76:     (INTCONbits.INT0IF = 0);
  8488   003920  92F2               	bcf	242,1,c	;volatile
  8489   003922  0012               	return		;funcret
  8490   003924                     __end_of_INT0_ISR:
  8491                           	callstack 0
  8492                           
  8493 ;; *************** function _EUSART_TX_ISR *****************
  8494 ;; Defined at:
  8495 ;;		line 260 in file "MCAL_Layer/usart/hal_usart.c"
  8496 ;; Parameters:    Size  Location     Type
  8497 ;;		None
  8498 ;; Auto vars:     Size  Location     Type
  8499 ;;		None
  8500 ;; Return value:  Size  Location     Type
  8501 ;;                  1    wreg      void 
  8502 ;; Registers used:
  8503 ;;		None
  8504 ;; Tracked objects:
  8505 ;;		On entry : 0/0
  8506 ;;		On exit  : 0/0
  8507 ;;		Unchanged: 0/0
  8508 ;; Data sizes:     COMRAM   BANK0   BANK1   BANK2   BANK3   BANK4   BANK5   BANK6   BANK7   BANK8   BANK9  BANK10  BANK1
      +1  BANK12  BANK13  BANK14  BANK15
  8509 ;;      Params:         0       0       0       0       0       0       0       0       0       0       0       0       
      +0       0       0       0       0
  8510 ;;      Locals:         0       0       0       0       0       0       0       0       0       0       0       0       
      +0       0       0       0       0
  8511 ;;      Temps:          0       0       0       0       0       0       0       0       0       0       0       0       
      +0       0       0       0       0
  8512 ;;      Totals:         0       0       0       0       0       0       0       0       0       0       0       0       
      +0       0       0       0       0
  8513 ;;Total ram usage:        0 bytes
  8514 ;; Hardware stack levels used: 1
  8515 ;; This function calls:
  8516 ;;		Nothing
  8517 ;; This function is called by:
  8518 ;;		_InterruptManager
  8519 ;; This function uses a non-reentrant model
  8520 ;;
  8521                           
  8522                           	psect	text54
  8523   003924                     __ptext54:
  8524                           	callstack 0
  8525   003924                     _EUSART_TX_ISR:
  8526                           	callstack 24
  8527   003924                     
  8528                           ;MCAL_Layer/usart/hal_usart.c: 261:   (PIE1bits.TXIE = 0);
  8529   003924  989D               	bcf	157,4,c	;volatile
  8530   003926  0012               	return		;funcret
  8531   003928                     __end_of_EUSART_TX_ISR:
  8532                           	callstack 0
  8533                           
  8534 ;; *************** function _EUSART_RX_ISR *****************
  8535 ;; Defined at:
  8536 ;;		line 268 in file "MCAL_Layer/usart/hal_usart.c"
  8537 ;; Parameters:    Size  Location     Type
  8538 ;;		None
  8539 ;; Auto vars:     Size  Location     Type
  8540 ;;		None
  8541 ;; Return value:  Size  Location     Type
  8542 ;;                  1    wreg      void 
  8543 ;; Registers used:
  8544 ;;		wreg, fsr2l, fsr2h, status,2, status,0, pcl, pclath, pclatu, tosl, cstack
  8545 ;; Tracked objects:
  8546 ;;		On entry : 0/0
  8547 ;;		On exit  : 0/0
  8548 ;;		Unchanged: 0/0
  8549 ;; Data sizes:     COMRAM   BANK0   BANK1   BANK2   BANK3   BANK4   BANK5   BANK6   BANK7   BANK8   BANK9  BANK10  BANK1
      +1  BANK12  BANK13  BANK14  BANK15
  8550 ;;      Params:         0       0       0       0       0       0       0       0       0       0       0       0       
      +0       0       0       0       0
  8551 ;;      Locals:         0       0       0       0       0       0       0       0       0       0       0       0       
      +0       0       0       0       0
  8552 ;;      Temps:          0       0       0       0       0       0       0       0       0       0       0       0       
      +0       0       0       0       0
  8553 ;;      Totals:         0       0       0       0       0       0       0       0       0       0       0       0       
      +0       0       0       0       0
  8554 ;;Total ram usage:        0 bytes
  8555 ;; Hardware stack levels used: 1
  8556 ;; Hardware stack levels required when called: 2
  8557 ;; This function calls:
  8558 ;;		NULL
  8559 ;;		_EUSART_RxDefaultInterruptHandler
  8560 ;; This function is called by:
  8561 ;;		_InterruptManager
  8562 ;; This function uses a non-reentrant model
  8563 ;;
  8564                           
  8565                           	psect	text55
  8566   0033E6                     __ptext55:
  8567                           	callstack 0
  8568   0033E6                     _EUSART_RX_ISR:
  8569                           	callstack 22
  8570   0033E6                     
  8571                           ;MCAL_Layer/usart/hal_usart.c: 269:   if (EUSART_RxInterruptHandler) {
  8572   0033E6  0100               	movlb	0	; () banked
  8573   0033E8  518E               	movf	_EUSART_RxInterruptHandler& (0+255),w,b
  8574   0033EA  118F               	iorwf	(_EUSART_RxInterruptHandler+1)& (0+255),w,b
  8575   0033EC  B4D8               	btfsc	status,2,c
  8576   0033EE  EFFB  F019         	goto	i2u655_41
  8577   0033F2  EFFD  F019         	goto	i2u655_40
  8578   0033F6                     i2u655_41:
  8579   0033F6  EF09  F01A         	goto	i2l7357
  8580   0033FA                     i2u655_40:
  8581   0033FA                     
  8582                           ; BSR set to: 0
  8583                           ;MCAL_Layer/usart/hal_usart.c: 270:     EUSART_RxInterruptHandler();
  8584   0033FA  D802               	call	i2u656_48
  8585   0033FC  EF09  F01A         	goto	i2u656_49
  8586   003400                     i2u656_48:
  8587   003400  0005               	push	
  8588   003402  6EFA               	movwf	pclath,c
  8589   003404  518E               	movf	_EUSART_RxInterruptHandler& (0+255),w,b
  8590   003406  6EFD               	movwf	tosl,c
  8591   003408  518F               	movf	(_EUSART_RxInterruptHandler+1)& (0+255),w,b
  8592   00340A  6EFE               	movwf	tosh,c
  8593   00340C  6AFF               	clrf	tosu,c
  8594   00340E  50FA               	movf	pclath,w,c
  8595   003410  0012               	return		;indir
  8596   003412                     i2u656_49:
  8597   003412                     i2l7357:
  8598                           
  8599                           ;MCAL_Layer/usart/hal_usart.c: 273:   if (EUSART_FramingErrorHandler && RCSTAbits.FERR) 
      +                          {
  8600   003412  0100               	movlb	0	; () banked
  8601   003414  518C               	movf	_EUSART_FramingErrorHandler& (0+255),w,b
  8602   003416  118D               	iorwf	(_EUSART_FramingErrorHandler+1)& (0+255),w,b
  8603   003418  B4D8               	btfsc	status,2,c
  8604   00341A  EF11  F01A         	goto	i2u657_41
  8605   00341E  EF13  F01A         	goto	i2u657_40
  8606   003422                     i2u657_41:
  8607   003422  EF14  F01A         	goto	i2l7363
  8608   003426                     i2u657_40:
  8609   003426                     
  8610                           ; BSR set to: 0
  8611                           ;MCAL_Layer/usart/hal_usart.c: 274:     EUSART_FramingErrorHandler();
  8612   003426  50AB               	movf	171,w,c	;volatile
  8613   003428                     i2l7363:
  8614                           
  8615                           ; BSR set to: 0
  8616                           ;MCAL_Layer/usart/hal_usart.c: 277:   if (EUSART_OverrunErrorHandler && RCSTAbits.OERR) 
      +                          {
  8617   003428  518A               	movf	_EUSART_OverrunErrorHandler& (0+255),w,b
  8618   00342A  118B               	iorwf	(_EUSART_OverrunErrorHandler+1)& (0+255),w,b
  8619   00342C  B4D8               	btfsc	status,2,c
  8620   00342E  EF1B  F01A         	goto	i2u658_41
  8621   003432  EF1D  F01A         	goto	i2u658_40
  8622   003436                     i2u658_41:
  8623   003436  EF1E  F01A         	goto	i2l1752
  8624   00343A                     i2u658_40:
  8625   00343A                     
  8626                           ; BSR set to: 0
  8627                           ;MCAL_Layer/usart/hal_usart.c: 278:     EUSART_OverrunErrorHandler();
  8628   00343A  50AB               	movf	171,w,c	;volatile
  8629   00343C                     i2l1752:
  8630                           
  8631                           ; BSR set to: 0
  8632   00343C  0012               	return		;funcret
  8633   00343E                     __end_of_EUSART_RX_ISR:
  8634                           	callstack 0
  8635                           
  8636 ;; *************** function _EUSART_RxDefaultInterruptHandler *****************
  8637 ;; Defined at:
  8638 ;;		line 177 in file "application.c"
  8639 ;; Parameters:    Size  Location     Type
  8640 ;;		None
  8641 ;; Auto vars:     Size  Location     Type
  8642 ;;  ret             1    0        unsigned char 
  8643 ;; Return value:  Size  Location     Type
  8644 ;;                  1    wreg      void 
  8645 ;; Registers used:
  8646 ;;		wreg, fsr2l, fsr2h, status,2, status,0, cstack
  8647 ;; Tracked objects:
  8648 ;;		On entry : 0/0
  8649 ;;		On exit  : 0/0
  8650 ;;		Unchanged: 0/0
  8651 ;; Data sizes:     COMRAM   BANK0   BANK1   BANK2   BANK3   BANK4   BANK5   BANK6   BANK7   BANK8   BANK9  BANK10  BANK1
      +1  BANK12  BANK13  BANK14  BANK15
  8652 ;;      Params:         0       0       0       0       0       0       0       0       0       0       0       0       
      +0       0       0       0       0
  8653 ;;      Locals:         0       0       0       0       0       0       0       0       0       0       0       0       
      +0       0       0       0       0
  8654 ;;      Temps:          0       0       0       0       0       0       0       0       0       0       0       0       
      +0       0       0       0       0
  8655 ;;      Totals:         0       0       0       0       0       0       0       0       0       0       0       0       
      +0       0       0       0       0
  8656 ;;Total ram usage:        0 bytes
  8657 ;; Hardware stack levels used: 1
  8658 ;; Hardware stack levels required when called: 1
  8659 ;; This function calls:
  8660 ;;		_EUSART_ASYNC_ReadByteNonBlocking
  8661 ;; This function is called by:
  8662 ;;		_EUSART_RX_ISR
  8663 ;; This function uses a non-reentrant model
  8664 ;;
  8665                           
  8666                           	psect	text56
  8667   00268A                     __ptext56:
  8668                           	callstack 0
  8669   00268A                     _EUSART_RxDefaultInterruptHandler:
  8670                           	callstack 22
  8671   00268A  0E6B               	movlw	low _uart_choice
  8672   00268C  6E01               	movwf	EUSART_ASYNC_ReadByteNonBlocking@_data^0,c
  8673   00268E  0E00               	movlw	high _uart_choice
  8674   002690  6E02               	movwf	(EUSART_ASYNC_ReadByteNonBlocking@_data+1)^0,c
  8675   002692  ECF4  F01B         	call	_EUSART_ASYNC_ReadByteNonBlocking	;wreg free
  8676   002696                     
  8677                           ;application.c: 180:     if( 'e' == uart_choice){
  8678   002696  0E65               	movlw	101
  8679   002698  186B               	xorwf	_uart_choice^0,w,c
  8680   00269A  A4D8               	btfss	status,2,c
  8681   00269C  EF52  F013         	goto	i2u617_41
  8682   0026A0  EF54  F013         	goto	i2u617_40
  8683   0026A4                     i2u617_41:
  8684   0026A4  EF58  F013         	goto	i2l6973
  8685   0026A8                     i2u617_40:
  8686   0026A8                     
  8687                           ;application.c: 181:         rec_falg = 1;
  8688   0026A8  0E01               	movlw	1
  8689   0026AA  6E68               	movwf	_rec_falg^0,c
  8690                           
  8691                           ;application.c: 182:     }else if('c' == uart_choice){
  8692   0026AC  EF72  F013         	goto	i2l6981
  8693   0026B0                     i2l6973:
  8694   0026B0  0E63               	movlw	99
  8695   0026B2  186B               	xorwf	_uart_choice^0,w,c
  8696   0026B4  A4D8               	btfss	status,2,c
  8697   0026B6  EF5F  F013         	goto	i2u618_41
  8698   0026BA  EF61  F013         	goto	i2u618_40
  8699   0026BE                     i2u618_41:
  8700   0026BE  EF65  F013         	goto	i2l6977
  8701   0026C2                     i2u618_40:
  8702   0026C2                     
  8703                           ;application.c: 183:         rec_falg = 2;
  8704   0026C2  0E02               	movlw	2
  8705   0026C4  6E68               	movwf	_rec_falg^0,c
  8706                           
  8707                           ;application.c: 184:     }
  8708   0026C6  EF72  F013         	goto	i2l6981
  8709   0026CA                     i2l6977:
  8710   0026CA  0E73               	movlw	115
  8711   0026CC  186B               	xorwf	_uart_choice^0,w,c
  8712   0026CE  A4D8               	btfss	status,2,c
  8713   0026D0  EF6C  F013         	goto	i2u619_41
  8714   0026D4  EF6E  F013         	goto	i2u619_40
  8715   0026D8                     i2u619_41:
  8716   0026D8  EF72  F013         	goto	i2l1876
  8717   0026DC                     i2u619_40:
  8718   0026DC                     
  8719                           ;application.c: 186:         rec_falg = 3;
  8720   0026DC  0E03               	movlw	3
  8721   0026DE  6E68               	movwf	_rec_falg^0,c
  8722                           
  8723                           ;application.c: 187:     }
  8724   0026E0  EF72  F013         	goto	i2l6981
  8725   0026E4                     i2l1876:
  8726   0026E4                     i2l6981:
  8727                           
  8728                           ;application.c: 189:     if( 1 == rec_falg){
  8729   0026E4  0468               	decf	_rec_falg^0,w,c
  8730   0026E6  A4D8               	btfss	status,2,c
  8731   0026E8  EF78  F013         	goto	i2u620_41
  8732   0026EC  EF7A  F013         	goto	i2u620_40
  8733   0026F0                     i2u620_41:
  8734   0026F0  EF9B  F013         	goto	i2l6995
  8735   0026F4                     i2u620_40:
  8736   0026F4                     
  8737                           ;application.c: 190:         if('e' != uart_choice){
  8738   0026F4  0E65               	movlw	101
  8739   0026F6  186B               	xorwf	_uart_choice^0,w,c
  8740   0026F8  B4D8               	btfsc	status,2,c
  8741   0026FA  EF81  F013         	goto	i2u621_41
  8742   0026FE  EF83  F013         	goto	i2u621_40
  8743   002702                     i2u621_41:
  8744   002702  EF8C  F013         	goto	i2l6989
  8745   002706                     i2u621_40:
  8746   002706                     
  8747                           ;application.c: 191:             user_received_password[rec_counter++] = uart_choice;
  8748   002706  0E80               	movlw	low _user_received_password
  8749   002708  2469               	addwf	_rec_counter^0,w,c
  8750   00270A  6ED9               	movwf	fsr2l,c
  8751   00270C  6ADA               	clrf	fsr2h,c
  8752   00270E  0E00               	movlw	high _user_received_password
  8753   002710  22DA               	addwfc	fsr2h,f,c
  8754   002712  C06B  FFDF         	movff	_uart_choice,indf2
  8755   002716  2A69               	incf	_rec_counter^0,f,c
  8756   002718                     i2l6989:
  8757                           
  8758                           ;application.c: 193:         if(6 == rec_counter){
  8759   002718  0E06               	movlw	6
  8760   00271A  1869               	xorwf	_rec_counter^0,w,c
  8761   00271C  A4D8               	btfss	status,2,c
  8762   00271E  EF93  F013         	goto	i2u622_41
  8763   002722  EF95  F013         	goto	i2u622_40
  8764   002726                     i2u622_41:
  8765   002726  EFE7  F013         	goto	i2l1897
  8766   00272A                     i2u622_40:
  8767   00272A                     i2l6991:
  8768                           
  8769                           ;application.c: 194:             rec_counter =0;
  8770   00272A  0E00               	movlw	0
  8771   00272C  6E69               	movwf	_rec_counter^0,c
  8772   00272E                     
  8773                           ;application.c: 195:             action = rec_falg;
  8774   00272E  C068  F065         	movff	_rec_falg,_action
  8775                           
  8776                           ;application.c: 196:         }else{ }
  8777   002732  EFE7  F013         	goto	i2l1897
  8778   002736                     i2l6995:
  8779   002736  0E02               	movlw	2
  8780   002738  1868               	xorwf	_rec_falg^0,w,c
  8781   00273A  A4D8               	btfss	status,2,c
  8782   00273C  EFA2  F013         	goto	i2u623_41
  8783   002740  EFA4  F013         	goto	i2u623_40
  8784   002744                     i2u623_41:
  8785   002744  EFC1  F013         	goto	i2l7009
  8786   002748                     i2u623_40:
  8787   002748                     
  8788                           ;application.c: 198:         if('c' != uart_choice){
  8789   002748  0E63               	movlw	99
  8790   00274A  186B               	xorwf	_uart_choice^0,w,c
  8791   00274C  B4D8               	btfsc	status,2,c
  8792   00274E  EFAB  F013         	goto	i2u624_41
  8793   002752  EFAD  F013         	goto	i2u624_40
  8794   002756                     i2u624_41:
  8795   002756  EFB6  F013         	goto	i2l7003
  8796   00275A                     i2u624_40:
  8797   00275A                     
  8798                           ;application.c: 199:             user_received_password[rec_counter++] = uart_choice;
  8799   00275A  0E80               	movlw	low _user_received_password
  8800   00275C  2469               	addwf	_rec_counter^0,w,c
  8801   00275E  6ED9               	movwf	fsr2l,c
  8802   002760  6ADA               	clrf	fsr2h,c
  8803   002762  0E00               	movlw	high _user_received_password
  8804   002764  22DA               	addwfc	fsr2h,f,c
  8805   002766  C06B  FFDF         	movff	_uart_choice,indf2
  8806   00276A  2A69               	incf	_rec_counter^0,f,c
  8807   00276C                     i2l7003:
  8808                           
  8809                           ;application.c: 201:         if(6 == rec_counter){
  8810   00276C  0E06               	movlw	6
  8811   00276E  1869               	xorwf	_rec_counter^0,w,c
  8812   002770  A4D8               	btfss	status,2,c
  8813   002772  EFBD  F013         	goto	i2u625_41
  8814   002776  EFBF  F013         	goto	i2u625_40
  8815   00277A                     i2u625_41:
  8816   00277A  EFE7  F013         	goto	i2l1897
  8817   00277E                     i2u625_40:
  8818   00277E  EF95  F013         	goto	i2l6991
  8819   002782                     i2l7009:
  8820   002782  0E03               	movlw	3
  8821   002784  1868               	xorwf	_rec_falg^0,w,c
  8822   002786  A4D8               	btfss	status,2,c
  8823   002788  EFC8  F013         	goto	i2u626_41
  8824   00278C  EFCA  F013         	goto	i2u626_40
  8825   002790                     i2u626_41:
  8826   002790  EFE7  F013         	goto	i2l1897
  8827   002794                     i2u626_40:
  8828   002794                     
  8829                           ;application.c: 206:         if('s' != uart_choice){
  8830   002794  0E73               	movlw	115
  8831   002796  186B               	xorwf	_uart_choice^0,w,c
  8832   002798  B4D8               	btfsc	status,2,c
  8833   00279A  EFD1  F013         	goto	i2u627_41
  8834   00279E  EFD3  F013         	goto	i2u627_40
  8835   0027A2                     i2u627_41:
  8836   0027A2  EFDC  F013         	goto	i2l7017
  8837   0027A6                     i2u627_40:
  8838   0027A6                     
  8839                           ;application.c: 207:             user_received_password[rec_counter++] = uart_choice;
  8840   0027A6  0E80               	movlw	low _user_received_password
  8841   0027A8  2469               	addwf	_rec_counter^0,w,c
  8842   0027AA  6ED9               	movwf	fsr2l,c
  8843   0027AC  6ADA               	clrf	fsr2h,c
  8844   0027AE  0E00               	movlw	high _user_received_password
  8845   0027B0  22DA               	addwfc	fsr2h,f,c
  8846   0027B2  C06B  FFDF         	movff	_uart_choice,indf2
  8847   0027B6  2A69               	incf	_rec_counter^0,f,c
  8848   0027B8                     i2l7017:
  8849                           
  8850                           ;application.c: 209:         if(6 == rec_counter){
  8851   0027B8  0E06               	movlw	6
  8852   0027BA  1869               	xorwf	_rec_counter^0,w,c
  8853   0027BC  A4D8               	btfss	status,2,c
  8854   0027BE  EFE3  F013         	goto	i2u628_41
  8855   0027C2  EFE5  F013         	goto	i2u628_40
  8856   0027C6                     i2u628_41:
  8857   0027C6  EFE7  F013         	goto	i2l1897
  8858   0027CA                     i2u628_40:
  8859   0027CA  EF95  F013         	goto	i2l6991
  8860   0027CE                     i2l1897:
  8861   0027CE  0012               	return		;funcret
  8862   0027D0                     __end_of_EUSART_RxDefaultInterruptHandler:
  8863                           	callstack 0
  8864                           
  8865 ;; *************** function _EUSART_ASYNC_ReadByteNonBlocking *****************
  8866 ;; Defined at:
  8867 ;;		line 55 in file "MCAL_Layer/usart/hal_usart.c"
  8868 ;; Parameters:    Size  Location     Type
  8869 ;;  _data           2    0[COMRAM] PTR unsigned char 
  8870 ;;		 -> uart_choice(1), 
  8871 ;; Auto vars:     Size  Location     Type
  8872 ;;  ret             1    2[COMRAM] unsigned char 
  8873 ;; Return value:  Size  Location     Type
  8874 ;;                  1    wreg      unsigned char 
  8875 ;; Registers used:
  8876 ;;		wreg, fsr2l, fsr2h, status,2
  8877 ;; Tracked objects:
  8878 ;;		On entry : 0/0
  8879 ;;		On exit  : 0/0
  8880 ;;		Unchanged: 0/0
  8881 ;; Data sizes:     COMRAM   BANK0   BANK1   BANK2   BANK3   BANK4   BANK5   BANK6   BANK7   BANK8   BANK9  BANK10  BANK1
      +1  BANK12  BANK13  BANK14  BANK15
  8882 ;;      Params:         2       0       0       0       0       0       0       0       0       0       0       0       
      +0       0       0       0       0
  8883 ;;      Locals:         1       0       0       0       0       0       0       0       0       0       0       0       
      +0       0       0       0       0
  8884 ;;      Temps:          0       0       0       0       0       0       0       0       0       0       0       0       
      +0       0       0       0       0
  8885 ;;      Totals:         3       0       0       0       0       0       0       0       0       0       0       0       
      +0       0       0       0       0
  8886 ;;Total ram usage:        3 bytes
  8887 ;; Hardware stack levels used: 1
  8888 ;; This function calls:
  8889 ;;		Nothing
  8890 ;; This function is called by:
  8891 ;;		_EUSART_RxDefaultInterruptHandler
  8892 ;; This function uses a non-reentrant model
  8893 ;;
  8894                           
  8895                           	psect	text57
  8896   0037E8                     __ptext57:
  8897                           	callstack 0
  8898   0037E8                     _EUSART_ASYNC_ReadByteNonBlocking:
  8899                           	callstack 22
  8900   0037E8                     
  8901                           ;MCAL_Layer/usart/hal_usart.c: 56:   Std_ReturnType ret = (Std_ReturnType)0x01;
  8902   0037E8  0E01               	movlw	1
  8903   0037EA  6E03               	movwf	EUSART_ASYNC_ReadByteNonBlocking@ret^0,c
  8904   0037EC                     
  8905                           ;MCAL_Layer/usart/hal_usart.c: 57:   if (1 == PIR1bits.RCIF) {
  8906   0037EC  AA9E               	btfss	158,5,c	;volatile
  8907   0037EE  EFFB  F01B         	goto	i2u581_41
  8908   0037F2  EFFD  F01B         	goto	i2u581_40
  8909   0037F6                     i2u581_41:
  8910   0037F6  EF05  F01C         	goto	i2l6705
  8911   0037FA                     i2u581_40:
  8912   0037FA                     
  8913                           ;MCAL_Layer/usart/hal_usart.c: 58:     *_data = RCREG;
  8914   0037FA  C001  FFD9         	movff	EUSART_ASYNC_ReadByteNonBlocking@_data,fsr2l
  8915   0037FE  C002  FFDA         	movff	EUSART_ASYNC_ReadByteNonBlocking@_data+1,fsr2h
  8916   003802  CFAE FFDF          	movff	4014,indf2	;volatile
  8917                           
  8918                           ;MCAL_Layer/usart/hal_usart.c: 60:   } else {
  8919   003806  EF07  F01C         	goto	i2l1673
  8920   00380A                     i2l6705:
  8921                           
  8922                           ;MCAL_Layer/usart/hal_usart.c: 61:     ret = (Std_ReturnType)0x00;
  8923   00380A  0E00               	movlw	0
  8924   00380C  6E03               	movwf	EUSART_ASYNC_ReadByteNonBlocking@ret^0,c
  8925   00380E                     i2l1673:
  8926                           
  8927                           ;MCAL_Layer/usart/hal_usart.c: 63:   return ret;
  8928   00380E  5003               	movf	EUSART_ASYNC_ReadByteNonBlocking@ret^0,w,c
  8929   003810  0012               	return		;funcret
  8930   003812                     __end_of_EUSART_ASYNC_ReadByteNonBlocking:
  8931                           	callstack 0
  8932                           
  8933 ;; *************** function _CCP2_ISR *****************
  8934 ;; Defined at:
  8935 ;;		line 254 in file "MCAL_Layer/CCP/hal_ccp.c"
  8936 ;; Parameters:    Size  Location     Type
  8937 ;;		None
  8938 ;; Auto vars:     Size  Location     Type
  8939 ;;		None
  8940 ;; Return value:  Size  Location     Type
  8941 ;;                  1    wreg      void 
  8942 ;; Registers used:
  8943 ;;		None
  8944 ;; Tracked objects:
  8945 ;;		On entry : 0/0
  8946 ;;		On exit  : 0/0
  8947 ;;		Unchanged: 0/0
  8948 ;; Data sizes:     COMRAM   BANK0   BANK1   BANK2   BANK3   BANK4   BANK5   BANK6   BANK7   BANK8   BANK9  BANK10  BANK1
      +1  BANK12  BANK13  BANK14  BANK15
  8949 ;;      Params:         0       0       0       0       0       0       0       0       0       0       0       0       
      +0       0       0       0       0
  8950 ;;      Locals:         0       0       0       0       0       0       0       0       0       0       0       0       
      +0       0       0       0       0
  8951 ;;      Temps:          0       0       0       0       0       0       0       0       0       0       0       0       
      +0       0       0       0       0
  8952 ;;      Totals:         0       0       0       0       0       0       0       0       0       0       0       0       
      +0       0       0       0       0
  8953 ;;Total ram usage:        0 bytes
  8954 ;; Hardware stack levels used: 1
  8955 ;; This function calls:
  8956 ;;		Nothing
  8957 ;; This function is called by:
  8958 ;;		_InterruptManager
  8959 ;; This function uses a non-reentrant model
  8960 ;;
  8961                           
  8962                           	psect	text58
  8963   003928                     __ptext58:
  8964                           	callstack 0
  8965   003928                     _CCP2_ISR:
  8966                           	callstack 24
  8967   003928                     
  8968                           ;MCAL_Layer/CCP/hal_ccp.c: 255:     (PIR2bits.CCP2IF = 0);
  8969   003928  90A1               	bcf	161,0,c	;volatile
  8970   00392A  0012               	return		;funcret
  8971   00392C                     __end_of_CCP2_ISR:
  8972                           	callstack 0
  8973                           
  8974 ;; *************** function _CCP1_ISR *****************
  8975 ;; Defined at:
  8976 ;;		line 246 in file "MCAL_Layer/CCP/hal_ccp.c"
  8977 ;; Parameters:    Size  Location     Type
  8978 ;;		None
  8979 ;; Auto vars:     Size  Location     Type
  8980 ;;		None
  8981 ;; Return value:  Size  Location     Type
  8982 ;;                  1    wreg      void 
  8983 ;; Registers used:
  8984 ;;		None
  8985 ;; Tracked objects:
  8986 ;;		On entry : 0/0
  8987 ;;		On exit  : 0/0
  8988 ;;		Unchanged: 0/0
  8989 ;; Data sizes:     COMRAM   BANK0   BANK1   BANK2   BANK3   BANK4   BANK5   BANK6   BANK7   BANK8   BANK9  BANK10  BANK1
      +1  BANK12  BANK13  BANK14  BANK15
  8990 ;;      Params:         0       0       0       0       0       0       0       0       0       0       0       0       
      +0       0       0       0       0
  8991 ;;      Locals:         0       0       0       0       0       0       0       0       0       0       0       0       
      +0       0       0       0       0
  8992 ;;      Temps:          0       0       0       0       0       0       0       0       0       0       0       0       
      +0       0       0       0       0
  8993 ;;      Totals:         0       0       0       0       0       0       0       0       0       0       0       0       
      +0       0       0       0       0
  8994 ;;Total ram usage:        0 bytes
  8995 ;; Hardware stack levels used: 1
  8996 ;; This function calls:
  8997 ;;		Nothing
  8998 ;; This function is called by:
  8999 ;;		_InterruptManager
  9000 ;; This function uses a non-reentrant model
  9001 ;;
  9002                           
  9003                           	psect	text59
  9004   00392C                     __ptext59:
  9005                           	callstack 0
  9006   00392C                     _CCP1_ISR:
  9007                           	callstack 24
  9008   00392C                     
  9009                           ;MCAL_Layer/CCP/hal_ccp.c: 247:     (PIR1bits.CCP1IF = 0);
  9010   00392C  949E               	bcf	158,2,c	;volatile
  9011   00392E  0012               	return		;funcret
  9012   003930                     __end_of_CCP1_ISR:
  9013                           	callstack 0
  9014                           
  9015 ;; *************** function _ADC_ISR *****************
  9016 ;; Defined at:
  9017 ;;		line 296 in file "MCAL_Layer/ADC/hal_adc.c"
  9018 ;; Parameters:    Size  Location     Type
  9019 ;;		None
  9020 ;; Auto vars:     Size  Location     Type
  9021 ;;		None
  9022 ;; Return value:  Size  Location     Type
  9023 ;;                  1    wreg      void 
  9024 ;; Registers used:
  9025 ;;		None
  9026 ;; Tracked objects:
  9027 ;;		On entry : 0/0
  9028 ;;		On exit  : 0/0
  9029 ;;		Unchanged: 0/0
  9030 ;; Data sizes:     COMRAM   BANK0   BANK1   BANK2   BANK3   BANK4   BANK5   BANK6   BANK7   BANK8   BANK9  BANK10  BANK1
      +1  BANK12  BANK13  BANK14  BANK15
  9031 ;;      Params:         0       0       0       0       0       0       0       0       0       0       0       0       
      +0       0       0       0       0
  9032 ;;      Locals:         0       0       0       0       0       0       0       0       0       0       0       0       
      +0       0       0       0       0
  9033 ;;      Temps:          0       0       0       0       0       0       0       0       0       0       0       0       
      +0       0       0       0       0
  9034 ;;      Totals:         0       0       0       0       0       0       0       0       0       0       0       0       
      +0       0       0       0       0
  9035 ;;Total ram usage:        0 bytes
  9036 ;; Hardware stack levels used: 1
  9037 ;; This function calls:
  9038 ;;		Nothing
  9039 ;; This function is called by:
  9040 ;;		_InterruptManager
  9041 ;; This function uses a non-reentrant model
  9042 ;;
  9043                           
  9044                           	psect	text60
  9045   003930                     __ptext60:
  9046                           	callstack 0
  9047   003930                     _ADC_ISR:
  9048                           	callstack 24
  9049   003930                     
  9050                           ;MCAL_Layer/ADC/hal_adc.c: 297:     (PIR1bits.ADIF = 0);
  9051   003930  9C9E               	bcf	158,6,c	;volatile
  9052   003932  0012               	return		;funcret
  9053   003934                     __end_of_ADC_ISR:
  9054                           	callstack 0
  9055                           
  9056                           	psect	text61
  9057   000000                     __ptext61:
  9058                           	callstack 0
  9059   000000                     
  9060                           	psect	rparam
  9061   000000                     
  9062                           	psect	temp
  9063   00006D                     btemp:
  9064                           	callstack 0
  9065   00006D                     	ds	1
  9066   000000                     int$flags	set	btemp
  9067   000000                     wtemp8	set	btemp+1
  9068   000000                     ttemp5	set	btemp+1
  9069   000000                     ttemp6	set	btemp+4
  9070   000000                     ttemp7	set	btemp+8
  9071                           
  9072                           	psect	idloc
  9073                           
  9074                           ;Config register IDLOC0 @ 0x200000
  9075                           ;	unspecified, using default values
  9076   200000                     	org	2097152
  9077   200000  FF                 	db	255
  9078                           
  9079                           ;Config register IDLOC1 @ 0x200001
  9080                           ;	unspecified, using default values
  9081   200001                     	org	2097153
  9082   200001  FF                 	db	255
  9083                           
  9084                           ;Config register IDLOC2 @ 0x200002
  9085                           ;	unspecified, using default values
  9086   200002                     	org	2097154
  9087   200002  FF                 	db	255
  9088                           
  9089                           ;Config register IDLOC3 @ 0x200003
  9090                           ;	unspecified, using default values
  9091   200003                     	org	2097155
  9092   200003  FF                 	db	255
  9093                           
  9094                           ;Config register IDLOC4 @ 0x200004
  9095                           ;	unspecified, using default values
  9096   200004                     	org	2097156
  9097   200004  FF                 	db	255
  9098                           
  9099                           ;Config register IDLOC5 @ 0x200005
  9100                           ;	unspecified, using default values
  9101   200005                     	org	2097157
  9102   200005  FF                 	db	255
  9103                           
  9104                           ;Config register IDLOC6 @ 0x200006
  9105                           ;	unspecified, using default values
  9106   200006                     	org	2097158
  9107   200006  FF                 	db	255
  9108                           
  9109                           ;Config register IDLOC7 @ 0x200007
  9110                           ;	unspecified, using default values
  9111   200007                     	org	2097159
  9112   200007  FF                 	db	255
  9113                           
  9114                           	psect	config
  9115                           
  9116                           ; Padding undefined space
  9117   300000                     	org	3145728
  9118   300000  FF                 	db	255
  9119                           
  9120                           ;Config register CONFIG1H @ 0x300001
  9121                           ;	Oscillator Selection bits
  9122                           ;	OSC = HS, HS oscillator
  9123                           ;	Fail-Safe Clock Monitor Enable bit
  9124                           ;	FCMEN = OFF, Fail-Safe Clock Monitor disabled
  9125                           ;	Internal/External Oscillator Switchover bit
  9126                           ;	IESO = OFF, Oscillator Switchover mode disabled
  9127   300001                     	org	3145729
  9128   300001  02                 	db	2
  9129                           
  9130                           ;Config register CONFIG2L @ 0x300002
  9131                           ;	Power-up Timer Enable bit
  9132                           ;	PWRT = OFF, PWRT disabled
  9133                           ;	Brown-out Reset Enable bits
  9134                           ;	BOREN = OFF, Brown-out Reset disabled in hardware and software
  9135                           ;	Brown Out Reset Voltage bits
  9136                           ;	BORV = 1, 
  9137   300002                     	org	3145730
  9138   300002  09                 	db	9
  9139                           
  9140                           ;Config register CONFIG2H @ 0x300003
  9141                           ;	Watchdog Timer Enable bit
  9142                           ;	WDT = OFF, WDT disabled (control is placed on the SWDTEN bit)
  9143                           ;	Watchdog Timer Postscale Select bits
  9144                           ;	WDTPS = 512, 1:512
  9145   300003                     	org	3145731
  9146   300003  12                 	db	18
  9147                           
  9148                           ; Padding undefined space
  9149   300004                     	org	3145732
  9150   300004  FF                 	db	255
  9151                           
  9152                           ;Config register CONFIG3H @ 0x300005
  9153                           ;	CCP2 MUX bit
  9154                           ;	CCP2MX = PORTC, CCP2 input/output is multiplexed with RC1
  9155                           ;	PORTB A/D Enable bit
  9156                           ;	PBADEN = OFF, PORTB<4:0> pins are configured as digital I/O on Reset
  9157                           ;	Low-Power Timer1 Oscillator Enable bit
  9158                           ;	LPT1OSC = OFF, Timer1 configured for higher power operation
  9159                           ;	MCLR Pin Enable bit
  9160                           ;	MCLRE = ON, MCLR pin enabled; RE3 input pin disabled
  9161   300005                     	org	3145733
  9162   300005  81                 	db	129
  9163                           
  9164                           ;Config register CONFIG4L @ 0x300006
  9165                           ;	Stack Full/Underflow Reset Enable bit
  9166                           ;	STVREN = ON, Stack full/underflow will cause Reset
  9167                           ;	Single-Supply ICSP Enable bit
  9168                           ;	LVP = OFF, Single-Supply ICSP disabled
  9169                           ;	Extended Instruction Set Enable bit
  9170                           ;	XINST = OFF, Instruction set extension and Indexed Addressing mode disabled (Legacy mo
      +                          de)
  9171                           ;	Background Debugger Enable bit
  9172                           ;	DEBUG = 0x1, unprogrammed default
  9173   300006                     	org	3145734
  9174   300006  81                 	db	129
  9175                           
  9176                           ; Padding undefined space
  9177   300007                     	org	3145735
  9178   300007  FF                 	db	255
  9179                           
  9180                           ;Config register CONFIG5L @ 0x300008
  9181                           ;	Code Protection bit
  9182                           ;	CP0 = OFF, Block 0 (000800-003FFFh) not code-protected
  9183                           ;	Code Protection bit
  9184                           ;	CP1 = OFF, Block 1 (004000-007FFFh) not code-protected
  9185                           ;	Code Protection bit
  9186                           ;	CP2 = OFF, Block 2 (008000-00BFFFh) not code-protected
  9187                           ;	Code Protection bit
  9188                           ;	CP3 = OFF, Block 3 (00C000-00FFFFh) not code-protected
  9189   300008                     	org	3145736
  9190   300008  0F                 	db	15
  9191                           
  9192                           ;Config register CONFIG5H @ 0x300009
  9193                           ;	Boot Block Code Protection bit
  9194                           ;	CPB = OFF, Boot block (000000-0007FFh) not code-protected
  9195                           ;	Data EEPROM Code Protection bit
  9196                           ;	CPD = OFF, Data EEPROM not code-protected
  9197   300009                     	org	3145737
  9198   300009  C0                 	db	192
  9199                           
  9200                           ;Config register CONFIG6L @ 0x30000A
  9201                           ;	Write Protection bit
  9202                           ;	WRT0 = OFF, Block 0 (000800-003FFFh) not write-protected
  9203                           ;	Write Protection bit
  9204                           ;	WRT1 = OFF, Block 1 (004000-007FFFh) not write-protected
  9205                           ;	Write Protection bit
  9206                           ;	WRT2 = OFF, Block 2 (008000-00BFFFh) not write-protected
  9207                           ;	Write Protection bit
  9208                           ;	WRT3 = OFF, Block 3 (00C000-00FFFFh) not write-protected
  9209   30000A                     	org	3145738
  9210   30000A  0F                 	db	15
  9211                           
  9212                           ;Config register CONFIG6H @ 0x30000B
  9213                           ;	Configuration Register Write Protection bit
  9214                           ;	WRTC = OFF, Configuration registers (300000-3000FFh) not write-protected
  9215                           ;	Boot Block Write Protection bit
  9216                           ;	WRTB = OFF, Boot Block (000000-0007FFh) not write-protected
  9217                           ;	Data EEPROM Write Protection bit
  9218                           ;	WRTD = OFF, Data EEPROM not write-protected
  9219   30000B                     	org	3145739
  9220   30000B  E0                 	db	224
  9221                           
  9222                           ;Config register CONFIG7L @ 0x30000C
  9223                           ;	Table Read Protection bit
  9224                           ;	EBTR0 = OFF, Block 0 (000800-003FFFh) not protected from table reads executed in other
      +                           blocks
  9225                           ;	Table Read Protection bit
  9226                           ;	EBTR1 = OFF, Block 1 (004000-007FFFh) not protected from table reads executed in other
      +                           blocks
  9227                           ;	Table Read Protection bit
  9228                           ;	EBTR2 = OFF, Block 2 (008000-00BFFFh) not protected from table reads executed in other
      +                           blocks
  9229                           ;	Table Read Protection bit
  9230                           ;	EBTR3 = OFF, Block 3 (00C000-00FFFFh) not protected from table reads executed in other
      +                           blocks
  9231   30000C                     	org	3145740
  9232   30000C  0F                 	db	15
  9233                           
  9234                           ;Config register CONFIG7H @ 0x30000D
  9235                           ;	Boot Block Table Read Protection bit
  9236                           ;	EBTRB = OFF, Boot Block (000000-0007FFh) not protected from table reads executed in ot
      +                          her blocks
  9237   30000D                     	org	3145741
  9238   30000D  40                 	db	64
  9239                           tosu	equ	0xFFF
  9240                           tosh	equ	0xFFE
  9241                           tosl	equ	0xFFD
  9242                           stkptr	equ	0xFFC
  9243                           pclatu	equ	0xFFB
  9244                           pclath	equ	0xFFA
  9245                           pcl	equ	0xFF9
  9246                           tblptru	equ	0xFF8
  9247                           tblptrh	equ	0xFF7
  9248                           tblptrl	equ	0xFF6
  9249                           tablat	equ	0xFF5
  9250                           prodh	equ	0xFF4
  9251                           prodl	equ	0xFF3
  9252                           indf0	equ	0xFEF
  9253                           postinc0	equ	0xFEE
  9254                           postdec0	equ	0xFED
  9255                           preinc0	equ	0xFEC
  9256                           plusw0	equ	0xFEB
  9257                           fsr0h	equ	0xFEA
  9258                           fsr0l	equ	0xFE9
  9259                           wreg	equ	0xFE8
  9260                           indf1	equ	0xFE7
  9261                           postinc1	equ	0xFE6
  9262                           postdec1	equ	0xFE5
  9263                           preinc1	equ	0xFE4
  9264                           plusw1	equ	0xFE3
  9265                           fsr1h	equ	0xFE2
  9266                           fsr1l	equ	0xFE1
  9267                           bsr	equ	0xFE0
  9268                           indf2	equ	0xFDF
  9269                           postinc2	equ	0xFDE
  9270                           postdec2	equ	0xFDD
  9271                           preinc2	equ	0xFDC
  9272                           plusw2	equ	0xFDB
  9273                           fsr2h	equ	0xFDA
  9274                           fsr2l	equ	0xFD9
  9275                           status	equ	0xFD8

Data Sizes:
    Strings     3
    Constant    16
    Data        115
    BSS         98
    Persistent  0
    Stack       0

Auto Spaces:
    Space          Size  Autos    Used
    COMRAM          126     85     108
    BANK0           128      2     128
    BANK1           256     16      80
    BANK2           256      0       0
    BANK3           256      0       0
    BANK4           256      0       0
    BANK5           256      0       0
    BANK6           256      0       0
    BANK7           256      0       0
    BANK8           256      0       0
    BANK9           256      0       0
    BANK10          256      0       0
    BANK11          256      0       0
    BANK12          256      0       0
    BANK13          256      0       0
    BANK14          256      0       0
    BANK15          128      0       0

Pointer List with Targets:

    vfprintf$2	PTR PTR void  size(2) Largest target is 2
		 -> sprintf@ap(COMRAM[2]), 

    vfprintf$1	PTR const unsigned char  size(2) Largest target is 3
		 -> STR_3(CODE[3]), STR_2(CODE[3]), STR_1(CODE[3]), 

    vfprintf$0	PTR struct _IO_FILE size(2) Largest target is 12
		 -> sprintf@f(COMRAM[12]), 

    S5158$source	PTR const unsigned char  size(2) Largest target is 0

    f...source	PTR const unsigned char  size(2) Largest target is 0

    S5158$buffer	PTR unsigned char  size(2) Largest target is 0

    f...buffer	PTR unsigned char  size(2) Largest target is 0

    timer_obj.TMR0_InterruptHandler	PTR FTN()void  size(2) Largest target is 1
		 -> Timer0_DefaultInterruptHandler(), 

    i2c_obj.I2C_Report_Receive_Overflow	PTR FTN()void  size(2) Largest target is 1
		 -> NULL(), 

    i2c_obj.I2C_DefaultInterruptHandler	PTR FTN()void  size(2) Largest target is 1
		 -> NULL(), 

    i2c_obj.I2C_Report_Write_Collision	PTR FTN()void  size(2) Largest target is 1
		 -> NULL(), 

    usart_obj.EUSART_OverrunErrorHandler	PTR FTN()void  size(2) Largest target is 1
		 -> NULL(), 

    usart_obj.EUSART_FramingErrorHandler	PTR FTN()void  size(2) Largest target is 1
		 -> NULL(), 

    usart_obj.EUSART_RxDefaultInterruptHandler	PTR FTN()void  size(2) Largest target is 1
		 -> EUSART_RxDefaultInterruptHandler(), 

    usart_obj.EUSART_TxDefaultInterruptHandler	PTR FTN()void  size(2) Largest target is 1
		 -> NULL(), 

    EUSART_OverrunErrorHandler	PTR FTN()void  size(2) Largest target is 1
		 -> NULL(), 

    EUSART_FramingErrorHandler	PTR FTN()void  size(2) Largest target is 1
		 -> NULL(), 

    EUSART_RxInterruptHandler	PTR FTN()void  size(2) Largest target is 1
		 -> EUSART_RxDefaultInterruptHandler(), NULL(), 

    EUSART_ASYNC_RX_Init@_eusart.EUSART_OverrunErrorHandler	PTR FTN()void  size(2) Largest target is 1
		 -> NULL(), 

    EUSART_ASYNC_RX_Init@_eusart.EUSART_FramingErrorHandler	PTR FTN()void  size(2) Largest target is 1
		 -> NULL(), 

    EUSART_ASYNC_RX_Init@_eusart.EUSART_RxDefaultInterruptHandler	PTR FTN()void  size(2) Largest target is 1
		 -> EUSART_RxDefaultInterruptHandler(), 

    EUSART_ASYNC_RX_Init@_eusart.EUSART_TxDefaultInterruptHandler	PTR FTN()void  size(2) Largest target is 1
		 -> NULL(), 

    EUSART_ASYNC_RX_Init@_eusart	PTR const struct . size(2) Largest target is 18
		 -> usart_obj(BANK1[18]), 

    EUSART_TxInterruptHandler	PTR FTN()void  size(2) Largest target is 1
		 -> NULL(), 

    EUSART_ASYNC_TX_Init@_eusart.EUSART_OverrunErrorHandler	PTR FTN()void  size(2) Largest target is 1
		 -> NULL(), 

    EUSART_ASYNC_TX_Init@_eusart.EUSART_FramingErrorHandler	PTR FTN()void  size(2) Largest target is 1
		 -> NULL(), 

    EUSART_ASYNC_TX_Init@_eusart.EUSART_RxDefaultInterruptHandler	PTR FTN()void  size(2) Largest target is 1
		 -> EUSART_RxDefaultInterruptHandler(), 

    EUSART_ASYNC_TX_Init@_eusart.EUSART_TxDefaultInterruptHandler	PTR FTN()void  size(2) Largest target is 1
		 -> NULL(), 

    EUSART_ASYNC_TX_Init@_eusart	PTR const struct . size(2) Largest target is 18
		 -> usart_obj(BANK1[18]), 

    S4036$EUSART_OverrunErrorHandler	PTR FTN()void  size(2) Largest target is 1
		 -> NULL(), 

    EUSART_Baud_Rate_Calculation@_eusart.EUSART_OverrunErrorHandler	PTR FTN()void  size(2) Largest target is 1
		 -> NULL(), 

    S4036$EUSART_FramingErrorHandler	PTR FTN()void  size(2) Largest target is 1
		 -> NULL(), 

    EUSART_Baud_Rate_Calculation@_eusart.EUSART_FramingErrorHandler	PTR FTN()void  size(2) Largest target is 1
		 -> NULL(), 

    S4036$EUSART_RxDefaultInterruptHandler	PTR FTN()void  size(2) Largest target is 1
		 -> EUSART_RxDefaultInterruptHandler(), 

    EUSART_Baud_Rate_Calculation@_eusart.EUSART_RxDefaultInterruptHandler	PTR FTN()void  size(2) Largest target is 1
		 -> EUSART_RxDefaultInterruptHandler(), 

    S4036$EUSART_TxDefaultInterruptHandler	PTR FTN()void  size(2) Largest target is 1
		 -> NULL(), 

    EUSART_Baud_Rate_Calculation@_eusart.EUSART_TxDefaultInterruptHandler	PTR FTN()void  size(2) Largest target is 1
		 -> NULL(), 

    EUSART_Baud_Rate_Calculation@_eusart	PTR const struct . size(2) Largest target is 18
		 -> usart_obj(BANK1[18]), 

    EUSART_ASYNC_ReadByteNonBlocking@_data	PTR unsigned char  size(2) Largest target is 1
		 -> uart_choice(COMRAM[1]), 

    EUSART_ASYNC_Init@_eusart	PTR const struct . size(2) Largest target is 18
		 -> usart_obj(BANK1[18]), 

    Timer3_Mode_Select@_timer.TMR3_InterruptHandler	PTR FTN()void  size(2) Largest target is 0

    TMR3_InterruptHandler	PTR FTN()void  size(2) Largest target is 1
		 -> NULL(), 

    S3842$TMR3_InterruptHandler	PTR FTN()void  size(2) Largest target is 0

    Timer3_Init@_timer.TMR3_InterruptHandler	PTR FTN()void  size(2) Largest target is 0

    TMR2_InterruptHandler	PTR FTN()void  size(2) Largest target is 1
		 -> NULL(), 

    S3713$TMR2_InterruptHandler	PTR FTN()void  size(2) Largest target is 0

    Timer2_Init@_timer.TMR2_InterruptHandler	PTR FTN()void  size(2) Largest target is 0

    Timer1_Mode_Select@_timer.TMR1_InterruptHandler	PTR FTN()void  size(2) Largest target is 0

    TMR1_InterruptHandler	PTR FTN()volatile void  size(2) Largest target is 1
		 -> NULL(), 

    S3523$TMR1_InterruptHandler	PTR FTN()void  size(2) Largest target is 0

    Timer1_Init@_timer.TMR1_InterruptHandler	PTR FTN()void  size(2) Largest target is 0

    Timer0_Register_Size_Config@_timer.TMR0_InterruptHandler	PTR FTN()void  size(2) Largest target is 1
		 -> Timer0_DefaultInterruptHandler(), 

    Timer0_Register_Size_Config@_timer	PTR const struct . size(2) Largest target is 7
		 -> timer_obj(BANK0[7]), 

    Timer0_Mode_Select@_timer.TMR0_InterruptHandler	PTR FTN()void  size(2) Largest target is 1
		 -> Timer0_DefaultInterruptHandler(), 

    Timer0_Mode_Select@_timer	PTR const struct . size(2) Largest target is 7
		 -> timer_obj(BANK0[7]), 

    Timer0_Prescaler_Config@_timer.TMR0_InterruptHandler	PTR FTN()void  size(2) Largest target is 1
		 -> Timer0_DefaultInterruptHandler(), 

    Timer0_Prescaler_Config@_timer	PTR const struct . size(2) Largest target is 7
		 -> timer_obj(BANK0[7]), 

    TMR0_InterruptHandler	PTR FTN()void  size(2) Largest target is 1
		 -> Timer0_DefaultInterruptHandler(), NULL(), 

    S3358$TMR0_InterruptHandler	PTR FTN()void  size(2) Largest target is 1
		 -> Timer0_DefaultInterruptHandler(), 

    Timer0_Init@_timer.TMR0_InterruptHandler	PTR FTN()void  size(2) Largest target is 1
		 -> Timer0_DefaultInterruptHandler(), 

    Timer0_Init@_timer	PTR const struct . size(2) Largest target is 7
		 -> timer_obj(BANK0[7]), 

    MSSP_SPI_Slave_Mode_GPIO_PIN_Configurations@Config.MSSP_SPI_InterruptHandler	PTR FTN()void  size(2) Largest target is 0

    MSSP_SPI_Interrupt_Init@Config.MSSP_SPI_InterruptHandler	PTR FTN()void  size(2) Largest target is 0

    SPI_InterruptHandler	PTR FTN()void  size(2) Largest target is 1
		 -> NULL(), 

    S3021$MSSP_SPI_InterruptHandler	PTR FTN()void  size(2) Largest target is 0

    SPI_Init@Config.MSSP_SPI_InterruptHandler	PTR FTN()void  size(2) Largest target is 0

    Interrupt_INTx_SetInterruptHandler@int_obj.EXT_InterruptHandler	PTR FTN()void  size(2) Largest target is 0

    Interrupt_INTx_Clear_Flag@int_obj.EXT_InterruptHandler	PTR FTN()void  size(2) Largest target is 0

    Interrupt_INTx_Pin_Init@int_obj.EXT_InterruptHandler	PTR FTN()void  size(2) Largest target is 0

    Interrupt_INTx_Edge_Init@int_obj.EXT_InterruptHandler	PTR FTN()void  size(2) Largest target is 0

    Interrupt_INTx_Disable@int_obj.EXT_InterruptHandler	PTR FTN()void  size(2) Largest target is 0

    S2398$EXT_InterruptHandler	PTR FTN()void  size(2) Largest target is 0

    Interrupt_INTx_Enable@int_obj.EXT_InterruptHandler	PTR FTN()void  size(2) Largest target is 0

    S2514$EXT_InterruptHandler_LOW	PTR FTN()void  size(2) Largest target is 0

    Interrupt_RBx_Init@int_obj.EXT_InterruptHandler_LOW	PTR FTN()void  size(2) Largest target is 0

    S2514$EXT_InterruptHandler_HIGH	PTR FTN()void  size(2) Largest target is 0

    Interrupt_RBx_Init@int_obj.EXT_InterruptHandler_HIGH	PTR FTN()void  size(2) Largest target is 0

    RB7_InterruptHandler_LOW	PTR FTN()void  size(2) Largest target is 1
		 -> NULL(), 

    RB7_InterruptHandler_HIGH	PTR FTN()void  size(2) Largest target is 1
		 -> NULL(), 

    RB6_InterruptHandler_LOW	PTR FTN()void  size(2) Largest target is 1
		 -> NULL(), 

    RB6_InterruptHandler_HIGH	PTR FTN()void  size(2) Largest target is 1
		 -> NULL(), 

    RB5_InterruptHandler_LOW	PTR FTN()void  size(2) Largest target is 1
		 -> NULL(), 

    RB5_InterruptHandler_HIGH	PTR FTN()void  size(2) Largest target is 1
		 -> NULL(), 

    RB4_InterruptHandler_LOW	PTR FTN()void  size(2) Largest target is 1
		 -> NULL(), 

    RB4_InterruptHandler_HIGH	PTR FTN()void  size(2) Largest target is 1
		 -> NULL(), 

    INT2_InterruptHandler	PTR FTN()void  size(2) Largest target is 1
		 -> NULL(), 

    INT1_InterruptHandler	PTR FTN()void  size(2) Largest target is 1
		 -> NULL(), 

    INT0_InterruptHandler	PTR FTN()void  size(2) Largest target is 1
		 -> NULL(), 

    I2C_Report_Receive_Overflow_InterruptHandle	PTR FTN()void  size(2) Largest target is 1
		 -> NULL(), 

    MSSP_I2C_Interrupt_Configurations@i2c_obj.I2C_Report_Receive_Overflow	PTR FTN()void  size(2) Largest target is 1
		 -> NULL(), 

    MSSP_I2C_Interrupt_Configurations@i2c_obj.I2C_DefaultInterruptHandler	PTR FTN()void  size(2) Largest target is 1
		 -> NULL(), 

    MSSP_I2C_Interrupt_Configurations@i2c_obj.I2C_Report_Write_Collision	PTR FTN()void  size(2) Largest target is 1
		 -> NULL(), 

    MSSP_I2C_Interrupt_Configurations@i2c_obj	PTR const struct . size(2) Largest target is 15
		 -> i2c_obj(BANK0[15]), 

    I2C_Slave_Mode_Configurations@i2c_obj.I2C_Report_Receive_Overflow	PTR FTN()void  size(2) Largest target is 1
		 -> NULL(), 

    I2C_Slave_Mode_Configurations@i2c_obj.I2C_DefaultInterruptHandler	PTR FTN()void  size(2) Largest target is 1
		 -> NULL(), 

    I2C_Slave_Mode_Configurations@i2c_obj.I2C_Report_Write_Collision	PTR FTN()void  size(2) Largest target is 1
		 -> NULL(), 

    I2C_Slave_Mode_Configurations@i2c_obj	PTR const struct . size(2) Largest target is 15
		 -> i2c_obj(BANK0[15]), 

    I2C_Master_Mode_Clock_Configurations@i2c_obj.I2C_Report_Receive_Overflow	PTR FTN()void  size(2) Largest target is 1
		 -> NULL(), 

    I2C_Master_Mode_Clock_Configurations@i2c_obj.I2C_DefaultInterruptHandler	PTR FTN()void  size(2) Largest target is 1
		 -> NULL(), 

    I2C_Master_Mode_Clock_Configurations@i2c_obj.I2C_Report_Write_Collision	PTR FTN()void  size(2) Largest target is 1
		 -> NULL(), 

    I2C_Master_Mode_Clock_Configurations@i2c_obj	PTR const struct . size(2) Largest target is 15
		 -> i2c_obj(BANK0[15]), 

    I2C_Report_Write_Collision_InterruptHandler	PTR FTN()void  size(2) Largest target is 1
		 -> NULL(), 

    I2C_DefaultInterruptHandle	PTR FTN()void  size(2) Largest target is 1
		 -> NULL(), 

    MSSP_I2C_EXT_Device_Read_1_Byte@slave_ack	PTR unsigned char  size(2) Largest target is 1
		 -> slave_ack(COMRAM[1]), 

    MSSP_I2C_EXT_Device_Read_1_Byte@_data	PTR unsigned char  size(2) Largest target is 6
		 -> ret_password(BANK0[6]), 

    MSSP_I2C_EXT_Device_Read_1_Byte@i2c_obj	PTR const struct . size(2) Largest target is 15
		 -> i2c_obj(BANK0[15]), 

    MSSP_I2C_EXT_Device_Write_1_Byte@slave_ack	PTR unsigned char  size(2) Largest target is 1
		 -> slave_ack(COMRAM[1]), 

    MSSP_I2C_EXT_Device_Write_1_Byte@i2c_obj	PTR const struct . size(2) Largest target is 15
		 -> i2c_obj(BANK0[15]), 

    MSSP_I2C_Master_Read_Blocking@i2c_data	PTR unsigned char  size(2) Largest target is 6
		 -> ret_password(BANK0[6]), 

    MSSP_I2C_Master_Read_Blocking@i2c_obj	PTR const struct . size(2) Largest target is 2
		 -> MSSP_I2C_EXT_Device_Read_1_Byte@i2c_obj(COMRAM[2]), 

    MSSP_I2C_Master_Write_Blocking@_ack	PTR unsigned char  size(2) Largest target is 2
		 -> MSSP_I2C_EXT_Device_Read_1_Byte@slave_ack(COMRAM[2]), MSSP_I2C_EXT_Device_Write_1_Byte@slave_ack(COMRAM[2]), 

    MSSP_I2C_Master_Write_Blocking@i2c_obj	PTR const struct . size(2) Largest target is 2
		 -> MSSP_I2C_EXT_Device_Read_1_Byte@i2c_obj(COMRAM[2]), MSSP_I2C_EXT_Device_Write_1_Byte@i2c_obj(COMRAM[2]), 

    MSSP_I2C_Master_Send_Stop@i2c_obj	PTR const struct . size(2) Largest target is 2
		 -> MSSP_I2C_EXT_Device_Read_1_Byte@i2c_obj(COMRAM[2]), MSSP_I2C_EXT_Device_Write_1_Byte@i2c_obj(COMRAM[2]), 

    MSSP_I2C_Master_Send_Repeated_Start@i2c_obj	PTR const struct . size(2) Largest target is 2
		 -> MSSP_I2C_EXT_Device_Read_1_Byte@i2c_obj(COMRAM[2]), 

    MSSP_I2C_Master_Send_Start@i2c_obj	PTR const struct . size(2) Largest target is 2
		 -> MSSP_I2C_EXT_Device_Read_1_Byte@i2c_obj(COMRAM[2]), MSSP_I2C_EXT_Device_Write_1_Byte@i2c_obj(COMRAM[2]), 

    S1856$I2C_Report_Receive_Overflow	PTR FTN()void  size(2) Largest target is 1
		 -> NULL(), 

    MSSP_I2C_Init@i2c_obj.I2C_Report_Receive_Overflow	PTR FTN()void  size(2) Largest target is 1
		 -> NULL(), 

    S1856$I2C_DefaultInterruptHandler	PTR FTN()void  size(2) Largest target is 1
		 -> NULL(), 

    MSSP_I2C_Init@i2c_obj.I2C_DefaultInterruptHandler	PTR FTN()void  size(2) Largest target is 1
		 -> NULL(), 

    S1856$I2C_Report_Write_Collision	PTR FTN()void  size(2) Largest target is 1
		 -> NULL(), 

    MSSP_I2C_Init@i2c_obj.I2C_Report_Write_Collision	PTR FTN()void  size(2) Largest target is 1
		 -> NULL(), 

    MSSP_I2C_Init@i2c_obj	PTR const struct . size(2) Largest target is 15
		 -> i2c_obj(BANK0[15]), 

    gpio_pin_intialize@_pin_config	PTR const struct . size(2) Largest target is 2
		 -> buzzer(COMRAM[1]), dc_motor_1.dc_motor_pin(BANK0[2]), dc_motor_1(BANK0[2]), 

    gpio_pin_write_logic@_pin_config	PTR const struct . size(2) Largest target is 2
		 -> buzzer(COMRAM[1]), dc_motor_1.dc_motor_pin(BANK0[2]), dc_motor_1(BANK0[2]), 

    gpio_pin_direction_intialize@_pin_config	PTR const struct . size(2) Largest target is 2
		 -> buzzer(COMRAM[1]), MSSP_SPI_Slave_Mode_GPIO_PIN_Configurations@SPI_SS(COMRAM[1]), MSSP_SPI_Slave_Mode_GPIO_PIN_Configurations@SPI_CLK(COMRAM[1]), MSSP_SPI_Slave_Mode_GPIO_PIN_Configurations@SPI_SDI(COMRAM[1]), 
		 -> MSSP_SPI_Slave_Mode_GPIO_PIN_Configurations@SPI_SDO(COMRAM[1]), MSSP_SPI_Msster_Mode_GPIO_PIN_Configurations@SPI_CLK(COMRAM[1]), MSSP_SPI_Msster_Mode_GPIO_PIN_Configurations@SPI_SDI(COMRAM[1]), MSSP_SPI_Msster_Mode_GPIO_PIN_Configurations@SPI_SDO(COMRAM[1]), 
		 -> dc_motor_1.dc_motor_pin(BANK0[2]), dc_motor_1(BANK0[2]), 

    port_registers	PTR volatile unsigned char [5] size(2) Largest target is 1
		 -> PORTE(BITBIGSFRlllll[1]), PORTD(BITBIGSFRlllll[1]), PORTC(BITBIGSFRlllll[1]), PORTB(BITBIGSFRlllll[1]), 
		 -> PORTA(BITBIGSFRlllll[1]), 

    lat_registers	PTR volatile unsigned char [5] size(2) Largest target is 1
		 -> LATE(BITBIGSFRllllh[1]), LATD(BITBIGSFRllllh[1]), LATC(BITBIGSFRllllh[1]), LATB(BITBIGSFRllllh[1]), 
		 -> LATA(BITBIGSFRlllll[1]), 

    tris_registers	PTR volatile unsigned char [5] size(2) Largest target is 1
		 -> TRISD(ABS[1]), TRISC(ABS[1]), TRISB(ABS[1]), TRISE(ABS[1]), 
		 -> TRISA(BITBIGSFRlllll[1]), 

    CCP_Compare_Mode_Config@_ccp_obj.CCP2_InterruptHandler	PTR FTN()void  size(2) Largest target is 0

    CCP_Compare_Mode_Config@_ccp_obj.CCP1_InterruptHandler	PTR FTN()void  size(2) Largest target is 0

    CCP_Capture_Mode_Config@_ccp_obj.CCP2_InterruptHandler	PTR FTN()void  size(2) Largest target is 0

    CCP_Capture_Mode_Config@_ccp_obj.CCP1_InterruptHandler	PTR FTN()void  size(2) Largest target is 0

    CCP_Mode_Timer_Select@_ccp_obj.CCP2_InterruptHandler	PTR FTN()void  size(2) Largest target is 0

    CCP_Mode_Timer_Select@_ccp_obj.CCP1_InterruptHandler	PTR FTN()void  size(2) Largest target is 0

    CCP_Interrupt_Config@_ccp_obj.CCP2_InterruptHandler	PTR FTN()void  size(2) Largest target is 0

    CCP_Interrupt_Config@_ccp_obj.CCP1_InterruptHandler	PTR FTN()void  size(2) Largest target is 0

    CCP_PWM_Mode_Config@_ccp_obj.CCP2_InterruptHandler	PTR FTN()void  size(2) Largest target is 0

    CCP_PWM_Mode_Config@_ccp_obj.CCP1_InterruptHandler	PTR FTN()void  size(2) Largest target is 0

    CCP2_InterruptHandler	PTR FTN()void  size(2) Largest target is 1
		 -> NULL(), 

    CCP1_InterruptHandler	PTR FTN()void  size(2) Largest target is 1
		 -> NULL(), 

    CCP_PWM_Stop@_ccp_obj.CCP2_InterruptHandler	PTR FTN()void  size(2) Largest target is 0

    CCP_PWM_Stop@_ccp_obj.CCP1_InterruptHandler	PTR FTN()void  size(2) Largest target is 0

    CCP_PWM_Start@_ccp_obj.CCP2_InterruptHandler	PTR FTN()void  size(2) Largest target is 0

    CCP_PWM_Start@_ccp_obj.CCP1_InterruptHandler	PTR FTN()void  size(2) Largest target is 0

    CCP_PWM_Set_Duty@_ccp_obj.CCP2_InterruptHandler	PTR FTN()void  size(2) Largest target is 0

    CCP_PWM_Set_Duty@_ccp_obj.CCP1_InterruptHandler	PTR FTN()void  size(2) Largest target is 0

    CCP_DeInit@_ccp_obj.CCP2_InterruptHandler	PTR FTN()void  size(2) Largest target is 0

    CCP_DeInit@_ccp_obj.CCP1_InterruptHandler	PTR FTN()void  size(2) Largest target is 0

    S1145$CCP2_InterruptHandler	PTR FTN()void  size(2) Largest target is 0

    CCP_Init@_ccp_obj.CCP2_InterruptHandler	PTR FTN()void  size(2) Largest target is 0

    S1145$CCP1_InterruptHandler	PTR FTN()void  size(2) Largest target is 0

    CCP_Init@_ccp_obj.CCP1_InterruptHandler	PTR FTN()void  size(2) Largest target is 0

    configure_voltage_reference@_adc.ADC_InterruptHandler	PTR FTN()void  size(2) Largest target is 0

    select_result_format@_adc.ADC_InterruptHandler	PTR FTN()void  size(2) Largest target is 0

    ADC_GetConversionResult@_adc.ADC_InterruptHandler	PTR FTN()void  size(2) Largest target is 0

    ADC_InterruptHandler	PTR FTN()void  size(2) Largest target is 1
		 -> NULL(), 

    S727$ADC_InterruptHandler	PTR FTN()void  size(2) Largest target is 0

    ADC_Init@_adc.ADC_InterruptHandler	PTR FTN()void  size(2) Largest target is 0

    dc_motor_stop@_dc_motor	PTR const struct . size(2) Largest target is 2
		 -> dc_motor_1(BANK0[2]), 

    dc_motor_move_left@_dc_motor	PTR const struct . size(2) Largest target is 2
		 -> dc_motor_1(BANK0[2]), 

    dc_motor_move_right@_dc_motor	PTR const struct . size(2) Largest target is 2
		 -> dc_motor_1(BANK0[2]), 

    dc_motor_initialize@_dc_motor	PTR const struct . size(2) Largest target is 2
		 -> dc_motor_1(BANK0[2]), 

    sp__memset	PTR void  size(2) Largest target is 0


Critical Paths under _main in COMRAM

    _unlock_door->_dc_motor_move_right
    _dc_motor_move_right->_gpio_pin_write_logic
    _ecu_layer_init->_dc_motor_initialize
    _dc_motor_initialize->_gpio_pin_intialize
    _gpio_pin_intialize->_gpio_pin_write_logic
    _Timer0_Init->_Timer0_Prescaler_Config
    _MSSP_I2C_Init->_I2C_Master_Mode_Clock_Configurations
    _I2C_Master_Mode_Clock_Configurations->___fltol
    _EUSART_ASYNC_Init->_EUSART_Baud_Rate_Calculation
    _EUSART_Baud_Rate_Calculation->___fltol
    ___fltol->___fladd
    ___fldiv->___xxtofl
    ___fladd->___fldiv
    _MSSP_I2C_EXT_Device_Write_1_Byte->_MSSP_I2C_Master_Write_Blocking
    _MSSP_I2C_EXT_Device_Read_1_Byte->_MSSP_I2C_Master_Read_Blocking
    _MSSP_I2C_EXT_Device_Read_1_Byte->_MSSP_I2C_Master_Write_Blocking

Critical Paths under _InterruptManager in COMRAM

    _Timer0_DefaultInterruptHandler->_dc_motor_move_left
    _Timer0_DefaultInterruptHandler->_dc_motor_stop
    _dc_motor_stop->i2_gpio_pin_write_logic
    _dc_motor_move_left->i2_gpio_pin_write_logic
    _EUSART_RxDefaultInterruptHandler->_EUSART_ASYNC_ReadByteNonBlocking

Critical Paths under _main in BANK0

    _application_initialize->_MSSP_I2C_Init
    _MSSP_I2C_Init->_I2C_Master_Mode_Clock_Configurations
    _EUSART_ASYNC_Init->_EUSART_Baud_Rate_Calculation

Critical Paths under _InterruptManager in BANK0

    None.

Critical Paths under _main in BANK1

    _application_initialize->_EUSART_ASYNC_Init
    _EUSART_ASYNC_Init->_EUSART_Baud_Rate_Calculation

Critical Paths under _InterruptManager in BANK1

    None.

Critical Paths under _main in BANK2

    None.

Critical Paths under _InterruptManager in BANK2

    None.

Critical Paths under _main in BANK3

    None.

Critical Paths under _InterruptManager in BANK3

    None.

Critical Paths under _main in BANK4

    None.

Critical Paths under _InterruptManager in BANK4

    None.

Critical Paths under _main in BANK5

    None.

Critical Paths under _InterruptManager in BANK5

    None.

Critical Paths under _main in BANK6

    None.

Critical Paths under _InterruptManager in BANK6

    None.

Critical Paths under _main in BANK7

    None.

Critical Paths under _InterruptManager in BANK7

    None.

Critical Paths under _main in BANK8

    None.

Critical Paths under _InterruptManager in BANK8

    None.

Critical Paths under _main in BANK9

    None.

Critical Paths under _InterruptManager in BANK9

    None.

Critical Paths under _main in BANK10

    None.

Critical Paths under _InterruptManager in BANK10

    None.

Critical Paths under _main in BANK11

    None.

Critical Paths under _InterruptManager in BANK11

    None.

Critical Paths under _main in BANK12

    None.

Critical Paths under _InterruptManager in BANK12

    None.

Critical Paths under _main in BANK13

    None.

Critical Paths under _InterruptManager in BANK13

    None.

Critical Paths under _main in BANK14

    None.

Critical Paths under _InterruptManager in BANK14

    None.

Critical Paths under _main in BANK15

    None.

Critical Paths under _InterruptManager in BANK15

    None.

Call Graph Tables:

 ---------------------------------------------------------------------------------
 (Depth) Function   	        Calls       Base Space   Used Autos Params    Refs
 ---------------------------------------------------------------------------------
 (0) _main                                                 6     6      0   66300
                                             11 BANK1      5     5      0
  _EUSART_ASYNC_WriteByteNonBlocking
    _MSSP_I2C_EXT_Device_Read_1_Byte
   _MSSP_I2C_EXT_Device_Write_1_Byte
             _application_initialize
                _check_password_ctrl
               _gpio_pin_write_logic
                        _unlock_door
 ---------------------------------------------------------------------------------
 (1) _unlock_door                                          0     0      0    6833
                _dc_motor_move_right
 ---------------------------------------------------------------------------------
 (2) _dc_motor_move_right                                  3     1      2    6833
                                             28 COMRAM     2     0      2
               _gpio_pin_write_logic
 ---------------------------------------------------------------------------------
 (1) _check_password_ctrl                                  3     3      0     130
                                             18 COMRAM     3     3      0
 ---------------------------------------------------------------------------------
 (1) _application_initialize                               1     1      0   44633
                  _EUSART_ASYNC_Init
                      _MSSP_I2C_Init
                        _Timer0_Init
                     _ecu_layer_init
                 _gpio_pin_intialize
 ---------------------------------------------------------------------------------
 (2) _ecu_layer_init                                       1     1      0   10108
                _dc_motor_initialize
 ---------------------------------------------------------------------------------
 (3) _dc_motor_initialize                                  3     1      2   10102
                                             32 COMRAM     3     1      2
                 _gpio_pin_intialize
 ---------------------------------------------------------------------------------
 (2) _gpio_pin_intialize                                   4     2      2    9882
                                             28 COMRAM     4     2      2
       _gpio_pin_direction_intialize
               _gpio_pin_write_logic
 ---------------------------------------------------------------------------------
 (3) _gpio_pin_write_logic                                10     7      3    6637
                                             18 COMRAM    10     7      3
 ---------------------------------------------------------------------------------
 (3) _gpio_pin_direction_intialize                         9     7      2    1337
                                             18 COMRAM     9     7      2
 ---------------------------------------------------------------------------------
 (2) _Timer0_Init                                          5     3      2     927
                                             21 COMRAM     5     3      2
                 _Timer0_Mode_Select
            _Timer0_Prescaler_Config
        _Timer0_Register_Size_Config
 ---------------------------------------------------------------------------------
 (3) _Timer0_Register_Size_Config                          2     0      2     152
                                             18 COMRAM     2     0      2
 ---------------------------------------------------------------------------------
 (3) _Timer0_Prescaler_Config                              3     1      2     183
                                             18 COMRAM     3     1      2
 ---------------------------------------------------------------------------------
 (3) _Timer0_Mode_Select                                   2     0      2     214
                                             18 COMRAM     2     0      2
 ---------------------------------------------------------------------------------
 (2) _MSSP_I2C_Init                                        3     1      2   11614
                                              1 BANK0      1     1      0
                                              0 BANK1      2     0      2
_I2C_Master_Mode_Clock_Configuration
      _I2C_Slave_Mode_Configurations
  _MSSP_I2C_Interrupt_Configurations
             _MSSP_I2C_Mode_GPIO_CFG
 ---------------------------------------------------------------------------------
 (3) _MSSP_I2C_Mode_GPIO_CFG                               0     0      0       0
 ---------------------------------------------------------------------------------
 (3) _MSSP_I2C_Interrupt_Configurations                    2     0      2     183
                                             18 COMRAM     2     0      2
 ---------------------------------------------------------------------------------
 (3) _I2C_Slave_Mode_Configurations                        3     1      2     121
                                             18 COMRAM     3     1      2
 ---------------------------------------------------------------------------------
 (3) _I2C_Master_Mode_Clock_Configurations                 3     1      2   10780
                                             83 COMRAM     2     0      2
                                              0 BANK0      1     1      0
                            ___fladd
                            ___fldiv
                            ___fltol
                           ___xxtofl
 ---------------------------------------------------------------------------------
 (2) _EUSART_ASYNC_Init                                    3     1      2   12087
                                              8 BANK1      3     1      2
               _EUSART_ASYNC_RX_Init
               _EUSART_ASYNC_TX_Init
       _EUSART_Baud_Rate_Calculation
 ---------------------------------------------------------------------------------
 (3) _EUSART_Baud_Rate_Calculation                        12    10      2   11222
                                             83 COMRAM     2     0      2
                                              0 BANK0      2     2      0
                                              0 BANK1      8     8      0
                            ___fladd
                            ___fldiv
                            ___fltol
                           ___xxtofl
 ---------------------------------------------------------------------------------
 (4) ___xxtofl                                            14    10      4    1436
                                             18 COMRAM    14    10      4
 ---------------------------------------------------------------------------------
 (4) ___fltol                                             10     6      4     847
                                             73 COMRAM    10     6      4
                            ___fladd (ARG)
                            ___fldiv (ARG)
                           ___xxtofl (ARG)
 ---------------------------------------------------------------------------------
 (4) ___fldiv                                             25    17      8    3923
                                             32 COMRAM    25    17      8
                           ___xxtofl (ARG)
 ---------------------------------------------------------------------------------
 (4) ___fladd                                             16     8      8    4422
                                             57 COMRAM    16     8      8
                            ___fldiv (ARG)
                           ___xxtofl (ARG)
 ---------------------------------------------------------------------------------
 (3) _EUSART_ASYNC_TX_Init                                 2     0      2     276
                                             18 COMRAM     2     0      2
 ---------------------------------------------------------------------------------
 (3) _EUSART_ASYNC_RX_Init                                 2     0      2     338
                                             18 COMRAM     2     0      2
 ---------------------------------------------------------------------------------
 (1) _MSSP_I2C_EXT_Device_Write_1_Byte                     9     2      7    3200
                                             24 COMRAM     8     1      7
         _MSSP_I2C_Master_Send_Start
          _MSSP_I2C_Master_Send_Stop
     _MSSP_I2C_Master_Write_Blocking
 ---------------------------------------------------------------------------------
 (1) _MSSP_I2C_EXT_Device_Read_1_Byte                     10     2      8    4400
                                             24 COMRAM    10     2      8
      _MSSP_I2C_Master_Read_Blocking
_MSSP_I2C_Master_Send_Repeated_Start
         _MSSP_I2C_Master_Send_Start
          _MSSP_I2C_Master_Send_Stop
     _MSSP_I2C_Master_Write_Blocking
 ---------------------------------------------------------------------------------
 (2) _MSSP_I2C_Master_Write_Blocking                       6     1      5    1812
                                             18 COMRAM     6     1      5
 ---------------------------------------------------------------------------------
 (2) _MSSP_I2C_Master_Send_Stop                            3     1      2     251
                                             18 COMRAM     3     1      2
 ---------------------------------------------------------------------------------
 (2) _MSSP_I2C_Master_Send_Start                           3     1      2     251
                                             18 COMRAM     3     1      2
 ---------------------------------------------------------------------------------
 (2) _MSSP_I2C_Master_Send_Repeated_Start                  3     1      2     158
                                             18 COMRAM     3     1      2
 ---------------------------------------------------------------------------------
 (2) _MSSP_I2C_Master_Read_Blocking                        6     1      5     462
                                             18 COMRAM     6     1      5
 ---------------------------------------------------------------------------------
 (1) _EUSART_ASYNC_WriteByteNonBlocking                    2     2      0      65
                                             18 COMRAM     1     1      0
 ---------------------------------------------------------------------------------
 Estimated maximum stack depth 4
 ---------------------------------------------------------------------------------
 (Depth) Function   	        Calls       Base Space   Used Autos Params    Refs
 ---------------------------------------------------------------------------------
 (6) _InterruptManager                                     7     7      0    1342
                                             11 COMRAM     7     7      0
                            _ADC_ISR
                           _CCP1_ISR
                           _CCP2_ISR
                      _EUSART_RX_ISR
                      _EUSART_TX_ISR
                           _INT0_ISR
                           _INT1_ISR
                           _INT2_ISR
                    _MSSP_I2C_BC_ISR
                       _MSSP_I2C_ISR
                       _MSSP_SPI_ISR
                            _RB4_ISR
                            _RB5_ISR
                            _RB6_ISR
                            _RB7_ISR
                           _TMR0_ISR
                           _TMR1_ISR
                           _TMR2_ISR
                           _TMR3_ISR
 ---------------------------------------------------------------------------------
 (7) _TMR3_ISR                                             0     0      0       0
 ---------------------------------------------------------------------------------
 (7) _TMR2_ISR                                             0     0      0       0
 ---------------------------------------------------------------------------------
 (7) _TMR1_ISR                                             0     0      0       0
 ---------------------------------------------------------------------------------
 (7) _TMR0_ISR                                             0     0      0    1042
                                NULL *
     _Timer0_DefaultInterruptHandler *
 ---------------------------------------------------------------------------------
 (8) _Timer0_DefaultInterruptHandler                       0     0      0    1042
                 _dc_motor_move_left
                      _dc_motor_stop
 ---------------------------------------------------------------------------------
 (9) _dc_motor_stop                                        3     1      2     521
                                              9 COMRAM     2     0      2
             i2_gpio_pin_write_logic
 ---------------------------------------------------------------------------------
 (9) _dc_motor_move_left                                   3     1      2     521
                                              9 COMRAM     2     0      2
             i2_gpio_pin_write_logic
 ---------------------------------------------------------------------------------
 (10) i2_gpio_pin_write_logic                             10     7      3     371
                                              0 COMRAM     9     6      3
 ---------------------------------------------------------------------------------
 (7) _RB7_ISR                                              1     1      0      44
                                              0 COMRAM     1     1      0
 ---------------------------------------------------------------------------------
 (7) _RB6_ISR                                              1     1      0      44
                                              0 COMRAM     1     1      0
 ---------------------------------------------------------------------------------
 (7) _RB5_ISR                                              1     1      0      44
                                              0 COMRAM     1     1      0
 ---------------------------------------------------------------------------------
 (7) _RB4_ISR                                              1     1      0      44
                                              0 COMRAM     1     1      0
 ---------------------------------------------------------------------------------
 (7) _MSSP_SPI_ISR                                         0     0      0       0
 ---------------------------------------------------------------------------------
 (7) _MSSP_I2C_ISR                                         0     0      0       0
 ---------------------------------------------------------------------------------
 (7) _MSSP_I2C_BC_ISR                                      0     0      0       0
 ---------------------------------------------------------------------------------
 (7) _INT2_ISR                                             0     0      0       0
 ---------------------------------------------------------------------------------
 (7) _INT1_ISR                                             0     0      0       0
 ---------------------------------------------------------------------------------
 (7) _INT0_ISR                                             0     0      0       0
 ---------------------------------------------------------------------------------
 (7) _EUSART_TX_ISR                                        0     0      0       0
 ---------------------------------------------------------------------------------
 (7) _EUSART_RX_ISR                                        0     0      0     124
                                NULL *
   _EUSART_RxDefaultInterruptHandler *
 ---------------------------------------------------------------------------------
 (8) _EUSART_RxDefaultInterruptHandler                     1     1      0     124
   _EUSART_ASYNC_ReadByteNonBlocking
 ---------------------------------------------------------------------------------
 (9) _EUSART_ASYNC_ReadByteNonBlocking                     3     1      2     122
                                              0 COMRAM     3     1      2
 ---------------------------------------------------------------------------------
 (8) NULL(Fake)                                            0     0      0       0
 ---------------------------------------------------------------------------------
 (7) _CCP2_ISR                                             0     0      0       0
 ---------------------------------------------------------------------------------
 (7) _CCP1_ISR                                             0     0      0       0
 ---------------------------------------------------------------------------------
 (7) _ADC_ISR                                              0     0      0       0
 ---------------------------------------------------------------------------------
 Estimated maximum stack depth 10
 ---------------------------------------------------------------------------------

 Call Graph Graphs:

 _main (ROOT)
   _EUSART_ASYNC_WriteByteNonBlocking
   _MSSP_I2C_EXT_Device_Read_1_Byte
     _MSSP_I2C_Master_Read_Blocking
     _MSSP_I2C_Master_Send_Repeated_Start
     _MSSP_I2C_Master_Send_Start
     _MSSP_I2C_Master_Send_Stop
     _MSSP_I2C_Master_Write_Blocking
   _MSSP_I2C_EXT_Device_Write_1_Byte
     _MSSP_I2C_Master_Send_Start
     _MSSP_I2C_Master_Send_Stop
     _MSSP_I2C_Master_Write_Blocking
   _application_initialize
     _EUSART_ASYNC_Init
       _EUSART_ASYNC_RX_Init
       _EUSART_ASYNC_TX_Init
       _EUSART_Baud_Rate_Calculation
         ___fladd
           ___fldiv (ARG)
             ___xxtofl (ARG)
           ___xxtofl (ARG)
         ___fldiv
         ___fltol
           ___fladd (ARG)
           ___fldiv (ARG)
           ___xxtofl (ARG)
         ___xxtofl
     _MSSP_I2C_Init
       _I2C_Master_Mode_Clock_Configurations
         ___fladd
         ___fldiv
         ___fltol
         ___xxtofl
       _I2C_Slave_Mode_Configurations
       _MSSP_I2C_Interrupt_Configurations
       _MSSP_I2C_Mode_GPIO_CFG
     _Timer0_Init
       _Timer0_Mode_Select
       _Timer0_Prescaler_Config
       _Timer0_Register_Size_Config
     _ecu_layer_init
       _dc_motor_initialize
         _gpio_pin_intialize
           _gpio_pin_direction_intialize
           _gpio_pin_write_logic
     _gpio_pin_intialize
   _check_password_ctrl
   _gpio_pin_write_logic
   _unlock_door
     _dc_motor_move_right
       _gpio_pin_write_logic

 _InterruptManager (ROOT)
   _ADC_ISR
   _CCP1_ISR
   _CCP2_ISR
   _EUSART_RX_ISR
     NULL(Fake) *
     _EUSART_RxDefaultInterruptHandler *
       _EUSART_ASYNC_ReadByteNonBlocking
   _EUSART_TX_ISR
   _INT0_ISR
   _INT1_ISR
   _INT2_ISR
   _MSSP_I2C_BC_ISR
   _MSSP_I2C_ISR
   _MSSP_SPI_ISR
   _RB4_ISR
   _RB5_ISR
   _RB6_ISR
   _RB7_ISR
   _TMR0_ISR
     NULL(Fake) *
     _Timer0_DefaultInterruptHandler *
       _dc_motor_move_left
         i2_gpio_pin_write_logic
       _dc_motor_stop
         i2_gpio_pin_write_logic
   _TMR1_ISR
   _TMR2_ISR
   _TMR3_ISR

 Address spaces:
Name               Size   Autos  Total    Cost      Usage
BIGRAM             F7F      0       0      49        0.0%
EEDATA             400      0       0       0        0.0%
BITBANK14          100      0       0      33        0.0%
BANK14             100      0       0      34        0.0%
BITBANK13          100      0       0      31        0.0%
BANK13             100      0       0      32        0.0%
BITBANK12          100      0       0      29        0.0%
BANK12             100      0       0      30        0.0%
BITBANK11          100      0       0      27        0.0%
BANK11             100      0       0      28        0.0%
BITBANK10          100      0       0      25        0.0%
BANK10             100      0       0      26        0.0%
BITBANK9           100      0       0      23        0.0%
BANK9              100      0       0      24        0.0%
BITBANK8           100      0       0      21        0.0%
BANK8              100      0       0      22        0.0%
BITBANK7           100      0       0      19        0.0%
BANK7              100      0       0      20        0.0%
BITBANK6           100      0       0      17        0.0%
BANK6              100      0       0      18        0.0%
BITBANK5           100      0       0      15        0.0%
BANK5              100      0       0      16        0.0%
BITBANK4           100      0       0      13        0.0%
BANK4              100      0       0      14        0.0%
BITBANK3           100      0       0      10        0.0%
BANK3              100      0       0      11        0.0%
BITBANK2           100      0       0       8        0.0%
BANK2              100      0       0       9        0.0%
BITBANK1           100      0       0       6        0.0%
BANK1              100     10      50       7       31.2%
BITBANK15           80      0       0      35        0.0%
BANK15              80      0       0      36        0.0%
BITBANK0            80      0       0       4        0.0%
BANK0               80      2      80       5      100.0%
BITCOMRAM           7E      0       0       0        0.0%
COMRAM              7E     55      6C       1       85.7%
BITBIGSFRhlhhlh     18      0       0      38        0.0%
BITBIGSFRhh          D      0       0      37        0.0%
BITBIGSFRlllhh       6      0       0      46        0.0%
BITBIGSFRhlhhll      5      0       0      39        0.0%
BITBIGSFRllhllh      4      0       0      43        0.0%
BITBIGSFRllllh       4      0       0      47        0.0%
BITBIGSFRllhllh      4      0       0      44        0.0%
BITBIGSFRlllll       4      0       0      48        0.0%
BITBIGSFRllhllh      1      0       0      42        0.0%
BITBIGSFRllhlh       1      0       0      41        0.0%
BITBIGSFRllhh        1      0       0      40        0.0%
BITBIGSFRllhlll      1      0       0      45        0.0%
BIGSFR               0      0       0     200        0.0%
BITSFR               0      0       0     200        0.0%
SFR                  0      0       0     200        0.0%
STACK                0      0       0       2        0.0%
NULL                 0      0       0       0        0.0%
ABS                  0      0     13C      12        0.0%
DATA                 0      0     13C       3        0.0%
CODE                 0      0       0       0        0.0%


Microchip Technology PIC18 Macro Assembler V2.41 build 20230208172133 
Symbol Table                                                                                   Wed Nov 29 09:40:56 2023

                               ??_InterruptManager 000C                                       ___fldiv@aexp 0039  
                                     ___fldiv@bexp 0038                                       ___fldiv@sign 0031  
                                      _SSPSTATbits 0FC7                                                l222 365E  
                                              l217 35E4                                                l353 38D4  
                                              l716 2912                                                l910 30A8  
                                              l822 2554                                                l903 3042  
                                              l735 2A3E                                                l912 3096  
                                              l840 2688                                                l850 3586  
                                              l907 3070                                                l916 30AA  
                                              l860 37A0                                                l852 3594  
                                              l828 25D6                                                l756 332A  
                                              l862 37AE                                                l870 3552  
                                              l942 3142                                                l863 37B2  
                                              l855 35A6                                                l848 3584  
                                              l880 3284                                                l960 3908  
                                              l849 35A4                                                l873 3564  
                                              l858 379E                                                l866 3542  
                                              l882 3292                                                l867 3562  
                                              l963 300E                                                l868 3544  
                                              l876 3280                                                l885 32BE  
                                              l949 2E1A                                                l966 382C  
                                              l969 3522                                                l899 3040  
                                              _PR2 0FCB            __end_of_MSSP_I2C_EXT_Device_Read_1_Byte 2E1C  
                ??_MSSP_I2C_EXT_Device_Read_1_Byte 0021                   ?_MSSP_I2C_EXT_Device_Read_1_Byte 0019  
                  _MSSP_I2C_EXT_Device_Read_1_Byte 2D44                          _RB5_InterruptHandler_HIGH 00AA  
                                  __end_of_ADC_ISR 3934         MSSP_I2C_Master_Send_Repeated_Start@i2c_obj 0013  
                                              prod 0FF3                                                tosl 0FFD  
                                              wreg 0FE8             __end_of_Timer0_DefaultInterruptHandler 338E  
                   _Timer0_DefaultInterruptHandler 332C                                        _unlock_door 38B0  
                         ??_MSSP_I2C_Mode_GPIO_CFG 0013                    ??_MSSP_I2C_Master_Read_Blocking 0018  
                                  __end_of_RB4_ISR 38B0                                    __end_of_RB5_ISR 3896  
                                  __end_of_RB6_ISR 387C                                    __end_of_RB7_ISR 3862  
                                     ___fltol@exp1 0053                                               l1421 2F72  
                                             l2206 2C66                                               l1419 2EEA  
                                             l2502 206E                                               l1710 13AE  
                                             l1447 33E4                                               l2504 20E6  
                                             l1712 14F6                                               l1704 102C  
                                             l1721 2ECE                                               l2505 20D4  
                                             l1457 324E                                               l1465 3622  
                                             l1706 10E0                                               l1458 324E  
                                             l1707 1194                                               l1708 1248  
                                             l1725 2ECE                                               l2437 16E6  
                                             l1709 12FC                                               l1734 2D42  
                                             l2454 1800                                               l2446 19B6  
                                             l2438 16D4                                               l2463 18D0  
                                             l2439 169A                                               l2464 18BE  
                                             l1656 345E                                               l1738 2D42  
                                             l1658 348E                                               l2491 21C8  
                                             l2571 22B8                                               l2564 2220  
                                             l1693 3844                                               l2493 2028  
                                             l1861 369A                                               l1694 3846  
                                             l1870 38C6                                               l2567 237C  
                                             l2496 1FEC                                               l2578 2314  
                                             l1867 34D8                                               l9001 15C0  
                                             l9011 15FC                                               l9003 15C8  
                                             l9101 1826                                               l9021 1610  
                                             l9013 1600                                               l9005 15D8  
                                             l9111 1854                                               l9031 1624  
                                             l9023 1614                                               l9015 1604  
                                             l9007 15EA                                               l9113 1862  
                                             l9105 183A                                               l9121 1880  
                                             l9033 1628                                               l9025 1618  
                                             l9017 1608                                               l9009 15F8  
                                             l9041 1638                                               l9201 1EEC  
                                             l9115 186A                                               l9107 1844  
                                             l9123 188E                                               l9051 16A8  
                                             l9043 163C                                               l9035 162C  
                                             l9027 161C                                               l9019 160C  
                                             l9211 1F2E                                               l9203 1EFC  
                                             l9133 18E0                                               l9141 1936  
                                             l9125 1892                                               l9117 186E  
                                             l9109 1852                                               l9061 16D2  
                                             l9053 16B4                                               l9045 1666  
                                             l9037 1630                                               l9029 1620  
                                             l9205 1F12                                               l9151 1988  
                                             l9143 1946                                               l9135 18EC  
                                             l9127 18A0                                               l9119 187E  
                                             l9071 1728                                               l9063 16F4  
                                             l9055 16B8                                               l9047 1682  
                                             l9039 1634                                               l9231 1FB0  
                                             l9223 1F66                                               l9207 1F22  
                                             l9215 1F42                                               l9311 2BB6  
                                             l9303 2B62                                               l9161 19A6  
                                             l9153 198E                                               l9145 1956  
                                             l9137 18FA                                               l9129 18B6  
                                             l9081 1762                                               l9073 1736  
                                             l9065 1704                                               l9057 16C6  
                                             l9049 1692                                               l9241 1FF6  
                                             l9233 1FB8                                               l9225 1F80  
                                             l9217 1F52                                               l9209 1F2A  
                                             l9313 2BB8                                               l9305 2B78  
                                             l9401 35E2                                               l9155 1990  
                                             l9147 1976                                               l9139 1934  
                                             l9091 17CE                                               l9083 1764  
                                             l9075 1744                                               l9059 16C8  
                                             l9251 204E                                               l9243 2014  
                                             l9235 1FC8                                               l9227 1F90  
                                             l9219 1F52                                               l9171 1E4C  
                                             l9315 2BC8                                               l9411 3904  
                                             l9501 2E8C                                               l9157 1996  
                                             l9149 197A                                               l9093 17D0  
                                             l9085 176E                                               l9077 1750  
                                             l9069 1718                                               l9261 208C  
                                             l9253 2054                                               l9245 2016  
                                             l9237 1FDC                                               l9229 1FA0  
                                             l9173 1E5C                                               l9181 1E86  
                                             l9165 1E30                                               l9341 2C46  
                                             l9325 2BF2                                               l9317 2BCC  
                                             l9309 2B8C                                               l9405 2F74  
                                             l9413 34DA                                               l9421 338E  
                                             l9511 2C68                                               l9503 2E8E  
                                             l9159 19A4                                               l9095 17E0  
                                             l9079 1754                                               l9087 1774  
                                             l9271 20F6                                               l9263 2090  
                                             l9255 205E                                               l9247 2026  
                                             l9239 1FEA                                               l9191 1EB2  
                                             l9183 1E96                                               l9175 1E6C  
                                             l9167 1E3C                                               l9343 2C56  
                                             l9335 2C1A                                               l9327 2BFC  
                                             l9319 2BDA                                               l9351 21EA  
                                             l9407 2F90                                               l9415 34E2  
                                             l9431 31D2                                               l9423 33A8  
                                             l9521 2D00                                               l9513 2C82  
                                             l9505 2EA8                                               l9089 179A  
                                             l9097 17F0                                               l9281 2158  
                                             l9273 2102                                               l9265 209E  
                                             l9257 206C                                               l9249 2038  
                                             l9193 1EC2                                               l9185 1E9C  
                                             l9177 1E7C                                               l9169 1E4A  
                                             l9337 2C26                                               l9329 2C06  
                                             l9361 2262                                               l9353 2230  
                                             l9409 3812                                               l9417 351E  
                                             l9441 3228                                               l9433 31EC  
                                             l9425 33AA                                               l9523 2D02  
                                             l9515 2C84                                               l9507 2EAE  
                                             l9099 1816                                               l9291 21B6  
                                             l9283 216E                                               l9275 2110  
                                             l9267 20CC                                               l9259 207E  
                                             l9195 1ED2                                               l9187 1EA2  
                                             l9179 1E7E                                               l9339 2C36  
                                             l9371 22EA                                               l9363 226E  
                                             l9355 2246                                               l9347 21CC  
                                             l9419 3520                                               l9443 322E  
                                             l9435 31F2                                               l9427 33C8  
                                             l9451 3606                                               l9611 363A  
                                             l9525 2D1C                                               l9517 2CDA  
                                             l9509 2EC8                                               l9293 21BC  
                                             l9285 2188                                               l9277 213A  
                                             l9197 1EE2                                               l9189 1EB0  
                                             l9381 2328                                               l9373 22F6  
                                             l9365 22A0                                               l9349 21DC  
                                             l9461 10E6                                               l9621 2536  
                                             l9445 3248                                               l9437 320C  
                                             l9429 33E2                                               l9453 3620  
                                             l8901 2914                                               l9605 3624  
                                             l9711 32A2                                               l9703 3250  
                                             l9527 2D22                                               l9519 2CE6  
                                             l9295 21BE                                               l9287 21A4  
                                             l9279 213E                                               l9199 1EE4  
                                             l9383 234C                                               l9375 2304  
                                             l9367 22A2                                               l9359 225A  
                                             l9471 12A0                                               l9463 1138  
                                             l9455 1016                                               l9631 259A  
                                             l9623 254A                                               l9439 320E  
                                             l9447 35E6                                               l8911 29B6  
                                             l8903 2918                                               l9615 38C8  
                                             l9607 3624                                               l9721 3014  
                                             l9713 32B0                                               l9705 3254  
                                             l9529 2D3C                                               l9289 21A8  
                                             l9385 235C                                               l9377 2322  
                                             l9369 22AE                                               l9473 1300  
                                             l9465 119A                                               l9457 1032  
                                             l9481 1460                                               l9641 25EC  
                                             l9633 25B4                                               l9625 2556  
                                             l9449 3600                                               l8905 292A  
                                             l9393 35A8                                               l9617 38C8  
                                             l9609 3636                                               l9731 306C  
                                             l9723 3026                                               l9715 32BC  
                                             l9707 3266                                               l9491 2E1C  
                                             l9387 236A                                               l9379 2324  
                                             l9475 1352                                               l9467 11EC  
                                             l9483 14B8                                               l9459 1084  
                                             l9651 2638                                               l9635 25BA  
                                             l9643 25F8                                               l9627 2570  
                                             l9619 2530                                               l8931 2808  
                                             l8915 2A12                                               l8907 294C  
                                             l9395 35AC                                               l9733 3082  
                                             l9725 3038                                               l9709 3278  
                                             l9901 2DCA                                               l9493 2E36  
                                             l9389 236C                                               l9477 13B2  
                                             l9469 124E                                               l9661 2676  
                                             l9653 263A                                               l9645 25FC  
                                             l9637 25D4                                               l9629 2580  
                                             l9741 2ED0                                               l8933 2810  
                                             l8941 2910                                               l8925 27D0  
                                             l8909 2954                                               l8917 2A3C  
                                             l9397 35BE                                               l9911 3832  
                                             l9735 3092                                               l9727 3050  
                                             l9719 3010                                               l9671 356A  
                                             l9903 2DE4                                               l9495 2E38  
                                             l9479 1404                                               l9663 2682  
                                             l9655 2654                                               l9647 2618  
                                             l9639 25DC                                               l9751 2F2E  
                                             l9743 2ED0                                               l8935 2872  
                                             l8927 27D4                                               l8951 32C0  
                                             l9399 35C6                                               l9913 3840  
                                             l9729 305C                                               l9737 30A8  
                                             l9681 3780                                               l9673 357C  
                                             l9905 2E0C                                               l9497 2E66  
                                             l9657 265A                                               l9649 261E  
                                             l9665 2684                                               l9761 2F66  
                                             l9753 2F3E                                               l9745 2EE2  
                                             l8929 27E6                                               l8953 32D2  
                                             l9921 3672                                               l9907 3830  
                                             l9683 3784                                               l9691 3524  
                                             l9499 2E72                                               l8971 1524  
                                             l8963 14F8                                               l9659 2674  
                                             l9763 2F68                                               l9755 2F52  
                                             l9747 2EEC                                               l8939 28CE  
                                             l8955 32F4                                               l9923 3680  
                                             l9915 3660                                               l9909 3830  
                                             l9685 3796                                               l9669 3566  
                                             l9693 3528                                               l8981 155E  
                                             l8973 1534                                               l8965 1504  
                                             l9781 3488                                               l9773 343E  
                                             l9765 2F6A                                               l9757 2F54  
                                             l9749 2F10                                               l8957 32FC  
                                             l8949 32C0                                               l9925 368C  
                                             l9917 3660                                               l9941 34C4  
                                             l9687 37B0                                               l9695 353A  
                                             l9871 30D0                                               l8991 158C  
                                             l8983 1564                                               l8975 1544  
                                             l8967 1512                                               l9783 348A  
                                             l9775 3444                                               l9767 2F6C  
                                             l9759 2F56                                               l8959 3328  
                                             l9927 3698                                               l9919 3664  
                                             l9943 34C6                                               l9935 3494  
                                             l9951 38BC                                               STR_1 1011  
                                             l9881 3128                                               l9873 30D4  
                                             l9865 30AC                                               l8993 158E  
                                             l8985 1576                                               l8977 1546  
                                             l8969 1514                                               l9777 3456  
                                             l9769 2F70                                               l9945 34D6  
                                             l9937 34BE                                               l9929 3490  
                                             l9953 38BE                                               l9891 2D68  
                                             l9883 3134                                               l9875 30E0  
                                             l9867 30AC                                               l8995 159E  
                                             l8987 1578                                               l8979 154E  
                                             l9779 3464                                               l9955 38C2  
                                             l9893 2D7A                                               l9885 2D44  
                                             l9877 30F8                                               l9869 30BE  
                                             l8997 15AE                                               l8989 157E  
                                             l9949 38B0                                               l9895 2D7E  
                                             l9887 2D44                                               l9879 3110  
                                             l8999 15BE                                               l9897 2D8A  
                                             l9889 2D56                                               l9899 2DA2  
                                             _LATA 0F89                                               _LATB 0F8A  
                                             _LATC 0F8B                                               _LATD 0F8C  
                                             _LATE 0F8D                                               u9000 1988  
                                             u9001 1984                                               u9010 19A4  
                                             u9011 19A0                                               u9100 1FC8  
                                             u9020 1E4A                                               u9101 1FC4  
                                             u9021 1E46                                               u9110 1FEA  
                                             u9030 1E5C                                               u9111 1FE6  
                                             u9031 1E58                                               u9200 20F6  
                                             u9120 2014                                               u9040 1E6C  
                                             u9201 20F2                                               u9121 2010  
                                             u9041 1E68                                               u9210 2110  
                                             u9130 2038                                               u9050 1EB0  
                                             u9211 210C                                               u9131 2034  
                                             u9051 1EAC                                               u9220 2158  
                                             u9140 204E                                               u9060 1EC2  
                                             u9300 2C36                                               u9221 2154  
                                             u9141 204A                                               u9061 1EBE  
                                             u9301 2C32                                               u9230 2188  
                                             u9150 206C                                               u9070 1ED2  
                                             u9310 2C46                                               u8510 292A  
                                             u9231 2184                                               u9151 2068  
                                             u9071 1ECE                                               u9311 2C42  
                                             u8511 2926                                               u9240 21B6  
                                             u9160 208C                                               u9080 1F12  
                                             u9400 235C                                               u9320 21DC  
                                             u8600 28E8                                               u8520 294C  
                                             u9241 21B2                                               u9161 2088  
                                             u9081 1F0E                                               u9401 2358  
                                             u9321 21D8                                               u8521 2948  
                                             u9170 209E                                               u9090 1F52  
                                             u9250 2B78                                               u9410 236A  
                                             u9330 21EA                                               u8610 32D2  
                                             u9171 209A                                               u9091 1F4E  
                                             u9251 2B74                                               u9411 2366  
                                             u9331 21E6                                               u8611 32CE  
                                             u8700 15EA                                               u9180 20CC  
                                             u9260 2BAC                                               u9340 2246  
                                             u9500 3620                                               u8620 32F4  
                                             u9420 35BE                                               u8701 15E6  
                                             u9181 20C8                                               u9341 2242  
                                             u9501 361C                                               u8621 32F0  
                                             u9421 35BA                                               u9510 2E36  
                                             u8710 15F8                                               u8630 1512  
                                             u9190 20E2                                               u9270 2BDA  
                                             u9350 229C                                               u9430 33A8  
                                             u8550 27E6                                               u8534 2974  
                                             u9511 2E32                                               u8711 15F4  
                                             u8631 150E                                               u9191 20DE  
                                             u9271 2BD6                                               u9351 2298  
                                             u9431 33A4                                               u8551 27E2  
                                             u8535 2970                                               u9600 2D3C  
                                             u9520 2E66                                               u8800 1736  
                                             u8720 1666                                               u8640 1524  
                                             u9280 2BEE                                               u9360 22E6  
                                             u9440 33E2                                               u8560 2808  
                                             u8544 29D6                                               u9601 2D38  
                                             u9521 2E62                                               u8801 1732  
                                             u8721 1662                                               u8641 1520  
                                             u9281 2BEA                                               u9265 2BA2  
                                             u9361 22E2                                               u9441 33DE  
                                             u8561 2804                                               u8545 29D2  
                                             u9530 2E8C                                               u8810 1744  
                                             u8730 167E                                               u8650 1534  
                                             u9290 2C16                                               u9370 2304  
                                             u9450 31EC                                               u9531 2E88  
                                             u8811 1740                                               u8731 1678  
                                             u8651 1530                                               u9291 2C12  
                                             u9371 2300                                               u9451 31E8  
                                             u9540 2EA8                                               u8900 188E  
                                             u8820 1762                                               u8740 1680  
                                             u8660 1576                                               u9380 2314  
                                             u9700 25D4                                               u9460 320C  
                                             u9541 2EA4                                               u8901 188A  
                                             u8821 175E                                               u8661 1572  
                                             u9381 2310                                               u9701 25D0  
                                             u9461 3208                                               u9550 2EC8  
                                             u8910 18A0                                               u8830 179A  
                                             u8750 16A8                                               u8670 158C  
                                             u9390 2322                                               u9710 2618  
                                             u9470 3228                                               u8590 28E6  
                                             u8574 2830                                               u9551 2EC4  
                                             u8911 189C                                               u8831 1796  
                                             u8751 16A4                                               u8671 1588  
                                             u9391 231E                                               u9711 2614  
                                             u9471 3224                                               u8591 28E0  
                                             u8575 282C                                               u9800 353A  
                                             u9560 2C82                                               u8920 18B6  
                                             u8840 17E0                                               u8760 16C6  
                                             u8680 159E                                               u9720 2638  
                                             u9480 3248                                               u8584 2892  
                                             u9801 3536                                               u9561 2C7E  
                                             u8921 18B2                                               u8841 17DC  
                                             u8761 16C2                                               u8681 159A  
                                             u9721 2634                                               u9481 3244  
                                             u8585 288E                                               u9810 3552  
                                             u9570 2CDA                                               u8930 18CC  
                                             u8850 1816                                               u8770 16E6  
                                             u8690 15AE                                               u9730 2654  
                                             u9490 3600                                               u9650 3636  
                                             u9811 354E                                               u9571 2CD6  
                                             u8931 18C8                                               u8851 1812  
                                             u8771 16E2                                               u8691 15AA  
                                             u9731 2650                                               u9491 35FC  
                                             u9651 3632                                               u9900 306C  
                                             u9820 3562                                               u9580 2D00  
                                             u8940 18E0                                               u8860 1826  
                                             u8780 16F4                                               u9740 2674  
                                             u9660 254A                                               u9901 3068  
                                             u9821 355E                                               u9581 2CFC  
                                             u8941 18DC                                               u8861 1822  
                                             u8781 16F0                                               u9741 2670  
                                             u9661 2546                                               u9910 307E  
                                             u9750 357C                                               u9830 3266  
                                             u9590 2D1C                                               u8950 18FA  
                                             u8870 1852                                               u8790 1704  
                                             u9670 2570                                               u9911 307A  
                                             u9751 3578                                               u9831 3262  
                                             u9591 2D18                                               u8951 18F6  
                                             u8871 184E                                               u8791 1700  
                                             u9671 256C                                               u9920 3092  
                                             u9760 3594                                               u9840 3278  
                                             u8960 1934                                               u8880 1862  
                                             u9680 259A                                               u9921 308E  
                                             u9761 3590                                               u9841 3274  
                                             u8961 1930                                               u8881 185E  
                                             u9681 2596                                               u9930 30A4  
                                             u9770 35A4                                               u9850 3292  
                                             u8970 1946                                               u8890 187E  
                                             u9690 25B4                                               u9931 30A0  
                                             u9771 35A0                                               u9851 328E  
                                             u8971 1942                                               u8891 187A  
                                             u9691 25B0                                               u9780 3796  
                                             u9860 32A2                                               u8980 1956  
                                             u9940 2EE2                                               u9781 3792  
                                             u9861 329E                                               u8981 1952  
                                             u9941 2EDE                                               u9870 3026  
                                             u9790 37AE                                               u8990 1976  
                                             u9950 3456                                               u9871 3022  
                                             u9791 37AA                                               u8991 1972  
                                             u9951 3452                                               u9880 3038  
                                             u9881 3034                                               u9890 3050  
                                             _TMR2 0FCC                                               u9891 304C  
                         _RB4_InterruptHandler_LOW 00AC                                               _seg1 00DF  
                                             _main 237E                                   __end_of_CCP1_ISR 3930  
                                 __end_of_CCP2_ISR 392C                           _RB7_InterruptHandler_LOW 00A0  
                                             fsr2h 0FDA                                               indf2 0FDF  
                                             fsr1l 0FE1                                               fsr2l 0FD9  
                                             btemp 006D                                               prodh 0FF4  
                                             prodl 0FF3                                               start 000E  
                                  ___fldiv@new_exp 0032                                       ___param_bank 0000  
                           dc_motor_initialize@ret 0023                               _gpio_pin_write_logic 2914  
                                 __end_of_INT0_ISR 3924                                   __end_of_INT1_ISR 3920  
                                 __end_of_INT2_ISR 391C                                              l10621 23C8  
                                            l10605 237E                                              l10623 23DC  
                                            l10631 23FE                                              l10615 2388  
                                            l10607 237E                                              l10641 2430  
                                            l10633 2400                                              l10625 23E0  
                                            l10617 23B0                                              l10609 2382  
                                            l10643 2444                                              l10651 2452  
                                            l10635 2406                                              l10627 23E6  
                                            l10619 23B4                                              l10821 1482  
                                            l10661 2470                                              l10653 2454  
                                            l10645 2448                                              l10637 2418  
                                            l10629 23EA                                              l10815 250E  
                                            l10671 24A4                                              l10655 245A  
                                            l10639 2428                                              l10817 2A26  
                                            l10681 24E0                                              l10673 24B4  
                                            l10819 28FA                                              l10683 24E4  
                                            l10667 2474                                              l10669 24A0  
                                            l10679 24B8                                              l10687 24F8  
                                    _EUSART_RX_ISR 33E6                                      ___fltol@sign1 0052  
                                    _EUSART_TX_ISR 3924                                    __end_of___fladd 19B8  
                                            ?_main 0001                           ??_application_initialize 0056  
                                  __end_of___fldiv 21CA                                              _EEADR 0FA9  
                                  __end_of___fltol 2C68                                              u10100 34BE  
                                            u10101 34BA                                              u10110 34D6  
                                            u10111 34D2                                              u10040 30BE  
                                            u10041 30BA                                              u10050 30D0  
                                            u10051 30CC                                              u10060 2D56  
                                            u10061 2D52                                              u10070 2D68  
                                            u10071 2D64                                              u10080 2D7A  
                                            u10081 2D76                                              u10090 3840  
                                            u10091 383C                        ??_MSSP_I2C_Master_Send_Stop 0015  
                                            u10730 23C4                                              u10731 23C0  
                                            u10740 23DC                                              u10741 23D8  
                                            u10750 2418                                              u10807 313A  
                                            u10751 2414                                              u10760 2444  
                                            u10817 2E12                                              u10761 2440  
                                            u10770 246C                                              u10771 2468  
                                            u10780 24B4                                              u10781 24B0  
                                            u10790 24F4                                              u10791 24F0  
                                            i2l232 36D6                                              i2l227 3712  
                                            i2l571 392E                                              i2l479 3932  
                                            i2l735 2B60                                              i2l576 392A  
                                            i2l953 3912                                              i2l957 3916  
                                            _RCREG 0FAE                                              _TMR0H 0FD7  
                                            _TMR1H 0FCF                                              _TMR0L 0FD6  
                                            _TMR1L 0FCE                                              _TMR3H 0FB3  
                                            _TMR3L 0FB2                                              _SPBRG 0FAF  
                                            _PORTA 0F80                                              _PORTB 0F81  
                                            _PORTC 0F82                                              _PORTD 0F83  
                                            _PORTE 0F84                                              _TRISA 0F92  
                                            _TRISB 0F93                                              _TRISC 0F94  
                                            _TRISD 0F95                                              _TRISE 0F96  
                                Timer0_Init@_timer 0016                                              _TXREG 0FAD  
          MSSP_I2C_EXT_Device_Write_1_Byte@i2c_obj 0019                                   __end_of_TMR0_ISR 374C  
                                 __end_of_TMR1_ISR 38FC                                   __end_of_TMR2_ISR 3904  
                                 __end_of_TMR3_ISR 38E4                                              _lcd_1 011C  
                                            _lcd_2 010A                                              main@i 0141  
                                            pclath 0FFA                                              pclatu 0FFB  
                                            tablat 0FF5                                              ttemp5 006E  
                                            ttemp6 0071                                              ttemp7 0075  
                                            status 0FD8                                              wtemp8 006E  
             MSSP_I2C_Master_Read_Blocking@i2c_obj 0013                            _Timer0_Prescaler_Config 338E  
                                  __initialization 3144             MSSP_I2C_Master_Write_Blocking@i2c_data 0015  
                                     __end_of_main 2530                              ?_gpio_pin_write_logic 0013  
                      i2gpio_pin_write_logic@logic 0003                                          ??_ADC_ISR 0001  
                                   ?_EUSART_RX_ISR 0001                                     ?_EUSART_TX_ISR 0001  
                                    _lat_registers 00CB                        __end_of_dc_motor_initialize 35E6  
                                           ??_main 013F                                      __activetblptr 0003  
                            _TMR3_InterruptHandler 0094                                          ??_RB4_ISR 0001  
                                        ??_RB5_ISR 0001                                          ??_RB6_ISR 0001  
                                        ??_RB7_ISR 0001               MSSP_I2C_EXT_Device_Read_1_Byte@_data 001D  
                       _EUSART_OverrunErrorHandler 008A                                             _ADRESH 0FC4  
                                           _EEADRH 0FAA                                             _ADRESL 0FC3  
                                           _EEDATA 0FA8                                             _CCPR1L 0FBE  
                                           _CCPR2L 0FBB                                             _EECON2 0FA7  
                     ??_MSSP_I2C_Master_Send_Start 0015                                  _EUSART_ASYNC_Init 343E  
                                           i2l1021 3922                                             i2l1031 391A  
                                           i2l1026 391E                                             i2l1042 38AE  
                                           i2l1053 3894                                             i2l1064 387A  
                                           i2l1075 3860                                             i2l1260 1ABA  
                                           i2l1252 19F2                                             i2l1270 1C0E  
                                           i2l1262 1AFE                                             i2l1254 1A12  
                                           i2l1440 374A                                             i2l1280 1CD2  
                                           i2l1272 1C52                                             i2l1264 1B42  
                                           i2l1256 1A32                                             i2l1290 1D9E  
                                           i2l1282 1CF2                                             i2l1274 1C72  
                                           i2l1266 1B86                                             i2l1258 1A76  
                                           i2l1604 38E2                                             i2l1292 1DD4  
                                           i2l1284 1D12                                             i2l1276 1C92  
                                           i2l1268 1BCA                                             i2l1509 38FA  
                                           i2l1374 390E                                             i2l1294 1DF4  
                                           i2l1286 1D32                                             i2l1278 1CB2  
                                           i2l1560 3902                                             i2l1288 1D68  
                                           i2l1297 1E14                                             i2l1743 3926  
                                           i2l1752 343C                                             i2l1673 380E  
                                           i2l1905 338C                                             i2l1674 3810  
                                           i2l1906 338C                                             i2l7001 276A  
                                           i2l7011 2794                                             i2l7003 276C  
                                           i2l1876 26E4                                             i2l7013 27A6  
                                           i2l7015 27B6                                             i2l7031 3350  
                                           i2l7023 332C                                             i2l7017 27B8  
                                           i2l7009 2782                                             i2l1897 27CE  
                                           i2l7201 3920                                             i2l7033 3358  
                                           i2l7025 332E                                             i2l7035 336A  
                                           i2l7027 3340                                             i2l7213 3918  
                                           i2l7221 389A                                             i2l7037 3376  
                                           i2l7029 334C                                             i2l7135 3930  
                                           i2l7207 391C                                             i2l7039 3386  
                                           i2l7145 3928                                             i2l7241 3894  
                                           i2l7233 387E                                             i2l7321 371C  
                                           i2l7139 392C                                             i2l7227 38AE  
                                           i2l7219 3898                                             i2l7235 3880  
                                           i2l6531 2A78                                             i2l6523 2A40  
                                           i2l7323 3720                                             i2l7331 38F6  
                                           i2l6701 37EC                                             i2l7261 384A  
                                           i2l6533 2ADA                                             i2l6525 2A40  
                                           i2l7325 3732                                             i2l7317 3714  
                                           i2l7341 38D8                                             i2l6703 37FA  
                                           i2l7255 387A                                             i2l7247 3864  
                                           i2l7263 384C                                             i2l6527 2A52  
                                           i2l7319 3716                                             i2l7327 38F0  
                                           i2l7335 38FC                                             i2l7343 38DE  
                                           i2l6705 380A                                             i2l7353 33E6  
                                           i2l7193 3910                                             i2l7249 3866  
                                           i2l6537 2B36                                             i2l6529 2A74  
                                           i2l6561 36EE                                             i2l7329 38F2  
                                           i2l8401 1AF8                                             i2l7363 3428  
                                           i2l7355 33FA                                             i2l7347 3924  
                                           i2l6555 36D8                                             i2l6571 36B2  
                                           i2l7339 38D6                                             i2l8411 1B3C  
                                           i2l8403 1B0C                                             i2l7365 343A  
                                           i2l7357 3412                                             i2l7197 3914  
                                           i2l7269 3860                                             i2l6557 36D8  
                                           i2l6565 369C                                             i2l8501 1DF0  
                                           i2l8421 1B80                                             i2l8413 1B50  
                                           i2l8405 1B1A                                             i2l7359 3426  
                                           i2l6559 36EA                                             i2l6567 369C  
                                           i2l8503 1E02                                             i2l8431 1BC4  
                                           i2l8423 1B94                                             i2l8415 1B5E  
                                           i2l8407 1B28                                             i2l7369 390A  
                                           i2l6569 36AE                                             i2l8505 1E10  
                                           i2l8441 1C08                                             i2l8433 1BD8  
                                           i2l8425 1BA2                                             i2l8417 1B6C  
                                           i2l8409 1B38                                             i2l8361 19E0  
                                           i2l8451 1C4C                                             i2l8443 1C1C  
                                           i2l8435 1BE6                                             i2l8427 1BB0  
                                           i2l8419 1B7C                                             i2l8371 1A2E  
                                           i2l8363 19EE                                             i2l8461 1CA0  
                                           i2l8453 1C60                                             i2l8445 1C2A  
                                           i2l8437 1BF4                                             i2l8429 1BC0  
                                           i2l8381 1A70                                             i2l8373 1A40  
                                           i2l8365 1A00                                             i2l8471 1CEE  
                                           i2l8463 1CAE                                             i2l8455 1C6E  
                                           i2l8447 1C38                                             i2l8439 1C04  
                                           i2l8391 1AB4                                             i2l8383 1A84  
                                           i2l8375 1A4E                                             i2l8367 1A0E  
                                           i2l8359 19D2                                             i2l8481 1D40  
                                           i2l8473 1D00                                             i2l8465 1CC0  
                                           i2l8457 1C80                                             i2l8449 1C48  
                                           i2l8393 1AC8                                             i2l8385 1A92  
                                           i2l8377 1A5C                                             i2l8369 1A20  
                                           i2l6699 37E8                                             i2l6971 26A8  
                                           i2l8491 1D9A                                             i2l8483 1D4E  
                                           i2l8475 1D0E                                             i2l8467 1CCE  
                                           i2l8459 1C8E                                             i2l8395 1AD6  
                                           i2l8387 1AA0                                             i2l8379 1A6C  
                                           i2l6981 26E4                                             i2l6973 26B0  
                                           i2l6965 268A                                             i2l8493 1DAC  
                                           i2l8485 1D64                                             i2l8477 1D20  
                                           i2l8469 1CE0                                             i2l8397 1AE4  
                                           i2l8389 1AB0                                             i2l6991 272A  
                                           i2l6983 26F4                                             i2l6975 26C2  
                                           i2l6967 268A                                             i2l8495 1DBA  
                                           i2l8487 1D76                                             i2l8479 1D2E  
                                           i2l8399 1AF4                                             i2l6993 272E  
                                           i2l6985 2706                                             i2l6977 26CA  
                                           i2l6969 2696                                             i2l8497 1DD0  
                                           i2l8489 1D84                                             i2l6987 2716  
                                           i2l6995 2736                                             i2l6979 26DC  
                                           i2l8499 1DE2                                             i2l6997 2748  
                                           i2l6989 2718                                             i2l6999 275A  
                                           _SPBRGH 0FB0                                 ?_EUSART_ASYNC_Init 013C  
                        _MSSP_I2C_Master_Send_Stop 3524                                             _SSPADD 0FC8  
                                           _SSPBUF 0FC9                   MSSP_I2C_Master_Read_Blocking@ack 0015  
                                 __end_of___xxtofl 237E                   MSSP_I2C_Master_Read_Blocking@ret 0018  
                            __end_of_MSSP_I2C_Init 268A                                      ??_Timer0_Init 0018  
     __end_of_I2C_Master_Mode_Clock_Configurations 3010              ?_I2C_Master_Mode_Clock_Configurations 0054  
           ??_I2C_Master_Mode_Clock_Configurations 00FE               _I2C_Master_Mode_Clock_Configurations 2F74  
                      __end_of_dc_motor_move_right 3660                                ??_EUSART_ASYNC_Init 0056  
                     ?_Timer0_Register_Size_Config 0013                                          ??___fladd 0042  
                                        ??___fldiv 0029                                             _action 0065  
                                        ??___fltol 004E                  Timer0_Register_Size_Config@_timer 0013  
                                           _buzzer 0061                                             clear_0 31AA  
                                           clear_1 31B6                                             clear_2 31C2  
                                           isa$std 0001            gpio_pin_direction_intialize@_pin_config 0013  
      _I2C_Report_Receive_Overflow_InterruptHandle 00B6                                          ?_CCP1_ISR 0001  
                                     __pdataCOMRAM 0056                                          ?_CCP2_ISR 0001  
                                     __mediumconst 0000                                             tblptrh 0FF7  
                                           tblptrl 0FF6                                             tblptru 0FF8  
                        __end_of_EUSART_ASYNC_Init 3490                       __end_of_EUSART_ASYNC_RX_Init 2D44  
                     __end_of_EUSART_ASYNC_TX_Init 2ED0                                       ___xxtofl@arg 001D  
                        ??_Timer0_Prescaler_Config 0015                                       ___xxtofl@exp 001C  
                                     ___xxtofl@val 0013                                         __accesstop 0080  
                          __end_of__initialization 31C8                                          ?_INT0_ISR 0001  
                                        ?_INT1_ISR 0001                                          ?_INT2_ISR 0001  
                                    ___rparam_used 0001                                         ___fltol@f1 004A  
                 ??_MSSP_I2C_Master_Write_Blocking 0018                    ?_MSSP_I2C_Master_Write_Blocking 0013  
                      dc_motor_move_left@_dc_motor 000A                                  RB5_ISR@RB5_Source 0001  
                           ??_gpio_pin_write_logic 0016                                     __pcstackCOMRAM 0001  
                           _MSSP_I2C_Mode_GPIO_CFG 3904                 MSSP_I2C_Master_Write_Blocking@_ack 0016  
                       _I2C_DefaultInterruptHandle 00B8                                       __pidataBANK0 37B4  
                                     __pidataBANK1 374C                                          ?_TMR0_ISR 0001  
                                  ??_EUSART_RX_ISR 0004              MSSP_I2C_Master_Write_Blocking@i2c_obj 0013  
                                        ?_TMR1_ISR 0001                                          ?_TMR2_ISR 0001  
                                        ?_TMR3_ISR 0001                                    ??_EUSART_TX_ISR 0001  
                    ??_Timer0_Register_Size_Config 0015                                __end_of_Timer0_Init 2F74  
                                   _saved_password 0144                      MSSP_I2C_Master_Send_Start@ret 0015  
                                       ??_CCP1_ISR 0001                                         ??_CCP2_ISR 0001  
                                     ?_unlock_door 0001                                         _dc_motor_1 00FC  
                                       _dc_motor_2 00E4                                         __pbssBANK0 0080  
                                       __pbssBANK1 0144                                     _open_door_falg 00C3  
                            _INT0_InterruptHandler 00B4                                         ??_INT0_ISR 0001  
                                       ??_INT1_ISR 0001                                         ??_INT2_ISR 0001  
                           _application_initialize 3660                                         ??_TMR0_ISR 000C  
                                       ??_TMR1_ISR 0001                                         ??_TMR2_ISR 0001  
                                       ??_TMR3_ISR 0001                  MSSP_I2C_Master_Write_Blocking@ret 0018  
                                          _ADC_ISR 3930                        EUSART_ASYNC_TX_Init@_eusart 0013  
               MSSP_I2C_EXT_Device_Read_1_Byte@ret 0022                                _check_password_ctrl 3490  
                                RB7_ISR@RB7_Source 0001                                            i2l10823 2B4A  
                                          _RB4_ISR 3896                                            _RB5_ISR 387C  
                                          _RB6_ISR 3862                                            _RB7_ISR 3848  
                                        ?___xxtofl 0013                          _RB6_InterruptHandler_HIGH 00A6  
                                    ?_MSSP_I2C_ISR 0001                 __end_of_MSSP_I2C_Master_Send_Start 35A8  
                       _MSSP_I2C_Master_Send_Start 3566                                         _btn_values 1001  
            MSSP_I2C_EXT_Device_Write_1_Byte@_data 001D                                     _tris_registers 00D5  
                             ?_check_password_ctrl 0001                    ??_I2C_Slave_Mode_Configurations 0015  
                         _RB6_InterruptHandler_LOW 00A4                                      ?_MSSP_SPI_ISR 0001  
                                          _i2c_obj 00E6                                  ??_MSSP_I2C_BC_ISR 0001  
                             _ADC_InterruptHandler 00C0                                            __Hparam 0000  
                                      _Timer0_Init 2ED0                                            __Lparam 0000  
                             _SPI_InterruptHandler 009E                                            ___fladd 14F8  
                                          ___fldiv 1E30                                            ___fltol 2B62  
                             EUSART_ASYNC_Init@ret 013E                  _EUSART_Baud_Rate_Calculation$5686 0138  
                                     __psmallconst 1000                               _EUSART_ASYNC_RX_Init 2C68  
                             _EUSART_ASYNC_TX_Init 2E1C                         __end_of_gpio_pin_intialize 332C  
                                          __pcinit 3144                                            __ramtop 1000  
                                 _close_door__falg 00C2                                            __ptext0 237E  
                                          __ptext1 38B0                                            __ptext2 3624  
                                          __ptext3 3490                                            __ptext4 3660  
                                          __ptext5 38C8                                            __ptext6 35A8  
                                          __ptext7 32C0                                            __ptext8 2914  
                                          __ptext9 27D0                                          _T0CONbits 0FD5  
                                        _T1CONbits 0FCD                                     ??_MSSP_I2C_ISR 0001  
                                        _T2CONbits 0FCA                                            _keypad1 0114  
                                       ??___xxtofl 0017                                          _T3CONbits 0FB1  
       EUSART_Baud_Rate_Calculation@Baud_Rate_Temp 0134          __end_of_EUSART_ASYNC_WriteByteNonBlocking 3848  
              ??_EUSART_ASYNC_WriteByteNonBlocking 0013                 ?_EUSART_ASYNC_WriteByteNonBlocking 0001  
                _EUSART_ASYNC_WriteByteNonBlocking 382E                           ??i2_gpio_pin_write_logic 0004  
                 MSSP_I2C_Master_Send_Stop@i2c_obj 0013                                     __pintcode_body 19B8  
                             end_of_initialization 31C8                              ??_check_password_ctrl 0013  
           MSSP_I2C_Master_Send_Repeated_Start@ret 0015                                            int_func 19B8  
                                   ??_MSSP_SPI_ISR 0001                              gpio_pin_intialize@ret 0020  
                                    _dc_motor_stop 369C                                          _RCSTAbits 0FAB  
                                          postdec1 0FE5                                            postdec2 0FDD  
                                          postinc0 0FEE                                            postinc1 0FE6  
                                          postinc2 0FDE        __end_of_MSSP_I2C_Master_Send_Repeated_Start 37B4  
            ??_MSSP_I2C_Master_Send_Repeated_Start 0015               ?_MSSP_I2C_Master_Send_Repeated_Start 0013  
              _MSSP_I2C_Master_Send_Repeated_Start 3780                              ?_EUSART_ASYNC_RX_Init 0013  
                            ?_EUSART_ASYNC_TX_Init 0013                                     _ecu_layer_init 38C8  
                            _INT1_InterruptHandler 00B2                                          _PORTBbits 0F81  
                                 _InterruptManager 0008                      gpio_pin_intialize@_pin_config 001D  
                                      ___fladd@grs 0049               __end_of_gpio_pin_direction_intialize 2914  
                     _gpio_pin_direction_intialize 27D0                                      ___xxtofl@sign 001B  
         MSSP_I2C_EXT_Device_Read_1_Byte@slave_add 001B           MSSP_I2C_EXT_Device_Read_1_Byte@slave_ack 001F  
                                        _TRISCbits 0F94                      Timer0_Prescaler_Config@_timer 0013  
                                      ___fldiv@grs 0034                                        ___fldiv@rem 002D  
                               _timer0_falg_deinit 0066                                         main@i_4695 0142  
                                       main@i_4697 0143           __end_of_EUSART_ASYNC_ReadByteNonBlocking 3812  
               ??_EUSART_ASYNC_ReadByteNonBlocking 0003                  ?_EUSART_ASYNC_ReadByteNonBlocking 0001  
                 _EUSART_ASYNC_ReadByteNonBlocking 37E8                                        _CCP1CONbits 0FBD  
                                      _CCP2CONbits 0FBA                                          _TXSTAbits 0FAC  
                          ?_MSSP_I2C_Mode_GPIO_CFG 0001                         __end_of_Timer0_Mode_Select 3250  
                                   ?_dc_motor_stop 000A              __end_of_I2C_Slave_Mode_Configurations 382E  
                    _I2C_Slave_Mode_Configurations 3812                             __end_of_ecu_layer_init 38D6  
                         EUSART_ASYNC_Init@_eusart 013C                      convert_uint16_to_string@F3702 014A  
                                      _BAUDCONbits 0FB8                                      __pidataCOMRAM 38E4  
                                   _timer0_preload 009A                                     _timer1_preload 0062  
                                   _timer2_preload 006A                                start_initialization 3144  
                                   _timer3_preload 0092                EUSART_Baud_Rate_Calculation@_eusart 0054  
MSSP_SPI_Msster_Mode_GPIO_PIN_Configurations@F3600 005A   MSSP_SPI_Slave_Mode_GPIO_PIN_Configurations@F3611 0056  
 MSSP_SPI_Slave_Mode_GPIO_PIN_Configurations@F3605 0059   MSSP_SPI_Slave_Mode_GPIO_PIN_Configurations@F3607 0058  
 MSSP_SPI_Slave_Mode_GPIO_PIN_Configurations@F3609 0057  MSSP_SPI_Msster_Mode_GPIO_PIN_Configurations@F3596 005C  
MSSP_SPI_Msster_Mode_GPIO_PIN_Configurations@F3598 005B                      ?_gpio_pin_direction_intialize 0013  
                          ?_application_initialize 0001               __end_of_EUSART_Baud_Rate_Calculation 14F8  
                     _EUSART_Baud_Rate_Calculation 1016                     __end_of_MSSP_I2C_Mode_GPIO_CFG 390A  
                           dc_motor_stop@_dc_motor 000A                          _EUSART_RxInterruptHandler 008E  
            __end_of_MSSP_I2C_Master_Read_Blocking 30AC                      _MSSP_I2C_Master_Read_Blocking 3010  
                             __end_of_MSSP_I2C_ISR 3914                         __end_of_dc_motor_move_left 3714  
                       _EUSART_FramingErrorHandler 008C                             ??_EUSART_ASYNC_RX_Init 0015  
                           ??_EUSART_ASYNC_TX_Init 0015                                    ?_ecu_layer_init 0001  
                                      __pdataBANK0 00CB                                        __pdataBANK1 0100  
                                         ?_ADC_ISR 0001           __end_of_MSSP_I2C_EXT_Device_Write_1_Byte 3144  
               ??_MSSP_I2C_EXT_Device_Write_1_Byte 0020                  ?_MSSP_I2C_EXT_Device_Write_1_Byte 0019  
                 _MSSP_I2C_EXT_Device_Write_1_Byte 30AC                              __end_of_EUSART_RX_ISR 343E  
                            __end_of_EUSART_TX_ISR 3928                                          ___fladd@a 003E  
                                        ___fladd@b 003A                               __end_of_MSSP_SPI_ISR 3910  
                             MSSP_I2C_Init@i2c_obj 0134                                          ___fldiv@a 0025  
                                        ___fldiv@b 0021                                           ?_RB4_ISR 0001  
                                         ?_RB5_ISR 0001                                           ?_RB6_ISR 0001  
                                         ?_RB7_ISR 0001                                        __pbssCOMRAM 0062  
      _I2C_Report_Write_Collision_InterruptHandler 00BA                                      __pcstackBANK0 00FE  
                                    __pcstackBANK1 0134                     __end_of_application_initialize 369C  
                         ?_Timer0_Prescaler_Config 0013                                    _MSSP_I2C_BC_ISR 3914  
           MSSP_I2C_EXT_Device_Read_1_Byte@i2c_obj 0019                        ?_MSSP_I2C_Master_Send_Start 0013  
                            _INT2_InterruptHandler 00B0                fp__EUSART_RxDefaultInterruptHandler 0000  
         __end_of_EUSART_RxDefaultInterruptHandler 27D0                 ??_EUSART_RxDefaultInterruptHandler 0004  
                ?_EUSART_RxDefaultInterruptHandler 0001                   _EUSART_RxDefaultInterruptHandler 268A  
                  gpio_pin_direction_intialize@ret 001B                                    ??_dc_motor_stop 000C  
                    ?_EUSART_Baud_Rate_Calculation 0054                              _TMR0_InterruptHandler 009C  
                                     ?_Timer0_Init 0016              EUSART_ASYNC_ReadByteNonBlocking@_data 0001  
                                    _MSSP_I2C_Init 2530                __end_of_Timer0_Register_Size_Config 3624  
                      _Timer0_Register_Size_Config 35E6                EUSART_ASYNC_ReadByteNonBlocking@ret 0003  
                                        __pintcode 0008                                           ?___fladd 003A  
                           i2_gpio_pin_write_logic 2A40                    gpio_pin_write_logic@_pin_config 0013  
                i2gpio_pin_write_logic@_pin_config 0001                                           ?___fldiv 0021  
                                         ?___fltol 004A                     ?_I2C_Slave_Mode_Configurations 0013  
                        gpio_pin_write_logic@logic 0015                                       _keypad_value 00C4  
                                      __smallconst 1000                          _RB4_InterruptHandler_HIGH 00AE  
                                         _CCP1_ISR 392C                                           _CCP2_ISR 3928  
                        _RB7_InterruptHandler_HIGH 00A2       MSSP_I2C_EXT_Device_Write_1_Byte@byte_address 001C  
                               _gpio_pin_intialize 32C0                     ??_gpio_pin_direction_intialize 0015  
                         _RB5_InterruptHandler_LOW 00A8                                           _INT0_ISR 3920  
                                         _INT1_ISR 391C                                           _INT2_ISR 3918  
                                         _RB4_Flag 0060                                           _RB5_Flag 005F  
                                         _RB6_Flag 005E                                           _RB7_Flag 005D  
                                RB4_ISR@RB4_Source 0001                                ?_gpio_pin_intialize 001D  
                         __end_of_InterruptManager 1E30                                           _PIE1bits 0F9D  
                                         _PIE2bits 0FA0                                     ?_MSSP_I2C_Init 0134  
         MSSP_I2C_Interrupt_Configurations@i2c_obj 0013                                           _PIR1bits 0F9E  
                                         _PIR2bits 0FA1                                           i2u620_40 26F4  
                                         i2u620_41 26F0                                           i2u621_40 2706  
                                         i2u621_41 2702                                           i2u622_40 272A  
                                         i2u630_40 336A                                           i2u622_41 2726  
                                         i2u630_41 3366                                           i2u623_40 2748  
                                         i2u631_40 3386                                           i2u623_41 2744  
                                         i2u631_41 3382                                           i2u624_40 275A  
                                         i2u800_40 1C8E                                           i2u624_41 2756  
                                         i2u800_41 1C8A                                           i2u625_40 277E  
                                         i2u617_40 26A8                                           i2u561_40 36EA  
                                         i2u801_40 1CA0                                           i2u625_41 277A  
                                         i2u617_41 26A4                                           i2u561_41 36E6  
                                         i2u801_41 1C9C                                           i2u626_40 2794  
                                         i2u618_40 26C2                                           i2u562_40 36AE  
                                         i2u810_40 1D2E                                           i2u802_40 1CAE  
                                         i2u626_41 2790                                           i2u618_41 26BE  
                                         i2u562_41 36AA                                           i2u810_41 1D2A  
                                         i2u802_41 1CAA                                           i2u627_40 27A6  
                                         i2u619_40 26DC                                           i2u811_40 1D40  
                                         i2u803_40 1CC0                                           i2u627_41 27A2  
                                         i2u619_41 26D8                                           i2u811_41 1D3C  
                                         i2u803_41 1CBC                                           i2u628_40 27CA  
                                         i2u556_40 2A52                                           i2u820_40 1DE2  
                                         i2u812_40 1D4E                                           i2u804_40 1CCE  
                                         i2u628_41 27C6                                           i2u556_41 2A4E  
                                         i2u820_41 1DDE                                           i2u812_41 1D4A  
                                         i2u804_41 1CCA                                           i2u581_40 37FA  
                                         i2u557_40 2A74                                           i2u629_40 3340  
                                         i2u653_40 3732                                           i2u821_40 1DF0  
                                         i2u813_40 1D64                                           i2u805_40 1CE0  
                                         i2u581_41 37F6                                           i2u557_41 2A70  
                                         i2u629_41 333C                                           i2u653_41 372E  
                                         i2u821_41 1DEC                                           i2u813_41 1D60  
                                         i2u805_41 1CDC                                           i2u646_40 38AA  
                                         i2u822_40 1E02                                           i2u814_40 1D76  
                                         i2u806_40 1CEE                                           i2u646_41 38A6  
                                         i2u822_41 1DFE                                           i2u814_41 1D72  
                                         i2u806_41 1CEA                                           i2u558_44 2A98  
                                         i2u558_45 2A94                                           i2u655_40 33FA  
                                         i2u647_40 3890                                           i2u654_48 3738  
                                         i2u823_40 1E10                                           i2u815_40 1D84  
                                         i2u807_40 1D00                                           i2u655_41 33F6  
                                         i2u647_41 388C                                           i2u654_49 374A  
                                         i2u823_41 1E0C                                           i2u815_41 1D80  
                                         i2u807_41 1CFC                                           i2u559_44 2AFA  
                                         i2u559_45 2AF6                                           i2u648_40 3876  
                                         i2u816_40 1D9A                                           i2u808_40 1D0E  
                                         i2u760_40 19EE                                           i2u648_41 3872  
                                         i2u816_41 1D96                                           i2u808_41 1D0A  
                                         i2u760_41 19EA                                           i2u657_40 3426  
                                         i2u656_48 3400                                           i2u649_40 385C  
                                         i2u817_40 1DAC                                           i2u809_40 1D20  
                                         i2u761_40 1A00                                           i2u657_41 3422  
                                         i2u656_49 3412                                           i2u649_41 3858  
                                         i2u817_41 1DA8                                           i2u809_41 1D1C  
                                         i2u761_41 19FC                                           i2u658_40 343A  
                                         i2u818_40 1DBA                                           i2u770_40 1A92  
                                         i2u762_40 1A0E                                           i2u658_41 3436  
                                         i2u818_41 1DB6                                           i2u770_41 1A8E  
                                         i2u762_41 1A0A                                           i2u819_40 1DD0  
                                         i2u771_40 1AA0                                           i2u763_40 1A20  
                                         i2u819_41 1DCC                                           i2u771_41 1A9C  
                                         i2u763_41 1A1C                                           i2u780_40 1B38  
                                         i2u772_40 1AB0                                           i2u764_40 1A2E  
                                         i2u780_41 1B34                                           i2u772_41 1AAC  
                                         i2u764_41 1A2A                                           i2u781_40 1B50  
                                         i2u773_40 1AC8                                           i2u765_40 1A40  
                                         i2u781_41 1B4C                                           i2u773_41 1AC4  
                                         i2u765_41 1A3C                                           i2u790_40 1BE6  
                                         i2u782_40 1B5E                                           i2u774_40 1AD6  
                                         i2u766_40 1A4E                                           i2u790_41 1BE2  
                                         i2u782_41 1B5A                                           i2u774_41 1AD2  
                                         i2u766_41 1A4A                                           i2u791_40 1BF4  
                                         i2u783_40 1B6C                                           i2u775_40 1AE4  
                                         i2u767_40 1A5C                                           i2u759_40 19E0  
                                         i2u791_41 1BF0                                           i2u783_41 1B68  
                                         i2u775_41 1AE0                                           i2u767_41 1A58  
                                         i2u759_41 19DC                                           i2u792_40 1C04  
                                         i2u784_40 1B7C                                           i2u776_40 1AF4  
                                         i2u768_40 1A6C                                           i2u792_41 1C00  
                                         i2u784_41 1B78                                           i2u776_41 1AF0  
                                         i2u768_41 1A68                                           i2u793_40 1C1C  
                                         i2u785_40 1B94                                           i2u777_40 1B0C  
                                         i2u769_40 1A84                                           i2u793_41 1C18  
                                         i2u785_41 1B90                                           i2u777_41 1B08  
                                         i2u769_41 1A80                                           i2u794_40 1C2A  
                                         i2u786_40 1BA2                                           i2u778_40 1B1A  
                                         i2u794_41 1C26                                           i2u786_41 1B9E  
                                         i2u778_41 1B16                                           i2u795_40 1C38  
                                         i2u787_40 1BB0                                           i2u779_40 1B28  
                                         i2u795_41 1C34                                           i2u787_41 1BAC  
                                         i2u779_41 1B24                                           i2u796_40 1C48  
                                         i2u788_40 1BC0                                           i2u796_41 1C44  
                                         i2u788_41 1BBC                                           i2u797_40 1C60  
                                         i2u789_40 1BD8                                           i2u797_41 1C5C  
                                         i2u789_41 1BD4                                           i2u798_40 1C6E  
                                         i2u798_41 1C6A                                           i2u799_40 1C80  
                                         i2u799_41 1C7C                                          _slave_ack 006C  
                              _dc_motor_initialize 35A8                       dc_motor_initialize@_dc_motor 0021  
                fp__Timer0_DefaultInterruptHandler 0000                   ??_Timer0_DefaultInterruptHandler 000C  
                  ?_Timer0_DefaultInterruptHandler 0001                                           _TMR0_ISR 3714  
                                         _TMR1_ISR 38F0                                           _TMR2_ISR 38FC  
                                         _TMR3_ISR 38D6                     ?_MSSP_I2C_Master_Read_Blocking 0013  
                                        _timer_obj 00F5               I2C_Slave_Mode_Configurations@i2c_obj 0013  
        MSSP_I2C_EXT_Device_Write_1_Byte@slave_add 001B                                         _ADCON0bits 0FC2  
        MSSP_I2C_EXT_Device_Write_1_Byte@slave_ack 001E                                         _ADCON1bits 0FC1  
                                       _ADCON2bits 0FC0                            __end_of_MSSP_I2C_BC_ISR 3918  
                  __end_of_Timer0_Prescaler_Config 33E6                               ??_gpio_pin_intialize 001F  
                                        _usart_obj 0122                        __end_of_check_password_ctrl 34DA  
                             ?_dc_motor_initialize 0021                            gpio_pin_write_logic@ret 001C  
                                      _INTCON2bits 0FF1                                        _INTCON3bits 0FF0  
                                        copy_data0 3158                                          copy_data1 3178  
                                        copy_data2 3198                                _dc_motor_move_right 3624  
                                       _EECON1bits 0FA6                                   MSSP_I2C_Init@ret 00FF  
                                         __Hrparam 0000                                           __Lrparam 0000  
           EUSART_ASYNC_WriteByteNonBlocking@_data 0013                     ??_EUSART_Baud_Rate_Calculation 00FE  
                      EUSART_ASYNC_RX_Init@_eusart 0013                             _user_received_password 0080  
                                RB6_ISR@RB6_Source 0001                              _CCP1_InterruptHandler 00BE  
                             ?_dc_motor_move_right 001D                                 _Timer0_Mode_Select 31D2  
                               __end_of_btn_values 1011                         ?_MSSP_I2C_Master_Send_Stop 0013  
                            _TMR1_InterruptHandler 0098                  MSSP_I2C_Master_Send_Start@i2c_obj 0013  
                                         ___xxtofl 21CA                                       _MSSP_I2C_ISR 3910  
                                    ??_unlock_door 001F              MSSP_I2C_Master_Read_Blocking@i2c_data 0016  
                            ??_dc_motor_initialize 0023                                ?_Timer0_Mode_Select 0013  
                                         __ptext10 2ED0                                           __ptext11 35E6  
                                         __ptext20 1016                                           __ptext12 338E  
                                         __ptext21 21CA                                           __ptext13 31D2  
                                         __ptext30 3524                                           __ptext22 2B62  
                                         __ptext14 2530                                           __ptext31 3566  
                                         __ptext23 1E30                                           __ptext15 3904  
                                         __ptext40 332C                                           __ptext32 3780  
                                         __ptext24 14F8                                           __ptext16 34DA  
                                         __ptext41 369C                                           __ptext33 3010  
                                         __ptext25 2E1C                                           __ptext17 3812  
                                         __ptext50 3914                                           __ptext42 36D8  
                                         __ptext34 382E                                           __ptext26 2C68  
                                         __ptext18 2F74                                           __ptext51 3918  
                                         __ptext43 2A40                                           __ptext27 30AC  
                                         __ptext19 343E                                           __ptext60 3930  
                                         __ptext52 391C                                           __ptext44 3848  
                                         __ptext36 38D6                                           __ptext28 2D44  
                                         __ptext61 0000                                           __ptext53 3920  
                                         __ptext45 3862                                           __ptext37 38FC  
                                         __ptext29 3250                                           __ptext54 3924  
                                         __ptext46 387C                                           __ptext38 38F0  
                                         __ptext55 33E6                                           __ptext47 3896  
                                         __ptext39 3714                                           __ptext56 268A  
                                         __ptext48 390A                                           __ptext57 37E8  
                                         __ptext49 3910                                           __ptext58 3928  
                                         __ptext59 392C        I2C_Master_Mode_Clock_Configurations@i2c_obj 0054  
                                      _rec_counter 0069                                       _ret_password 00C5  
                     MSSP_I2C_Master_Send_Stop@ret 0015                                    ??_MSSP_I2C_Init 0056  
                                         _rec_falg 0068                                       _MSSP_SPI_ISR 390A  
                                 ??_ecu_layer_init 0024                               ??_Timer0_Mode_Select 0015  
                                         isa$xinst 0000                                        _no_of_tries 0064  
                                         int$flags 006D                              ??_dc_motor_move_right 001F  
                                   Timer0_Init@ret 001A                           Timer0_Mode_Select@_timer 0013  
                                 ?_MSSP_I2C_BC_ISR 0001                  __end_of_MSSP_I2C_Master_Send_Stop 3566  
                               _dc_motor_move_left 36D8                                         _INTCONbits 0FF2  
      MSSP_I2C_EXT_Device_Read_1_Byte@byte_address 001C                                      _eeprom_value1 0086  
                     __end_of_gpio_pin_write_logic 2A40                                ?_dc_motor_move_left 000A  
                                         intlevel2 0000                                __end_of_unlock_door 38C8  
                        _EUSART_TxInterruptHandler 0090                            ?i2_gpio_pin_write_logic 0001  
                             ??_dc_motor_move_left 000C                                        _timer0_falg 0067  
                     dc_motor_move_right@_dc_motor 001D          __end_of_MSSP_I2C_Interrupt_Configurations 3524  
              ??_MSSP_I2C_Interrupt_Configurations 0015                 ?_MSSP_I2C_Interrupt_Configurations 0013  
                _MSSP_I2C_Interrupt_Configurations 34DA                                        _uart_choice 006B  
                                   _port_registers 0100             __end_of_MSSP_I2C_Master_Write_Blocking 32C0  
                   _MSSP_I2C_Master_Write_Blocking 3250                                        _SSPCON1bits 0FC6  
                                      _SSPCON2bits 0FC5                                      ___fladd@signs 0046  
                            _CCP2_InterruptHandler 00BC                               check_password_ctrl@i 0015  
                                     ___fladd@aexp 0047                                       ___fladd@bexp 0048  
                   __end_ofi2_gpio_pin_write_logic 2B62                              _TMR2_InterruptHandler 0096  
                                ?_InterruptManager 0001                              __end_of_dc_motor_stop 36D8  
